; Listing generated by Microsoft (R) Optimizing Compiler Version 19.50.35727.0 

include listing.inc

INCLUDELIB MSVCRT
INCLUDELIB OLDNAMES

PUBLIC	?defaultTextureID@Cube@@2IA			; Cube::defaultTextureID
PUBLIC	_Avx2WmemEnabledWeakValue
PUBLIC	?g_PXSinCoefficients0@aos@physx@@3UPX_VECTORF32@12@B ; physx::aos::g_PXSinCoefficients0
PUBLIC	?g_PXSinCoefficients1@aos@physx@@3UPX_VECTORF32@12@B ; physx::aos::g_PXSinCoefficients1
PUBLIC	?g_PXSinCoefficients2@aos@physx@@3UPX_VECTORF32@12@B ; physx::aos::g_PXSinCoefficients2
PUBLIC	?g_PXCosCoefficients0@aos@physx@@3UPX_VECTORF32@12@B ; physx::aos::g_PXCosCoefficients0
PUBLIC	?g_PXCosCoefficients1@aos@physx@@3UPX_VECTORF32@12@B ; physx::aos::g_PXCosCoefficients1
PUBLIC	?g_PXCosCoefficients2@aos@physx@@3UPX_VECTORF32@12@B ; physx::aos::g_PXCosCoefficients2
PUBLIC	?g_PXReciprocalTwoPi@aos@physx@@3UPX_VECTORF32@12@B ; physx::aos::g_PXReciprocalTwoPi
PUBLIC	?g_PXTwoPi@aos@physx@@3UPX_VECTORF32@12@B	; physx::aos::g_PXTwoPi
_BSS	SEGMENT
?defaultTextureID@Cube@@2IA DD 01H DUP (?)		; Cube::defaultTextureID
_BSS	ENDS
;	COMDAT _Avx2WmemEnabledWeakValue
_BSS	SEGMENT
_Avx2WmemEnabledWeakValue DD 01H DUP (?)
_BSS	ENDS
;	COMDAT ?g_PXTwoPi@aos@physx@@3UPX_VECTORF32@12@B
CONST	SEGMENT
?g_PXTwoPi@aos@physx@@3UPX_VECTORF32@12@B DD 040c90fdbr ; 6.28319 ; physx::aos::g_PXTwoPi
	DD	040c90fdbr			; 6.28319
	DD	040c90fdbr			; 6.28319
	DD	040c90fdbr			; 6.28319
CONST	ENDS
;	COMDAT ?g_PXReciprocalTwoPi@aos@physx@@3UPX_VECTORF32@12@B
CONST	SEGMENT
?g_PXReciprocalTwoPi@aos@physx@@3UPX_VECTORF32@12@B DD 03e22f983r ; 0.159155 ; physx::aos::g_PXReciprocalTwoPi
	DD	03e22f983r			; 0.159155
	DD	03e22f983r			; 0.159155
	DD	03e22f983r			; 0.159155
CONST	ENDS
;	COMDAT ?g_PXCosCoefficients2@aos@physx@@3UPX_VECTORF32@12@B
CONST	SEGMENT
?g_PXCosCoefficients2@aos@physx@@3UPX_VECTORF32@12@B DD 029573f9fr ; 4.77948e-14 ; physx::aos::g_PXCosCoefficients2
	DD	0a53413c3r			; -1.56192e-16
	DD	020f2a15dr			; 4.11032e-19
	DD	09c8671cbr			; -8.89679e-22
CONST	ENDS
;	COMDAT ?g_PXCosCoefficients1@aos@physx@@3UPX_VECTORF32@12@B
CONST	SEGMENT
?g_PXCosCoefficients1@aos@physx@@3UPX_VECTORF32@12@B DD 037d00d01r ; 2.48016e-05 ; physx::aos::g_PXCosCoefficients1
	DD	0b493f27er			; -2.75573e-07
	DD	0310f76c8r			; 2.08768e-09
	DD	0ad49cba5r			; -1.14707e-11
CONST	ENDS
;	COMDAT ?g_PXCosCoefficients0@aos@physx@@3UPX_VECTORF32@12@B
CONST	SEGMENT
?g_PXCosCoefficients0@aos@physx@@3UPX_VECTORF32@12@B DD 03f800000r ; 1 ; physx::aos::g_PXCosCoefficients0
	DD	0bf000000r			; -0.5
	DD	03d2aaaabr			; 0.0416667
	DD	0bab60b61r			; -0.00138889
CONST	ENDS
;	COMDAT ?g_PXSinCoefficients2@aos@physx@@3UPX_VECTORF32@12@B
CONST	SEGMENT
?g_PXSinCoefficients2@aos@physx@@3UPX_VECTORF32@12@B DD 0274a963cr ; 2.81146e-15 ; physx::aos::g_PXSinCoefficients2
	DD	0a317a4dar			; -8.22064e-18
	DD	01eb8dc78r			; 1.95729e-20
	DD	09a3b0da1r			; -3.86817e-23
CONST	ENDS
;	COMDAT ?g_PXSinCoefficients1@aos@physx@@3UPX_VECTORF32@12@B
CONST	SEGMENT
?g_PXSinCoefficients1@aos@physx@@3UPX_VECTORF32@12@B DD 03638ef1dr ; 2.75573e-06 ; physx::aos::g_PXSinCoefficients1
	DD	0b2d7322br			; -2.50521e-08
	DD	02f309231r			; 1.6059e-10
	DD	0ab573f9fr			; -7.64716e-13
CONST	ENDS
;	COMDAT ?g_PXSinCoefficients0@aos@physx@@3UPX_VECTORF32@12@B
CONST	SEGMENT
?g_PXSinCoefficients0@aos@physx@@3UPX_VECTORF32@12@B DD 03f800000r ; 1 ; physx::aos::g_PXSinCoefficients0
	DD	0be2aaaabr			; -0.166667
	DD	03c088889r			; 0.00833333
	DD	0b9500d01r			; -0.000198413
CONST	ENDS
CONST	SEGMENT
?gMaskXYZ@internalSimd@aos@physx@@3QBIB DD 0ffffffffH	; physx::aos::internalSimd::gMaskXYZ
	DD	0ffffffffH
	DD	0ffffffffH
	DD	00H
?minus1w@?A0x37611fc5@aos@physx@@3QBMB DD 000000000r ; 0 ; physx::aos::`anonymous namespace'::minus1w
	DD	000000000r			; 0
	DD	000000000r			; 0
	DD	0bf800000r			; -1
CONST	ENDS
PUBLIC	??_H@YAXPEAX_K1P6APEAX0@Z@Z			; `vector constructor iterator'
PUBLIC	?__empty_global_delete@@YAXPEAX@Z		; __empty_global_delete
PUBLIC	?__empty_global_delete@@YAXPEAX_K@Z		; __empty_global_delete
PUBLIC	?__empty_global_delete@@YAXPEAXW4align_val_t@std@@@Z ; __empty_global_delete
PUBLIC	?__empty_global_delete@@YAXPEAX_KW4align_val_t@std@@@Z ; __empty_global_delete
PUBLIC	??2@YAPEAX_KPEAX@Z				; operator new
PUBLIC	?is_constant_evaluated@std@@YA_NXZ		; std::is_constant_evaluated
PUBLIC	wmemcpy
PUBLIC	?copy@?$_Char_traits@DH@std@@SAPEADQEADQEBD_K@Z	; std::_Char_traits<char,int>::copy
PUBLIC	?compare@?$_Narrow_char_traits@DH@std@@SAHQEBD0_K@Z ; std::_Narrow_char_traits<char,int>::compare
PUBLIC	?length@?$_Narrow_char_traits@DH@std@@SA_KQEBD@Z ; std::_Narrow_char_traits<char,int>::length
PUBLIC	?assign@?$_Narrow_char_traits@DH@std@@SAXAEADAEBD@Z ; std::_Narrow_char_traits<char,int>::assign
PUBLIC	??$min@_K@std@@YAAEB_KAEB_K0@Z			; std::min<unsigned __int64>
PUBLIC	??0exception@std@@QEAA@QEBDH@Z			; std::exception::exception
PUBLIC	??0exception@std@@QEAA@AEBV01@@Z		; std::exception::exception
PUBLIC	??1exception@std@@UEAA@XZ			; std::exception::~exception
PUBLIC	?what@exception@std@@UEBAPEBDXZ			; std::exception::what
PUBLIC	??_Gexception@std@@UEAAPEAXI@Z			; std::exception::`scalar deleting destructor'
PUBLIC	??0bad_alloc@std@@AEAA@QEBD@Z			; std::bad_alloc::bad_alloc
PUBLIC	??1bad_alloc@std@@UEAA@XZ			; std::bad_alloc::~bad_alloc
PUBLIC	??0bad_alloc@std@@QEAA@AEBV01@@Z		; std::bad_alloc::bad_alloc
PUBLIC	??_Gbad_alloc@std@@UEAAPEAXI@Z			; std::bad_alloc::`scalar deleting destructor'
PUBLIC	??0bad_array_new_length@std@@QEAA@XZ		; std::bad_array_new_length::bad_array_new_length
PUBLIC	??1bad_array_new_length@std@@UEAA@XZ		; std::bad_array_new_length::~bad_array_new_length
PUBLIC	??0bad_array_new_length@std@@QEAA@AEBV01@@Z	; std::bad_array_new_length::bad_array_new_length
PUBLIC	??_Gbad_array_new_length@std@@UEAAPEAXI@Z	; std::bad_array_new_length::`scalar deleting destructor'
PUBLIC	?_Throw_bad_array_new_length@std@@YAXXZ		; std::_Throw_bad_array_new_length
PUBLIC	?_Allocate@_Default_allocate_traits@std@@SAPEAX_K@Z ; std::_Default_allocate_traits::_Allocate
PUBLIC	?_Adjust_manually_vector_aligned@std@@YAXAEAPEAXAEA_K@Z ; std::_Adjust_manually_vector_aligned
PUBLIC	?_Orphan_all@_Container_base0@std@@QEAAXXZ	; std::_Container_base0::_Orphan_all
PUBLIC	?_Swap_proxy_and_iterators@_Container_base0@std@@QEAAXAEAU12@@Z ; std::_Container_base0::_Swap_proxy_and_iterators
PUBLIC	?_Alloc_proxy@_Container_base0@std@@QEAAXAEBU_Fake_allocator@2@@Z ; std::_Container_base0::_Alloc_proxy
PUBLIC	??0_Fake_proxy_ptr_impl@std@@QEAA@AEBU_Fake_allocator@1@AEBU_Container_base0@1@@Z ; std::_Fake_proxy_ptr_impl::_Fake_proxy_ptr_impl
PUBLIC	?_Release@_Fake_proxy_ptr_impl@std@@QEAAXXZ	; std::_Fake_proxy_ptr_impl::_Release
PUBLIC	?_Xlen_string@std@@YAXXZ			; std::_Xlen_string
PUBLIC	??0?$allocator@D@std@@QEAA@XZ			; std::allocator<char>::allocator<char>
PUBLIC	?deallocate@?$allocator@D@std@@QEAAXQEAD_K@Z	; std::allocator<char>::deallocate
PUBLIC	?allocate@?$allocator@D@std@@QEAAPEAD_K@Z	; std::allocator<char>::allocate
PUBLIC	?max_size@?$_Default_allocator_traits@V?$allocator@D@std@@@std@@SA_KAEBV?$allocator@D@2@@Z ; std::_Default_allocator_traits<std::allocator<char> >::max_size
PUBLIC	?select_on_container_copy_construction@?$_Default_allocator_traits@V?$allocator@D@std@@@std@@SA?AV?$allocator@D@2@AEBV32@@Z ; std::_Default_allocator_traits<std::allocator<char> >::select_on_container_copy_construction
PUBLIC	??0?$_String_val@U?$_Simple_types@D@std@@@std@@QEAA@XZ ; std::_String_val<std::_Simple_types<char> >::_String_val<std::_Simple_types<char> >
PUBLIC	?_Myptr@?$_String_val@U?$_Simple_types@D@std@@@std@@QEBAPEBDXZ ; std::_String_val<std::_Simple_types<char> >::_Myptr
PUBLIC	?_Large_mode_engaged@?$_String_val@U?$_Simple_types@D@std@@@std@@QEBA_NXZ ; std::_String_val<std::_Simple_types<char> >::_Large_mode_engaged
PUBLIC	??0_Bxty@?$_String_val@U?$_Simple_types@D@std@@@std@@QEAA@XZ ; std::_String_val<std::_Simple_types<char> >::_Bxty::_Bxty
PUBLIC	??1_Bxty@?$_String_val@U?$_Simple_types@D@std@@@std@@QEAA@XZ ; std::_String_val<std::_Simple_types<char> >::_Bxty::~_Bxty
PUBLIC	?_Switch_to_buf@_Bxty@?$_String_val@U?$_Simple_types@D@std@@@std@@QEAAXXZ ; std::_String_val<std::_Simple_types<char> >::_Bxty::_Switch_to_buf
PUBLIC	??1?$_String_val@U?$_Simple_types@D@std@@@std@@QEAA@XZ ; std::_String_val<std::_Simple_types<char> >::~_String_val<std::_Simple_types<char> >
PUBLIC	??0?$basic_string@DU?$char_traits@D@std@@V?$allocator@D@2@@std@@QEAA@AEBV01@@Z ; std::basic_string<char,std::char_traits<char>,std::allocator<char> >::basic_string<char,std::char_traits<char>,std::allocator<char> >
PUBLIC	??0?$basic_string@DU?$char_traits@D@std@@V?$allocator@D@2@@std@@QEAA@QEBD@Z ; std::basic_string<char,std::char_traits<char>,std::allocator<char> >::basic_string<char,std::char_traits<char>,std::allocator<char> >
PUBLIC	?_Deallocate_for_capacity@?$basic_string@DU?$char_traits@D@std@@V?$allocator@D@2@@std@@CAXAEAV?$allocator@D@2@QEAD_K@Z ; std::basic_string<char,std::char_traits<char>,std::allocator<char> >::_Deallocate_for_capacity
PUBLIC	??1?$basic_string@DU?$char_traits@D@std@@V?$allocator@D@2@@std@@QEAA@XZ ; std::basic_string<char,std::char_traits<char>,std::allocator<char> >::~basic_string<char,std::char_traits<char>,std::allocator<char> >
PUBLIC	?max_size@?$basic_string@DU?$char_traits@D@std@@V?$allocator@D@2@@std@@QEBA_KXZ ; std::basic_string<char,std::char_traits<char>,std::allocator<char> >::max_size
PUBLIC	?_Equal@?$basic_string@DU?$char_traits@D@std@@V?$allocator@D@2@@std@@QEBA_NQEBD@Z ; std::basic_string<char,std::char_traits<char>,std::allocator<char> >::_Equal
PUBLIC	?_Calculate_growth@?$basic_string@DU?$char_traits@D@std@@V?$allocator@D@2@@std@@CA_K_K00@Z ; std::basic_string<char,std::char_traits<char>,std::allocator<char> >::_Calculate_growth
PUBLIC	?_Tidy_deallocate@?$basic_string@DU?$char_traits@D@std@@V?$allocator@D@2@@std@@AEAAXXZ ; std::basic_string<char,std::char_traits<char>,std::allocator<char> >::_Tidy_deallocate
PUBLIC	?_Getal@?$basic_string@DU?$char_traits@D@std@@V?$allocator@D@2@@std@@AEAAAEAV?$allocator@D@2@XZ ; std::basic_string<char,std::char_traits<char>,std::allocator<char> >::_Getal
PUBLIC	?_Getal@?$basic_string@DU?$char_traits@D@std@@V?$allocator@D@2@@std@@AEBAAEBV?$allocator@D@2@XZ ; std::basic_string<char,std::char_traits<char>,std::allocator<char> >::_Getal
PUBLIC	?_Get_first@?$_Compressed_pair@V?$allocator@D@std@@V?$_String_val@U?$_Simple_types@D@std@@@2@$00@std@@QEAAAEAV?$allocator@D@2@XZ ; std::_Compressed_pair<std::allocator<char>,std::_String_val<std::_Simple_types<char> >,1>::_Get_first
PUBLIC	?_Get_first@?$_Compressed_pair@V?$allocator@D@std@@V?$_String_val@U?$_Simple_types@D@std@@@2@$00@std@@QEBAAEBV?$allocator@D@2@XZ ; std::_Compressed_pair<std::allocator<char>,std::_String_val<std::_Simple_types<char> >,1>::_Get_first
PUBLIC	??1?$_Compressed_pair@V?$allocator@D@std@@V?$_String_val@U?$_Simple_types@D@std@@@2@$00@std@@QEAA@XZ ; std::_Compressed_pair<std::allocator<char>,std::_String_val<std::_Simple_types<char> >,1>::~_Compressed_pair<std::allocator<char>,std::_String_val<std::_Simple_types<char> >,1>
PUBLIC	??0Vector3@@QEAA@MMM@Z				; Vector3::Vector3
PUBLIC	?_Maklocwcs@std@@YAPEA_WPEB_W@Z			; std::_Maklocwcs
PUBLIC	??$_Max_limit@_J@std@@YA_JXZ			; std::_Max_limit<__int64>
PUBLIC	??$_Getvals@_W@?$time_get@DV?$istreambuf_iterator@DU?$char_traits@D@std@@@std@@@std@@IEAAX_WAEBV_Locinfo@1@@Z ; std::time_get<char,std::istreambuf_iterator<char,std::char_traits<char> > >::_Getvals<wchar_t>
PUBLIC	??$_Getvals@_W@?$time_get@_WV?$istreambuf_iterator@_WU?$char_traits@_W@std@@@std@@@std@@IEAAX_WAEBV_Locinfo@1@@Z ; std::time_get<wchar_t,std::istreambuf_iterator<wchar_t,std::char_traits<wchar_t> > >::_Getvals<wchar_t>
PUBLIC	?FLoad@aos@physx@@YA?AT__m128@@M@Z		; physx::aos::FLoad
PUBLIC	?V3Load@aos@physx@@YA?AT__m128@@M@Z		; physx::aos::V3Load
PUBLIC	?V4Load@aos@physx@@YA?AT__m128@@M@Z		; physx::aos::V4Load
PUBLIC	??0Vertex@@QEAA@XZ				; Vertex::Vertex
PUBLIC	?createCubeVertices@@YA?AV?$vector@UVertex@@V?$allocator@UVertex@@@std@@@std@@M@Z ; createCubeVertices
PUBLIC	??0Cube@@QEAA@UVector3@@0I@Z			; Cube::Cube
PUBLIC	?setFaceTexture@Cube@@QEAAXHI@Z			; Cube::setFaceTexture
PUBLIC	?draw@Cube@@QEAAXHH@Z				; Cube::draw
PUBLIC	?GetClassName@Cube@@UEAA?AV?$basic_string@DU?$char_traits@D@std@@V?$allocator@D@2@@std@@XZ ; Cube::GetClassName
PUBLIC	?IsA@Cube@@UEAA_NV?$basic_string@DU?$char_traits@D@std@@V?$allocator@D@2@@std@@@Z ; Cube::IsA
PUBLIC	??1Cube@@UEAA@XZ				; Cube::~Cube
PUBLIC	??_GCube@@UEAAPEAXI@Z				; Cube::`scalar deleting destructor'
PUBLIC	??0?$allocator@UVertex@@@std@@QEAA@XZ		; std::allocator<Vertex>::allocator<Vertex>
PUBLIC	?deallocate@?$allocator@UVertex@@@std@@QEAAXQEAUVertex@@_K@Z ; std::allocator<Vertex>::deallocate
PUBLIC	?allocate@?$allocator@UVertex@@@std@@QEAAPEAUVertex@@_K@Z ; std::allocator<Vertex>::allocate
PUBLIC	?max_size@?$_Default_allocator_traits@V?$allocator@UVertex@@@std@@@std@@SA_KAEBV?$allocator@UVertex@@@2@@Z ; std::_Default_allocator_traits<std::allocator<Vertex> >::max_size
PUBLIC	??0?$vector@UVertex@@V?$allocator@UVertex@@@std@@@std@@QEAA@XZ ; std::vector<Vertex,std::allocator<Vertex> >::vector<Vertex,std::allocator<Vertex> >
PUBLIC	??0?$vector@UVertex@@V?$allocator@UVertex@@@std@@@std@@QEAA@$$QEAV01@@Z ; std::vector<Vertex,std::allocator<Vertex> >::vector<Vertex,std::allocator<Vertex> >
PUBLIC	??1?$vector@UVertex@@V?$allocator@UVertex@@@std@@@std@@QEAA@XZ ; std::vector<Vertex,std::allocator<Vertex> >::~vector<Vertex,std::allocator<Vertex> >
PUBLIC	?push_back@?$vector@UVertex@@V?$allocator@UVertex@@@std@@@std@@QEAAXAEBUVertex@@@Z ; std::vector<Vertex,std::allocator<Vertex> >::push_back
PUBLIC	?max_size@?$vector@UVertex@@V?$allocator@UVertex@@@std@@@std@@QEBA_KXZ ; std::vector<Vertex,std::allocator<Vertex> >::max_size
PUBLIC	?capacity@?$vector@UVertex@@V?$allocator@UVertex@@@std@@@std@@QEBA_KXZ ; std::vector<Vertex,std::allocator<Vertex> >::capacity
PUBLIC	?_Calculate_growth@?$vector@UVertex@@V?$allocator@UVertex@@@std@@@std@@AEBA_K_K@Z ; std::vector<Vertex,std::allocator<Vertex> >::_Calculate_growth
PUBLIC	?_Change_array@?$vector@UVertex@@V?$allocator@UVertex@@@std@@@std@@AEAAXQEAUVertex@@_K1@Z ; std::vector<Vertex,std::allocator<Vertex> >::_Change_array
PUBLIC	?_Tidy@?$vector@UVertex@@V?$allocator@UVertex@@@std@@@std@@AEAAXXZ ; std::vector<Vertex,std::allocator<Vertex> >::_Tidy
PUBLIC	?_Xlength@?$vector@UVertex@@V?$allocator@UVertex@@@std@@@std@@CAXXZ ; std::vector<Vertex,std::allocator<Vertex> >::_Xlength
PUBLIC	?_Orphan_range@?$vector@UVertex@@V?$allocator@UVertex@@@std@@@std@@AEBAXPEAUVertex@@0@Z ; std::vector<Vertex,std::allocator<Vertex> >::_Orphan_range
PUBLIC	?_Getal@?$vector@UVertex@@V?$allocator@UVertex@@@std@@@std@@AEAAAEAV?$allocator@UVertex@@@2@XZ ; std::vector<Vertex,std::allocator<Vertex> >::_Getal
PUBLIC	?_Getal@?$vector@UVertex@@V?$allocator@UVertex@@@std@@@std@@AEBAAEBV?$allocator@UVertex@@@2@XZ ; std::vector<Vertex,std::allocator<Vertex> >::_Getal
PUBLIC	??0?$_Vector_val@U?$_Simple_types@UVertex@@@std@@@std@@QEAA@XZ ; std::_Vector_val<std::_Simple_types<Vertex> >::_Vector_val<std::_Simple_types<Vertex> >
PUBLIC	??0?$_Vector_val@U?$_Simple_types@UVertex@@@std@@@std@@QEAA@PEAUVertex@@00@Z ; std::_Vector_val<std::_Simple_types<Vertex> >::_Vector_val<std::_Simple_types<Vertex> >
PUBLIC	?_Get_first@?$_Compressed_pair@V?$allocator@UVertex@@@std@@V?$_Vector_val@U?$_Simple_types@UVertex@@@std@@@2@$00@std@@QEAAAEAV?$allocator@UVertex@@@2@XZ ; std::_Compressed_pair<std::allocator<Vertex>,std::_Vector_val<std::_Simple_types<Vertex> >,1>::_Get_first
PUBLIC	?_Get_first@?$_Compressed_pair@V?$allocator@UVertex@@@std@@V?$_Vector_val@U?$_Simple_types@UVertex@@@std@@@2@$00@std@@QEBAAEBV?$allocator@UVertex@@@2@XZ ; std::_Compressed_pair<std::allocator<Vertex>,std::_Vector_val<std::_Simple_types<Vertex> >,1>::_Get_first
PUBLIC	??$?8DU?$char_traits@D@std@@V?$allocator@D@1@@std@@YA_NAEBV?$basic_string@DU?$char_traits@D@std@@V?$allocator@D@2@@0@QEBD@Z ; std::operator==<char,std::char_traits<char>,std::allocator<char> >
PUBLIC	??$_Emplace_one_at_back@AEBUVertex@@@?$vector@UVertex@@V?$allocator@UVertex@@@std@@@std@@AEAAAEAUVertex@@AEBU2@@Z ; std::vector<Vertex,std::allocator<Vertex> >::_Emplace_one_at_back<Vertex const &>
PUBLIC	??$move@AEAV?$allocator@UVertex@@@std@@@std@@YA$$QEAV?$allocator@UVertex@@@0@AEAV10@@Z ; std::move<std::allocator<Vertex> &>
PUBLIC	??$exchange@PEAUVertex@@$$T@std@@YAPEAUVertex@@AEAPEAU1@$$QEA$$T@Z ; std::exchange<Vertex *,std::nullptr_t>
PUBLIC	??$?0V?$allocator@UVertex@@@std@@PEAUVertex@@PEAU2@PEAU2@@?$_Compressed_pair@V?$allocator@UVertex@@@std@@V?$_Vector_val@U?$_Simple_types@UVertex@@@std@@@2@$00@std@@QEAA@U_One_then_variadic_args_t@1@$$QEAV?$allocator@UVertex@@@1@$$QEAPEAUVertex@@22@Z ; std::_Compressed_pair<std::allocator<Vertex>,std::_Vector_val<std::_Simple_types<Vertex> >,1>::_Compressed_pair<std::allocator<Vertex>,std::_Vector_val<std::_Simple_types<Vertex> >,1><std::allocator<Vertex>,Vertex *,Vertex *,Vertex *>
PUBLIC	??$_Get_proxy_allocator@V?$allocator@UVertex@@@std@@@std@@YA?AU_Fake_allocator@0@AEBV?$allocator@UVertex@@@0@@Z ; std::_Get_proxy_allocator<std::allocator<Vertex> >
PUBLIC	??$?0$$V@?$_Compressed_pair@V?$allocator@UVertex@@@std@@V?$_Vector_val@U?$_Simple_types@UVertex@@@std@@@2@$00@std@@QEAA@U_Zero_then_variadic_args_t@1@@Z ; std::_Compressed_pair<std::allocator<Vertex>,std::_Vector_val<std::_Simple_types<Vertex> >,1>::_Compressed_pair<std::allocator<Vertex>,std::_Vector_val<std::_Simple_types<Vertex> >,1><>
PUBLIC	??$_Unfancy@D@std@@YAPEADPEAD@Z			; std::_Unfancy<char>
PUBLIC	??$_Convert_size@_K_K@std@@YA_K_K@Z		; std::_Convert_size<unsigned __int64,unsigned __int64>
PUBLIC	??$?0V?$allocator@D@std@@$$V@?$_Compressed_pair@V?$allocator@D@std@@V?$_String_val@U?$_Simple_types@D@std@@@2@$00@std@@QEAA@U_One_then_variadic_args_t@1@$$QEAV?$allocator@D@1@@Z ; std::_Compressed_pair<std::allocator<char>,std::_String_val<std::_Simple_types<char> >,1>::_Compressed_pair<std::allocator<char>,std::_String_val<std::_Simple_types<char> >,1><std::allocator<char> >
PUBLIC	??$_Get_proxy_allocator@V?$allocator@D@std@@@std@@YA?AU_Fake_allocator@0@AEBV?$allocator@D@0@@Z ; std::_Get_proxy_allocator<std::allocator<char> >
PUBLIC	??$?0$$V@?$_Compressed_pair@V?$allocator@D@std@@V?$_String_val@U?$_Simple_types@D@std@@@2@$00@std@@QEAA@U_Zero_then_variadic_args_t@1@@Z ; std::_Compressed_pair<std::allocator<char>,std::_String_val<std::_Simple_types<char> >,1>::_Compressed_pair<std::allocator<char>,std::_String_val<std::_Simple_types<char> >,1><>
PUBLIC	??$_Construct@$00PEBD@?$basic_string@DU?$char_traits@D@std@@V?$allocator@D@2@@std@@AEAAXQEBD_K@Z ; std::basic_string<char,std::char_traits<char>,std::allocator<char> >::_Construct<1,char const *>
PUBLIC	??$_Construct@$01PEBD@?$basic_string@DU?$char_traits@D@std@@V?$allocator@D@2@@std@@AEAAXQEBD_K@Z ; std::basic_string<char,std::char_traits<char>,std::allocator<char> >::_Construct<2,char const *>
PUBLIC	??$_Allocate_for_capacity@$0A@@?$basic_string@DU?$char_traits@D@std@@V?$allocator@D@2@@std@@CAPEADAEAV?$allocator@D@1@AEA_K@Z ; std::basic_string<char,std::char_traits<char>,std::allocator<char> >::_Allocate_for_capacity<0>
PUBLIC	??$_Allocate_at_least_helper@V?$allocator@D@std@@@std@@YAPEADAEAV?$allocator@D@0@AEA_K@Z ; std::_Allocate_at_least_helper<std::allocator<char> >
PUBLIC	??$construct_at@D$$V@std@@YAPEADQEAD@Z		; std::construct_at<char>
PUBLIC	??$_Construct_in_place@PEADAEBQEAD@std@@YAXAEAPEADAEBQEAD@Z ; std::_Construct_in_place<char *,char * const &>
PUBLIC	??$max@_K@std@@YAAEB_KAEB_K0@Z			; std::max<unsigned __int64>
PUBLIC	??$forward@AEBUVertex@@@std@@YAAEBUVertex@@AEBU1@@Z ; std::forward<Vertex const &>
PUBLIC	??$_Emplace_back_with_unused_capacity@AEBUVertex@@@?$vector@UVertex@@V?$allocator@UVertex@@@std@@@std@@AEAAAEAUVertex@@AEBU2@@Z ; std::vector<Vertex,std::allocator<Vertex> >::_Emplace_back_with_unused_capacity<Vertex const &>
PUBLIC	??$_Emplace_reallocate@AEBUVertex@@@?$vector@UVertex@@V?$allocator@UVertex@@@std@@@std@@AEAAPEAUVertex@@QEAU2@AEBU2@@Z ; std::vector<Vertex,std::allocator<Vertex> >::_Emplace_reallocate<Vertex const &>
PUBLIC	??$forward@V?$allocator@UVertex@@@std@@@std@@YA$$QEAV?$allocator@UVertex@@@0@AEAV10@@Z ; std::forward<std::allocator<Vertex> >
PUBLIC	??$forward@PEAUVertex@@@std@@YA$$QEAPEAUVertex@@AEAPEAU1@@Z ; std::forward<Vertex *>
PUBLIC	??$_Traits_copy_batch@U?$char_traits@D@std@@D@std@@YAXQEADQEBD_K@Z ; std::_Traits_copy_batch<std::char_traits<char>,char>
PUBLIC	??$forward@V?$allocator@D@std@@@std@@YA$$QEAV?$allocator@D@0@AEAV10@@Z ; std::forward<std::allocator<char> >
PUBLIC	??$_Destroy_range@V?$allocator@UVertex@@@std@@@std@@YAXPEAUVertex@@QEAU1@AEAV?$allocator@UVertex@@@0@@Z ; std::_Destroy_range<std::allocator<Vertex> >
PUBLIC	??$_Traits_equal@U?$char_traits@D@std@@@std@@YA_NQEBD_K01@Z ; std::_Traits_equal<std::char_traits<char> >
PUBLIC	??$addressof@PEAD@std@@YAPEAPEADAEAPEAD@Z	; std::addressof<char *>
PUBLIC	??$forward@AEBQEAD@std@@YAAEBQEADAEBQEAD@Z	; std::forward<char * const &>
PUBLIC	??$construct_at@PEADAEBQEAD@std@@YAPEAPEADQEAPEADAEBQEAD@Z ; std::construct_at<char *,char * const &>
PUBLIC	??$_Construct_in_place@UVertex@@AEBU1@@std@@YAXAEAUVertex@@AEBU1@@Z ; std::_Construct_in_place<Vertex,Vertex const &>
PUBLIC	??$_Allocate_at_least_helper@V?$allocator@UVertex@@@std@@@std@@YAPEAUVertex@@AEAV?$allocator@UVertex@@@0@AEA_K@Z ; std::_Allocate_at_least_helper<std::allocator<Vertex> >
PUBLIC	??1_Reallocation_guard@?$vector@UVertex@@V?$allocator@UVertex@@@std@@@std@@QEAA@XZ ; std::vector<Vertex,std::allocator<Vertex> >::_Reallocation_guard::~_Reallocation_guard
PUBLIC	??$_Unfancy@UVertex@@@std@@YAPEAUVertex@@PEAU1@@Z ; std::_Unfancy<Vertex>
PUBLIC	??$construct@UVertex@@AEBU1@@?$_Default_allocator_traits@V?$allocator@UVertex@@@std@@@std@@SAXAEAV?$allocator@UVertex@@@1@QEAUVertex@@AEBU3@@Z ; std::_Default_allocator_traits<std::allocator<Vertex> >::construct<Vertex,Vertex const &>
PUBLIC	??$_Uninitialized_move@PEAUVertex@@V?$allocator@UVertex@@@std@@@std@@YAPEAUVertex@@QEAU1@0PEAU1@AEAV?$allocator@UVertex@@@0@@Z ; std::_Uninitialized_move<Vertex *,std::allocator<Vertex> >
PUBLIC	??$_Deallocate@$0BA@@std@@YAXPEAX_K@Z		; std::_Deallocate<16>
PUBLIC	??$_Destroy_in_place@PEAD@std@@YAXAEAPEAD@Z	; std::_Destroy_in_place<char *>
PUBLIC	??$addressof@UVertex@@@std@@YAPEAUVertex@@AEAU1@@Z ; std::addressof<Vertex>
PUBLIC	??$construct_at@UVertex@@AEBU1@@std@@YAPEAUVertex@@QEAU1@AEBU1@@Z ; std::construct_at<Vertex,Vertex const &>
PUBLIC	??$_Get_unwrapped@AEBQEAUVertex@@@std@@YA?A_TAEBQEAUVertex@@@Z ; std::_Get_unwrapped<Vertex * const &>
PUBLIC	??$move@AEAUVertex@@@std@@YA$$QEAUVertex@@AEAU1@@Z ; std::move<Vertex &>
PUBLIC	??$_Copy_memmove@PEAUVertex@@PEAU1@@std@@YAPEAUVertex@@PEAU1@00@Z ; std::_Copy_memmove<Vertex *,Vertex *>
PUBLIC	??0?$_Uninitialized_backout_al@V?$allocator@UVertex@@@std@@@std@@QEAA@PEAUVertex@@AEAV?$allocator@UVertex@@@1@@Z ; std::_Uninitialized_backout_al<std::allocator<Vertex> >::_Uninitialized_backout_al<std::allocator<Vertex> >
PUBLIC	??1?$_Uninitialized_backout_al@V?$allocator@UVertex@@@std@@@std@@QEAA@XZ ; std::_Uninitialized_backout_al<std::allocator<Vertex> >::~_Uninitialized_backout_al<std::allocator<Vertex> >
PUBLIC	?_Release@?$_Uninitialized_backout_al@V?$allocator@UVertex@@@std@@@std@@QEAAPEAUVertex@@XZ ; std::_Uninitialized_backout_al<std::allocator<Vertex> >::_Release
PUBLIC	??$_Emplace_back@UVertex@@@?$_Uninitialized_backout_al@V?$allocator@UVertex@@@std@@@std@@QEAAX$$QEAUVertex@@@Z ; std::_Uninitialized_backout_al<std::allocator<Vertex> >::_Emplace_back<Vertex>
PUBLIC	??$_Get_size_of_n@$0CA@@std@@YA_K_K@Z		; std::_Get_size_of_n<32>
PUBLIC	??$_Allocate@$0BA@U_Default_allocate_traits@std@@@std@@YAPEAX_K@Z ; std::_Allocate<16,std::_Default_allocate_traits>
PUBLIC	??$_Get_size_of_n@$00@std@@YA_K_K@Z		; std::_Get_size_of_n<1>
PUBLIC	??$_To_address@PEAUVertex@@@std@@YA?A_PAEBQEAUVertex@@@Z ; std::_To_address<Vertex *>
PUBLIC	??$to_address@UVertex@@@std@@YAPEAUVertex@@QEAU1@@Z ; std::to_address<Vertex>
PUBLIC	??$move@AEAPEAUVertex@@@std@@YA$$QEAPEAUVertex@@AEAPEAU1@@Z ; std::move<Vertex * &>
PUBLIC	??$_Copy_memmove_tail@PEAUVertex@@@std@@YAPEAUVertex@@QEBDQEAU1@_K2@Z ; std::_Copy_memmove_tail<Vertex *>
PUBLIC	??$forward@UVertex@@@std@@YA$$QEAUVertex@@AEAU1@@Z ; std::forward<Vertex>
PUBLIC	??$construct@UVertex@@U1@@?$_Default_allocator_traits@V?$allocator@UVertex@@@std@@@std@@SAXAEAV?$allocator@UVertex@@@1@QEAUVertex@@$$QEAU3@@Z ; std::_Default_allocator_traits<std::allocator<Vertex> >::construct<Vertex,Vertex>
PUBLIC	??$_Allocate_manually_vector_aligned@U_Default_allocate_traits@std@@@std@@YAPEAX_K@Z ; std::_Allocate_manually_vector_aligned<std::_Default_allocate_traits>
PUBLIC	??$construct_at@UVertex@@U1@@std@@YAPEAUVertex@@QEAU1@$$QEAU1@@Z ; std::construct_at<Vertex,Vertex>
PUBLIC	??_7exception@std@@6B@				; std::exception::`vftable'
PUBLIC	??_C@_0BC@EOODALEL@Unknown?5exception@		; `string'
PUBLIC	??_7bad_alloc@std@@6B@				; std::bad_alloc::`vftable'
PUBLIC	??_7bad_array_new_length@std@@6B@		; std::bad_array_new_length::`vftable'
PUBLIC	??_C@_0BF@KINCDENJ@bad?5array?5new?5length@	; `string'
PUBLIC	??_R0?AVexception@std@@@8			; std::exception `RTTI Type Descriptor'
PUBLIC	_CT??_R0?AVexception@std@@@8??0exception@std@@QEAA@AEBV01@@Z24
PUBLIC	_TI3?AVbad_array_new_length@std@@
PUBLIC	_CTA3?AVbad_array_new_length@std@@
PUBLIC	??_R0?AVbad_array_new_length@std@@@8		; std::bad_array_new_length `RTTI Type Descriptor'
PUBLIC	_CT??_R0?AVbad_array_new_length@std@@@8??0bad_array_new_length@std@@QEAA@AEBV01@@Z24
PUBLIC	??_R0?AVbad_alloc@std@@@8			; std::bad_alloc `RTTI Type Descriptor'
PUBLIC	_CT??_R0?AVbad_alloc@std@@@8??0bad_alloc@std@@QEAA@AEBV01@@Z24
PUBLIC	??_C@_0BA@JFNIOLAK@string?5too?5long@		; `string'
PUBLIC	??_7Cube@@6B@					; Cube::`vftable'
PUBLIC	??_C@_04CJLGPKHJ@Cube@				; `string'
PUBLIC	??_C@_08LILHLMFO@ourColor@			; `string'
PUBLIC	??_C@_1BK@MHIKGOKE@?$AA?3?$AAA?$AAM?$AA?3?$AAa?$AAm?$AA?3?$AAP?$AAM?$AA?3?$AAp?$AAm@ ; `string'
PUBLIC	??_C@_0BA@FOIKENOD@vector?5too?5long@		; `string'
PUBLIC	??_R4exception@std@@6B@				; std::exception::`RTTI Complete Object Locator'
PUBLIC	??_R3exception@std@@8				; std::exception::`RTTI Class Hierarchy Descriptor'
PUBLIC	??_R2exception@std@@8				; std::exception::`RTTI Base Class Array'
PUBLIC	??_R1A@?0A@EA@exception@std@@8			; std::exception::`RTTI Base Class Descriptor at (0,-1,0,64)'
PUBLIC	??_R4bad_array_new_length@std@@6B@		; std::bad_array_new_length::`RTTI Complete Object Locator'
PUBLIC	??_R3bad_array_new_length@std@@8		; std::bad_array_new_length::`RTTI Class Hierarchy Descriptor'
PUBLIC	??_R2bad_array_new_length@std@@8		; std::bad_array_new_length::`RTTI Base Class Array'
PUBLIC	??_R1A@?0A@EA@bad_array_new_length@std@@8	; std::bad_array_new_length::`RTTI Base Class Descriptor at (0,-1,0,64)'
PUBLIC	??_R1A@?0A@EA@bad_alloc@std@@8			; std::bad_alloc::`RTTI Base Class Descriptor at (0,-1,0,64)'
PUBLIC	??_R3bad_alloc@std@@8				; std::bad_alloc::`RTTI Class Hierarchy Descriptor'
PUBLIC	??_R2bad_alloc@std@@8				; std::bad_alloc::`RTTI Base Class Array'
PUBLIC	??_R4bad_alloc@std@@6B@				; std::bad_alloc::`RTTI Complete Object Locator'
PUBLIC	??_R0?AVSpatial@@@8				; Spatial `RTTI Type Descriptor'
PUBLIC	??_R3Spatial@@8					; Spatial::`RTTI Class Hierarchy Descriptor'
PUBLIC	??_R2Spatial@@8					; Spatial::`RTTI Base Class Array'
PUBLIC	??_R1A@?0A@EA@Spatial@@8			; Spatial::`RTTI Base Class Descriptor at (0,-1,0,64)'
PUBLIC	??_R1A@?0A@EA@Instance@@8			; Instance::`RTTI Base Class Descriptor at (0,-1,0,64)'
PUBLIC	??_R0?AVInstance@@@8				; Instance `RTTI Type Descriptor'
PUBLIC	??_R3Instance@@8				; Instance::`RTTI Class Hierarchy Descriptor'
PUBLIC	??_R2Instance@@8				; Instance::`RTTI Base Class Array'
PUBLIC	??_R4Cube@@6B@					; Cube::`RTTI Complete Object Locator'
PUBLIC	??_R0?AVCube@@@8				; Cube `RTTI Type Descriptor'
PUBLIC	??_R3Cube@@8					; Cube::`RTTI Class Hierarchy Descriptor'
PUBLIC	??_R2Cube@@8					; Cube::`RTTI Base Class Array'
PUBLIC	??_R1A@?0A@EA@Cube@@8				; Cube::`RTTI Base Class Descriptor at (0,-1,0,64)'
PUBLIC	??_R1A@?0A@EA@BaseCube@@8			; BaseCube::`RTTI Base Class Descriptor at (0,-1,0,64)'
PUBLIC	??_R0?AVBaseCube@@@8				; BaseCube `RTTI Type Descriptor'
PUBLIC	??_R3BaseCube@@8				; BaseCube::`RTTI Class Hierarchy Descriptor'
PUBLIC	??_R2BaseCube@@8				; BaseCube::`RTTI Base Class Array'
PUBLIC	__real@3f000000
PUBLIC	__real@3f800000
PUBLIC	__xmm@000000003a83126f3a83126f3a83126f
PUBLIC	__xmm@000000003f8000000000000000000000
PUBLIC	__xmm@000000003f8000003f8000003f800000
PUBLIC	__xmm@00000000ba83126fba83126fba83126f
PUBLIC	__xmm@00000000bf8000000000000000000000
PUBLIC	__xmm@3a83126f3a83126f3a83126f3a83126f
PUBLIC	__xmm@3f800000000000000000000000000000
PUBLIC	__xmm@3f80000000000000bf80000000000000
PUBLIC	__xmm@3f800000bf800000bf800000bf800000
PUBLIC	__xmm@ba83126fba83126fba83126fba83126f
PUBLIC	__xmm@bf80000000000000000000003f800000
PUBLIC	__xmm@bf8000003f8000003f8000003f800000
EXTRN	??2@YAPEAX_K@Z:PROC				; operator new
EXTRN	??3@YAXPEAX_K@Z:PROC				; operator delete
EXTRN	__imp_calloc:PROC
EXTRN	?_Xbad_alloc@std@@YAXXZ:PROC			; std::_Xbad_alloc
EXTRN	?_Xlength_error@std@@YAXPEBD@Z:PROC		; std::_Xlength_error
EXTRN	__std_exception_copy:PROC
EXTRN	__std_exception_destroy:PROC
EXTRN	??_Eexception@std@@UEAAPEAXI@Z:PROC		; std::exception::`vector deleting destructor'
EXTRN	??_Ebad_alloc@std@@UEAAPEAXI@Z:PROC		; std::bad_alloc::`vector deleting destructor'
EXTRN	??_Ebad_array_new_length@std@@UEAAPEAXI@Z:PROC	; std::bad_array_new_length::`vector deleting destructor'
EXTRN	__imp_?_Getcvt@_Locinfo@std@@QEBA?AU_Cvtvec@@XZ:PROC
EXTRN	__imp_?_W_Getdays@_Locinfo@std@@QEBAPEBGXZ:PROC
EXTRN	__imp_?_W_Getmonths@_Locinfo@std@@QEBAPEBGXZ:PROC
EXTRN	?setParent@Instance@@UEAAXPEAV1@@Z:PROC		; Instance::setParent
EXTRN	?addChild@Instance@@UEAAXPEAV1@@Z:PROC		; Instance::addChild
EXTRN	??0BaseCube@@QEAA@UVector3@@0@Z:PROC		; BaseCube::BaseCube
EXTRN	??1BaseCube@@UEAA@XZ:PROC			; BaseCube::~BaseCube
EXTRN	?IsA@BaseCube@@UEAA_NV?$basic_string@DU?$char_traits@D@std@@V?$allocator@D@2@@std@@@Z:PROC ; BaseCube::IsA
EXTRN	?onAncestorChanged@BaseCube@@UEAAXXZ:PROC	; BaseCube::onAncestorChanged
EXTRN	??_ECube@@UEAAPEAXI@Z:PROC			; Cube::`vector deleting destructor'
EXTRN	__imp_glBindTexture:PROC
EXTRN	__imp_glDrawElements:PROC
EXTRN	_CxxThrowException:PROC
EXTRN	__CxxFrameHandler4:PROC
EXTRN	__GSHandlerCheck:PROC
EXTRN	__GSHandlerCheck_EH4:PROC
EXTRN	__security_check_cookie:PROC
EXTRN	memcmp:PROC
EXTRN	memcpy:PROC
EXTRN	memmove:PROC
EXTRN	strlen:PROC
EXTRN	wcslen:PROC
EXTRN	??_7type_info@@6B@:BYTE				; type_info::`vftable'
EXTRN	__glewActiveTexture:QWORD
EXTRN	__glewGetUniformLocation:QWORD
EXTRN	__glewUniform4f:QWORD
EXTRN	__security_cookie:QWORD
EXTRN	_fltused:DWORD
_BSS	SEGMENT
	ALIGN	8

?minFError@vecMathTests@aos@physx@@3T__m128@@B DB 010H DUP (?) ; physx::aos::vecMathTests::minFError
?maxFError@vecMathTests@aos@physx@@3T__m128@@B DB 010H DUP (?) ; physx::aos::vecMathTests::maxFError
?minV3Error@vecMathTests@aos@physx@@3T__m128@@B DB 010H DUP (?) ; physx::aos::vecMathTests::minV3Error
?maxV3Error@vecMathTests@aos@physx@@3T__m128@@B DB 010H DUP (?) ; physx::aos::vecMathTests::maxV3Error
?minV4Error@vecMathTests@aos@physx@@3T__m128@@B DB 010H DUP (?) ; physx::aos::vecMathTests::minV4Error
?maxV4Error@vecMathTests@aos@physx@@3T__m128@@B DB 010H DUP (?) ; physx::aos::vecMathTests::maxV4Error
_BSS	ENDS
;	COMDAT pdata
pdata	SEGMENT
$pdata$??_H@YAXPEAX_K1P6APEAX0@Z@Z DD imagerel $LN14
	DD	imagerel $LN14+55
	DD	imagerel $unwind$??_H@YAXPEAX_K1P6APEAX0@Z@Z
pdata	ENDS
;	COMDAT pdata
pdata	SEGMENT
$pdata$?copy@?$_Char_traits@DH@std@@SAPEADQEADQEBD_K@Z DD imagerel $LN20
	DD	imagerel $LN20+23
	DD	imagerel $unwind$?copy@?$_Char_traits@DH@std@@SAPEADQEADQEBD_K@Z
pdata	ENDS
;	COMDAT pdata
pdata	SEGMENT
$pdata$??0exception@std@@QEAA@AEBV01@@Z DD imagerel $LN6
	DD	imagerel $LN6+50
	DD	imagerel $unwind$??0exception@std@@QEAA@AEBV01@@Z
pdata	ENDS
;	COMDAT pdata
pdata	SEGMENT
$pdata$??_Gexception@std@@UEAAPEAXI@Z DD imagerel $LN12
	DD	imagerel $LN12+66
	DD	imagerel $unwind$??_Gexception@std@@UEAAPEAXI@Z
pdata	ENDS
;	COMDAT pdata
pdata	SEGMENT
$pdata$??0bad_alloc@std@@QEAA@AEBV01@@Z DD imagerel $LN9
	DD	imagerel $LN9+60
	DD	imagerel $unwind$??0bad_alloc@std@@QEAA@AEBV01@@Z
pdata	ENDS
;	COMDAT pdata
pdata	SEGMENT
$pdata$??_Gbad_alloc@std@@UEAAPEAXI@Z DD imagerel $LN17
	DD	imagerel $LN17+66
	DD	imagerel $unwind$??_Gbad_alloc@std@@UEAAPEAXI@Z
pdata	ENDS
;	COMDAT pdata
pdata	SEGMENT
$pdata$??0bad_array_new_length@std@@QEAA@AEBV01@@Z DD imagerel $LN14
	DD	imagerel $LN14+60
	DD	imagerel $unwind$??0bad_array_new_length@std@@QEAA@AEBV01@@Z
pdata	ENDS
;	COMDAT pdata
pdata	SEGMENT
$pdata$??_Gbad_array_new_length@std@@UEAAPEAXI@Z DD imagerel $LN22
	DD	imagerel $LN22+66
	DD	imagerel $unwind$??_Gbad_array_new_length@std@@UEAAPEAXI@Z
pdata	ENDS
;	COMDAT pdata
pdata	SEGMENT
$pdata$?_Throw_bad_array_new_length@std@@YAXXZ DD imagerel $LN4
	DD	imagerel $LN4+32
	DD	imagerel $unwind$?_Throw_bad_array_new_length@std@@YAXXZ
pdata	ENDS
;	COMDAT pdata
pdata	SEGMENT
$pdata$?_Xlen_string@std@@YAXXZ DD imagerel $LN4
	DD	imagerel $LN4+17
	DD	imagerel $unwind$?_Xlen_string@std@@YAXXZ
pdata	ENDS
;	COMDAT pdata
pdata	SEGMENT
$pdata$?allocate@?$allocator@D@std@@QEAAPEAD_K@Z DD imagerel $LN23
	DD	imagerel $LN23+89
	DD	imagerel $unwind$?allocate@?$allocator@D@std@@QEAAPEAD_K@Z
pdata	ENDS
;	COMDAT pdata
pdata	SEGMENT
$pdata$??0?$basic_string@DU?$char_traits@D@std@@V?$allocator@D@2@@std@@QEAA@AEBV01@@Z DD imagerel $LN126
	DD	imagerel $LN126+267
	DD	imagerel $unwind$??0?$basic_string@DU?$char_traits@D@std@@V?$allocator@D@2@@std@@QEAA@AEBV01@@Z
pdata	ENDS
;	COMDAT pdata
pdata	SEGMENT
$pdata$??0?$basic_string@DU?$char_traits@D@std@@V?$allocator@D@2@@std@@QEAA@QEBD@Z DD imagerel $LN21
	DD	imagerel $LN21+68
	DD	imagerel $unwind$??0?$basic_string@DU?$char_traits@D@std@@V?$allocator@D@2@@std@@QEAA@QEBD@Z
pdata	ENDS
;	COMDAT pdata
pdata	SEGMENT
$pdata$?_Equal@?$basic_string@DU?$char_traits@D@std@@V?$allocator@D@2@@std@@QEBA_NQEBD@Z DD imagerel $LN28
	DD	imagerel $LN28+101
	DD	imagerel $unwind$?_Equal@?$basic_string@DU?$char_traits@D@std@@V?$allocator@D@2@@std@@QEBA_NQEBD@Z
pdata	ENDS
;	COMDAT pdata
pdata	SEGMENT
$pdata$?_Tidy_deallocate@?$basic_string@DU?$char_traits@D@std@@V?$allocator@D@2@@std@@AEAAXXZ DD imagerel $LN34
	DD	imagerel $LN34+97
	DD	imagerel $unwind$?_Tidy_deallocate@?$basic_string@DU?$char_traits@D@std@@V?$allocator@D@2@@std@@AEAAXXZ
pdata	ENDS
;	COMDAT pdata
pdata	SEGMENT
$pdata$?_Maklocwcs@std@@YAPEA_WPEB_W@Z DD imagerel $LN10
	DD	imagerel $LN10+89
	DD	imagerel $unwind$?_Maklocwcs@std@@YAPEA_WPEB_W@Z
pdata	ENDS
;	COMDAT pdata
pdata	SEGMENT
$pdata$??$_Getvals@_W@?$time_get@DV?$istreambuf_iterator@DU?$char_traits@D@std@@@std@@@std@@IEAAX_WAEBV_Locinfo@1@@Z DD imagerel $LN27
	DD	imagerel $LN27+308
	DD	imagerel $unwind$??$_Getvals@_W@?$time_get@DV?$istreambuf_iterator@DU?$char_traits@D@std@@@std@@@std@@IEAAX_WAEBV_Locinfo@1@@Z
pdata	ENDS
;	COMDAT pdata
pdata	SEGMENT
$pdata$??$_Getvals@_W@?$time_get@_WV?$istreambuf_iterator@_WU?$char_traits@_W@std@@@std@@@std@@IEAAX_WAEBV_Locinfo@1@@Z DD imagerel $LN27
	DD	imagerel $LN27+308
	DD	imagerel $unwind$??$_Getvals@_W@?$time_get@_WV?$istreambuf_iterator@_WU?$char_traits@_W@std@@@std@@@std@@IEAAX_WAEBV_Locinfo@1@@Z
pdata	ENDS
;	COMDAT pdata
pdata	SEGMENT
$pdata$?createCubeVertices@@YA?AV?$vector@UVertex@@V?$allocator@UVertex@@@std@@@std@@M@Z DD imagerel $LN81
	DD	imagerel $LN81+899
	DD	imagerel $unwind$?createCubeVertices@@YA?AV?$vector@UVertex@@V?$allocator@UVertex@@@std@@@std@@M@Z
pdata	ENDS
;	COMDAT pdata
pdata	SEGMENT
$pdata$?dtor$0@?0??createCubeVertices@@YA?AV?$vector@UVertex@@V?$allocator@UVertex@@@std@@@std@@M@Z@4HA DD imagerel ?dtor$0@?0??createCubeVertices@@YA?AV?$vector@UVertex@@V?$allocator@UVertex@@@std@@@std@@M@Z@4HA
	DD	imagerel ?dtor$0@?0??createCubeVertices@@YA?AV?$vector@UVertex@@V?$allocator@UVertex@@@std@@@std@@M@Z@4HA+41
	DD	imagerel $unwind$?dtor$0@?0??createCubeVertices@@YA?AV?$vector@UVertex@@V?$allocator@UVertex@@@std@@@std@@M@Z@4HA
pdata	ENDS
;	COMDAT pdata
pdata	SEGMENT
$pdata$??0Cube@@QEAA@UVector3@@0I@Z DD imagerel $LN17
	DD	imagerel $LN17+127
	DD	imagerel $unwind$??0Cube@@QEAA@UVector3@@0I@Z
pdata	ENDS
;	COMDAT pdata
pdata	SEGMENT
$pdata$?draw@Cube@@QEAAXHH@Z DD imagerel $LN29
	DD	imagerel $LN29+472
	DD	imagerel $unwind$?draw@Cube@@QEAAXHH@Z
pdata	ENDS
;	COMDAT pdata
pdata	SEGMENT
$pdata$?GetClassName@Cube@@UEAA?AV?$basic_string@DU?$char_traits@D@std@@V?$allocator@D@2@@std@@XZ DD imagerel $LN113
	DD	imagerel $LN113+46
	DD	imagerel $unwind$?GetClassName@Cube@@UEAA?AV?$basic_string@DU?$char_traits@D@std@@V?$allocator@D@2@@std@@XZ
pdata	ENDS
;	COMDAT pdata
pdata	SEGMENT
$pdata$?IsA@Cube@@UEAA_NV?$basic_string@DU?$char_traits@D@std@@V?$allocator@D@2@@std@@@Z DD imagerel $LN43
	DD	imagerel $LN43+140
	DD	imagerel $unwind$?IsA@Cube@@UEAA_NV?$basic_string@DU?$char_traits@D@std@@V?$allocator@D@2@@std@@@Z
pdata	ENDS
;	COMDAT pdata
pdata	SEGMENT
$pdata$??_GCube@@UEAAPEAXI@Z DD imagerel $LN14
	DD	imagerel $LN14+52
	DD	imagerel $unwind$??_GCube@@UEAAPEAXI@Z
pdata	ENDS
;	COMDAT pdata
pdata	SEGMENT
$pdata$?allocate@?$allocator@UVertex@@@std@@QEAAPEAUVertex@@_K@Z DD imagerel $LN27
	DD	imagerel $LN27+108
	DD	imagerel $unwind$?allocate@?$allocator@UVertex@@@std@@QEAAPEAUVertex@@_K@Z
pdata	ENDS
;	COMDAT pdata
pdata	SEGMENT
$pdata$??1?$vector@UVertex@@V?$allocator@UVertex@@@std@@@std@@QEAA@XZ DD imagerel $LN31
	DD	imagerel $LN31+94
	DD	imagerel $unwind$??1?$vector@UVertex@@V?$allocator@UVertex@@@std@@@std@@QEAA@XZ
pdata	ENDS
;	COMDAT pdata
pdata	SEGMENT
$pdata$?_Change_array@?$vector@UVertex@@V?$allocator@UVertex@@@std@@@std@@AEAAXQEAUVertex@@_K1@Z DD imagerel $LN27
	DD	imagerel $LN27+121
	DD	imagerel $unwind$?_Change_array@?$vector@UVertex@@V?$allocator@UVertex@@@std@@@std@@AEAAXQEAUVertex@@_K1@Z
pdata	ENDS
;	COMDAT pdata
pdata	SEGMENT
$pdata$?_Tidy@?$vector@UVertex@@V?$allocator@UVertex@@@std@@@std@@AEAAXXZ DD imagerel $LN27
	DD	imagerel $LN27+94
	DD	imagerel $unwind$?_Tidy@?$vector@UVertex@@V?$allocator@UVertex@@@std@@@std@@AEAAXXZ
pdata	ENDS
;	COMDAT pdata
pdata	SEGMENT
$pdata$?_Xlength@?$vector@UVertex@@V?$allocator@UVertex@@@std@@@std@@CAXXZ DD imagerel $LN4
	DD	imagerel $LN4+17
	DD	imagerel $unwind$?_Xlength@?$vector@UVertex@@V?$allocator@UVertex@@@std@@@std@@CAXXZ
pdata	ENDS
;	COMDAT pdata
pdata	SEGMENT
$pdata$??$?8DU?$char_traits@D@std@@V?$allocator@D@1@@std@@YA_NAEBV?$basic_string@DU?$char_traits@D@std@@V?$allocator@D@2@@0@QEBD@Z DD imagerel $LN31
	DD	imagerel $LN31+101
	DD	imagerel $unwind$??$?8DU?$char_traits@D@std@@V?$allocator@D@1@@std@@YA_NAEBV?$basic_string@DU?$char_traits@D@std@@V?$allocator@D@2@@0@QEBD@Z
pdata	ENDS
;	COMDAT pdata
pdata	SEGMENT
$pdata$??$_Construct@$00PEBD@?$basic_string@DU?$char_traits@D@std@@V?$allocator@D@2@@std@@AEAAXQEBD_K@Z DD imagerel $LN108
	DD	imagerel $LN108+79
	DD	imagerel $unwind$??$_Construct@$00PEBD@?$basic_string@DU?$char_traits@D@std@@V?$allocator@D@2@@std@@AEAAXQEBD_K@Z
pdata	ENDS
;	COMDAT pdata
pdata	SEGMENT
$pdata$0$??$_Construct@$00PEBD@?$basic_string@DU?$char_traits@D@std@@V?$allocator@D@2@@std@@AEAAXQEBD_K@Z DD imagerel $LN108+79
	DD	imagerel $LN108+237
	DD	imagerel $chain$0$??$_Construct@$00PEBD@?$basic_string@DU?$char_traits@D@std@@V?$allocator@D@2@@std@@AEAAXQEBD_K@Z
pdata	ENDS
;	COMDAT pdata
pdata	SEGMENT
$pdata$1$??$_Construct@$00PEBD@?$basic_string@DU?$char_traits@D@std@@V?$allocator@D@2@@std@@AEAAXQEBD_K@Z DD imagerel $LN108+237
	DD	imagerel $LN108+243
	DD	imagerel $chain$1$??$_Construct@$00PEBD@?$basic_string@DU?$char_traits@D@std@@V?$allocator@D@2@@std@@AEAAXQEBD_K@Z
pdata	ENDS
;	COMDAT pdata
pdata	SEGMENT
$pdata$2$??$_Construct@$00PEBD@?$basic_string@DU?$char_traits@D@std@@V?$allocator@D@2@@std@@AEAAXQEBD_K@Z DD imagerel $LN108+243
	DD	imagerel $LN108+249
	DD	imagerel $chain$2$??$_Construct@$00PEBD@?$basic_string@DU?$char_traits@D@std@@V?$allocator@D@2@@std@@AEAAXQEBD_K@Z
pdata	ENDS
;	COMDAT pdata
pdata	SEGMENT
$pdata$??$_Construct@$01PEBD@?$basic_string@DU?$char_traits@D@std@@V?$allocator@D@2@@std@@AEAAXQEBD_K@Z DD imagerel $LN101
	DD	imagerel $LN101+228
	DD	imagerel $unwind$??$_Construct@$01PEBD@?$basic_string@DU?$char_traits@D@std@@V?$allocator@D@2@@std@@AEAAXQEBD_K@Z
pdata	ENDS
;	COMDAT pdata
pdata	SEGMENT
$pdata$??$_Allocate_for_capacity@$0A@@?$basic_string@DU?$char_traits@D@std@@V?$allocator@D@2@@std@@CAPEADAEAV?$allocator@D@1@AEA_K@Z DD imagerel $LN46
	DD	imagerel $LN46+111
	DD	imagerel $unwind$??$_Allocate_for_capacity@$0A@@?$basic_string@DU?$char_traits@D@std@@V?$allocator@D@2@@std@@CAPEADAEAV?$allocator@D@1@AEA_K@Z
pdata	ENDS
;	COMDAT pdata
pdata	SEGMENT
$pdata$??$_Allocate_at_least_helper@V?$allocator@D@std@@@std@@YAPEADAEAV?$allocator@D@0@AEA_K@Z DD imagerel $LN26
	DD	imagerel $LN26+92
	DD	imagerel $unwind$??$_Allocate_at_least_helper@V?$allocator@D@std@@@std@@YAPEADAEAV?$allocator@D@0@AEA_K@Z
pdata	ENDS
;	COMDAT pdata
pdata	SEGMENT
$pdata$??$_Emplace_reallocate@AEBUVertex@@@?$vector@UVertex@@V?$allocator@UVertex@@@std@@@std@@AEAAPEAUVertex@@QEAU2@AEBU2@@Z DD imagerel $LN185
	DD	imagerel $LN185+67
	DD	imagerel $unwind$??$_Emplace_reallocate@AEBUVertex@@@?$vector@UVertex@@V?$allocator@UVertex@@@std@@@std@@AEAAPEAUVertex@@QEAU2@AEBU2@@Z
pdata	ENDS
;	COMDAT pdata
pdata	SEGMENT
$pdata$2$??$_Emplace_reallocate@AEBUVertex@@@?$vector@UVertex@@V?$allocator@UVertex@@@std@@@std@@AEAAPEAUVertex@@QEAU2@AEBU2@@Z DD imagerel $LN185+67
	DD	imagerel $LN185+411
	DD	imagerel $chain$2$??$_Emplace_reallocate@AEBUVertex@@@?$vector@UVertex@@V?$allocator@UVertex@@@std@@@std@@AEAAPEAUVertex@@QEAU2@AEBU2@@Z
pdata	ENDS
;	COMDAT pdata
pdata	SEGMENT
$pdata$3$??$_Emplace_reallocate@AEBUVertex@@@?$vector@UVertex@@V?$allocator@UVertex@@@std@@@std@@AEAAPEAUVertex@@QEAU2@AEBU2@@Z DD imagerel $LN185+411
	DD	imagerel $LN185+417
	DD	imagerel $chain$3$??$_Emplace_reallocate@AEBUVertex@@@?$vector@UVertex@@V?$allocator@UVertex@@@std@@@std@@AEAAPEAUVertex@@QEAU2@AEBU2@@Z
pdata	ENDS
;	COMDAT pdata
pdata	SEGMENT
$pdata$4$??$_Emplace_reallocate@AEBUVertex@@@?$vector@UVertex@@V?$allocator@UVertex@@@std@@@std@@AEAAPEAUVertex@@QEAU2@AEBU2@@Z DD imagerel $LN185+417
	DD	imagerel $LN185+423
	DD	imagerel $chain$4$??$_Emplace_reallocate@AEBUVertex@@@?$vector@UVertex@@V?$allocator@UVertex@@@std@@@std@@AEAAPEAUVertex@@QEAU2@AEBU2@@Z
pdata	ENDS
;	COMDAT pdata
pdata	SEGMENT
$pdata$??$_Traits_equal@U?$char_traits@D@std@@@std@@YA_NQEBD_K01@Z DD imagerel $LN11
	DD	imagerel $LN11+52
	DD	imagerel $unwind$??$_Traits_equal@U?$char_traits@D@std@@@std@@YA_NQEBD_K01@Z
pdata	ENDS
;	COMDAT pdata
pdata	SEGMENT
$pdata$??$_Allocate_at_least_helper@V?$allocator@UVertex@@@std@@@std@@YAPEAUVertex@@AEAV?$allocator@UVertex@@@0@AEA_K@Z DD imagerel $LN30
	DD	imagerel $LN30+111
	DD	imagerel $unwind$??$_Allocate_at_least_helper@V?$allocator@UVertex@@@std@@@std@@YAPEAUVertex@@AEAV?$allocator@UVertex@@@0@AEA_K@Z
pdata	ENDS
;	COMDAT pdata
pdata	SEGMENT
$pdata$??$_Uninitialized_move@PEAUVertex@@V?$allocator@UVertex@@@std@@@std@@YAPEAUVertex@@QEAU1@0PEAU1@AEAV?$allocator@UVertex@@@0@@Z DD imagerel $LN29
	DD	imagerel $LN29+52
	DD	imagerel $unwind$??$_Uninitialized_move@PEAUVertex@@V?$allocator@UVertex@@@std@@@std@@YAPEAUVertex@@QEAU1@0PEAU1@AEAV?$allocator@UVertex@@@0@@Z
pdata	ENDS
;	COMDAT pdata
pdata	SEGMENT
$pdata$??$_Copy_memmove@PEAUVertex@@PEAU1@@std@@YAPEAUVertex@@PEAU1@00@Z DD imagerel $LN6
	DD	imagerel $LN6+48
	DD	imagerel $unwind$??$_Copy_memmove@PEAUVertex@@PEAU1@@std@@YAPEAUVertex@@PEAU1@00@Z
pdata	ENDS
;	COMDAT pdata
pdata	SEGMENT
$pdata$??$_Get_size_of_n@$0CA@@std@@YA_K_K@Z DD imagerel $LN7
	DD	imagerel $LN7+37
	DD	imagerel $unwind$??$_Get_size_of_n@$0CA@@std@@YA_K_K@Z
pdata	ENDS
;	COMDAT pdata
pdata	SEGMENT
$pdata$??$_Allocate@$0BA@U_Default_allocate_traits@std@@@std@@YAPEAX_K@Z DD imagerel $LN20
	DD	imagerel $LN20+89
	DD	imagerel $unwind$??$_Allocate@$0BA@U_Default_allocate_traits@std@@@std@@YAPEAX_K@Z
pdata	ENDS
;	COMDAT pdata
pdata	SEGMENT
$pdata$??$_Copy_memmove_tail@PEAUVertex@@@std@@YAPEAUVertex@@QEBDQEAU1@_K2@Z DD imagerel $LN4
	DD	imagerel $LN4+42
	DD	imagerel $unwind$??$_Copy_memmove_tail@PEAUVertex@@@std@@YAPEAUVertex@@QEBDQEAU1@_K2@Z
pdata	ENDS
;	COMDAT pdata
pdata	SEGMENT
$pdata$??$_Allocate_manually_vector_aligned@U_Default_allocate_traits@std@@@std@@YAPEAX_K@Z DD imagerel $LN10
	DD	imagerel $LN10+59
	DD	imagerel $unwind$??$_Allocate_manually_vector_aligned@U_Default_allocate_traits@std@@@std@@YAPEAX_K@Z
pdata	ENDS
CRT$XCU	SEGMENT
?minFError$initializer$@vecMathTests@aos@physx@@3P6AXXZEA DQ FLAT:??__EminFError@vecMathTests@aos@physx@@YAXXZ ; physx::aos::vecMathTests::minFError$initializer$
CRT$XCU	ENDS
;	COMDAT __xmm@bf8000003f8000003f8000003f800000
CONST	SEGMENT
__xmm@bf8000003f8000003f8000003f800000 DB 00H, 00H, 080H, '?', 00H, 00H, 080H
	DB	'?', 00H, 00H, 080H, '?', 00H, 00H, 080H, 0bfH
CONST	ENDS
;	COMDAT __xmm@bf80000000000000000000003f800000
CONST	SEGMENT
__xmm@bf80000000000000000000003f800000 DB 00H, 00H, 080H, '?', 00H, 00H, 00H
	DB	00H, 00H, 00H, 00H, 00H, 00H, 00H, 080H, 0bfH
CONST	ENDS
;	COMDAT __xmm@ba83126fba83126fba83126fba83126f
CONST	SEGMENT
__xmm@ba83126fba83126fba83126fba83126f DB 'o', 012H, 083H, 0baH, 'o', 012H
	DB	083H, 0baH, 'o', 012H, 083H, 0baH, 'o', 012H, 083H, 0baH
CONST	ENDS
;	COMDAT __xmm@3f800000bf800000bf800000bf800000
CONST	SEGMENT
__xmm@3f800000bf800000bf800000bf800000 DB 00H, 00H, 080H, 0bfH, 00H, 00H, 080H
	DB	0bfH, 00H, 00H, 080H, 0bfH, 00H, 00H, 080H, '?'
CONST	ENDS
;	COMDAT __xmm@3f80000000000000bf80000000000000
CONST	SEGMENT
__xmm@3f80000000000000bf80000000000000 DB 00H, 00H, 00H, 00H, 00H, 00H, 080H
	DB	0bfH, 00H, 00H, 00H, 00H, 00H, 00H, 080H, '?'
CONST	ENDS
;	COMDAT __xmm@3f800000000000000000000000000000
CONST	SEGMENT
__xmm@3f800000000000000000000000000000 DB 00H, 00H, 00H, 00H, 00H, 00H, 00H
	DB	00H, 00H, 00H, 00H, 00H, 00H, 00H, 080H, '?'
CONST	ENDS
;	COMDAT __xmm@3a83126f3a83126f3a83126f3a83126f
CONST	SEGMENT
__xmm@3a83126f3a83126f3a83126f3a83126f DB 'o', 012H, 083H, ':o', 012H, 083H
	DB	':o', 012H, 083H, ':o', 012H, 083H, ':'
CONST	ENDS
;	COMDAT __xmm@00000000bf8000000000000000000000
CONST	SEGMENT
__xmm@00000000bf8000000000000000000000 DB 00H, 00H, 00H, 00H, 00H, 00H, 00H
	DB	00H, 00H, 00H, 080H, 0bfH, 00H, 00H, 00H, 00H
CONST	ENDS
;	COMDAT __xmm@00000000ba83126fba83126fba83126f
CONST	SEGMENT
__xmm@00000000ba83126fba83126fba83126f DB 'o', 012H, 083H, 0baH, 'o', 012H
	DB	083H, 0baH, 'o', 012H, 083H, 0baH, 00H, 00H, 00H, 00H
CONST	ENDS
;	COMDAT __xmm@000000003f8000003f8000003f800000
CONST	SEGMENT
__xmm@000000003f8000003f8000003f800000 DB 00H, 00H, 080H, '?', 00H, 00H, 080H
	DB	'?', 00H, 00H, 080H, '?', 00H, 00H, 00H, 00H
CONST	ENDS
;	COMDAT __xmm@000000003f8000000000000000000000
CONST	SEGMENT
__xmm@000000003f8000000000000000000000 DB 00H, 00H, 00H, 00H, 00H, 00H, 00H
	DB	00H, 00H, 00H, 080H, '?', 00H, 00H, 00H, 00H
CONST	ENDS
;	COMDAT __xmm@000000003a83126f3a83126f3a83126f
CONST	SEGMENT
__xmm@000000003a83126f3a83126f3a83126f DB 'o', 012H, 083H, ':o', 012H, 083H
	DB	':o', 012H, 083H, ':', 00H, 00H, 00H, 00H
CONST	ENDS
;	COMDAT __real@3f800000
CONST	SEGMENT
__real@3f800000 DD 03f800000r			; 1
CONST	ENDS
;	COMDAT __real@3f000000
CONST	SEGMENT
__real@3f000000 DD 03f000000r			; 0.5
CONST	ENDS
;	COMDAT ??_R2BaseCube@@8
rdata$r	SEGMENT
??_R2BaseCube@@8 DD imagerel ??_R1A@?0A@EA@BaseCube@@8	; BaseCube::`RTTI Base Class Array'
	DD	imagerel ??_R1A@?0A@EA@Spatial@@8
	DD	imagerel ??_R1A@?0A@EA@Instance@@8
	ORG $+3
rdata$r	ENDS
;	COMDAT ??_R3BaseCube@@8
rdata$r	SEGMENT
??_R3BaseCube@@8 DD 00H					; BaseCube::`RTTI Class Hierarchy Descriptor'
	DD	00H
	DD	03H
	DD	imagerel ??_R2BaseCube@@8
rdata$r	ENDS
;	COMDAT ??_R0?AVBaseCube@@@8
data$rs	SEGMENT
??_R0?AVBaseCube@@@8 DQ FLAT:??_7type_info@@6B@		; BaseCube `RTTI Type Descriptor'
	DQ	0000000000000000H
	DB	'.?AVBaseCube@@', 00H
data$rs	ENDS
;	COMDAT ??_R1A@?0A@EA@BaseCube@@8
rdata$r	SEGMENT
??_R1A@?0A@EA@BaseCube@@8 DD imagerel ??_R0?AVBaseCube@@@8 ; BaseCube::`RTTI Base Class Descriptor at (0,-1,0,64)'
	DD	02H
	DD	00H
	DD	0ffffffffH
	DD	00H
	DD	040H
	DD	imagerel ??_R3BaseCube@@8
rdata$r	ENDS
;	COMDAT ??_R1A@?0A@EA@Cube@@8
rdata$r	SEGMENT
??_R1A@?0A@EA@Cube@@8 DD imagerel ??_R0?AVCube@@@8	; Cube::`RTTI Base Class Descriptor at (0,-1,0,64)'
	DD	03H
	DD	00H
	DD	0ffffffffH
	DD	00H
	DD	040H
	DD	imagerel ??_R3Cube@@8
rdata$r	ENDS
;	COMDAT ??_R2Cube@@8
rdata$r	SEGMENT
??_R2Cube@@8 DD	imagerel ??_R1A@?0A@EA@Cube@@8		; Cube::`RTTI Base Class Array'
	DD	imagerel ??_R1A@?0A@EA@BaseCube@@8
	DD	imagerel ??_R1A@?0A@EA@Spatial@@8
	DD	imagerel ??_R1A@?0A@EA@Instance@@8
	ORG $+3
rdata$r	ENDS
;	COMDAT ??_R3Cube@@8
rdata$r	SEGMENT
??_R3Cube@@8 DD	00H					; Cube::`RTTI Class Hierarchy Descriptor'
	DD	00H
	DD	04H
	DD	imagerel ??_R2Cube@@8
rdata$r	ENDS
;	COMDAT ??_R0?AVCube@@@8
data$rs	SEGMENT
??_R0?AVCube@@@8 DQ FLAT:??_7type_info@@6B@		; Cube `RTTI Type Descriptor'
	DQ	0000000000000000H
	DB	'.?AVCube@@', 00H
data$rs	ENDS
;	COMDAT ??_R4Cube@@6B@
rdata$r	SEGMENT
??_R4Cube@@6B@ DD 01H					; Cube::`RTTI Complete Object Locator'
	DD	00H
	DD	00H
	DD	imagerel ??_R0?AVCube@@@8
	DD	imagerel ??_R3Cube@@8
	DD	imagerel ??_R4Cube@@6B@
rdata$r	ENDS
;	COMDAT ??_R2Instance@@8
rdata$r	SEGMENT
??_R2Instance@@8 DD imagerel ??_R1A@?0A@EA@Instance@@8	; Instance::`RTTI Base Class Array'
	ORG $+3
rdata$r	ENDS
;	COMDAT ??_R3Instance@@8
rdata$r	SEGMENT
??_R3Instance@@8 DD 00H					; Instance::`RTTI Class Hierarchy Descriptor'
	DD	00H
	DD	01H
	DD	imagerel ??_R2Instance@@8
rdata$r	ENDS
;	COMDAT ??_R0?AVInstance@@@8
data$rs	SEGMENT
??_R0?AVInstance@@@8 DQ FLAT:??_7type_info@@6B@		; Instance `RTTI Type Descriptor'
	DQ	0000000000000000H
	DB	'.?AVInstance@@', 00H
data$rs	ENDS
;	COMDAT ??_R1A@?0A@EA@Instance@@8
rdata$r	SEGMENT
??_R1A@?0A@EA@Instance@@8 DD imagerel ??_R0?AVInstance@@@8 ; Instance::`RTTI Base Class Descriptor at (0,-1,0,64)'
	DD	00H
	DD	00H
	DD	0ffffffffH
	DD	00H
	DD	040H
	DD	imagerel ??_R3Instance@@8
rdata$r	ENDS
;	COMDAT ??_R1A@?0A@EA@Spatial@@8
rdata$r	SEGMENT
??_R1A@?0A@EA@Spatial@@8 DD imagerel ??_R0?AVSpatial@@@8 ; Spatial::`RTTI Base Class Descriptor at (0,-1,0,64)'
	DD	01H
	DD	00H
	DD	0ffffffffH
	DD	00H
	DD	040H
	DD	imagerel ??_R3Spatial@@8
rdata$r	ENDS
;	COMDAT ??_R2Spatial@@8
rdata$r	SEGMENT
??_R2Spatial@@8 DD imagerel ??_R1A@?0A@EA@Spatial@@8	; Spatial::`RTTI Base Class Array'
	DD	imagerel ??_R1A@?0A@EA@Instance@@8
	ORG $+3
rdata$r	ENDS
;	COMDAT ??_R3Spatial@@8
rdata$r	SEGMENT
??_R3Spatial@@8 DD 00H					; Spatial::`RTTI Class Hierarchy Descriptor'
	DD	00H
	DD	02H
	DD	imagerel ??_R2Spatial@@8
rdata$r	ENDS
;	COMDAT ??_R0?AVSpatial@@@8
data$rs	SEGMENT
??_R0?AVSpatial@@@8 DQ FLAT:??_7type_info@@6B@		; Spatial `RTTI Type Descriptor'
	DQ	0000000000000000H
	DB	'.?AVSpatial@@', 00H
data$rs	ENDS
;	COMDAT ??_R4bad_alloc@std@@6B@
rdata$r	SEGMENT
??_R4bad_alloc@std@@6B@ DD 01H				; std::bad_alloc::`RTTI Complete Object Locator'
	DD	00H
	DD	00H
	DD	imagerel ??_R0?AVbad_alloc@std@@@8
	DD	imagerel ??_R3bad_alloc@std@@8
	DD	imagerel ??_R4bad_alloc@std@@6B@
rdata$r	ENDS
;	COMDAT ??_R2bad_alloc@std@@8
rdata$r	SEGMENT
??_R2bad_alloc@std@@8 DD imagerel ??_R1A@?0A@EA@bad_alloc@std@@8 ; std::bad_alloc::`RTTI Base Class Array'
	DD	imagerel ??_R1A@?0A@EA@exception@std@@8
	ORG $+3
rdata$r	ENDS
;	COMDAT ??_R3bad_alloc@std@@8
rdata$r	SEGMENT
??_R3bad_alloc@std@@8 DD 00H				; std::bad_alloc::`RTTI Class Hierarchy Descriptor'
	DD	00H
	DD	02H
	DD	imagerel ??_R2bad_alloc@std@@8
rdata$r	ENDS
;	COMDAT ??_R1A@?0A@EA@bad_alloc@std@@8
rdata$r	SEGMENT
??_R1A@?0A@EA@bad_alloc@std@@8 DD imagerel ??_R0?AVbad_alloc@std@@@8 ; std::bad_alloc::`RTTI Base Class Descriptor at (0,-1,0,64)'
	DD	01H
	DD	00H
	DD	0ffffffffH
	DD	00H
	DD	040H
	DD	imagerel ??_R3bad_alloc@std@@8
rdata$r	ENDS
;	COMDAT ??_R1A@?0A@EA@bad_array_new_length@std@@8
rdata$r	SEGMENT
??_R1A@?0A@EA@bad_array_new_length@std@@8 DD imagerel ??_R0?AVbad_array_new_length@std@@@8 ; std::bad_array_new_length::`RTTI Base Class Descriptor at (0,-1,0,64)'
	DD	02H
	DD	00H
	DD	0ffffffffH
	DD	00H
	DD	040H
	DD	imagerel ??_R3bad_array_new_length@std@@8
rdata$r	ENDS
;	COMDAT ??_R2bad_array_new_length@std@@8
rdata$r	SEGMENT
??_R2bad_array_new_length@std@@8 DD imagerel ??_R1A@?0A@EA@bad_array_new_length@std@@8 ; std::bad_array_new_length::`RTTI Base Class Array'
	DD	imagerel ??_R1A@?0A@EA@bad_alloc@std@@8
	DD	imagerel ??_R1A@?0A@EA@exception@std@@8
	ORG $+3
rdata$r	ENDS
;	COMDAT ??_R3bad_array_new_length@std@@8
rdata$r	SEGMENT
??_R3bad_array_new_length@std@@8 DD 00H			; std::bad_array_new_length::`RTTI Class Hierarchy Descriptor'
	DD	00H
	DD	03H
	DD	imagerel ??_R2bad_array_new_length@std@@8
rdata$r	ENDS
;	COMDAT ??_R4bad_array_new_length@std@@6B@
rdata$r	SEGMENT
??_R4bad_array_new_length@std@@6B@ DD 01H		; std::bad_array_new_length::`RTTI Complete Object Locator'
	DD	00H
	DD	00H
	DD	imagerel ??_R0?AVbad_array_new_length@std@@@8
	DD	imagerel ??_R3bad_array_new_length@std@@8
	DD	imagerel ??_R4bad_array_new_length@std@@6B@
rdata$r	ENDS
;	COMDAT ??_R1A@?0A@EA@exception@std@@8
rdata$r	SEGMENT
??_R1A@?0A@EA@exception@std@@8 DD imagerel ??_R0?AVexception@std@@@8 ; std::exception::`RTTI Base Class Descriptor at (0,-1,0,64)'
	DD	00H
	DD	00H
	DD	0ffffffffH
	DD	00H
	DD	040H
	DD	imagerel ??_R3exception@std@@8
rdata$r	ENDS
;	COMDAT ??_R2exception@std@@8
rdata$r	SEGMENT
??_R2exception@std@@8 DD imagerel ??_R1A@?0A@EA@exception@std@@8 ; std::exception::`RTTI Base Class Array'
	ORG $+3
rdata$r	ENDS
;	COMDAT ??_R3exception@std@@8
rdata$r	SEGMENT
??_R3exception@std@@8 DD 00H				; std::exception::`RTTI Class Hierarchy Descriptor'
	DD	00H
	DD	01H
	DD	imagerel ??_R2exception@std@@8
rdata$r	ENDS
;	COMDAT ??_R4exception@std@@6B@
rdata$r	SEGMENT
??_R4exception@std@@6B@ DD 01H				; std::exception::`RTTI Complete Object Locator'
	DD	00H
	DD	00H
	DD	imagerel ??_R0?AVexception@std@@@8
	DD	imagerel ??_R3exception@std@@8
	DD	imagerel ??_R4exception@std@@6B@
rdata$r	ENDS
;	COMDAT ??_C@_0BA@FOIKENOD@vector?5too?5long@
CONST	SEGMENT
??_C@_0BA@FOIKENOD@vector?5too?5long@ DB 'vector too long', 00H ; `string'
CONST	ENDS
;	COMDAT ??_C@_1BK@MHIKGOKE@?$AA?3?$AAA?$AAM?$AA?3?$AAa?$AAm?$AA?3?$AAP?$AAM?$AA?3?$AAp?$AAm@
CONST	SEGMENT
??_C@_1BK@MHIKGOKE@?$AA?3?$AAA?$AAM?$AA?3?$AAa?$AAm?$AA?3?$AAP?$AAM?$AA?3?$AAp?$AAm@ DB ':'
	DB	00H, 'A', 00H, 'M', 00H, ':', 00H, 'a', 00H, 'm', 00H, ':', 00H
	DB	'P', 00H, 'M', 00H, ':', 00H, 'p', 00H, 'm', 00H, 00H, 00H ; `string'
CONST	ENDS
;	COMDAT ??_C@_08LILHLMFO@ourColor@
CONST	SEGMENT
??_C@_08LILHLMFO@ourColor@ DB 'ourColor', 00H		; `string'
CONST	ENDS
;	COMDAT ??_C@_04CJLGPKHJ@Cube@
CONST	SEGMENT
??_C@_04CJLGPKHJ@Cube@ DB 'Cube', 00H			; `string'
CONST	ENDS
;	COMDAT ??_7Cube@@6B@
CONST	SEGMENT
??_7Cube@@6B@ DQ FLAT:??_R4Cube@@6B@			; Cube::`vftable'
	DQ	FLAT:?onAncestorChanged@BaseCube@@UEAAXXZ
	DQ	FLAT:?setParent@Instance@@UEAAXPEAV1@@Z
	DQ	FLAT:?GetClassName@Cube@@UEAA?AV?$basic_string@DU?$char_traits@D@std@@V?$allocator@D@2@@std@@XZ
	DQ	FLAT:?IsA@Cube@@UEAA_NV?$basic_string@DU?$char_traits@D@std@@V?$allocator@D@2@@std@@@Z
	DQ	FLAT:?addChild@Instance@@UEAAXPEAV1@@Z
	DQ	FLAT:??_ECube@@UEAAPEAXI@Z
CONST	ENDS
;	COMDAT ??_C@_0BA@JFNIOLAK@string?5too?5long@
CONST	SEGMENT
??_C@_0BA@JFNIOLAK@string?5too?5long@ DB 'string too long', 00H ; `string'
CONST	ENDS
;	COMDAT _CT??_R0?AVbad_alloc@std@@@8??0bad_alloc@std@@QEAA@AEBV01@@Z24
xdata$x	SEGMENT
_CT??_R0?AVbad_alloc@std@@@8??0bad_alloc@std@@QEAA@AEBV01@@Z24 DD 010H
	DD	imagerel ??_R0?AVbad_alloc@std@@@8
	DD	00H
	DD	0ffffffffH
	ORG $+4
	DD	018H
	DD	imagerel ??0bad_alloc@std@@QEAA@AEBV01@@Z
xdata$x	ENDS
;	COMDAT ??_R0?AVbad_alloc@std@@@8
data$r	SEGMENT
??_R0?AVbad_alloc@std@@@8 DQ FLAT:??_7type_info@@6B@	; std::bad_alloc `RTTI Type Descriptor'
	DQ	0000000000000000H
	DB	'.?AVbad_alloc@std@@', 00H
data$r	ENDS
;	COMDAT _CT??_R0?AVbad_array_new_length@std@@@8??0bad_array_new_length@std@@QEAA@AEBV01@@Z24
xdata$x	SEGMENT
_CT??_R0?AVbad_array_new_length@std@@@8??0bad_array_new_length@std@@QEAA@AEBV01@@Z24 DD 00H
	DD	imagerel ??_R0?AVbad_array_new_length@std@@@8
	DD	00H
	DD	0ffffffffH
	ORG $+4
	DD	018H
	DD	imagerel ??0bad_array_new_length@std@@QEAA@AEBV01@@Z
xdata$x	ENDS
;	COMDAT ??_R0?AVbad_array_new_length@std@@@8
data$r	SEGMENT
??_R0?AVbad_array_new_length@std@@@8 DQ FLAT:??_7type_info@@6B@ ; std::bad_array_new_length `RTTI Type Descriptor'
	DQ	0000000000000000H
	DB	'.?AVbad_array_new_length@std@@', 00H
data$r	ENDS
;	COMDAT _CTA3?AVbad_array_new_length@std@@
xdata$x	SEGMENT
_CTA3?AVbad_array_new_length@std@@ DD 03H
	DD	imagerel _CT??_R0?AVbad_array_new_length@std@@@8??0bad_array_new_length@std@@QEAA@AEBV01@@Z24
	DD	imagerel _CT??_R0?AVbad_alloc@std@@@8??0bad_alloc@std@@QEAA@AEBV01@@Z24
	DD	imagerel _CT??_R0?AVexception@std@@@8??0exception@std@@QEAA@AEBV01@@Z24
xdata$x	ENDS
;	COMDAT _TI3?AVbad_array_new_length@std@@
xdata$x	SEGMENT
_TI3?AVbad_array_new_length@std@@ DD 00H
	DD	imagerel ??1bad_array_new_length@std@@UEAA@XZ
	DD	00H
	DD	imagerel _CTA3?AVbad_array_new_length@std@@
xdata$x	ENDS
;	COMDAT _CT??_R0?AVexception@std@@@8??0exception@std@@QEAA@AEBV01@@Z24
xdata$x	SEGMENT
_CT??_R0?AVexception@std@@@8??0exception@std@@QEAA@AEBV01@@Z24 DD 00H
	DD	imagerel ??_R0?AVexception@std@@@8
	DD	00H
	DD	0ffffffffH
	ORG $+4
	DD	018H
	DD	imagerel ??0exception@std@@QEAA@AEBV01@@Z
xdata$x	ENDS
;	COMDAT ??_R0?AVexception@std@@@8
data$r	SEGMENT
??_R0?AVexception@std@@@8 DQ FLAT:??_7type_info@@6B@	; std::exception `RTTI Type Descriptor'
	DQ	0000000000000000H
	DB	'.?AVexception@std@@', 00H
data$r	ENDS
;	COMDAT ??_C@_0BF@KINCDENJ@bad?5array?5new?5length@
CONST	SEGMENT
??_C@_0BF@KINCDENJ@bad?5array?5new?5length@ DB 'bad array new length', 00H ; `string'
CONST	ENDS
;	COMDAT ??_7bad_array_new_length@std@@6B@
CONST	SEGMENT
??_7bad_array_new_length@std@@6B@ DQ FLAT:??_R4bad_array_new_length@std@@6B@ ; std::bad_array_new_length::`vftable'
	DQ	FLAT:??_Ebad_array_new_length@std@@UEAAPEAXI@Z
	DQ	FLAT:?what@exception@std@@UEBAPEBDXZ
CONST	ENDS
;	COMDAT ??_7bad_alloc@std@@6B@
CONST	SEGMENT
??_7bad_alloc@std@@6B@ DQ FLAT:??_R4bad_alloc@std@@6B@	; std::bad_alloc::`vftable'
	DQ	FLAT:??_Ebad_alloc@std@@UEAAPEAXI@Z
	DQ	FLAT:?what@exception@std@@UEBAPEBDXZ
CONST	ENDS
;	COMDAT ??_C@_0BC@EOODALEL@Unknown?5exception@
CONST	SEGMENT
??_C@_0BC@EOODALEL@Unknown?5exception@ DB 'Unknown exception', 00H ; `string'
CONST	ENDS
;	COMDAT ??_7exception@std@@6B@
CONST	SEGMENT
??_7exception@std@@6B@ DQ FLAT:??_R4exception@std@@6B@	; std::exception::`vftable'
	DQ	FLAT:??_Eexception@std@@UEAAPEAXI@Z
	DQ	FLAT:?what@exception@std@@UEBAPEBDXZ
CONST	ENDS
;	COMDAT xdata
xdata	SEGMENT
$unwind$??$_Allocate_manually_vector_aligned@U_Default_allocate_traits@std@@@std@@YAPEAX_K@Z DD 010401H
	DD	04204H
xdata	ENDS
;	COMDAT xdata
xdata	SEGMENT
$unwind$??$_Copy_memmove_tail@PEAUVertex@@@std@@YAPEAUVertex@@QEBDQEAU1@_K2@Z DD 040a01H
	DD	06340aH
	DD	07006320aH
xdata	ENDS
;	COMDAT xdata
xdata	SEGMENT
$unwind$??$_Allocate@$0BA@U_Default_allocate_traits@std@@@std@@YAPEAX_K@Z DD 010401H
	DD	04204H
xdata	ENDS
;	COMDAT xdata
xdata	SEGMENT
$unwind$??$_Get_size_of_n@$0CA@@std@@YA_K_K@Z DD 010401H
	DD	04204H
xdata	ENDS
;	COMDAT xdata
xdata	SEGMENT
$unwind$??$_Copy_memmove@PEAUVertex@@PEAU1@@std@@YAPEAUVertex@@PEAU1@00@Z DD 040a01H
	DD	06340aH
	DD	07006320aH
xdata	ENDS
;	COMDAT xdata
xdata	SEGMENT
$unwind$??$_Uninitialized_move@PEAUVertex@@V?$allocator@UVertex@@@std@@@std@@YAPEAUVertex@@QEAU1@0PEAU1@AEAV?$allocator@UVertex@@@0@@Z DD 040a01H
	DD	06340aH
	DD	07006320aH
xdata	ENDS
;	COMDAT xdata
xdata	SEGMENT
$unwind$??$_Allocate_at_least_helper@V?$allocator@UVertex@@@std@@@std@@YAPEAUVertex@@AEAV?$allocator@UVertex@@@0@AEA_K@Z DD 010401H
	DD	04204H
xdata	ENDS
;	COMDAT xdata
xdata	SEGMENT
$unwind$??$_Traits_equal@U?$char_traits@D@std@@@std@@YA_NQEBD_K01@Z DD 010401H
	DD	04204H
xdata	ENDS
;	COMDAT xdata
xdata	SEGMENT
$chain$4$??$_Emplace_reallocate@AEBUVertex@@@?$vector@UVertex@@V?$allocator@UVertex@@@std@@@std@@AEAAPEAUVertex@@QEAU2@AEBU2@@Z DD 060021H
	DD	0a7400H
	DD	095400H
	DD	083400H
	DD	imagerel $LN185
	DD	imagerel $LN185+67
	DD	imagerel $unwind$??$_Emplace_reallocate@AEBUVertex@@@?$vector@UVertex@@V?$allocator@UVertex@@@std@@@std@@AEAAPEAUVertex@@QEAU2@AEBU2@@Z
xdata	ENDS
;	COMDAT xdata
xdata	SEGMENT
$chain$3$??$_Emplace_reallocate@AEBUVertex@@@?$vector@UVertex@@V?$allocator@UVertex@@@std@@@std@@AEAAPEAUVertex@@QEAU2@AEBU2@@Z DD 021H
	DD	imagerel $LN185
	DD	imagerel $LN185+67
	DD	imagerel $unwind$??$_Emplace_reallocate@AEBUVertex@@@?$vector@UVertex@@V?$allocator@UVertex@@@std@@@std@@AEAAPEAUVertex@@QEAU2@AEBU2@@Z
xdata	ENDS
;	COMDAT xdata
xdata	SEGMENT
$chain$2$??$_Emplace_reallocate@AEBUVertex@@@?$vector@UVertex@@V?$allocator@UVertex@@@std@@@std@@AEAAPEAUVertex@@QEAU2@AEBU2@@Z DD 061c21H
	DD	0a741cH
	DD	095411H
	DD	083405H
	DD	imagerel $LN185
	DD	imagerel $LN185+67
	DD	imagerel $unwind$??$_Emplace_reallocate@AEBUVertex@@@?$vector@UVertex@@V?$allocator@UVertex@@@std@@@std@@AEAAPEAUVertex@@QEAU2@AEBU2@@Z
xdata	ENDS
;	COMDAT xdata
xdata	SEGMENT
$unwind$??$_Emplace_reallocate@AEBUVertex@@@?$vector@UVertex@@V?$allocator@UVertex@@@std@@@std@@AEAAPEAUVertex@@QEAU2@AEBU2@@Z DD 060f01H
	DD	0b640fH
	DD	0f00b320fH
	DD	0c007e009H
xdata	ENDS
;	COMDAT xdata
xdata	SEGMENT
$unwind$??$_Allocate_at_least_helper@V?$allocator@D@std@@@std@@YAPEADAEAV?$allocator@D@0@AEA_K@Z DD 010401H
	DD	04204H
xdata	ENDS
;	COMDAT xdata
xdata	SEGMENT
$unwind$??$_Allocate_for_capacity@$0A@@?$basic_string@DU?$char_traits@D@std@@V?$allocator@D@2@@std@@CAPEADAEAV?$allocator@D@1@AEA_K@Z DD 020601H
	DD	030023206H
xdata	ENDS
;	COMDAT xdata
xdata	SEGMENT
$unwind$??$_Construct@$01PEBD@?$basic_string@DU?$char_traits@D@std@@V?$allocator@D@2@@std@@AEAAXQEBD_K@Z DD 050901H
	DD	070054209H
	DD	050036004H
	DD	03002H
xdata	ENDS
;	COMDAT xdata
xdata	SEGMENT
$chain$2$??$_Construct@$00PEBD@?$basic_string@DU?$char_traits@D@std@@V?$allocator@D@2@@std@@AEAAXQEBD_K@Z DD 020021H
	DD	0a7400H
	DD	imagerel $LN108
	DD	imagerel $LN108+79
	DD	imagerel $unwind$??$_Construct@$00PEBD@?$basic_string@DU?$char_traits@D@std@@V?$allocator@D@2@@std@@AEAAXQEBD_K@Z
xdata	ENDS
;	COMDAT xdata
xdata	SEGMENT
$chain$1$??$_Construct@$00PEBD@?$basic_string@DU?$char_traits@D@std@@V?$allocator@D@2@@std@@AEAAXQEBD_K@Z DD 021H
	DD	imagerel $LN108
	DD	imagerel $LN108+79
	DD	imagerel $unwind$??$_Construct@$00PEBD@?$basic_string@DU?$char_traits@D@std@@V?$allocator@D@2@@std@@AEAAXQEBD_K@Z
xdata	ENDS
;	COMDAT xdata
xdata	SEGMENT
$chain$0$??$_Construct@$00PEBD@?$basic_string@DU?$char_traits@D@std@@V?$allocator@D@2@@std@@AEAAXQEBD_K@Z DD 020521H
	DD	0a7405H
	DD	imagerel $LN108
	DD	imagerel $LN108+79
	DD	imagerel $unwind$??$_Construct@$00PEBD@?$basic_string@DU?$char_traits@D@std@@V?$allocator@D@2@@std@@AEAAXQEBD_K@Z
xdata	ENDS
;	COMDAT xdata
xdata	SEGMENT
$unwind$??$_Construct@$00PEBD@?$basic_string@DU?$char_traits@D@std@@V?$allocator@D@2@@std@@AEAAXQEBD_K@Z DD 050a01H
	DD	0e006420aH
	DD	050036004H
	DD	03002H
xdata	ENDS
;	COMDAT xdata
xdata	SEGMENT
$unwind$??$?8DU?$char_traits@D@std@@V?$allocator@D@1@@std@@YA_NAEBV?$basic_string@DU?$char_traits@D@std@@V?$allocator@D@2@@0@QEBD@Z DD 040a01H
	DD	06340aH
	DD	07006320aH
xdata	ENDS
;	COMDAT xdata
xdata	SEGMENT
$unwind$?_Xlength@?$vector@UVertex@@V?$allocator@UVertex@@@std@@@std@@CAXXZ DD 010401H
	DD	04204H
xdata	ENDS
;	COMDAT xdata
xdata	SEGMENT
$unwind$?_Tidy@?$vector@UVertex@@V?$allocator@UVertex@@@std@@@std@@AEAAXXZ DD 020601H
	DD	030023206H
xdata	ENDS
;	COMDAT xdata
xdata	SEGMENT
$unwind$?_Change_array@?$vector@UVertex@@V?$allocator@UVertex@@@std@@@std@@AEAAXQEAUVertex@@_K1@Z DD 050901H
	DD	070054209H
	DD	050036004H
	DD	03002H
xdata	ENDS
;	COMDAT xdata
xdata	SEGMENT
$unwind$??1?$vector@UVertex@@V?$allocator@UVertex@@@std@@@std@@QEAA@XZ DD 020601H
	DD	030023206H
xdata	ENDS
;	COMDAT xdata
xdata	SEGMENT
$unwind$?allocate@?$allocator@UVertex@@@std@@QEAAPEAUVertex@@_K@Z DD 010401H
	DD	04204H
xdata	ENDS
;	COMDAT xdata
xdata	SEGMENT
$unwind$??_GCube@@UEAAPEAXI@Z DD 040a01H
	DD	06340aH
	DD	07006320aH
xdata	ENDS
;	COMDAT xdata
xdata	SEGMENT
$ip2state$?IsA@Cube@@UEAA_NV?$basic_string@DU?$char_traits@D@std@@V?$allocator@D@2@@std@@@Z DB 04H
	DB	0a6H
	DB	02H
	DB	'&'
	DB	00H
xdata	ENDS
;	COMDAT xdata
xdata	SEGMENT
$stateUnwindMap$?IsA@Cube@@UEAA_NV?$basic_string@DU?$char_traits@D@std@@V?$allocator@D@2@@std@@@Z DB 02H
	DB	0cH
	DD	imagerel ??1?$basic_string@DU?$char_traits@D@std@@V?$allocator@D@2@@std@@QEAA@XZ
	DB	090H
xdata	ENDS
;	COMDAT xdata
xdata	SEGMENT
$cppxdata$?IsA@Cube@@UEAA_NV?$basic_string@DU?$char_traits@D@std@@V?$allocator@D@2@@std@@@Z DB 028H
	DD	imagerel $stateUnwindMap$?IsA@Cube@@UEAA_NV?$basic_string@DU?$char_traits@D@std@@V?$allocator@D@2@@std@@@Z
	DD	imagerel $ip2state$?IsA@Cube@@UEAA_NV?$basic_string@DU?$char_traits@D@std@@V?$allocator@D@2@@std@@@Z
xdata	ENDS
;	COMDAT xdata
xdata	SEGMENT
$unwind$?IsA@Cube@@UEAA_NV?$basic_string@DU?$char_traits@D@std@@V?$allocator@D@2@@std@@@Z DD 041919H
	DD	010340aH
	DD	07006b20aH
	DD	imagerel __GSHandlerCheck_EH4
	DD	imagerel $cppxdata$?IsA@Cube@@UEAA_NV?$basic_string@DU?$char_traits@D@std@@V?$allocator@D@2@@std@@@Z
	DD	052H
xdata	ENDS
;	COMDAT xdata
xdata	SEGMENT
$unwind$?GetClassName@Cube@@UEAA?AV?$basic_string@DU?$char_traits@D@std@@V?$allocator@D@2@@std@@XZ DD 010401H
	DD	02204H
xdata	ENDS
;	COMDAT xdata
xdata	SEGMENT
$unwind$?draw@Cube@@QEAAXHH@Z DD 020601H
	DD	030025206H
xdata	ENDS
;	COMDAT xdata
xdata	SEGMENT
$unwind$??0Cube@@QEAA@UVector3@@0I@Z DD 040a01H
	DD	0a340aH
	DD	07006720aH
xdata	ENDS
;	COMDAT xdata
xdata	SEGMENT
$unwind$?dtor$0@?0??createCubeVertices@@YA?AV?$vector@UVertex@@V?$allocator@UVertex@@@std@@@std@@M@Z@4HA DD 020601H
	DD	050023206H
xdata	ENDS
;	COMDAT xdata
xdata	SEGMENT
$ip2state$?createCubeVertices@@YA?AV?$vector@UVertex@@V?$allocator@UVertex@@@std@@@std@@M@Z DB 02H
	DB	08dH, 0bH
	DB	02H
xdata	ENDS
;	COMDAT xdata
xdata	SEGMENT
$stateUnwindMap$?createCubeVertices@@YA?AV?$vector@UVertex@@V?$allocator@UVertex@@@std@@@std@@M@Z DB 02H
	DB	0eH
	DD	imagerel ?dtor$0@?0??createCubeVertices@@YA?AV?$vector@UVertex@@V?$allocator@UVertex@@@std@@@std@@M@Z@4HA
xdata	ENDS
;	COMDAT xdata
xdata	SEGMENT
$cppxdata$?createCubeVertices@@YA?AV?$vector@UVertex@@V?$allocator@UVertex@@@std@@@std@@M@Z DB 028H
	DD	imagerel $stateUnwindMap$?createCubeVertices@@YA?AV?$vector@UVertex@@V?$allocator@UVertex@@@std@@@std@@M@Z
	DD	imagerel $ip2state$?createCubeVertices@@YA?AV?$vector@UVertex@@V?$allocator@UVertex@@@std@@@std@@M@Z
xdata	ENDS
;	COMDAT xdata
xdata	SEGMENT
$unwind$?createCubeVertices@@YA?AV?$vector@UVertex@@V?$allocator@UVertex@@@std@@@std@@M@Z DD 01c5f11H
	DD	0ef85fH
	DD	0fe857H
	DD	010d84fH
	DD	011c847H
	DD	012b83fH
	DD	013a837H
	DD	014982fH
	DD	015882aH
	DD	0167825H
	DD	0176821H
	DD	031011dH
	DD	0e00df00fH
	DD	0600a700bH
	DD	050083009H
	DD	imagerel __CxxFrameHandler4
	DD	imagerel $cppxdata$?createCubeVertices@@YA?AV?$vector@UVertex@@V?$allocator@UVertex@@@std@@@std@@M@Z
xdata	ENDS
;	COMDAT xdata
xdata	SEGMENT
$unwind$??$_Getvals@_W@?$time_get@_WV?$istreambuf_iterator@_WU?$char_traits@_W@std@@@std@@@std@@IEAAX_WAEBV_Locinfo@1@@Z DD 082119H
	DD	0135412H
	DD	0113412H
	DD	0e00eb212H
	DD	0600b700cH
	DD	imagerel __GSHandlerCheck
	DD	050H
xdata	ENDS
;	COMDAT xdata
xdata	SEGMENT
$unwind$??$_Getvals@_W@?$time_get@DV?$istreambuf_iterator@DU?$char_traits@D@std@@@std@@@std@@IEAAX_WAEBV_Locinfo@1@@Z DD 082119H
	DD	0135412H
	DD	0113412H
	DD	0e00eb212H
	DD	0600b700cH
	DD	imagerel __GSHandlerCheck
	DD	050H
xdata	ENDS
;	COMDAT xdata
xdata	SEGMENT
$unwind$?_Maklocwcs@std@@YAPEA_WPEB_W@Z DD 060f01H
	DD	07640fH
	DD	06340fH
	DD	0700b320fH
xdata	ENDS
;	COMDAT xdata
xdata	SEGMENT
$unwind$?_Tidy_deallocate@?$basic_string@DU?$char_traits@D@std@@V?$allocator@D@2@@std@@AEAAXXZ DD 020601H
	DD	030023206H
xdata	ENDS
;	COMDAT xdata
xdata	SEGMENT
$unwind$?_Equal@?$basic_string@DU?$char_traits@D@std@@V?$allocator@D@2@@std@@QEBA_NQEBD@Z DD 040a01H
	DD	06340aH
	DD	07006320aH
xdata	ENDS
;	COMDAT xdata
xdata	SEGMENT
$unwind$??0?$basic_string@DU?$char_traits@D@std@@V?$allocator@D@2@@std@@QEAA@QEBD@Z DD 040a01H
	DD	06340aH
	DD	07006320aH
xdata	ENDS
;	COMDAT xdata
xdata	SEGMENT
$unwind$??0?$basic_string@DU?$char_traits@D@std@@V?$allocator@D@2@@std@@QEAA@AEBV01@@Z DD 050a01H
	DD	0e006420aH
	DD	060037004H
	DD	03002H
xdata	ENDS
;	COMDAT xdata
xdata	SEGMENT
$unwind$?allocate@?$allocator@D@std@@QEAAPEAD_K@Z DD 010401H
	DD	04204H
xdata	ENDS
;	COMDAT xdata
xdata	SEGMENT
$unwind$?_Xlen_string@std@@YAXXZ DD 010401H
	DD	04204H
xdata	ENDS
;	COMDAT xdata
xdata	SEGMENT
$unwind$?_Throw_bad_array_new_length@std@@YAXXZ DD 010401H
	DD	08204H
xdata	ENDS
;	COMDAT xdata
xdata	SEGMENT
$unwind$??_Gbad_array_new_length@std@@UEAAPEAXI@Z DD 040a01H
	DD	06340aH
	DD	07006320aH
xdata	ENDS
;	COMDAT xdata
xdata	SEGMENT
$unwind$??0bad_array_new_length@std@@QEAA@AEBV01@@Z DD 020601H
	DD	030023206H
xdata	ENDS
;	COMDAT xdata
xdata	SEGMENT
$unwind$??_Gbad_alloc@std@@UEAAPEAXI@Z DD 040a01H
	DD	06340aH
	DD	07006320aH
xdata	ENDS
;	COMDAT xdata
xdata	SEGMENT
$unwind$??0bad_alloc@std@@QEAA@AEBV01@@Z DD 020601H
	DD	030023206H
xdata	ENDS
;	COMDAT xdata
xdata	SEGMENT
$unwind$??_Gexception@std@@UEAAPEAXI@Z DD 040a01H
	DD	06340aH
	DD	07006320aH
xdata	ENDS
;	COMDAT xdata
xdata	SEGMENT
$unwind$??0exception@std@@QEAA@AEBV01@@Z DD 020601H
	DD	030023206H
xdata	ENDS
;	COMDAT xdata
xdata	SEGMENT
$unwind$?copy@?$_Char_traits@DH@std@@SAPEADQEADQEBD_K@Z DD 020601H
	DD	030023206H
xdata	ENDS
;	COMDAT xdata
xdata	SEGMENT
$unwind$??_H@YAXPEAX_K1P6APEAX0@Z@Z DD 050d01H
	DD	07009420dH
	DD	050076008H
	DD	03006H
xdata	ENDS
CRT$XCU	SEGMENT
?maxFError$initializer$@vecMathTests@aos@physx@@3P6AXXZEA DQ FLAT:??__EmaxFError@vecMathTests@aos@physx@@YAXXZ ; physx::aos::vecMathTests::maxFError$initializer$
CRT$XCU	ENDS
CRT$XCU	SEGMENT
?minV3Error$initializer$@vecMathTests@aos@physx@@3P6AXXZEA DQ FLAT:??__EminV3Error@vecMathTests@aos@physx@@YAXXZ ; physx::aos::vecMathTests::minV3Error$initializer$
CRT$XCU	ENDS
CRT$XCU	SEGMENT
?maxV3Error$initializer$@vecMathTests@aos@physx@@3P6AXXZEA DQ FLAT:??__EmaxV3Error@vecMathTests@aos@physx@@YAXXZ ; physx::aos::vecMathTests::maxV3Error$initializer$
CRT$XCU	ENDS
CRT$XCU	SEGMENT
?minV4Error$initializer$@vecMathTests@aos@physx@@3P6AXXZEA DQ FLAT:??__EminV4Error@vecMathTests@aos@physx@@YAXXZ ; physx::aos::vecMathTests::minV4Error$initializer$
CRT$XCU	ENDS
CRT$XCU	SEGMENT
?maxV4Error$initializer$@vecMathTests@aos@physx@@3P6AXXZEA DQ FLAT:??__EmaxV4Error@vecMathTests@aos@physx@@YAXXZ ; physx::aos::vecMathTests::maxV4Error$initializer$
CRT$XCU	ENDS
; Function compile flags: /Ogtpy
;	COMDAT ??$construct_at@UVertex@@U1@@std@@YAPEAUVertex@@QEAU1@$$QEAU1@@Z
_TEXT	SEGMENT
_Location$ = 8
<_Args_0>$ = 16
??$construct_at@UVertex@@U1@@std@@YAPEAUVertex@@QEAU1@$$QEAU1@@Z PROC ; std::construct_at<Vertex,Vertex>, COMDAT
; File C:\Program Files\Microsoft Visual Studio\18\Community\VC\Tools\MSVC\14.50.35717\include\xutility
; Line 509
	movups	xmm0, XMMWORD PTR [rdx]
	mov	rax, rcx
	movups	XMMWORD PTR [rcx], xmm0
	movups	xmm1, XMMWORD PTR [rdx+16]
	movups	XMMWORD PTR [rcx+16], xmm1
; Line 510
	ret	0
??$construct_at@UVertex@@U1@@std@@YAPEAUVertex@@QEAU1@$$QEAU1@@Z ENDP ; std::construct_at<Vertex,Vertex>
_TEXT	ENDS
; Function compile flags: /Ogtpy
;	COMDAT ??$_Allocate_manually_vector_aligned@U_Default_allocate_traits@std@@@std@@YAPEAX_K@Z
_TEXT	SEGMENT
_Bytes$ = 48
??$_Allocate_manually_vector_aligned@U_Default_allocate_traits@std@@@std@@YAPEAX_K@Z PROC ; std::_Allocate_manually_vector_aligned<std::_Default_allocate_traits>, COMDAT
; File C:\Program Files\Microsoft Visual Studio\18\Community\VC\Tools\MSVC\14.50.35717\include\xmemory
; Line 186
$LN10:
	sub	rsp, 40					; 00000028H
; Line 188
	lea	rax, QWORD PTR [rcx+39]
; Line 189
	cmp	rax, rcx
	jbe	SHORT $LN9@Allocate_m
; Line 140
	mov	rcx, rax
	call	??2@YAPEAX_K@Z				; operator new
	mov	rcx, rax
; Line 194
	test	rax, rax
	jne	SHORT $LN3@Allocate_m
	mov	ecx, 5
	int	41					; 00000029H
$LN3@Allocate_m:
; Line 195
	add	rax, 39					; 00000027H
	and	rax, -32				; ffffffffffffffe0H
; Line 196
	mov	QWORD PTR [rax-8], rcx
; Line 202
	add	rsp, 40					; 00000028H
	ret	0
$LN9@Allocate_m:
; Line 190
	call	?_Throw_bad_array_new_length@std@@YAXXZ	; std::_Throw_bad_array_new_length
	int	3
$LN7@Allocate_m:
??$_Allocate_manually_vector_aligned@U_Default_allocate_traits@std@@@std@@YAPEAX_K@Z ENDP ; std::_Allocate_manually_vector_aligned<std::_Default_allocate_traits>
_TEXT	ENDS
; Function compile flags: /Ogtpy
;	COMDAT ??$construct@UVertex@@U1@@?$_Default_allocator_traits@V?$allocator@UVertex@@@std@@@std@@SAXAEAV?$allocator@UVertex@@@1@QEAUVertex@@$$QEAU3@@Z
_TEXT	SEGMENT
__formal$ = 8
_Ptr$ = 16
<_Args_0>$ = 24
??$construct@UVertex@@U1@@?$_Default_allocator_traits@V?$allocator@UVertex@@@std@@@std@@SAXAEAV?$allocator@UVertex@@@1@QEAUVertex@@$$QEAU3@@Z PROC ; std::_Default_allocator_traits<std::allocator<Vertex> >::construct<Vertex,Vertex>, COMDAT
; File C:\Program Files\Microsoft Visual Studio\18\Community\VC\Tools\MSVC\14.50.35717\include\xmemory
; File C:\Program Files\Microsoft Visual Studio\18\Community\VC\Tools\MSVC\14.50.35717\include\xutility
; Line 509
	movups	xmm0, XMMWORD PTR [r8]
	movups	XMMWORD PTR [rdx], xmm0
	movups	xmm1, XMMWORD PTR [r8+16]
	movups	XMMWORD PTR [rdx+16], xmm1
; File C:\Program Files\Microsoft Visual Studio\18\Community\VC\Tools\MSVC\14.50.35717\include\xmemory
; Line 738
	ret	0
??$construct@UVertex@@U1@@?$_Default_allocator_traits@V?$allocator@UVertex@@@std@@@std@@SAXAEAV?$allocator@UVertex@@@1@QEAUVertex@@$$QEAU3@@Z ENDP ; std::_Default_allocator_traits<std::allocator<Vertex> >::construct<Vertex,Vertex>
_TEXT	ENDS
; Function compile flags: /Ogtpy
;	COMDAT ??$forward@UVertex@@@std@@YA$$QEAUVertex@@AEAU1@@Z
_TEXT	SEGMENT
_Arg$ = 8
??$forward@UVertex@@@std@@YA$$QEAUVertex@@AEAU1@@Z PROC	; std::forward<Vertex>, COMDAT
; File C:\Program Files\Microsoft Visual Studio\18\Community\VC\Tools\MSVC\14.50.35717\include\type_traits
; Line 1510
	mov	rax, rcx
; Line 1511
	ret	0
??$forward@UVertex@@@std@@YA$$QEAUVertex@@AEAU1@@Z ENDP	; std::forward<Vertex>
_TEXT	ENDS
; Function compile flags: /Ogtpy
;	COMDAT ??$_Copy_memmove_tail@PEAUVertex@@@std@@YAPEAUVertex@@QEBDQEAU1@_K2@Z
_TEXT	SEGMENT
_First_ch$ = 48
_Dest$ = 56
_Byte_count$ = 64
_Object_count$ = 72
??$_Copy_memmove_tail@PEAUVertex@@@std@@YAPEAUVertex@@QEBDQEAU1@_K2@Z PROC ; std::_Copy_memmove_tail<Vertex *>, COMDAT
; File C:\Program Files\Microsoft Visual Studio\18\Community\VC\Tools\MSVC\14.50.35717\include\xutility
; Line 4858
$LN4:
	mov	QWORD PTR [rsp+8], rbx
	push	rdi
	sub	rsp, 32					; 00000020H
	mov	rbx, rdx
	mov	rdi, r8
; Line 4862
	mov	rdx, rcx
	mov	rcx, rbx
	call	memmove
; Line 4866
	lea	rax, QWORD PTR [rbx+rdi]
; Line 4870
	mov	rbx, QWORD PTR [rsp+48]
	add	rsp, 32					; 00000020H
	pop	rdi
	ret	0
??$_Copy_memmove_tail@PEAUVertex@@@std@@YAPEAUVertex@@QEBDQEAU1@_K2@Z ENDP ; std::_Copy_memmove_tail<Vertex *>
_TEXT	ENDS
; Function compile flags: /Ogtpy
;	COMDAT ??$move@AEAPEAUVertex@@@std@@YA$$QEAPEAUVertex@@AEAPEAU1@@Z
_TEXT	SEGMENT
_Arg$ = 8
??$move@AEAPEAUVertex@@@std@@YA$$QEAPEAUVertex@@AEAPEAU1@@Z PROC ; std::move<Vertex * &>, COMDAT
; File C:\Program Files\Microsoft Visual Studio\18\Community\VC\Tools\MSVC\14.50.35717\include\type_traits
; Line 1521
	mov	rax, rcx
; Line 1522
	ret	0
??$move@AEAPEAUVertex@@@std@@YA$$QEAPEAUVertex@@AEAPEAU1@@Z ENDP ; std::move<Vertex * &>
_TEXT	ENDS
; Function compile flags: /Ogtpy
;	COMDAT ??$to_address@UVertex@@@std@@YAPEAUVertex@@QEAU1@@Z
_TEXT	SEGMENT
_Val$ = 8
??$to_address@UVertex@@@std@@YAPEAUVertex@@QEAU1@@Z PROC ; std::to_address<Vertex>, COMDAT
; File C:\Program Files\Microsoft Visual Studio\18\Community\VC\Tools\MSVC\14.50.35717\include\xutility
; Line 588
	mov	rax, rcx
; Line 589
	ret	0
??$to_address@UVertex@@@std@@YAPEAUVertex@@QEAU1@@Z ENDP ; std::to_address<Vertex>
_TEXT	ENDS
; Function compile flags: /Ogtpy
;	COMDAT ??$_To_address@PEAUVertex@@@std@@YA?A_PAEBQEAUVertex@@@Z
_TEXT	SEGMENT
_Val$ = 8
??$_To_address@PEAUVertex@@@std@@YA?A_PAEBQEAUVertex@@@Z PROC ; std::_To_address<Vertex *>, COMDAT
; File C:\Program Files\Microsoft Visual Studio\18\Community\VC\Tools\MSVC\14.50.35717\include\xutility
; Line 4708
	mov	rax, QWORD PTR [rcx]
; Line 4709
	ret	0
??$_To_address@PEAUVertex@@@std@@YA?A_PAEBQEAUVertex@@@Z ENDP ; std::_To_address<Vertex *>
_TEXT	ENDS
; Function compile flags: /Ogtpy
;	COMDAT ??$_Get_size_of_n@$00@std@@YA_K_K@Z
_TEXT	SEGMENT
_Count$ = 8
??$_Get_size_of_n@$00@std@@YA_K_K@Z PROC		; std::_Get_size_of_n<1>, COMDAT
; File C:\Program Files\Microsoft Visual Studio\18\Community\VC\Tools\MSVC\14.50.35717\include\xmemory
; Line 126
	mov	rax, rcx
; Line 127
	ret	0
??$_Get_size_of_n@$00@std@@YA_K_K@Z ENDP		; std::_Get_size_of_n<1>
_TEXT	ENDS
; Function compile flags: /Ogtpy
;	COMDAT ??$_Allocate@$0BA@U_Default_allocate_traits@std@@@std@@YAPEAX_K@Z
_TEXT	SEGMENT
_Bytes$ = 48
??$_Allocate@$0BA@U_Default_allocate_traits@std@@@std@@YAPEAX_K@Z PROC ; std::_Allocate<16,std::_Default_allocate_traits>, COMDAT
; File C:\Program Files\Microsoft Visual Studio\18\Community\VC\Tools\MSVC\14.50.35717\include\xmemory
; Line 229
$LN20:
	sub	rsp, 40					; 00000028H
; Line 231
	test	rcx, rcx
	jne	SHORT $LN2@Allocate
; Line 232
	xor	eax, eax
; Line 262
	add	rsp, 40					; 00000028H
	ret	0
$LN2@Allocate:
; Line 255
	cmp	rcx, 4096				; 00001000H
	jb	SHORT $LN4@Allocate
; Line 188
	lea	rax, QWORD PTR [rcx+39]
; Line 189
	cmp	rax, rcx
	jbe	SHORT $LN19@Allocate
; Line 140
	mov	rcx, rax
	call	??2@YAPEAX_K@Z				; operator new
	mov	rcx, rax
; Line 194
	test	rax, rax
	jne	SHORT $LN10@Allocate
	mov	ecx, 5
	int	41					; 00000029H
$LN10@Allocate:
; Line 195
	add	rax, 39					; 00000027H
	and	rax, -32				; ffffffffffffffe0H
; Line 196
	mov	QWORD PTR [rax-8], rcx
; Line 262
	add	rsp, 40					; 00000028H
	ret	0
$LN4@Allocate:
	add	rsp, 40					; 00000028H
; Line 140
	jmp	??2@YAPEAX_K@Z				; operator new
$LN19@Allocate:
; Line 190
	call	?_Throw_bad_array_new_length@std@@YAXXZ	; std::_Throw_bad_array_new_length
	int	3
$LN17@Allocate:
??$_Allocate@$0BA@U_Default_allocate_traits@std@@@std@@YAPEAX_K@Z ENDP ; std::_Allocate<16,std::_Default_allocate_traits>
_TEXT	ENDS
; Function compile flags: /Ogtpy
;	COMDAT ??$_Get_size_of_n@$0CA@@std@@YA_K_K@Z
_TEXT	SEGMENT
_Count$ = 48
??$_Get_size_of_n@$0CA@@std@@YA_K_K@Z PROC		; std::_Get_size_of_n<32>, COMDAT
; File C:\Program Files\Microsoft Visual Studio\18\Community\VC\Tools\MSVC\14.50.35717\include\xmemory
; Line 116
$LN7:
	sub	rsp, 40					; 00000028H
; Line 121
	mov	rax, 576460752303423487			; 07ffffffffffffffH
	cmp	rcx, rax
	ja	SHORT $LN6@Get_size_o
; Line 126
	shl	rcx, 5
	mov	rax, rcx
; Line 127
	add	rsp, 40					; 00000028H
	ret	0
$LN6@Get_size_o:
; Line 122
	call	?_Throw_bad_array_new_length@std@@YAXXZ	; std::_Throw_bad_array_new_length
	int	3
$LN4@Get_size_o:
??$_Get_size_of_n@$0CA@@std@@YA_K_K@Z ENDP		; std::_Get_size_of_n<32>
_TEXT	ENDS
; Function compile flags: /Ogtpy
;	COMDAT ??$_Emplace_back@UVertex@@@?$_Uninitialized_backout_al@V?$allocator@UVertex@@@std@@@std@@QEAAX$$QEAUVertex@@@Z
_TEXT	SEGMENT
this$ = 8
<_Vals_0>$ = 16
??$_Emplace_back@UVertex@@@?$_Uninitialized_backout_al@V?$allocator@UVertex@@@std@@@std@@QEAAX$$QEAUVertex@@@Z PROC ; std::_Uninitialized_backout_al<std::allocator<Vertex> >::_Emplace_back<Vertex>, COMDAT
; File C:\Program Files\Microsoft Visual Studio\18\Community\VC\Tools\MSVC\14.50.35717\include\xmemory
; Line 1864
	mov	rax, QWORD PTR [rcx+8]
; File C:\Program Files\Microsoft Visual Studio\18\Community\VC\Tools\MSVC\14.50.35717\include\xutility
; Line 509
	movups	xmm0, XMMWORD PTR [rdx]
	movups	XMMWORD PTR [rax], xmm0
	movups	xmm1, XMMWORD PTR [rdx+16]
	movups	XMMWORD PTR [rax+16], xmm1
; File C:\Program Files\Microsoft Visual Studio\18\Community\VC\Tools\MSVC\14.50.35717\include\xmemory
; Line 1865
	add	QWORD PTR [rcx+8], 32			; 00000020H
; Line 1866
	ret	0
??$_Emplace_back@UVertex@@@?$_Uninitialized_backout_al@V?$allocator@UVertex@@@std@@@std@@QEAAX$$QEAUVertex@@@Z ENDP ; std::_Uninitialized_backout_al<std::allocator<Vertex> >::_Emplace_back<Vertex>
_TEXT	ENDS
; Function compile flags: /Ogtpy
;	COMDAT ?_Release@?$_Uninitialized_backout_al@V?$allocator@UVertex@@@std@@@std@@QEAAPEAUVertex@@XZ
_TEXT	SEGMENT
this$ = 8
?_Release@?$_Uninitialized_backout_al@V?$allocator@UVertex@@@std@@@std@@QEAAPEAUVertex@@XZ PROC ; std::_Uninitialized_backout_al<std::allocator<Vertex> >::_Release, COMDAT
; File C:\Program Files\Microsoft Visual Studio\18\Community\VC\Tools\MSVC\14.50.35717\include\xmemory
; Line 1869
	mov	rax, QWORD PTR [rcx+8]
	mov	QWORD PTR [rcx], rax
; Line 1871
	ret	0
?_Release@?$_Uninitialized_backout_al@V?$allocator@UVertex@@@std@@@std@@QEAAPEAUVertex@@XZ ENDP ; std::_Uninitialized_backout_al<std::allocator<Vertex> >::_Release
_TEXT	ENDS
; Function compile flags: /Ogtpy
;	COMDAT ??1?$_Uninitialized_backout_al@V?$allocator@UVertex@@@std@@@std@@QEAA@XZ
_TEXT	SEGMENT
this$ = 8
??1?$_Uninitialized_backout_al@V?$allocator@UVertex@@@std@@@std@@QEAA@XZ PROC ; std::_Uninitialized_backout_al<std::allocator<Vertex> >::~_Uninitialized_backout_al<std::allocator<Vertex> >, COMDAT
; File C:\Program Files\Microsoft Visual Studio\18\Community\VC\Tools\MSVC\14.50.35717\include\xmemory
; Line 1860
	ret	0
??1?$_Uninitialized_backout_al@V?$allocator@UVertex@@@std@@@std@@QEAA@XZ ENDP ; std::_Uninitialized_backout_al<std::allocator<Vertex> >::~_Uninitialized_backout_al<std::allocator<Vertex> >
_TEXT	ENDS
; Function compile flags: /Ogtpy
;	COMDAT ??0?$_Uninitialized_backout_al@V?$allocator@UVertex@@@std@@@std@@QEAA@PEAUVertex@@AEAV?$allocator@UVertex@@@1@@Z
_TEXT	SEGMENT
this$ = 8
_Dest$ = 16
_Al_$ = 24
??0?$_Uninitialized_backout_al@V?$allocator@UVertex@@@std@@@std@@QEAA@PEAUVertex@@AEAV?$allocator@UVertex@@@1@@Z PROC ; std::_Uninitialized_backout_al<std::allocator<Vertex> >::_Uninitialized_backout_al<std::allocator<Vertex> >, COMDAT
; File C:\Program Files\Microsoft Visual Studio\18\Community\VC\Tools\MSVC\14.50.35717\include\xmemory
; Line 1853
	mov	QWORD PTR [rcx], rdx
	mov	rax, rcx
	mov	QWORD PTR [rcx+8], rdx
	mov	QWORD PTR [rcx+16], r8
	ret	0
??0?$_Uninitialized_backout_al@V?$allocator@UVertex@@@std@@@std@@QEAA@PEAUVertex@@AEAV?$allocator@UVertex@@@1@@Z ENDP ; std::_Uninitialized_backout_al<std::allocator<Vertex> >::_Uninitialized_backout_al<std::allocator<Vertex> >
_TEXT	ENDS
; Function compile flags: /Ogtpy
;	COMDAT ??$_Copy_memmove@PEAUVertex@@PEAU1@@std@@YAPEAUVertex@@PEAU1@00@Z
_TEXT	SEGMENT
_First$ = 48
_Last$ = 56
_Dest$ = 64
??$_Copy_memmove@PEAUVertex@@PEAU1@@std@@YAPEAUVertex@@PEAU1@00@Z PROC ; std::_Copy_memmove<Vertex *,Vertex *>, COMDAT
; File C:\Program Files\Microsoft Visual Studio\18\Community\VC\Tools\MSVC\14.50.35717\include\xutility
; Line 4873
$LN6:
	mov	QWORD PTR [rsp+8], rbx
	push	rdi
	sub	rsp, 32					; 00000020H
	mov	rbx, rdx
	mov	rdi, r8
; Line 4880
	sub	rbx, rcx
; Line 4862
	mov	rdx, rcx
	mov	r8, rbx
	mov	rcx, rdi
	call	memmove
; Line 4866
	lea	rax, QWORD PTR [rbx+rdi]
; Line 4882
	mov	rbx, QWORD PTR [rsp+48]
	add	rsp, 32					; 00000020H
	pop	rdi
	ret	0
??$_Copy_memmove@PEAUVertex@@PEAU1@@std@@YAPEAUVertex@@PEAU1@00@Z ENDP ; std::_Copy_memmove<Vertex *,Vertex *>
_TEXT	ENDS
; Function compile flags: /Ogtpy
;	COMDAT ??$move@AEAUVertex@@@std@@YA$$QEAUVertex@@AEAU1@@Z
_TEXT	SEGMENT
_Arg$ = 8
??$move@AEAUVertex@@@std@@YA$$QEAUVertex@@AEAU1@@Z PROC	; std::move<Vertex &>, COMDAT
; File C:\Program Files\Microsoft Visual Studio\18\Community\VC\Tools\MSVC\14.50.35717\include\type_traits
; Line 1521
	mov	rax, rcx
; Line 1522
	ret	0
??$move@AEAUVertex@@@std@@YA$$QEAUVertex@@AEAU1@@Z ENDP	; std::move<Vertex &>
_TEXT	ENDS
; Function compile flags: /Ogtpy
;	COMDAT ??$_Get_unwrapped@AEBQEAUVertex@@@std@@YA?A_TAEBQEAUVertex@@@Z
_TEXT	SEGMENT
_It$ = 8
??$_Get_unwrapped@AEBQEAUVertex@@@std@@YA?A_TAEBQEAUVertex@@@Z PROC ; std::_Get_unwrapped<Vertex * const &>, COMDAT
; File C:\Program Files\Microsoft Visual Studio\18\Community\VC\Tools\MSVC\14.50.35717\include\xutility
; Line 1448
	mov	rax, QWORD PTR [rcx]
; Line 1454
	ret	0
??$_Get_unwrapped@AEBQEAUVertex@@@std@@YA?A_TAEBQEAUVertex@@@Z ENDP ; std::_Get_unwrapped<Vertex * const &>
_TEXT	ENDS
; Function compile flags: /Ogtpy
;	COMDAT ??$construct_at@UVertex@@AEBU1@@std@@YAPEAUVertex@@QEAU1@AEBU1@@Z
_TEXT	SEGMENT
_Location$ = 8
<_Args_0>$ = 16
??$construct_at@UVertex@@AEBU1@@std@@YAPEAUVertex@@QEAU1@AEBU1@@Z PROC ; std::construct_at<Vertex,Vertex const &>, COMDAT
; File C:\Program Files\Microsoft Visual Studio\18\Community\VC\Tools\MSVC\14.50.35717\include\xutility
; Line 509
	movups	xmm0, XMMWORD PTR [rdx]
	mov	rax, rcx
	movups	XMMWORD PTR [rcx], xmm0
	movups	xmm1, XMMWORD PTR [rdx+16]
	movups	XMMWORD PTR [rcx+16], xmm1
; Line 510
	ret	0
??$construct_at@UVertex@@AEBU1@@std@@YAPEAUVertex@@QEAU1@AEBU1@@Z ENDP ; std::construct_at<Vertex,Vertex const &>
_TEXT	ENDS
; Function compile flags: /Ogtpy
;	COMDAT ??$addressof@UVertex@@@std@@YAPEAUVertex@@AEAU1@@Z
_TEXT	SEGMENT
_Val$ = 8
??$addressof@UVertex@@@std@@YAPEAUVertex@@AEAU1@@Z PROC	; std::addressof<Vertex>, COMDAT
; File C:\Program Files\Microsoft Visual Studio\18\Community\VC\Tools\MSVC\14.50.35717\include\type_traits
; Line 1533
	mov	rax, rcx
; Line 1534
	ret	0
??$addressof@UVertex@@@std@@YAPEAUVertex@@AEAU1@@Z ENDP	; std::addressof<Vertex>
_TEXT	ENDS
; Function compile flags: /Ogtpy
;	COMDAT ??$_Destroy_in_place@PEAD@std@@YAXAEAPEAD@Z
_TEXT	SEGMENT
_Obj$ = 8
??$_Destroy_in_place@PEAD@std@@YAXAEAPEAD@Z PROC	; std::_Destroy_in_place<char *>, COMDAT
; File C:\Program Files\Microsoft Visual Studio\18\Community\VC\Tools\MSVC\14.50.35717\include\xmemory
; Line 330
	ret	0
??$_Destroy_in_place@PEAD@std@@YAXAEAPEAD@Z ENDP	; std::_Destroy_in_place<char *>
_TEXT	ENDS
; Function compile flags: /Ogtpy
;	COMDAT ??$_Deallocate@$0BA@@std@@YAXPEAX_K@Z
_TEXT	SEGMENT
_Ptr$ = 8
_Bytes$ = 16
??$_Deallocate@$0BA@@std@@YAXPEAX_K@Z PROC		; std::_Deallocate<16>, COMDAT
; File C:\Program Files\Microsoft Visual Studio\18\Community\VC\Tools\MSVC\14.50.35717\include\xmemory
; Line 288
	cmp	rdx, 4096				; 00001000H
	jb	SHORT $LN9@Deallocate
; Line 209
	mov	rax, QWORD PTR [rcx-8]
; Line 223
	sub	rcx, rax
	sub	rcx, 8
	cmp	rcx, 31
	ja	SHORT $LN8@Deallocate
; Line 224
	add	rdx, 39					; 00000027H
	mov	rcx, rax
$LN9@Deallocate:
; Line 293
	jmp	??3@YAXPEAX_K@Z				; operator delete
$LN8@Deallocate:
; Line 223
	mov	ecx, 5
	int	41					; 00000029H
$LN11@Deallocate:
??$_Deallocate@$0BA@@std@@YAXPEAX_K@Z ENDP		; std::_Deallocate<16>
_TEXT	ENDS
; Function compile flags: /Ogtpy
;	COMDAT ??$_Uninitialized_move@PEAUVertex@@V?$allocator@UVertex@@@std@@@std@@YAPEAUVertex@@QEAU1@0PEAU1@AEAV?$allocator@UVertex@@@0@@Z
_TEXT	SEGMENT
_First$ = 48
_Last$ = 56
_Dest$ = 64
_Al$ = 72
??$_Uninitialized_move@PEAUVertex@@V?$allocator@UVertex@@@std@@@std@@YAPEAUVertex@@QEAU1@0PEAU1@AEAV?$allocator@UVertex@@@0@@Z PROC ; std::_Uninitialized_move<Vertex *,std::allocator<Vertex> >, COMDAT
; File C:\Program Files\Microsoft Visual Studio\18\Community\VC\Tools\MSVC\14.50.35717\include\xmemory
; Line 1997
$LN29:
	mov	QWORD PTR [rsp+8], rbx
	push	rdi
	sub	rsp, 32					; 00000020H
	mov	rdi, rdx
	mov	rbx, r8
; File C:\Program Files\Microsoft Visual Studio\18\Community\VC\Tools\MSVC\14.50.35717\include\xutility
; Line 4880
	sub	rdi, rcx
; Line 4862
	mov	rdx, rcx
	mov	r8, rdi
	mov	rcx, rbx
	call	memmove
; File C:\Program Files\Microsoft Visual Studio\18\Community\VC\Tools\MSVC\14.50.35717\include\xmemory
; Line 2013
	and	rdi, -32				; ffffffffffffffe0H
	lea	rax, QWORD PTR [rbx+rdi]
; Line 2023
	mov	rbx, QWORD PTR [rsp+48]
	add	rsp, 32					; 00000020H
	pop	rdi
	ret	0
??$_Uninitialized_move@PEAUVertex@@V?$allocator@UVertex@@@std@@@std@@YAPEAUVertex@@QEAU1@0PEAU1@AEAV?$allocator@UVertex@@@0@@Z ENDP ; std::_Uninitialized_move<Vertex *,std::allocator<Vertex> >
_TEXT	ENDS
; Function compile flags: /Ogtpy
;	COMDAT ??$construct@UVertex@@AEBU1@@?$_Default_allocator_traits@V?$allocator@UVertex@@@std@@@std@@SAXAEAV?$allocator@UVertex@@@1@QEAUVertex@@AEBU3@@Z
_TEXT	SEGMENT
__formal$ = 8
_Ptr$ = 16
<_Args_0>$ = 24
??$construct@UVertex@@AEBU1@@?$_Default_allocator_traits@V?$allocator@UVertex@@@std@@@std@@SAXAEAV?$allocator@UVertex@@@1@QEAUVertex@@AEBU3@@Z PROC ; std::_Default_allocator_traits<std::allocator<Vertex> >::construct<Vertex,Vertex const &>, COMDAT
; File C:\Program Files\Microsoft Visual Studio\18\Community\VC\Tools\MSVC\14.50.35717\include\xmemory
; File C:\Program Files\Microsoft Visual Studio\18\Community\VC\Tools\MSVC\14.50.35717\include\xutility
; Line 509
	movups	xmm0, XMMWORD PTR [r8]
	movups	XMMWORD PTR [rdx], xmm0
	movups	xmm1, XMMWORD PTR [r8+16]
	movups	XMMWORD PTR [rdx+16], xmm1
; File C:\Program Files\Microsoft Visual Studio\18\Community\VC\Tools\MSVC\14.50.35717\include\xmemory
; Line 738
	ret	0
??$construct@UVertex@@AEBU1@@?$_Default_allocator_traits@V?$allocator@UVertex@@@std@@@std@@SAXAEAV?$allocator@UVertex@@@1@QEAUVertex@@AEBU3@@Z ENDP ; std::_Default_allocator_traits<std::allocator<Vertex> >::construct<Vertex,Vertex const &>
_TEXT	ENDS
; Function compile flags: /Ogtpy
;	COMDAT ??$_Unfancy@UVertex@@@std@@YAPEAUVertex@@PEAU1@@Z
_TEXT	SEGMENT
_Ptr$ = 8
??$_Unfancy@UVertex@@@std@@YAPEAUVertex@@PEAU1@@Z PROC	; std::_Unfancy<Vertex>, COMDAT
; File C:\Program Files\Microsoft Visual Studio\18\Community\VC\Tools\MSVC\14.50.35717\include\xmemory
; Line 73
	mov	rax, rcx
; Line 74
	ret	0
??$_Unfancy@UVertex@@@std@@YAPEAUVertex@@PEAU1@@Z ENDP	; std::_Unfancy<Vertex>
_TEXT	ENDS
; Function compile flags: /Ogtpy
;	COMDAT ??1_Reallocation_guard@?$vector@UVertex@@V?$allocator@UVertex@@@std@@@std@@QEAA@XZ
_TEXT	SEGMENT
this$ = 8
??1_Reallocation_guard@?$vector@UVertex@@V?$allocator@UVertex@@@std@@@std@@QEAA@XZ PROC ; std::vector<Vertex,std::allocator<Vertex> >::_Reallocation_guard::~_Reallocation_guard, COMDAT
; File C:\Program Files\Microsoft Visual Studio\18\Community\VC\Tools\MSVC\14.50.35717\include\vector
; Line 621
	mov	rax, QWORD PTR [rcx+8]
	test	rax, rax
	je	SHORT $LN8@Reallocati
; File C:\Program Files\Microsoft Visual Studio\18\Community\VC\Tools\MSVC\14.50.35717\include\xmemory
; Line 989
	mov	rdx, QWORD PTR [rcx+16]
	shl	rdx, 5
; Line 288
	cmp	rdx, 4096				; 00001000H
	jb	SHORT $LN20@Reallocati
; Line 209
	mov	rcx, QWORD PTR [rax-8]
; Line 223
	sub	rax, rcx
	sub	rax, 8
	cmp	rax, 31
	ja	SHORT $LN15@Reallocati
; Line 206
	add	rdx, 39					; 00000027H
; Line 293
	jmp	??3@YAXPEAX_K@Z				; operator delete
$LN15@Reallocati:
; Line 223
	mov	ecx, 5
	int	41					; 00000029H
$LN20@Reallocati:
; Line 989
	mov	rcx, rax
; Line 293
	jmp	??3@YAXPEAX_K@Z				; operator delete
$LN8@Reallocati:
; File C:\Program Files\Microsoft Visual Studio\18\Community\VC\Tools\MSVC\14.50.35717\include\vector
; Line 625
	ret	0
$LN21@Reallocati:
??1_Reallocation_guard@?$vector@UVertex@@V?$allocator@UVertex@@@std@@@std@@QEAA@XZ ENDP ; std::vector<Vertex,std::allocator<Vertex> >::_Reallocation_guard::~_Reallocation_guard
_TEXT	ENDS
; Function compile flags: /Ogtpy
;	COMDAT ??$_Allocate_at_least_helper@V?$allocator@UVertex@@@std@@@std@@YAPEAUVertex@@AEAV?$allocator@UVertex@@@0@AEA_K@Z
_TEXT	SEGMENT
_Al$ = 48
_Count$ = 56
??$_Allocate_at_least_helper@V?$allocator@UVertex@@@std@@@std@@YAPEAUVertex@@AEAV?$allocator@UVertex@@@0@AEA_K@Z PROC ; std::_Allocate_at_least_helper<std::allocator<Vertex> >, COMDAT
; File C:\Program Files\Microsoft Visual Studio\18\Community\VC\Tools\MSVC\14.50.35717\include\xmemory
; Line 2314
$LN30:
	sub	rsp, 40					; 00000028H
; Line 2323
	mov	rcx, QWORD PTR [rdx]
; Line 121
	mov	rax, 576460752303423487			; 07ffffffffffffffH
	cmp	rcx, rax
	ja	SHORT $LN26@Allocate_a
; Line 126
	shl	rcx, 5
; Line 231
	test	rcx, rcx
	jne	SHORT $LN10@Allocate_a
; Line 232
	xor	eax, eax
; Line 2325
	add	rsp, 40					; 00000028H
	ret	0
$LN10@Allocate_a:
; Line 255
	cmp	rcx, 4096				; 00001000H
	jb	SHORT $LN12@Allocate_a
; Line 188
	lea	rax, QWORD PTR [rcx+39]
; Line 189
	cmp	rax, rcx
	jbe	SHORT $LN26@Allocate_a
; Line 140
	mov	rcx, rax
	call	??2@YAPEAX_K@Z				; operator new
	mov	rcx, rax
; Line 194
	test	rax, rax
	jne	SHORT $LN18@Allocate_a
	mov	ecx, 5
	int	41					; 00000029H
$LN18@Allocate_a:
; Line 195
	add	rax, 39					; 00000027H
	and	rax, -32				; ffffffffffffffe0H
; Line 196
	mov	QWORD PTR [rax-8], rcx
; Line 2325
	add	rsp, 40					; 00000028H
	ret	0
$LN12@Allocate_a:
	add	rsp, 40					; 00000028H
; Line 140
	jmp	??2@YAPEAX_K@Z				; operator new
$LN26@Allocate_a:
; Line 190
	call	?_Throw_bad_array_new_length@std@@YAXXZ	; std::_Throw_bad_array_new_length
	int	3
$LN28@Allocate_a:
??$_Allocate_at_least_helper@V?$allocator@UVertex@@@std@@@std@@YAPEAUVertex@@AEAV?$allocator@UVertex@@@0@AEA_K@Z ENDP ; std::_Allocate_at_least_helper<std::allocator<Vertex> >
_TEXT	ENDS
; Function compile flags: /Ogtpy
;	COMDAT ??$_Construct_in_place@UVertex@@AEBU1@@std@@YAXAEAUVertex@@AEBU1@@Z
_TEXT	SEGMENT
_Obj$ = 8
<_Args_0>$ = 16
??$_Construct_in_place@UVertex@@AEBU1@@std@@YAXAEAUVertex@@AEBU1@@Z PROC ; std::_Construct_in_place<Vertex,Vertex const &>, COMDAT
; File C:\Program Files\Microsoft Visual Studio\18\Community\VC\Tools\MSVC\14.50.35717\include\xutility
; Line 522
	movups	xmm0, XMMWORD PTR [rdx]
	movups	XMMWORD PTR [rcx], xmm0
	movups	xmm1, XMMWORD PTR [rdx+16]
	movups	XMMWORD PTR [rcx+16], xmm1
; Line 524
	ret	0
??$_Construct_in_place@UVertex@@AEBU1@@std@@YAXAEAUVertex@@AEBU1@@Z ENDP ; std::_Construct_in_place<Vertex,Vertex const &>
_TEXT	ENDS
; Function compile flags: /Ogtpy
;	COMDAT ??$construct_at@PEADAEBQEAD@std@@YAPEAPEADQEAPEADAEBQEAD@Z
_TEXT	SEGMENT
_Location$ = 8
<_Args_0>$ = 16
??$construct_at@PEADAEBQEAD@std@@YAPEAPEADQEAPEADAEBQEAD@Z PROC ; std::construct_at<char *,char * const &>, COMDAT
; File C:\Program Files\Microsoft Visual Studio\18\Community\VC\Tools\MSVC\14.50.35717\include\xutility
; Line 509
	mov	rax, QWORD PTR [rdx]
	mov	QWORD PTR [rcx], rax
	mov	rax, rcx
; Line 510
	ret	0
??$construct_at@PEADAEBQEAD@std@@YAPEAPEADQEAPEADAEBQEAD@Z ENDP ; std::construct_at<char *,char * const &>
_TEXT	ENDS
; Function compile flags: /Ogtpy
;	COMDAT ??$forward@AEBQEAD@std@@YAAEBQEADAEBQEAD@Z
_TEXT	SEGMENT
_Arg$ = 8
??$forward@AEBQEAD@std@@YAAEBQEADAEBQEAD@Z PROC		; std::forward<char * const &>, COMDAT
; File C:\Program Files\Microsoft Visual Studio\18\Community\VC\Tools\MSVC\14.50.35717\include\type_traits
; Line 1510
	mov	rax, rcx
; Line 1511
	ret	0
??$forward@AEBQEAD@std@@YAAEBQEADAEBQEAD@Z ENDP		; std::forward<char * const &>
_TEXT	ENDS
; Function compile flags: /Ogtpy
;	COMDAT ??$addressof@PEAD@std@@YAPEAPEADAEAPEAD@Z
_TEXT	SEGMENT
_Val$ = 8
??$addressof@PEAD@std@@YAPEAPEADAEAPEAD@Z PROC		; std::addressof<char *>, COMDAT
; File C:\Program Files\Microsoft Visual Studio\18\Community\VC\Tools\MSVC\14.50.35717\include\type_traits
; Line 1533
	mov	rax, rcx
; Line 1534
	ret	0
??$addressof@PEAD@std@@YAPEAPEADAEAPEAD@Z ENDP		; std::addressof<char *>
_TEXT	ENDS
; Function compile flags: /Ogtpy
;	COMDAT ??$_Traits_equal@U?$char_traits@D@std@@@std@@YA_NQEBD_K01@Z
_TEXT	SEGMENT
_Left$ = 48
_Left_size$ = 56
_Right$ = 64
_Right_size$ = 72
??$_Traits_equal@U?$char_traits@D@std@@@std@@YA_NQEBD_K01@Z PROC ; std::_Traits_equal<std::char_traits<char> >, COMDAT
; File C:\Program Files\Microsoft Visual Studio\18\Community\VC\Tools\MSVC\14.50.35717\include\__msvc_string_view.hpp
; Line 671
$LN11:
	sub	rsp, 40					; 00000028H
	mov	rax, r8
; Line 673
	cmp	rdx, r9
	je	SHORT $LN2@Traits_equ
; Line 674
	xor	al, al
; Line 682
	add	rsp, 40					; 00000028H
	ret	0
$LN2@Traits_equ:
; Line 677
	test	rdx, rdx
	jne	SHORT $LN3@Traits_equ
; Line 678
	mov	al, 1
; Line 682
	add	rsp, 40					; 00000028H
	ret	0
$LN3@Traits_equ:
; Line 511
	mov	r8, rdx
	mov	rdx, rax
	call	memcmp
; Line 681
	test	eax, eax
	sete	al
; Line 682
	add	rsp, 40					; 00000028H
	ret	0
??$_Traits_equal@U?$char_traits@D@std@@@std@@YA_NQEBD_K01@Z ENDP ; std::_Traits_equal<std::char_traits<char> >
_TEXT	ENDS
; Function compile flags: /Ogtpy
;	COMDAT ??$_Destroy_range@V?$allocator@UVertex@@@std@@@std@@YAXPEAUVertex@@QEAU1@AEAV?$allocator@UVertex@@@0@@Z
_TEXT	SEGMENT
_First$ = 8
_Last$ = 16
_Al$ = 24
??$_Destroy_range@V?$allocator@UVertex@@@std@@@std@@YAXPEAUVertex@@QEAU1@AEAV?$allocator@UVertex@@@0@@Z PROC ; std::_Destroy_range<std::allocator<Vertex> >, COMDAT
; File C:\Program Files\Microsoft Visual Studio\18\Community\VC\Tools\MSVC\14.50.35717\include\xmemory
; Line 1110
	ret	0
??$_Destroy_range@V?$allocator@UVertex@@@std@@@std@@YAXPEAUVertex@@QEAU1@AEAV?$allocator@UVertex@@@0@@Z ENDP ; std::_Destroy_range<std::allocator<Vertex> >
_TEXT	ENDS
; Function compile flags: /Ogtpy
;	COMDAT ??$forward@V?$allocator@D@std@@@std@@YA$$QEAV?$allocator@D@0@AEAV10@@Z
_TEXT	SEGMENT
_Arg$ = 8
??$forward@V?$allocator@D@std@@@std@@YA$$QEAV?$allocator@D@0@AEAV10@@Z PROC ; std::forward<std::allocator<char> >, COMDAT
; File C:\Program Files\Microsoft Visual Studio\18\Community\VC\Tools\MSVC\14.50.35717\include\type_traits
; Line 1510
	mov	rax, rcx
; Line 1511
	ret	0
??$forward@V?$allocator@D@std@@@std@@YA$$QEAV?$allocator@D@0@AEAV10@@Z ENDP ; std::forward<std::allocator<char> >
_TEXT	ENDS
; Function compile flags: /Ogtpy
;	COMDAT ??$_Traits_copy_batch@U?$char_traits@D@std@@D@std@@YAXQEADQEBD_K@Z
_TEXT	SEGMENT
_First1$ = 8
_First2$ = 16
_Count$ = 24
??$_Traits_copy_batch@U?$char_traits@D@std@@D@std@@YAXQEADQEBD_K@Z PROC ; std::_Traits_copy_batch<std::char_traits<char>,char>, COMDAT
; File C:\Program Files\Microsoft Visual Studio\18\Community\VC\Tools\MSVC\14.50.35717\include\xstring
; File C:\Program Files\Microsoft Visual Studio\18\Community\VC\Tools\MSVC\14.50.35717\include\__msvc_string_view.hpp
; Line 200
	jmp	memcpy
??$_Traits_copy_batch@U?$char_traits@D@std@@D@std@@YAXQEADQEBD_K@Z ENDP ; std::_Traits_copy_batch<std::char_traits<char>,char>
_TEXT	ENDS
; Function compile flags: /Ogtpy
;	COMDAT ??$forward@PEAUVertex@@@std@@YA$$QEAPEAUVertex@@AEAPEAU1@@Z
_TEXT	SEGMENT
_Arg$ = 8
??$forward@PEAUVertex@@@std@@YA$$QEAPEAUVertex@@AEAPEAU1@@Z PROC ; std::forward<Vertex *>, COMDAT
; File C:\Program Files\Microsoft Visual Studio\18\Community\VC\Tools\MSVC\14.50.35717\include\type_traits
; Line 1510
	mov	rax, rcx
; Line 1511
	ret	0
??$forward@PEAUVertex@@@std@@YA$$QEAPEAUVertex@@AEAPEAU1@@Z ENDP ; std::forward<Vertex *>
_TEXT	ENDS
; Function compile flags: /Ogtpy
;	COMDAT ??$forward@V?$allocator@UVertex@@@std@@@std@@YA$$QEAV?$allocator@UVertex@@@0@AEAV10@@Z
_TEXT	SEGMENT
_Arg$ = 8
??$forward@V?$allocator@UVertex@@@std@@@std@@YA$$QEAV?$allocator@UVertex@@@0@AEAV10@@Z PROC ; std::forward<std::allocator<Vertex> >, COMDAT
; File C:\Program Files\Microsoft Visual Studio\18\Community\VC\Tools\MSVC\14.50.35717\include\type_traits
; Line 1510
	mov	rax, rcx
; Line 1511
	ret	0
??$forward@V?$allocator@UVertex@@@std@@@std@@YA$$QEAV?$allocator@UVertex@@@0@AEAV10@@Z ENDP ; std::forward<std::allocator<Vertex> >
_TEXT	ENDS
; Function compile flags: /Ogtpy
;	COMDAT ??$_Emplace_reallocate@AEBUVertex@@@?$vector@UVertex@@V?$allocator@UVertex@@@std@@@std@@AEAAPEAUVertex@@QEAU2@AEBU2@@Z
_TEXT	SEGMENT
this$ = 64
_Whereptr$ = 72
<_Val_0>$ = 80
??$_Emplace_reallocate@AEBUVertex@@@?$vector@UVertex@@V?$allocator@UVertex@@@std@@@std@@AEAAPEAUVertex@@QEAU2@AEBU2@@Z PROC ; std::vector<Vertex,std::allocator<Vertex> >::_Emplace_reallocate<Vertex const &>, COMDAT
; File C:\Program Files\Microsoft Visual Studio\18\Community\VC\Tools\MSVC\14.50.35717\include\vector
; Line 875
$LN185:
	mov	QWORD PTR [rsp+32], rsi
	push	r12
	push	r14
	push	r15
	sub	rsp, 32					; 00000020H
; Line 884
	mov	r14, QWORD PTR [rcx]
	mov	r12, r8
; Line 885
	mov	r9, QWORD PTR [rcx+8]
; Line 887
	mov	r8, 576460752303423487			; 07ffffffffffffffH
	sub	r9, r14
	mov	r15, rdx
	sar	r9, 5
	mov	rsi, rcx
	cmp	r9, r8
	je	$LN183@Emplace_re
; Line 1924
	mov	rcx, QWORD PTR [rcx+16]
; Line 2011
	mov	rax, r8
; Line 1924
	sub	rcx, r14
	mov	QWORD PTR [rsp+64], rbx
	sar	rcx, 5
; Line 2011
	mov	rdx, rcx
	mov	QWORD PTR [rsp+72], rbp
	shr	rdx, 1
	sub	rax, rdx
	mov	QWORD PTR [rsp+80], rdi
	cmp	rcx, rax
	ja	$LN162@Emplace_re
; Line 891
	lea	rbp, QWORD PTR [r9+1]
; Line 2015
	lea	rax, QWORD PTR [rcx+rdx]
; File C:\Program Files\Microsoft Visual Studio\18\Community\VC\Tools\MSVC\14.50.35717\include\xmemory
; Line 121
	mov	rdi, rbp
	cmp	rax, rbp
	cmovae	rdi, rax
	cmp	rdi, r8
	ja	$LN162@Emplace_re
; Line 126
	shl	rdi, 5
; Line 231
	test	rdi, rdi
	jne	SHORT $LN23@Emplace_re
; Line 232
	xor	ebx, ebx
	jmp	SHORT $LN22@Emplace_re
$LN23@Emplace_re:
; Line 255
	cmp	rdi, 4096				; 00001000H
	jb	SHORT $LN25@Emplace_re
; Line 188
	lea	rcx, QWORD PTR [rdi+39]
; Line 189
	cmp	rcx, rdi
	jbe	$LN162@Emplace_re
; Line 140
	call	??2@YAPEAX_K@Z				; operator new
; Line 194
	test	rax, rax
	je	$LN122@Emplace_re
; Line 195
	lea	rbx, QWORD PTR [rax+39]
	and	rbx, -32				; ffffffffffffffe0H
; Line 196
	mov	QWORD PTR [rbx-8], rax
; Line 257
	jmp	SHORT $LN22@Emplace_re
$LN25@Emplace_re:
; Line 140
	mov	rcx, rdi
	call	??2@YAPEAX_K@Z				; operator new
	mov	rbx, rax
$LN22@Emplace_re:
; File C:\Program Files\Microsoft Visual Studio\18\Community\VC\Tools\MSVC\14.50.35717\include\xutility
; Line 509
	movups	xmm0, XMMWORD PTR [r12]
; File C:\Program Files\Microsoft Visual Studio\18\Community\VC\Tools\MSVC\14.50.35717\include\vector
; Line 884
	mov	rcx, r15
	sub	rcx, r14
; Line 900
	and	rcx, -32				; ffffffffffffffe0H
; File C:\Program Files\Microsoft Visual Studio\18\Community\VC\Tools\MSVC\14.50.35717\include\xutility
; Line 509
	movups	XMMWORD PTR [rcx+rbx], xmm0
; File C:\Program Files\Microsoft Visual Studio\18\Community\VC\Tools\MSVC\14.50.35717\include\vector
; Line 900
	lea	r14, QWORD PTR [rcx+rbx]
; Line 903
	mov	rcx, rbx
; File C:\Program Files\Microsoft Visual Studio\18\Community\VC\Tools\MSVC\14.50.35717\include\xutility
; Line 509
	movups	xmm1, XMMWORD PTR [r12+16]
	movups	XMMWORD PTR [r14+16], xmm1
; File C:\Program Files\Microsoft Visual Studio\18\Community\VC\Tools\MSVC\14.50.35717\include\vector
; Line 903
	mov	r8, QWORD PTR [rsi+8]
	mov	rdx, QWORD PTR [rsi]
	cmp	r15, r8
	jne	SHORT $LN3@Emplace_re
; File C:\Program Files\Microsoft Visual Studio\18\Community\VC\Tools\MSVC\14.50.35717\include\xutility
; Line 4880
	sub	r8, rdx
; File C:\Program Files\Microsoft Visual Studio\18\Community\VC\Tools\MSVC\14.50.35717\include\vector
; Line 909
	jmp	SHORT $LN181@Emplace_re
$LN3@Emplace_re:
; File C:\Program Files\Microsoft Visual Studio\18\Community\VC\Tools\MSVC\14.50.35717\include\xutility
; Line 4880
	mov	r8, r15
	sub	r8, rdx
; Line 4862
	call	memmove
; Line 4880
	mov	r8, QWORD PTR [rsi+8]
; File C:\Program Files\Microsoft Visual Studio\18\Community\VC\Tools\MSVC\14.50.35717\include\vector
; Line 912
	lea	rcx, QWORD PTR [r14+32]
; File C:\Program Files\Microsoft Visual Studio\18\Community\VC\Tools\MSVC\14.50.35717\include\xutility
; Line 4880
	sub	r8, r15
; Line 4862
	mov	rdx, r15
$LN181@Emplace_re:
; File C:\Program Files\Microsoft Visual Studio\18\Community\VC\Tools\MSVC\14.50.35717\include\vector
; Line 2069
	call	memmove
	mov	rax, QWORD PTR [rsi]
	test	rax, rax
	je	SHORT $LN115@Emplace_re
; Line 2072
	mov	rdx, QWORD PTR [rsi+16]
	sub	rdx, rax
; File C:\Program Files\Microsoft Visual Studio\18\Community\VC\Tools\MSVC\14.50.35717\include\xmemory
; Line 989
	and	rdx, -32				; ffffffffffffffe0H
; Line 288
	cmp	rdx, 4096				; 00001000H
	jb	SHORT $LN165@Emplace_re
; Line 209
	mov	rcx, QWORD PTR [rax-8]
; Line 223
	sub	rax, rcx
	sub	rax, 8
	cmp	rax, 31
	ja	SHORT $LN122@Emplace_re
; Line 224
	add	rdx, 39					; 00000027H
	jmp	SHORT $LN123@Emplace_re
$LN122@Emplace_re:
; Line 223
	mov	ecx, 5
	int	41					; 00000029H
$LN165@Emplace_re:
; Line 989
	mov	rcx, rax
$LN123@Emplace_re:
; Line 293
	call	??3@YAXPEAX_K@Z				; operator delete
$LN115@Emplace_re:
; File C:\Program Files\Microsoft Visual Studio\18\Community\VC\Tools\MSVC\14.50.35717\include\vector
; Line 2075
	mov	QWORD PTR [rsi], rbx
; Line 2077
	lea	rcx, QWORD PTR [rdi+rbx]
	mov	rdi, QWORD PTR [rsp+80]
; Line 917
	mov	rax, r14
; Line 2076
	shl	rbp, 5
	add	rbp, rbx
	mov	rbx, QWORD PTR [rsp+64]
	mov	QWORD PTR [rsi+8], rbp
	mov	rbp, QWORD PTR [rsp+72]
; Line 2077
	mov	QWORD PTR [rsi+16], rcx
; Line 918
	mov	rsi, QWORD PTR [rsp+88]
	add	rsp, 32					; 00000020H
	pop	r15
	pop	r14
	pop	r12
	ret	0
$LN183@Emplace_re:
; Line 888
	call	?_Xlength@?$vector@UVertex@@V?$allocator@UVertex@@@std@@@std@@CAXXZ ; std::vector<Vertex,std::allocator<Vertex> >::_Xlength
	int	3
$LN162@Emplace_re:
; File C:\Program Files\Microsoft Visual Studio\18\Community\VC\Tools\MSVC\14.50.35717\include\xmemory
; Line 190
	call	?_Throw_bad_array_new_length@std@@YAXXZ	; std::_Throw_bad_array_new_length
	int	3
$LN180@Emplace_re:
??$_Emplace_reallocate@AEBUVertex@@@?$vector@UVertex@@V?$allocator@UVertex@@@std@@@std@@AEAAPEAUVertex@@QEAU2@AEBU2@@Z ENDP ; std::vector<Vertex,std::allocator<Vertex> >::_Emplace_reallocate<Vertex const &>
_TEXT	ENDS
; Function compile flags: /Ogtpy
;	COMDAT ??$_Emplace_back_with_unused_capacity@AEBUVertex@@@?$vector@UVertex@@V?$allocator@UVertex@@@std@@@std@@AEAAAEAUVertex@@AEBU2@@Z
_TEXT	SEGMENT
this$ = 8
<_Val_0>$ = 16
??$_Emplace_back_with_unused_capacity@AEBUVertex@@@?$vector@UVertex@@V?$allocator@UVertex@@@std@@@std@@AEAAAEAUVertex@@AEBU2@@Z PROC ; std::vector<Vertex,std::allocator<Vertex> >::_Emplace_back_with_unused_capacity<Vertex const &>, COMDAT
; File C:\Program Files\Microsoft Visual Studio\18\Community\VC\Tools\MSVC\14.50.35717\include\vector
; Line 860
	mov	rax, QWORD PTR [rcx+8]
; File C:\Program Files\Microsoft Visual Studio\18\Community\VC\Tools\MSVC\14.50.35717\include\xutility
; Line 522
	movups	xmm0, XMMWORD PTR [rdx]
	movups	XMMWORD PTR [rax], xmm0
	movups	xmm1, XMMWORD PTR [rdx+16]
	movups	XMMWORD PTR [rax+16], xmm1
; File C:\Program Files\Microsoft Visual Studio\18\Community\VC\Tools\MSVC\14.50.35717\include\vector
; Line 868
	mov	rax, QWORD PTR [rcx+8]
; Line 869
	lea	rdx, QWORD PTR [rax+32]
	mov	QWORD PTR [rcx+8], rdx
; Line 872
	ret	0
??$_Emplace_back_with_unused_capacity@AEBUVertex@@@?$vector@UVertex@@V?$allocator@UVertex@@@std@@@std@@AEAAAEAUVertex@@AEBU2@@Z ENDP ; std::vector<Vertex,std::allocator<Vertex> >::_Emplace_back_with_unused_capacity<Vertex const &>
_TEXT	ENDS
; Function compile flags: /Ogtpy
;	COMDAT ??$forward@AEBUVertex@@@std@@YAAEBUVertex@@AEBU1@@Z
_TEXT	SEGMENT
_Arg$ = 8
??$forward@AEBUVertex@@@std@@YAAEBUVertex@@AEBU1@@Z PROC ; std::forward<Vertex const &>, COMDAT
; File C:\Program Files\Microsoft Visual Studio\18\Community\VC\Tools\MSVC\14.50.35717\include\type_traits
; Line 1510
	mov	rax, rcx
; Line 1511
	ret	0
??$forward@AEBUVertex@@@std@@YAAEBUVertex@@AEBU1@@Z ENDP ; std::forward<Vertex const &>
_TEXT	ENDS
; Function compile flags: /Ogtpy
;	COMDAT ??$max@_K@std@@YAAEB_KAEB_K0@Z
_TEXT	SEGMENT
_Left$ = 8
_Right$ = 16
??$max@_K@std@@YAAEB_KAEB_K0@Z PROC			; std::max<unsigned __int64>, COMDAT
; File C:\Program Files\Microsoft Visual Studio\18\Community\VC\Tools\MSVC\14.50.35717\include\utility
; Line 77
	mov	rax, QWORD PTR [rdx]
	cmp	QWORD PTR [rcx], rax
	cmovb	rcx, rdx
	mov	rax, rcx
; Line 78
	ret	0
??$max@_K@std@@YAAEB_KAEB_K0@Z ENDP			; std::max<unsigned __int64>
_TEXT	ENDS
; Function compile flags: /Ogtpy
;	COMDAT ??$_Construct_in_place@PEADAEBQEAD@std@@YAXAEAPEADAEBQEAD@Z
_TEXT	SEGMENT
_Obj$ = 8
<_Args_0>$ = 16
??$_Construct_in_place@PEADAEBQEAD@std@@YAXAEAPEADAEBQEAD@Z PROC ; std::_Construct_in_place<char *,char * const &>, COMDAT
; File C:\Program Files\Microsoft Visual Studio\18\Community\VC\Tools\MSVC\14.50.35717\include\xutility
; Line 524
	mov	rax, QWORD PTR [rdx]
	mov	QWORD PTR [rcx], rax
	ret	0
??$_Construct_in_place@PEADAEBQEAD@std@@YAXAEAPEADAEBQEAD@Z ENDP ; std::_Construct_in_place<char *,char * const &>
_TEXT	ENDS
; Function compile flags: /Ogtpy
;	COMDAT ??$construct_at@D$$V@std@@YAPEADQEAD@Z
_TEXT	SEGMENT
_Location$ = 8
??$construct_at@D$$V@std@@YAPEADQEAD@Z PROC		; std::construct_at<char>, COMDAT
; File C:\Program Files\Microsoft Visual Studio\18\Community\VC\Tools\MSVC\14.50.35717\include\xutility
; Line 509
	xor	eax, eax
	mov	BYTE PTR [rcx], al
	mov	rax, rcx
; Line 510
	ret	0
??$construct_at@D$$V@std@@YAPEADQEAD@Z ENDP		; std::construct_at<char>
_TEXT	ENDS
; Function compile flags: /Ogtpy
;	COMDAT ??$_Allocate_at_least_helper@V?$allocator@D@std@@@std@@YAPEADAEAV?$allocator@D@0@AEA_K@Z
_TEXT	SEGMENT
_Al$ = 48
_Count$ = 56
??$_Allocate_at_least_helper@V?$allocator@D@std@@@std@@YAPEADAEAV?$allocator@D@0@AEA_K@Z PROC ; std::_Allocate_at_least_helper<std::allocator<char> >, COMDAT
; File C:\Program Files\Microsoft Visual Studio\18\Community\VC\Tools\MSVC\14.50.35717\include\xmemory
; Line 2314
$LN26:
	sub	rsp, 40					; 00000028H
; Line 2323
	mov	rcx, QWORD PTR [rdx]
; Line 231
	test	rcx, rcx
	jne	SHORT $LN6@Allocate_a
; Line 232
	xor	eax, eax
; Line 2325
	add	rsp, 40					; 00000028H
	ret	0
$LN6@Allocate_a:
; Line 255
	cmp	rcx, 4096				; 00001000H
	jb	SHORT $LN8@Allocate_a
; Line 188
	lea	rax, QWORD PTR [rcx+39]
; Line 189
	cmp	rax, rcx
	jbe	SHORT $LN25@Allocate_a
; Line 140
	mov	rcx, rax
	call	??2@YAPEAX_K@Z				; operator new
	mov	rcx, rax
; Line 194
	test	rax, rax
	jne	SHORT $LN14@Allocate_a
	mov	ecx, 5
	int	41					; 00000029H
$LN14@Allocate_a:
; Line 195
	add	rax, 39					; 00000027H
	and	rax, -32				; ffffffffffffffe0H
; Line 196
	mov	QWORD PTR [rax-8], rcx
; Line 2325
	add	rsp, 40					; 00000028H
	ret	0
$LN8@Allocate_a:
	add	rsp, 40					; 00000028H
; Line 140
	jmp	??2@YAPEAX_K@Z				; operator new
$LN25@Allocate_a:
; Line 190
	call	?_Throw_bad_array_new_length@std@@YAXXZ	; std::_Throw_bad_array_new_length
	int	3
$LN23@Allocate_a:
??$_Allocate_at_least_helper@V?$allocator@D@std@@@std@@YAPEADAEAV?$allocator@D@0@AEA_K@Z ENDP ; std::_Allocate_at_least_helper<std::allocator<char> >
_TEXT	ENDS
; Function compile flags: /Ogtpy
;	COMDAT ??$_Allocate_for_capacity@$0A@@?$basic_string@DU?$char_traits@D@std@@V?$allocator@D@2@@std@@CAPEADAEAV?$allocator@D@1@AEA_K@Z
_TEXT	SEGMENT
_Al$ = 48
_Capacity$ = 56
??$_Allocate_for_capacity@$0A@@?$basic_string@DU?$char_traits@D@std@@V?$allocator@D@2@@std@@CAPEADAEAV?$allocator@D@1@AEA_K@Z PROC ; std::basic_string<char,std::char_traits<char>,std::allocator<char> >::_Allocate_for_capacity<0>, COMDAT
; File C:\Program Files\Microsoft Visual Studio\18\Community\VC\Tools\MSVC\14.50.35717\include\xstring
; Line 873
$LN46:
	push	rbx
	sub	rsp, 32					; 00000020H
; Line 875
	add	QWORD PTR [rdx], 1
	mov	rbx, rdx
	mov	rcx, QWORD PTR [rdx]
; File C:\Program Files\Microsoft Visual Studio\18\Community\VC\Tools\MSVC\14.50.35717\include\xmemory
; Line 231
	jne	SHORT $LN12@Allocate_f
; Line 232
	xor	eax, eax
; File C:\Program Files\Microsoft Visual Studio\18\Community\VC\Tools\MSVC\14.50.35717\include\xstring
; Line 895
	dec	QWORD PTR [rdx]
; Line 897
	add	rsp, 32					; 00000020H
	pop	rbx
	ret	0
$LN12@Allocate_f:
; File C:\Program Files\Microsoft Visual Studio\18\Community\VC\Tools\MSVC\14.50.35717\include\xmemory
; Line 255
	cmp	rcx, 4096				; 00001000H
	jb	SHORT $LN14@Allocate_f
; Line 188
	lea	rax, QWORD PTR [rcx+39]
; Line 189
	cmp	rax, rcx
	jbe	SHORT $LN44@Allocate_f
; Line 140
	mov	rcx, rax
	call	??2@YAPEAX_K@Z				; operator new
	mov	rcx, rax
; Line 194
	test	rax, rax
	jne	SHORT $LN20@Allocate_f
	mov	ecx, 5
	int	41					; 00000029H
$LN20@Allocate_f:
; Line 195
	add	rax, 39					; 00000027H
	and	rax, -32				; ffffffffffffffe0H
; Line 196
	mov	QWORD PTR [rax-8], rcx
; File C:\Program Files\Microsoft Visual Studio\18\Community\VC\Tools\MSVC\14.50.35717\include\xstring
; Line 895
	dec	QWORD PTR [rbx]
; Line 897
	add	rsp, 32					; 00000020H
	pop	rbx
	ret	0
$LN14@Allocate_f:
; File C:\Program Files\Microsoft Visual Studio\18\Community\VC\Tools\MSVC\14.50.35717\include\xmemory
; Line 140
	call	??2@YAPEAX_K@Z				; operator new
; File C:\Program Files\Microsoft Visual Studio\18\Community\VC\Tools\MSVC\14.50.35717\include\xstring
; Line 895
	dec	QWORD PTR [rbx]
; Line 897
	add	rsp, 32					; 00000020H
	pop	rbx
	ret	0
$LN44@Allocate_f:
; File C:\Program Files\Microsoft Visual Studio\18\Community\VC\Tools\MSVC\14.50.35717\include\xmemory
; Line 190
	call	?_Throw_bad_array_new_length@std@@YAXXZ	; std::_Throw_bad_array_new_length
	int	3
$LN42@Allocate_f:
??$_Allocate_for_capacity@$0A@@?$basic_string@DU?$char_traits@D@std@@V?$allocator@D@2@@std@@CAPEADAEAV?$allocator@D@1@AEA_K@Z ENDP ; std::basic_string<char,std::char_traits<char>,std::allocator<char> >::_Allocate_for_capacity<0>
_TEXT	ENDS
; Function compile flags: /Ogtpy
;	COMDAT ??$_Construct@$01PEBD@?$basic_string@DU?$char_traits@D@std@@V?$allocator@D@2@@std@@AEAAXQEBD_K@Z
_TEXT	SEGMENT
this$ = 80
_Arg$ = 88
_Count$ = 96
??$_Construct@$01PEBD@?$basic_string@DU?$char_traits@D@std@@V?$allocator@D@2@@std@@AEAAXQEBD_K@Z PROC ; std::basic_string<char,std::char_traits<char>,std::allocator<char> >::_Construct<2,char const *>, COMDAT
; File C:\Program Files\Microsoft Visual Studio\18\Community\VC\Tools\MSVC\14.50.35717\include\xstring
; Line 921
$LN101:
	push	rbx
	push	rbp
	push	rsi
	push	rdi
	sub	rsp, 40					; 00000028H
; Line 931
	mov	rbx, 9223372036854775807		; 7fffffffffffffffH
	mov	rdi, r8
	mov	rbp, rdx
	mov	rsi, rcx
	cmp	r8, rbx
	ja	$LN98@Construct
; Line 939
	cmp	r8, 15
	ja	SHORT $LN3@Construct
; Line 940
	mov	QWORD PTR [rcx+16], r8
; Line 941
	mov	QWORD PTR [rcx+24], 15
; File C:\Program Files\Microsoft Visual Studio\18\Community\VC\Tools\MSVC\14.50.35717\include\__msvc_string_view.hpp
; Line 200
	movups	xmm0, XMMWORD PTR [rdx]
	movups	XMMWORD PTR [rcx], xmm0
; File C:\Program Files\Microsoft Visual Studio\18\Community\VC\Tools\MSVC\14.50.35717\include\xstring
; Line 979
	add	rsp, 40					; 00000028H
	pop	rdi
	pop	rsi
	pop	rbp
	pop	rbx
	ret	0
$LN3@Construct:
; Line 2885
	mov	rax, rdi
	or	rax, 15
; Line 2886
	cmp	rax, rbx
	jbe	SHORT $LN16@Construct
; Line 2887
	mov	rax, -9223372036854775769		; 8000000000000027H
$LN41@Construct:
; File C:\Program Files\Microsoft Visual Studio\18\Community\VC\Tools\MSVC\14.50.35717\include\xmemory
; Line 140
	mov	rcx, rax
	call	??2@YAPEAX_K@Z				; operator new
	mov	rcx, rax
; Line 194
	test	rax, rax
	jne	SHORT $LN42@Construct
	mov	ecx, 5
	int	41					; 00000029H
$LN16@Construct:
; File C:\Program Files\Microsoft Visual Studio\18\Community\VC\Tools\MSVC\14.50.35717\include\utility
; Line 77
	mov	ecx, 22
	mov	rbx, rax
	cmp	rax, rcx
	cmovb	rbx, rcx
; File C:\Program Files\Microsoft Visual Studio\18\Community\VC\Tools\MSVC\14.50.35717\include\xstring
; Line 875
	lea	rcx, QWORD PTR [rbx+1]
; File C:\Program Files\Microsoft Visual Studio\18\Community\VC\Tools\MSVC\14.50.35717\include\xmemory
; Line 231
	test	rcx, rcx
	jne	SHORT $LN34@Construct
; Line 232
	xor	eax, eax
	jmp	SHORT $LN33@Construct
$LN34@Construct:
; Line 255
	cmp	rcx, 4096				; 00001000H
	jb	SHORT $LN36@Construct
; Line 188
	lea	rax, QWORD PTR [rcx+39]
; Line 189
	cmp	rax, rcx
	jbe	SHORT $LN99@Construct
	jmp	SHORT $LN41@Construct
$LN42@Construct:
; Line 195
	add	rax, 39					; 00000027H
	and	rax, -32				; ffffffffffffffe0H
; Line 196
	mov	QWORD PTR [rax-8], rcx
; Line 257
	jmp	SHORT $LN33@Construct
$LN36@Construct:
; Line 140
	call	??2@YAPEAX_K@Z				; operator new
$LN33@Construct:
; File C:\Program Files\Microsoft Visual Studio\18\Community\VC\Tools\MSVC\14.50.35717\include\xstring
; Line 974
	lea	r8, QWORD PTR [rdi+1]
	mov	QWORD PTR [rsi], rax
; File C:\Program Files\Microsoft Visual Studio\18\Community\VC\Tools\MSVC\14.50.35717\include\__msvc_string_view.hpp
; Line 200
	mov	rdx, rbp
; File C:\Program Files\Microsoft Visual Studio\18\Community\VC\Tools\MSVC\14.50.35717\include\xstring
; Line 965
	mov	QWORD PTR [rsi+16], rdi
; File C:\Program Files\Microsoft Visual Studio\18\Community\VC\Tools\MSVC\14.50.35717\include\__msvc_string_view.hpp
; Line 200
	mov	rcx, rax
; File C:\Program Files\Microsoft Visual Studio\18\Community\VC\Tools\MSVC\14.50.35717\include\xstring
; Line 966
	mov	QWORD PTR [rsi+24], rbx
; Line 979
	add	rsp, 40					; 00000028H
	pop	rdi
	pop	rsi
	pop	rbp
	pop	rbx
; File C:\Program Files\Microsoft Visual Studio\18\Community\VC\Tools\MSVC\14.50.35717\include\__msvc_string_view.hpp
; Line 200
	jmp	memcpy
$LN98@Construct:
; File C:\Program Files\Microsoft Visual Studio\18\Community\VC\Tools\MSVC\14.50.35717\include\xstring
; Line 932
	call	?_Xlen_string@std@@YAXXZ		; std::_Xlen_string
	int	3
$LN99@Construct:
; File C:\Program Files\Microsoft Visual Studio\18\Community\VC\Tools\MSVC\14.50.35717\include\xmemory
; Line 190
	call	?_Throw_bad_array_new_length@std@@YAXXZ	; std::_Throw_bad_array_new_length
	int	3
$LN96@Construct:
??$_Construct@$01PEBD@?$basic_string@DU?$char_traits@D@std@@V?$allocator@D@2@@std@@AEAAXQEBD_K@Z ENDP ; std::basic_string<char,std::char_traits<char>,std::allocator<char> >::_Construct<2,char const *>
_TEXT	ENDS
; Function compile flags: /Ogtpy
;	COMDAT ??$_Construct@$00PEBD@?$basic_string@DU?$char_traits@D@std@@V?$allocator@D@2@@std@@AEAAXQEBD_K@Z
_TEXT	SEGMENT
this$ = 80
_Arg$ = 88
_Count$ = 96
??$_Construct@$00PEBD@?$basic_string@DU?$char_traits@D@std@@V?$allocator@D@2@@std@@AEAAXQEBD_K@Z PROC ; std::basic_string<char,std::char_traits<char>,std::allocator<char> >::_Construct<1,char const *>, COMDAT
; File C:\Program Files\Microsoft Visual Studio\18\Community\VC\Tools\MSVC\14.50.35717\include\xstring
; Line 921
$LN108:
	push	rbx
	push	rbp
	push	rsi
	push	r14
	sub	rsp, 40					; 00000028H
; Line 931
	mov	rsi, 9223372036854775807		; 7fffffffffffffffH
	mov	rbx, r8
	mov	rbp, rdx
	mov	r14, rcx
	cmp	r8, rsi
	ja	$LN105@Construct
; Line 939
	cmp	rbx, 15
	ja	SHORT $LN3@Construct
; Line 940
	mov	QWORD PTR [rcx+16], rbx
; Line 941
	mov	QWORD PTR [rcx+24], 15
; File C:\Program Files\Microsoft Visual Studio\18\Community\VC\Tools\MSVC\14.50.35717\include\__msvc_string_view.hpp
; Line 200
	call	memcpy
; File C:\Program Files\Microsoft Visual Studio\18\Community\VC\Tools\MSVC\14.50.35717\include\xstring
; Line 948
	mov	BYTE PTR [rbx+r14], 0
; Line 979
	add	rsp, 40					; 00000028H
	pop	r14
	pop	rsi
	pop	rbp
	pop	rbx
	ret	0
$LN3@Construct:
; Line 2885
	mov	rax, rbx
	mov	QWORD PTR [rsp+80], rdi
	or	rax, 15
; Line 2886
	cmp	rax, rsi
	jbe	SHORT $LN19@Construct
; Line 2887
	mov	rax, -9223372036854775769		; 8000000000000027H
$LN44@Construct:
; File C:\Program Files\Microsoft Visual Studio\18\Community\VC\Tools\MSVC\14.50.35717\include\xmemory
; Line 140
	mov	rcx, rax
	call	??2@YAPEAX_K@Z				; operator new
; Line 194
	test	rax, rax
	jne	SHORT $LN45@Construct
	mov	ecx, 5
	int	41					; 00000029H
$LN19@Construct:
; File C:\Program Files\Microsoft Visual Studio\18\Community\VC\Tools\MSVC\14.50.35717\include\utility
; Line 77
	mov	ecx, 22
	mov	rsi, rax
	cmp	rax, rcx
	cmovb	rsi, rcx
; File C:\Program Files\Microsoft Visual Studio\18\Community\VC\Tools\MSVC\14.50.35717\include\xstring
; Line 875
	lea	rcx, QWORD PTR [rsi+1]
; File C:\Program Files\Microsoft Visual Studio\18\Community\VC\Tools\MSVC\14.50.35717\include\xmemory
; Line 231
	test	rcx, rcx
	jne	SHORT $LN37@Construct
; Line 232
	xor	edi, edi
	jmp	SHORT $LN36@Construct
$LN37@Construct:
; Line 255
	cmp	rcx, 4096				; 00001000H
	jb	SHORT $LN39@Construct
; Line 188
	lea	rax, QWORD PTR [rcx+39]
; Line 189
	cmp	rax, rcx
	jbe	SHORT $LN106@Construct
	jmp	SHORT $LN44@Construct
$LN45@Construct:
; Line 195
	lea	rdi, QWORD PTR [rax+39]
	and	rdi, -32				; ffffffffffffffe0H
; Line 196
	mov	QWORD PTR [rdi-8], rax
; Line 257
	jmp	SHORT $LN36@Construct
$LN39@Construct:
; Line 140
	call	??2@YAPEAX_K@Z				; operator new
	mov	rdi, rax
$LN36@Construct:
; File C:\Program Files\Microsoft Visual Studio\18\Community\VC\Tools\MSVC\14.50.35717\include\__msvc_string_view.hpp
; Line 200
	mov	r8, rbx
; File C:\Program Files\Microsoft Visual Studio\18\Community\VC\Tools\MSVC\14.50.35717\include\xstring
; Line 963
	mov	QWORD PTR [r14], rdi
; File C:\Program Files\Microsoft Visual Studio\18\Community\VC\Tools\MSVC\14.50.35717\include\__msvc_string_view.hpp
; Line 200
	mov	rdx, rbp
; File C:\Program Files\Microsoft Visual Studio\18\Community\VC\Tools\MSVC\14.50.35717\include\xstring
; Line 965
	mov	QWORD PTR [r14+16], rbx
; File C:\Program Files\Microsoft Visual Studio\18\Community\VC\Tools\MSVC\14.50.35717\include\__msvc_string_view.hpp
; Line 200
	mov	rcx, rdi
; File C:\Program Files\Microsoft Visual Studio\18\Community\VC\Tools\MSVC\14.50.35717\include\xstring
; Line 966
	mov	QWORD PTR [r14+24], rsi
; File C:\Program Files\Microsoft Visual Studio\18\Community\VC\Tools\MSVC\14.50.35717\include\__msvc_string_view.hpp
; Line 200
	call	memcpy
; File C:\Program Files\Microsoft Visual Studio\18\Community\VC\Tools\MSVC\14.50.35717\include\xstring
; Line 972
	mov	BYTE PTR [rdi+rbx], 0
	mov	rdi, QWORD PTR [rsp+80]
; Line 979
	add	rsp, 40					; 00000028H
	pop	r14
	pop	rsi
	pop	rbp
	pop	rbx
	ret	0
$LN105@Construct:
; Line 932
	call	?_Xlen_string@std@@YAXXZ		; std::_Xlen_string
	int	3
$LN106@Construct:
; File C:\Program Files\Microsoft Visual Studio\18\Community\VC\Tools\MSVC\14.50.35717\include\xmemory
; Line 190
	call	?_Throw_bad_array_new_length@std@@YAXXZ	; std::_Throw_bad_array_new_length
	int	3
$LN103@Construct:
??$_Construct@$00PEBD@?$basic_string@DU?$char_traits@D@std@@V?$allocator@D@2@@std@@AEAAXQEBD_K@Z ENDP ; std::basic_string<char,std::char_traits<char>,std::allocator<char> >::_Construct<1,char const *>
_TEXT	ENDS
; Function compile flags: /Ogtpy
;	COMDAT ??$?0$$V@?$_Compressed_pair@V?$allocator@D@std@@V?$_String_val@U?$_Simple_types@D@std@@@2@$00@std@@QEAA@U_Zero_then_variadic_args_t@1@@Z
_TEXT	SEGMENT
this$ = 8
__formal$ = 16
??$?0$$V@?$_Compressed_pair@V?$allocator@D@std@@V?$_String_val@U?$_Simple_types@D@std@@@2@$00@std@@QEAA@U_Zero_then_variadic_args_t@1@@Z PROC ; std::_Compressed_pair<std::allocator<char>,std::_String_val<std::_Simple_types<char> >,1>::_Compressed_pair<std::allocator<char>,std::_String_val<std::_Simple_types<char> >,1><>, COMDAT
; File C:\Program Files\Microsoft Visual Studio\18\Community\VC\Tools\MSVC\14.50.35717\include\xmemory
; File C:\Program Files\Microsoft Visual Studio\18\Community\VC\Tools\MSVC\14.50.35717\include\xstring
; Line 517
	xor	eax, eax
	xorps	xmm0, xmm0
; Line 493
	movups	XMMWORD PTR [rcx], xmm0
; Line 517
	mov	QWORD PTR [rcx+16], rax
; Line 518
	mov	QWORD PTR [rcx+24], rax
; File C:\Program Files\Microsoft Visual Studio\18\Community\VC\Tools\MSVC\14.50.35717\include\xmemory
; Line 1551
	mov	rax, rcx
	ret	0
??$?0$$V@?$_Compressed_pair@V?$allocator@D@std@@V?$_String_val@U?$_Simple_types@D@std@@@2@$00@std@@QEAA@U_Zero_then_variadic_args_t@1@@Z ENDP ; std::_Compressed_pair<std::allocator<char>,std::_String_val<std::_Simple_types<char> >,1>::_Compressed_pair<std::allocator<char>,std::_String_val<std::_Simple_types<char> >,1><>
_TEXT	ENDS
; Function compile flags: /Ogtpy
;	COMDAT ??$_Get_proxy_allocator@V?$allocator@D@std@@@std@@YA?AU_Fake_allocator@0@AEBV?$allocator@D@0@@Z
_TEXT	SEGMENT
__formal$ = 8
??$_Get_proxy_allocator@V?$allocator@D@std@@@std@@YA?AU_Fake_allocator@0@AEBV?$allocator@D@0@@Z PROC ; std::_Get_proxy_allocator<std::allocator<char> >, COMDAT
; File C:\Program Files\Microsoft Visual Studio\18\Community\VC\Tools\MSVC\14.50.35717\include\xmemory
; Line 1517
	xor	al, al
; Line 1518
	ret	0
??$_Get_proxy_allocator@V?$allocator@D@std@@@std@@YA?AU_Fake_allocator@0@AEBV?$allocator@D@0@@Z ENDP ; std::_Get_proxy_allocator<std::allocator<char> >
_TEXT	ENDS
; Function compile flags: /Ogtpy
;	COMDAT ??$?0V?$allocator@D@std@@$$V@?$_Compressed_pair@V?$allocator@D@std@@V?$_String_val@U?$_Simple_types@D@std@@@2@$00@std@@QEAA@U_One_then_variadic_args_t@1@$$QEAV?$allocator@D@1@@Z
_TEXT	SEGMENT
this$ = 8
__formal$ = 16
_Val1$ = 24
??$?0V?$allocator@D@std@@$$V@?$_Compressed_pair@V?$allocator@D@std@@V?$_String_val@U?$_Simple_types@D@std@@@2@$00@std@@QEAA@U_One_then_variadic_args_t@1@$$QEAV?$allocator@D@1@@Z PROC ; std::_Compressed_pair<std::allocator<char>,std::_String_val<std::_Simple_types<char> >,1>::_Compressed_pair<std::allocator<char>,std::_String_val<std::_Simple_types<char> >,1><std::allocator<char> >, COMDAT
; File C:\Program Files\Microsoft Visual Studio\18\Community\VC\Tools\MSVC\14.50.35717\include\xmemory
; File C:\Program Files\Microsoft Visual Studio\18\Community\VC\Tools\MSVC\14.50.35717\include\xstring
; Line 517
	xor	eax, eax
	xorps	xmm0, xmm0
; Line 493
	movups	XMMWORD PTR [rcx], xmm0
; Line 517
	mov	QWORD PTR [rcx+16], rax
; Line 518
	mov	QWORD PTR [rcx+24], rax
; File C:\Program Files\Microsoft Visual Studio\18\Community\VC\Tools\MSVC\14.50.35717\include\xmemory
; Line 1556
	mov	rax, rcx
	ret	0
??$?0V?$allocator@D@std@@$$V@?$_Compressed_pair@V?$allocator@D@std@@V?$_String_val@U?$_Simple_types@D@std@@@2@$00@std@@QEAA@U_One_then_variadic_args_t@1@$$QEAV?$allocator@D@1@@Z ENDP ; std::_Compressed_pair<std::allocator<char>,std::_String_val<std::_Simple_types<char> >,1>::_Compressed_pair<std::allocator<char>,std::_String_val<std::_Simple_types<char> >,1><std::allocator<char> >
_TEXT	ENDS
; Function compile flags: /Ogtpy
;	COMDAT ??$_Convert_size@_K_K@std@@YA_K_K@Z
_TEXT	SEGMENT
_Len$ = 8
??$_Convert_size@_K_K@std@@YA_K_K@Z PROC		; std::_Convert_size<unsigned __int64,unsigned __int64>, COMDAT
; File C:\Program Files\Microsoft Visual Studio\18\Community\VC\Tools\MSVC\14.50.35717\include\xmemory
; Line 1143
	mov	rax, rcx
; Line 1144
	ret	0
??$_Convert_size@_K_K@std@@YA_K_K@Z ENDP		; std::_Convert_size<unsigned __int64,unsigned __int64>
_TEXT	ENDS
; Function compile flags: /Ogtpy
;	COMDAT ??$_Unfancy@D@std@@YAPEADPEAD@Z
_TEXT	SEGMENT
_Ptr$ = 8
??$_Unfancy@D@std@@YAPEADPEAD@Z PROC			; std::_Unfancy<char>, COMDAT
; File C:\Program Files\Microsoft Visual Studio\18\Community\VC\Tools\MSVC\14.50.35717\include\xmemory
; Line 73
	mov	rax, rcx
; Line 74
	ret	0
??$_Unfancy@D@std@@YAPEADPEAD@Z ENDP			; std::_Unfancy<char>
_TEXT	ENDS
; Function compile flags: /Ogtpy
;	COMDAT ??$?0$$V@?$_Compressed_pair@V?$allocator@UVertex@@@std@@V?$_Vector_val@U?$_Simple_types@UVertex@@@std@@@2@$00@std@@QEAA@U_Zero_then_variadic_args_t@1@@Z
_TEXT	SEGMENT
this$ = 8
__formal$ = 16
??$?0$$V@?$_Compressed_pair@V?$allocator@UVertex@@@std@@V?$_Vector_val@U?$_Simple_types@UVertex@@@std@@@2@$00@std@@QEAA@U_Zero_then_variadic_args_t@1@@Z PROC ; std::_Compressed_pair<std::allocator<Vertex>,std::_Vector_val<std::_Simple_types<Vertex> >,1>::_Compressed_pair<std::allocator<Vertex>,std::_Vector_val<std::_Simple_types<Vertex> >,1><>, COMDAT
; File C:\Program Files\Microsoft Visual Studio\18\Community\VC\Tools\MSVC\14.50.35717\include\xmemory
; File C:\Program Files\Microsoft Visual Studio\18\Community\VC\Tools\MSVC\14.50.35717\include\vector
; Line 400
	xor	eax, eax
	mov	QWORD PTR [rcx], rax
	mov	QWORD PTR [rcx+8], rax
	mov	QWORD PTR [rcx+16], rax
; File C:\Program Files\Microsoft Visual Studio\18\Community\VC\Tools\MSVC\14.50.35717\include\xmemory
; Line 1551
	mov	rax, rcx
	ret	0
??$?0$$V@?$_Compressed_pair@V?$allocator@UVertex@@@std@@V?$_Vector_val@U?$_Simple_types@UVertex@@@std@@@2@$00@std@@QEAA@U_Zero_then_variadic_args_t@1@@Z ENDP ; std::_Compressed_pair<std::allocator<Vertex>,std::_Vector_val<std::_Simple_types<Vertex> >,1>::_Compressed_pair<std::allocator<Vertex>,std::_Vector_val<std::_Simple_types<Vertex> >,1><>
_TEXT	ENDS
; Function compile flags: /Ogtpy
;	COMDAT ??$_Get_proxy_allocator@V?$allocator@UVertex@@@std@@@std@@YA?AU_Fake_allocator@0@AEBV?$allocator@UVertex@@@0@@Z
_TEXT	SEGMENT
__formal$ = 8
??$_Get_proxy_allocator@V?$allocator@UVertex@@@std@@@std@@YA?AU_Fake_allocator@0@AEBV?$allocator@UVertex@@@0@@Z PROC ; std::_Get_proxy_allocator<std::allocator<Vertex> >, COMDAT
; File C:\Program Files\Microsoft Visual Studio\18\Community\VC\Tools\MSVC\14.50.35717\include\xmemory
; Line 1517
	xor	al, al
; Line 1518
	ret	0
??$_Get_proxy_allocator@V?$allocator@UVertex@@@std@@@std@@YA?AU_Fake_allocator@0@AEBV?$allocator@UVertex@@@0@@Z ENDP ; std::_Get_proxy_allocator<std::allocator<Vertex> >
_TEXT	ENDS
; Function compile flags: /Ogtpy
;	COMDAT ??$?0V?$allocator@UVertex@@@std@@PEAUVertex@@PEAU2@PEAU2@@?$_Compressed_pair@V?$allocator@UVertex@@@std@@V?$_Vector_val@U?$_Simple_types@UVertex@@@std@@@2@$00@std@@QEAA@U_One_then_variadic_args_t@1@$$QEAV?$allocator@UVertex@@@1@$$QEAPEAUVertex@@22@Z
_TEXT	SEGMENT
this$ = 8
__formal$ = 16
_Val1$ = 24
<_Val2_0>$ = 32
<_Val2_1>$ = 40
<_Val2_2>$ = 48
??$?0V?$allocator@UVertex@@@std@@PEAUVertex@@PEAU2@PEAU2@@?$_Compressed_pair@V?$allocator@UVertex@@@std@@V?$_Vector_val@U?$_Simple_types@UVertex@@@std@@@2@$00@std@@QEAA@U_One_then_variadic_args_t@1@$$QEAV?$allocator@UVertex@@@1@$$QEAPEAUVertex@@22@Z PROC ; std::_Compressed_pair<std::allocator<Vertex>,std::_Vector_val<std::_Simple_types<Vertex> >,1>::_Compressed_pair<std::allocator<Vertex>,std::_Vector_val<std::_Simple_types<Vertex> >,1><std::allocator<Vertex>,Vertex *,Vertex *,Vertex *>, COMDAT
; File C:\Program Files\Microsoft Visual Studio\18\Community\VC\Tools\MSVC\14.50.35717\include\xmemory
; Line 1556
	mov	rax, QWORD PTR <_Val2_2>$[rsp]
	mov	r8, QWORD PTR [rax]
	mov	rax, QWORD PTR <_Val2_1>$[rsp]
	mov	rdx, QWORD PTR [rax]
; File C:\Program Files\Microsoft Visual Studio\18\Community\VC\Tools\MSVC\14.50.35717\include\vector
; Line 403
	mov	rax, QWORD PTR [r9]
	mov	QWORD PTR [rcx], rax
; File C:\Program Files\Microsoft Visual Studio\18\Community\VC\Tools\MSVC\14.50.35717\include\xmemory
; Line 1556
	mov	rax, rcx
; File C:\Program Files\Microsoft Visual Studio\18\Community\VC\Tools\MSVC\14.50.35717\include\vector
; Line 403
	mov	QWORD PTR [rcx+8], rdx
	mov	QWORD PTR [rcx+16], r8
; File C:\Program Files\Microsoft Visual Studio\18\Community\VC\Tools\MSVC\14.50.35717\include\xmemory
; Line 1556
	ret	0
??$?0V?$allocator@UVertex@@@std@@PEAUVertex@@PEAU2@PEAU2@@?$_Compressed_pair@V?$allocator@UVertex@@@std@@V?$_Vector_val@U?$_Simple_types@UVertex@@@std@@@2@$00@std@@QEAA@U_One_then_variadic_args_t@1@$$QEAV?$allocator@UVertex@@@1@$$QEAPEAUVertex@@22@Z ENDP ; std::_Compressed_pair<std::allocator<Vertex>,std::_Vector_val<std::_Simple_types<Vertex> >,1>::_Compressed_pair<std::allocator<Vertex>,std::_Vector_val<std::_Simple_types<Vertex> >,1><std::allocator<Vertex>,Vertex *,Vertex *,Vertex *>
_TEXT	ENDS
; Function compile flags: /Ogtpy
;	COMDAT ??$exchange@PEAUVertex@@$$T@std@@YAPEAUVertex@@AEAPEAU1@$$QEA$$T@Z
_TEXT	SEGMENT
_Val$ = 8
_New_val$ = 16
??$exchange@PEAUVertex@@$$T@std@@YAPEAUVertex@@AEAPEAU1@$$QEA$$T@Z PROC ; std::exchange<Vertex *,std::nullptr_t>, COMDAT
; File C:\Program Files\Microsoft Visual Studio\18\Community\VC\Tools\MSVC\14.50.35717\include\utility
; Line 774
	mov	rdx, QWORD PTR [rdx]
	mov	rax, QWORD PTR [rcx]
	mov	QWORD PTR [rcx], rdx
; Line 776
	ret	0
??$exchange@PEAUVertex@@$$T@std@@YAPEAUVertex@@AEAPEAU1@$$QEA$$T@Z ENDP ; std::exchange<Vertex *,std::nullptr_t>
_TEXT	ENDS
; Function compile flags: /Ogtpy
;	COMDAT ??$move@AEAV?$allocator@UVertex@@@std@@@std@@YA$$QEAV?$allocator@UVertex@@@0@AEAV10@@Z
_TEXT	SEGMENT
_Arg$ = 8
??$move@AEAV?$allocator@UVertex@@@std@@@std@@YA$$QEAV?$allocator@UVertex@@@0@AEAV10@@Z PROC ; std::move<std::allocator<Vertex> &>, COMDAT
; File C:\Program Files\Microsoft Visual Studio\18\Community\VC\Tools\MSVC\14.50.35717\include\type_traits
; Line 1521
	mov	rax, rcx
; Line 1522
	ret	0
??$move@AEAV?$allocator@UVertex@@@std@@@std@@YA$$QEAV?$allocator@UVertex@@@0@AEAV10@@Z ENDP ; std::move<std::allocator<Vertex> &>
_TEXT	ENDS
; Function compile flags: /Ogtpy
;	COMDAT ??$_Emplace_one_at_back@AEBUVertex@@@?$vector@UVertex@@V?$allocator@UVertex@@@std@@@std@@AEAAAEAUVertex@@AEBU2@@Z
_TEXT	SEGMENT
this$ = 8
<_Val_0>$ = 16
??$_Emplace_one_at_back@AEBUVertex@@@?$vector@UVertex@@V?$allocator@UVertex@@@std@@@std@@AEAAAEAUVertex@@AEBU2@@Z PROC ; std::vector<Vertex,std::allocator<Vertex> >::_Emplace_one_at_back<Vertex const &>, COMDAT
; File C:\Program Files\Microsoft Visual Studio\18\Community\VC\Tools\MSVC\14.50.35717\include\vector
; Line 839
	mov	r8, rdx
	mov	r9, rcx
; Line 844
	mov	rdx, QWORD PTR [rcx+8]
	cmp	rdx, QWORD PTR [rcx+16]
	je	SHORT $LN2@Emplace_on
; File C:\Program Files\Microsoft Visual Studio\18\Community\VC\Tools\MSVC\14.50.35717\include\xutility
; Line 522
	movups	xmm0, XMMWORD PTR [r8]
	movups	XMMWORD PTR [rdx], xmm0
	movups	xmm1, XMMWORD PTR [r8+16]
	movups	XMMWORD PTR [rdx+16], xmm1
; File C:\Program Files\Microsoft Visual Studio\18\Community\VC\Tools\MSVC\14.50.35717\include\vector
; Line 868
	mov	rax, QWORD PTR [rcx+8]
; Line 869
	lea	rcx, QWORD PTR [rax+32]
	mov	QWORD PTR [r9+8], rcx
; Line 849
	ret	0
$LN2@Emplace_on:
; Line 848
	jmp	??$_Emplace_reallocate@AEBUVertex@@@?$vector@UVertex@@V?$allocator@UVertex@@@std@@@std@@AEAAPEAUVertex@@QEAU2@AEBU2@@Z ; std::vector<Vertex,std::allocator<Vertex> >::_Emplace_reallocate<Vertex const &>
??$_Emplace_one_at_back@AEBUVertex@@@?$vector@UVertex@@V?$allocator@UVertex@@@std@@@std@@AEAAAEAUVertex@@AEBU2@@Z ENDP ; std::vector<Vertex,std::allocator<Vertex> >::_Emplace_one_at_back<Vertex const &>
_TEXT	ENDS
; Function compile flags: /Ogtpy
;	COMDAT ??$?8DU?$char_traits@D@std@@V?$allocator@D@1@@std@@YA_NAEBV?$basic_string@DU?$char_traits@D@std@@V?$allocator@D@2@@0@QEBD@Z
_TEXT	SEGMENT
_Left$ = 48
_Right$ = 56
??$?8DU?$char_traits@D@std@@V?$allocator@D@1@@std@@YA_NAEBV?$basic_string@DU?$char_traits@D@std@@V?$allocator@D@2@@0@QEBD@Z PROC ; std::operator==<char,std::char_traits<char>,std::allocator<char> >, COMDAT
; File C:\Program Files\Microsoft Visual Studio\18\Community\VC\Tools\MSVC\14.50.35717\include\xstring
; Line 3352
$LN31:
	mov	QWORD PTR [rsp+8], rbx
	push	rdi
	sub	rsp, 32					; 00000020H
	mov	rbx, rcx
	mov	rdi, rdx
; File C:\Program Files\Microsoft Visual Studio\18\Community\VC\Tools\MSVC\14.50.35717\include\__msvc_string_view.hpp
; Line 530
	mov	rcx, rdx
	call	strlen
; File C:\Program Files\Microsoft Visual Studio\18\Community\VC\Tools\MSVC\14.50.35717\include\xstring
; Line 445
	cmp	QWORD PTR [rbx+24], 15
; Line 2761
	mov	r8, QWORD PTR [rbx+16]
; Line 445
	jbe	SHORT $LN25@operator
; Line 446
	mov	rbx, QWORD PTR [rbx]
$LN25@operator:
; File C:\Program Files\Microsoft Visual Studio\18\Community\VC\Tools\MSVC\14.50.35717\include\__msvc_string_view.hpp
; Line 673
	cmp	r8, rax
	je	SHORT $LN18@operator
; File C:\Program Files\Microsoft Visual Studio\18\Community\VC\Tools\MSVC\14.50.35717\include\xstring
; Line 3353
	xor	al, al
; Line 3354
	mov	rbx, QWORD PTR [rsp+48]
	add	rsp, 32					; 00000020H
	pop	rdi
	ret	0
$LN18@operator:
; File C:\Program Files\Microsoft Visual Studio\18\Community\VC\Tools\MSVC\14.50.35717\include\__msvc_string_view.hpp
; Line 677
	test	r8, r8
	jne	SHORT $LN19@operator
; File C:\Program Files\Microsoft Visual Studio\18\Community\VC\Tools\MSVC\14.50.35717\include\xstring
; Line 3353
	mov	al, 1
; Line 3354
	mov	rbx, QWORD PTR [rsp+48]
	add	rsp, 32					; 00000020H
	pop	rdi
	ret	0
$LN19@operator:
; File C:\Program Files\Microsoft Visual Studio\18\Community\VC\Tools\MSVC\14.50.35717\include\__msvc_string_view.hpp
; Line 511
	mov	rdx, rdi
	mov	rcx, rbx
	call	memcmp
; File C:\Program Files\Microsoft Visual Studio\18\Community\VC\Tools\MSVC\14.50.35717\include\xstring
; Line 3354
	mov	rbx, QWORD PTR [rsp+48]
; File C:\Program Files\Microsoft Visual Studio\18\Community\VC\Tools\MSVC\14.50.35717\include\__msvc_string_view.hpp
; Line 681
	test	eax, eax
	sete	al
; File C:\Program Files\Microsoft Visual Studio\18\Community\VC\Tools\MSVC\14.50.35717\include\xstring
; Line 3354
	add	rsp, 32					; 00000020H
	pop	rdi
	ret	0
??$?8DU?$char_traits@D@std@@V?$allocator@D@1@@std@@YA_NAEBV?$basic_string@DU?$char_traits@D@std@@V?$allocator@D@2@@0@QEBD@Z ENDP ; std::operator==<char,std::char_traits<char>,std::allocator<char> >
_TEXT	ENDS
; Function compile flags: /Ogtpy
;	COMDAT ?_Get_first@?$_Compressed_pair@V?$allocator@UVertex@@@std@@V?$_Vector_val@U?$_Simple_types@UVertex@@@std@@@2@$00@std@@QEBAAEBV?$allocator@UVertex@@@2@XZ
_TEXT	SEGMENT
this$ = 8
?_Get_first@?$_Compressed_pair@V?$allocator@UVertex@@@std@@V?$_Vector_val@U?$_Simple_types@UVertex@@@std@@@2@$00@std@@QEBAAEBV?$allocator@UVertex@@@2@XZ PROC ; std::_Compressed_pair<std::allocator<Vertex>,std::_Vector_val<std::_Simple_types<Vertex> >,1>::_Get_first, COMDAT
; File C:\Program Files\Microsoft Visual Studio\18\Community\VC\Tools\MSVC\14.50.35717\include\xmemory
; Line 1563
	mov	rax, rcx
; Line 1564
	ret	0
?_Get_first@?$_Compressed_pair@V?$allocator@UVertex@@@std@@V?$_Vector_val@U?$_Simple_types@UVertex@@@std@@@2@$00@std@@QEBAAEBV?$allocator@UVertex@@@2@XZ ENDP ; std::_Compressed_pair<std::allocator<Vertex>,std::_Vector_val<std::_Simple_types<Vertex> >,1>::_Get_first
_TEXT	ENDS
; Function compile flags: /Ogtpy
;	COMDAT ?_Get_first@?$_Compressed_pair@V?$allocator@UVertex@@@std@@V?$_Vector_val@U?$_Simple_types@UVertex@@@std@@@2@$00@std@@QEAAAEAV?$allocator@UVertex@@@2@XZ
_TEXT	SEGMENT
this$ = 8
?_Get_first@?$_Compressed_pair@V?$allocator@UVertex@@@std@@V?$_Vector_val@U?$_Simple_types@UVertex@@@std@@@2@$00@std@@QEAAAEAV?$allocator@UVertex@@@2@XZ PROC ; std::_Compressed_pair<std::allocator<Vertex>,std::_Vector_val<std::_Simple_types<Vertex> >,1>::_Get_first, COMDAT
; File C:\Program Files\Microsoft Visual Studio\18\Community\VC\Tools\MSVC\14.50.35717\include\xmemory
; Line 1559
	mov	rax, rcx
; Line 1560
	ret	0
?_Get_first@?$_Compressed_pair@V?$allocator@UVertex@@@std@@V?$_Vector_val@U?$_Simple_types@UVertex@@@std@@@2@$00@std@@QEAAAEAV?$allocator@UVertex@@@2@XZ ENDP ; std::_Compressed_pair<std::allocator<Vertex>,std::_Vector_val<std::_Simple_types<Vertex> >,1>::_Get_first
_TEXT	ENDS
; Function compile flags: /Ogtpy
;	COMDAT ??0?$_Vector_val@U?$_Simple_types@UVertex@@@std@@@std@@QEAA@PEAUVertex@@00@Z
_TEXT	SEGMENT
this$ = 8
_First$ = 16
_Last$ = 24
_End$ = 32
??0?$_Vector_val@U?$_Simple_types@UVertex@@@std@@@std@@QEAA@PEAUVertex@@00@Z PROC ; std::_Vector_val<std::_Simple_types<Vertex> >::_Vector_val<std::_Simple_types<Vertex> >, COMDAT
; File C:\Program Files\Microsoft Visual Studio\18\Community\VC\Tools\MSVC\14.50.35717\include\vector
; Line 403
	mov	QWORD PTR [rcx], rdx
	mov	rax, rcx
	mov	QWORD PTR [rcx+8], r8
	mov	QWORD PTR [rcx+16], r9
	ret	0
??0?$_Vector_val@U?$_Simple_types@UVertex@@@std@@@std@@QEAA@PEAUVertex@@00@Z ENDP ; std::_Vector_val<std::_Simple_types<Vertex> >::_Vector_val<std::_Simple_types<Vertex> >
_TEXT	ENDS
; Function compile flags: /Ogtpy
;	COMDAT ??0?$_Vector_val@U?$_Simple_types@UVertex@@@std@@@std@@QEAA@XZ
_TEXT	SEGMENT
this$ = 8
??0?$_Vector_val@U?$_Simple_types@UVertex@@@std@@@std@@QEAA@XZ PROC ; std::_Vector_val<std::_Simple_types<Vertex> >::_Vector_val<std::_Simple_types<Vertex> >, COMDAT
; File C:\Program Files\Microsoft Visual Studio\18\Community\VC\Tools\MSVC\14.50.35717\include\vector
; Line 400
	xor	eax, eax
	mov	QWORD PTR [rcx], rax
	mov	QWORD PTR [rcx+8], rax
	mov	QWORD PTR [rcx+16], rax
	mov	rax, rcx
	ret	0
??0?$_Vector_val@U?$_Simple_types@UVertex@@@std@@@std@@QEAA@XZ ENDP ; std::_Vector_val<std::_Simple_types<Vertex> >::_Vector_val<std::_Simple_types<Vertex> >
_TEXT	ENDS
; Function compile flags: /Ogtpy
;	COMDAT ?_Getal@?$vector@UVertex@@V?$allocator@UVertex@@@std@@@std@@AEBAAEBV?$allocator@UVertex@@@2@XZ
_TEXT	SEGMENT
this$ = 8
?_Getal@?$vector@UVertex@@V?$allocator@UVertex@@@std@@@std@@AEBAAEBV?$allocator@UVertex@@@2@XZ PROC ; std::vector<Vertex,std::allocator<Vertex> >::_Getal, COMDAT
; File C:\Program Files\Microsoft Visual Studio\18\Community\VC\Tools\MSVC\14.50.35717\include\vector
; Line 2231
	mov	rax, rcx
; Line 2232
	ret	0
?_Getal@?$vector@UVertex@@V?$allocator@UVertex@@@std@@@std@@AEBAAEBV?$allocator@UVertex@@@2@XZ ENDP ; std::vector<Vertex,std::allocator<Vertex> >::_Getal
_TEXT	ENDS
; Function compile flags: /Ogtpy
;	COMDAT ?_Getal@?$vector@UVertex@@V?$allocator@UVertex@@@std@@@std@@AEAAAEAV?$allocator@UVertex@@@2@XZ
_TEXT	SEGMENT
this$ = 8
?_Getal@?$vector@UVertex@@V?$allocator@UVertex@@@std@@@std@@AEAAAEAV?$allocator@UVertex@@@2@XZ PROC ; std::vector<Vertex,std::allocator<Vertex> >::_Getal, COMDAT
; File C:\Program Files\Microsoft Visual Studio\18\Community\VC\Tools\MSVC\14.50.35717\include\vector
; Line 2227
	mov	rax, rcx
; Line 2228
	ret	0
?_Getal@?$vector@UVertex@@V?$allocator@UVertex@@@std@@@std@@AEAAAEAV?$allocator@UVertex@@@2@XZ ENDP ; std::vector<Vertex,std::allocator<Vertex> >::_Getal
_TEXT	ENDS
; Function compile flags: /Ogtpy
;	COMDAT ?_Orphan_range@?$vector@UVertex@@V?$allocator@UVertex@@@std@@@std@@AEBAXPEAUVertex@@0@Z
_TEXT	SEGMENT
this$ = 8
__formal$ = 16
__formal$ = 24
?_Orphan_range@?$vector@UVertex@@V?$allocator@UVertex@@@std@@@std@@AEBAXPEAUVertex@@0@Z PROC ; std::vector<Vertex,std::allocator<Vertex> >::_Orphan_range, COMDAT
; File C:\Program Files\Microsoft Visual Studio\18\Community\VC\Tools\MSVC\14.50.35717\include\vector
; Line 2223
	ret	0
?_Orphan_range@?$vector@UVertex@@V?$allocator@UVertex@@@std@@@std@@AEBAXPEAUVertex@@0@Z ENDP ; std::vector<Vertex,std::allocator<Vertex> >::_Orphan_range
_TEXT	ENDS
; Function compile flags: /Ogtpy
;	COMDAT ?_Xlength@?$vector@UVertex@@V?$allocator@UVertex@@@std@@@std@@CAXXZ
_TEXT	SEGMENT
?_Xlength@?$vector@UVertex@@V?$allocator@UVertex@@@std@@@std@@CAXXZ PROC ; std::vector<Vertex,std::allocator<Vertex> >::_Xlength, COMDAT
; File C:\Program Files\Microsoft Visual Studio\18\Community\VC\Tools\MSVC\14.50.35717\include\vector
; Line 2183
$LN4:
	sub	rsp, 40					; 00000028H
; Line 2184
	lea	rcx, OFFSET FLAT:??_C@_0BA@FOIKENOD@vector?5too?5long@
	call	?_Xlength_error@std@@YAXPEBD@Z		; std::_Xlength_error
	int	3
$LN3@Xlength:
?_Xlength@?$vector@UVertex@@V?$allocator@UVertex@@@std@@@std@@CAXXZ ENDP ; std::vector<Vertex,std::allocator<Vertex> >::_Xlength
_TEXT	ENDS
; Function compile flags: /Ogtpy
;	COMDAT ?_Tidy@?$vector@UVertex@@V?$allocator@UVertex@@@std@@@std@@AEAAXXZ
_TEXT	SEGMENT
this$ = 48
?_Tidy@?$vector@UVertex@@V?$allocator@UVertex@@@std@@@std@@AEAAXXZ PROC ; std::vector<Vertex,std::allocator<Vertex> >::_Tidy, COMDAT
; File C:\Program Files\Microsoft Visual Studio\18\Community\VC\Tools\MSVC\14.50.35717\include\vector
; Line 2081
$LN27:
	push	rbx
	sub	rsp, 32					; 00000020H
; Line 2090
	mov	rax, QWORD PTR [rcx]
	mov	rbx, rcx
	test	rax, rax
	je	SHORT $LN2@Tidy
; Line 2093
	mov	rdx, QWORD PTR [rcx+16]
	sub	rdx, rax
; File C:\Program Files\Microsoft Visual Studio\18\Community\VC\Tools\MSVC\14.50.35717\include\xmemory
; Line 989
	and	rdx, -32				; ffffffffffffffe0H
; Line 288
	cmp	rdx, 4096				; 00001000H
	jb	SHORT $LN20@Tidy
; Line 209
	mov	rcx, QWORD PTR [rax-8]
; Line 223
	sub	rax, rcx
	sub	rax, 8
	cmp	rax, 31
	ja	SHORT $LN15@Tidy
; Line 224
	add	rdx, 39					; 00000027H
	jmp	SHORT $LN16@Tidy
$LN15@Tidy:
; Line 223
	mov	ecx, 5
	int	41					; 00000029H
$LN20@Tidy:
; Line 989
	mov	rcx, rax
$LN16@Tidy:
; Line 293
	call	??3@YAXPEAX_K@Z				; operator delete
; File C:\Program Files\Microsoft Visual Studio\18\Community\VC\Tools\MSVC\14.50.35717\include\vector
; Line 2095
	xor	eax, eax
	mov	QWORD PTR [rbx], rax
; Line 2096
	mov	QWORD PTR [rbx+8], rax
; Line 2097
	mov	QWORD PTR [rbx+16], rax
$LN2@Tidy:
; Line 2099
	add	rsp, 32					; 00000020H
	pop	rbx
	ret	0
$LN24@Tidy:
?_Tidy@?$vector@UVertex@@V?$allocator@UVertex@@@std@@@std@@AEAAXXZ ENDP ; std::vector<Vertex,std::allocator<Vertex> >::_Tidy
_TEXT	ENDS
; Function compile flags: /Ogtpy
;	COMDAT ?_Change_array@?$vector@UVertex@@V?$allocator@UVertex@@@std@@@std@@AEAAXQEAUVertex@@_K1@Z
_TEXT	SEGMENT
this$ = 80
_Newvec$ = 88
_Newsize$ = 96
_Newcapacity$ = 104
?_Change_array@?$vector@UVertex@@V?$allocator@UVertex@@@std@@@std@@AEAAXQEAUVertex@@_K1@Z PROC ; std::vector<Vertex,std::allocator<Vertex> >::_Change_array, COMDAT
; File C:\Program Files\Microsoft Visual Studio\18\Community\VC\Tools\MSVC\14.50.35717\include\vector
; Line 2059
$LN27:
	push	rbx
	push	rbp
	push	rsi
	push	rdi
	sub	rsp, 40					; 00000028H
; Line 2069
	mov	rax, QWORD PTR [rcx]
	mov	rbx, r9
	mov	rdi, r8
	mov	rbp, rdx
	mov	rsi, rcx
	test	rax, rax
	je	SHORT $LN8@Change_arr
; Line 2072
	mov	rdx, QWORD PTR [rcx+16]
	sub	rdx, rax
; File C:\Program Files\Microsoft Visual Studio\18\Community\VC\Tools\MSVC\14.50.35717\include\xmemory
; Line 989
	and	rdx, -32				; ffffffffffffffe0H
; Line 288
	cmp	rdx, 4096				; 00001000H
	jb	SHORT $LN20@Change_arr
; Line 209
	mov	rcx, QWORD PTR [rax-8]
; Line 223
	sub	rax, rcx
	sub	rax, 8
	cmp	rax, 31
	ja	SHORT $LN15@Change_arr
; Line 224
	add	rdx, 39					; 00000027H
	jmp	SHORT $LN16@Change_arr
$LN15@Change_arr:
; Line 223
	mov	ecx, 5
	int	41					; 00000029H
$LN20@Change_arr:
; Line 989
	mov	rcx, rax
$LN16@Change_arr:
; Line 293
	call	??3@YAXPEAX_K@Z				; operator delete
$LN8@Change_arr:
; File C:\Program Files\Microsoft Visual Studio\18\Community\VC\Tools\MSVC\14.50.35717\include\vector
; Line 2076
	shl	rdi, 5
	add	rdi, rbp
	mov	QWORD PTR [rsi], rbp
; Line 2077
	shl	rbx, 5
	add	rbx, rbp
	mov	QWORD PTR [rsi+8], rdi
	mov	QWORD PTR [rsi+16], rbx
; Line 2079
	add	rsp, 40					; 00000028H
	pop	rdi
	pop	rsi
	pop	rbp
	pop	rbx
	ret	0
$LN24@Change_arr:
?_Change_array@?$vector@UVertex@@V?$allocator@UVertex@@@std@@@std@@AEAAXQEAUVertex@@_K1@Z ENDP ; std::vector<Vertex,std::allocator<Vertex> >::_Change_array
_TEXT	ENDS
; Function compile flags: /Ogtpy
;	COMDAT ?_Calculate_growth@?$vector@UVertex@@V?$allocator@UVertex@@@std@@@std@@AEBA_K_K@Z
_TEXT	SEGMENT
this$ = 8
_Newsize$ = 16
?_Calculate_growth@?$vector@UVertex@@V?$allocator@UVertex@@@std@@@std@@AEBA_K_K@Z PROC ; std::vector<Vertex,std::allocator<Vertex> >::_Calculate_growth, COMDAT
; File C:\Program Files\Microsoft Visual Studio\18\Community\VC\Tools\MSVC\14.50.35717\include\vector
; Line 1924
	mov	r8, QWORD PTR [rcx+16]
; Line 2011
	mov	rax, 576460752303423487			; 07ffffffffffffffH
; Line 1924
	sub	r8, QWORD PTR [rcx]
; Line 2011
	mov	rcx, rax
; Line 1924
	sar	r8, 5
; Line 2011
	mov	r9, r8
	shr	r9, 1
	sub	rcx, r9
	cmp	r8, rcx
	ja	SHORT $LN1@Calculate_
; Line 2015
	lea	rax, QWORD PTR [r9+r8]
; Line 2017
	cmp	rax, rdx
	cmovb	rax, rdx
$LN1@Calculate_:
; Line 2022
	ret	0
?_Calculate_growth@?$vector@UVertex@@V?$allocator@UVertex@@@std@@@std@@AEBA_K_K@Z ENDP ; std::vector<Vertex,std::allocator<Vertex> >::_Calculate_growth
_TEXT	ENDS
; Function compile flags: /Ogtpy
;	COMDAT ?capacity@?$vector@UVertex@@V?$allocator@UVertex@@@std@@@std@@QEBA_KXZ
_TEXT	SEGMENT
this$ = 8
?capacity@?$vector@UVertex@@V?$allocator@UVertex@@@std@@@std@@QEBA_KXZ PROC ; std::vector<Vertex,std::allocator<Vertex> >::capacity, COMDAT
; File C:\Program Files\Microsoft Visual Studio\18\Community\VC\Tools\MSVC\14.50.35717\include\vector
; Line 1924
	mov	rax, QWORD PTR [rcx+16]
	sub	rax, QWORD PTR [rcx]
	sar	rax, 5
; Line 1925
	ret	0
?capacity@?$vector@UVertex@@V?$allocator@UVertex@@@std@@@std@@QEBA_KXZ ENDP ; std::vector<Vertex,std::allocator<Vertex> >::capacity
_TEXT	ENDS
; Function compile flags: /Ogtpy
;	COMDAT ?max_size@?$vector@UVertex@@V?$allocator@UVertex@@@std@@@std@@QEBA_KXZ
_TEXT	SEGMENT
this$ = 8
?max_size@?$vector@UVertex@@V?$allocator@UVertex@@@std@@@std@@QEBA_KXZ PROC ; std::vector<Vertex,std::allocator<Vertex> >::max_size, COMDAT
; File C:\Program Files\Microsoft Visual Studio\18\Community\VC\Tools\MSVC\14.50.35717\include\vector
; Line 1919
	mov	rax, 576460752303423487			; 07ffffffffffffffH
; Line 1920
	ret	0
?max_size@?$vector@UVertex@@V?$allocator@UVertex@@@std@@@std@@QEBA_KXZ ENDP ; std::vector<Vertex,std::allocator<Vertex> >::max_size
_TEXT	ENDS
; Function compile flags: /Ogtpy
;	COMDAT ?push_back@?$vector@UVertex@@V?$allocator@UVertex@@@std@@@std@@QEAAXAEBUVertex@@@Z
_TEXT	SEGMENT
this$ = 8
_Val$ = 16
?push_back@?$vector@UVertex@@V?$allocator@UVertex@@@std@@@std@@QEAAXAEBUVertex@@@Z PROC ; std::vector<Vertex,std::allocator<Vertex> >::push_back, COMDAT
; File C:\Program Files\Microsoft Visual Studio\18\Community\VC\Tools\MSVC\14.50.35717\include\vector
; Line 932
	mov	r8, rdx
; Line 844
	mov	rdx, QWORD PTR [rcx+8]
	cmp	rdx, QWORD PTR [rcx+16]
	je	SHORT $LN4@push_back
; File C:\Program Files\Microsoft Visual Studio\18\Community\VC\Tools\MSVC\14.50.35717\include\xutility
; Line 522
	movups	xmm0, XMMWORD PTR [r8]
	movups	XMMWORD PTR [rdx], xmm0
	movups	xmm1, XMMWORD PTR [r8+16]
	movups	XMMWORD PTR [rdx+16], xmm1
; File C:\Program Files\Microsoft Visual Studio\18\Community\VC\Tools\MSVC\14.50.35717\include\vector
; Line 869
	add	QWORD PTR [rcx+8], 32			; 00000020H
; Line 934
	ret	0
$LN4@push_back:
; Line 848
	jmp	??$_Emplace_reallocate@AEBUVertex@@@?$vector@UVertex@@V?$allocator@UVertex@@@std@@@std@@AEAAPEAUVertex@@QEAU2@AEBU2@@Z ; std::vector<Vertex,std::allocator<Vertex> >::_Emplace_reallocate<Vertex const &>
?push_back@?$vector@UVertex@@V?$allocator@UVertex@@@std@@@std@@QEAAXAEBUVertex@@@Z ENDP ; std::vector<Vertex,std::allocator<Vertex> >::push_back
_TEXT	ENDS
; Function compile flags: /Ogtpy
;	COMDAT ??1?$vector@UVertex@@V?$allocator@UVertex@@@std@@@std@@QEAA@XZ
_TEXT	SEGMENT
this$ = 48
??1?$vector@UVertex@@V?$allocator@UVertex@@@std@@@std@@QEAA@XZ PROC ; std::vector<Vertex,std::allocator<Vertex> >::~vector<Vertex,std::allocator<Vertex> >, COMDAT
; File C:\Program Files\Microsoft Visual Studio\18\Community\VC\Tools\MSVC\14.50.35717\include\vector
; Line 829
$LN31:
	push	rbx
	sub	rsp, 32					; 00000020H
; Line 2090
	mov	rax, QWORD PTR [rcx]
; Line 829
	mov	rbx, rcx
; Line 2090
	test	rax, rax
	je	SHORT $LN5@vector
; Line 2093
	mov	rdx, QWORD PTR [rcx+16]
	sub	rdx, rax
; File C:\Program Files\Microsoft Visual Studio\18\Community\VC\Tools\MSVC\14.50.35717\include\xmemory
; Line 989
	and	rdx, -32				; ffffffffffffffe0H
; Line 288
	cmp	rdx, 4096				; 00001000H
	jb	SHORT $LN24@vector
; Line 209
	mov	rcx, QWORD PTR [rax-8]
; Line 223
	sub	rax, rcx
	sub	rax, 8
	cmp	rax, 31
	ja	SHORT $LN18@vector
; Line 224
	add	rdx, 39					; 00000027H
	jmp	SHORT $LN19@vector
$LN18@vector:
; Line 223
	mov	ecx, 5
	int	41					; 00000029H
$LN24@vector:
; Line 989
	mov	rcx, rax
$LN19@vector:
; Line 293
	call	??3@YAXPEAX_K@Z				; operator delete
; File C:\Program Files\Microsoft Visual Studio\18\Community\VC\Tools\MSVC\14.50.35717\include\vector
; Line 2095
	xor	eax, eax
	mov	QWORD PTR [rbx], rax
; Line 2096
	mov	QWORD PTR [rbx+8], rax
; Line 2097
	mov	QWORD PTR [rbx+16], rax
$LN5@vector:
; Line 835
	add	rsp, 32					; 00000020H
	pop	rbx
	ret	0
$LN28@vector:
??1?$vector@UVertex@@V?$allocator@UVertex@@@std@@@std@@QEAA@XZ ENDP ; std::vector<Vertex,std::allocator<Vertex> >::~vector<Vertex,std::allocator<Vertex> >
_TEXT	ENDS
; Function compile flags: /Ogtpy
;	COMDAT ??0?$vector@UVertex@@V?$allocator@UVertex@@@std@@@std@@QEAA@$$QEAV01@@Z
_TEXT	SEGMENT
this$ = 8
_Right$ = 16
??0?$vector@UVertex@@V?$allocator@UVertex@@@std@@@std@@QEAA@$$QEAV01@@Z PROC ; std::vector<Vertex,std::allocator<Vertex> >::vector<Vertex,std::allocator<Vertex> >, COMDAT
; File C:\Program Files\Microsoft Visual Studio\18\Community\VC\Tools\MSVC\14.50.35717\include\vector
; File C:\Program Files\Microsoft Visual Studio\18\Community\VC\Tools\MSVC\14.50.35717\include\utility
; Line 773
	mov	rax, QWORD PTR [rdx]
; Line 774
	xor	r10d, r10d
	mov	r9, QWORD PTR [rdx+16]
; Line 773
	mov	r8, QWORD PTR [rdx+8]
; Line 774
	mov	QWORD PTR [rdx+16], r10
	mov	QWORD PTR [rdx+8], r10
	mov	QWORD PTR [rdx], r10
; File C:\Program Files\Microsoft Visual Studio\18\Community\VC\Tools\MSVC\14.50.35717\include\vector
; Line 403
	mov	QWORD PTR [rcx], rax
; Line 766
	mov	rax, rcx
; Line 403
	mov	QWORD PTR [rcx+8], r8
	mov	QWORD PTR [rcx+16], r9
; Line 766
	ret	0
??0?$vector@UVertex@@V?$allocator@UVertex@@@std@@@std@@QEAA@$$QEAV01@@Z ENDP ; std::vector<Vertex,std::allocator<Vertex> >::vector<Vertex,std::allocator<Vertex> >
_TEXT	ENDS
; Function compile flags: /Ogtpy
;	COMDAT ??0?$vector@UVertex@@V?$allocator@UVertex@@@std@@@std@@QEAA@XZ
_TEXT	SEGMENT
this$ = 8
??0?$vector@UVertex@@V?$allocator@UVertex@@@std@@@std@@QEAA@XZ PROC ; std::vector<Vertex,std::allocator<Vertex> >::vector<Vertex,std::allocator<Vertex> >, COMDAT
; File C:\Program Files\Microsoft Visual Studio\18\Community\VC\Tools\MSVC\14.50.35717\include\vector
; Line 400
	xor	eax, eax
	mov	QWORD PTR [rcx], rax
	mov	QWORD PTR [rcx+8], rax
	mov	QWORD PTR [rcx+16], rax
; Line 672
	mov	rax, rcx
	ret	0
??0?$vector@UVertex@@V?$allocator@UVertex@@@std@@@std@@QEAA@XZ ENDP ; std::vector<Vertex,std::allocator<Vertex> >::vector<Vertex,std::allocator<Vertex> >
_TEXT	ENDS
; Function compile flags: /Ogtpy
;	COMDAT ?max_size@?$_Default_allocator_traits@V?$allocator@UVertex@@@std@@@std@@SA_KAEBV?$allocator@UVertex@@@2@@Z
_TEXT	SEGMENT
__formal$ = 8
?max_size@?$_Default_allocator_traits@V?$allocator@UVertex@@@std@@@std@@SA_KAEBV?$allocator@UVertex@@@2@@Z PROC ; std::_Default_allocator_traits<std::allocator<Vertex> >::max_size, COMDAT
; File C:\Program Files\Microsoft Visual Studio\18\Community\VC\Tools\MSVC\14.50.35717\include\xmemory
; Line 750
	mov	rax, 576460752303423487			; 07ffffffffffffffH
; Line 751
	ret	0
?max_size@?$_Default_allocator_traits@V?$allocator@UVertex@@@std@@@std@@SA_KAEBV?$allocator@UVertex@@@2@@Z ENDP ; std::_Default_allocator_traits<std::allocator<Vertex> >::max_size
_TEXT	ENDS
; Function compile flags: /Ogtpy
;	COMDAT ?allocate@?$allocator@UVertex@@@std@@QEAAPEAUVertex@@_K@Z
_TEXT	SEGMENT
this$ = 48
_Count$ = 56
?allocate@?$allocator@UVertex@@@std@@QEAAPEAUVertex@@_K@Z PROC ; std::allocator<Vertex>::allocate, COMDAT
; File C:\Program Files\Microsoft Visual Studio\18\Community\VC\Tools\MSVC\14.50.35717\include\xmemory
; Line 992
$LN27:
	sub	rsp, 40					; 00000028H
; Line 121
	mov	rax, 576460752303423487			; 07ffffffffffffffH
	cmp	rdx, rax
	ja	SHORT $LN23@allocate
; Line 126
	shl	rdx, 5
; Line 231
	test	rdx, rdx
	jne	SHORT $LN8@allocate
; Line 232
	xor	eax, eax
; Line 995
	add	rsp, 40					; 00000028H
	ret	0
$LN8@allocate:
; Line 255
	cmp	rdx, 4096				; 00001000H
	jb	SHORT $LN10@allocate
; Line 188
	lea	rcx, QWORD PTR [rdx+39]
; Line 189
	cmp	rcx, rdx
	jbe	SHORT $LN23@allocate
; Line 140
	call	??2@YAPEAX_K@Z				; operator new
	mov	rcx, rax
; Line 194
	test	rax, rax
	jne	SHORT $LN16@allocate
	mov	ecx, 5
	int	41					; 00000029H
$LN16@allocate:
; Line 195
	add	rax, 39					; 00000027H
	and	rax, -32				; ffffffffffffffe0H
; Line 196
	mov	QWORD PTR [rax-8], rcx
; Line 995
	add	rsp, 40					; 00000028H
	ret	0
$LN10@allocate:
; Line 140
	mov	rcx, rdx
; Line 995
	add	rsp, 40					; 00000028H
; Line 140
	jmp	??2@YAPEAX_K@Z				; operator new
$LN23@allocate:
; Line 190
	call	?_Throw_bad_array_new_length@std@@YAXXZ	; std::_Throw_bad_array_new_length
	int	3
$LN25@allocate:
?allocate@?$allocator@UVertex@@@std@@QEAAPEAUVertex@@_K@Z ENDP ; std::allocator<Vertex>::allocate
_TEXT	ENDS
; Function compile flags: /Ogtpy
;	COMDAT ?deallocate@?$allocator@UVertex@@@std@@QEAAXQEAUVertex@@_K@Z
_TEXT	SEGMENT
this$ = 8
_Ptr$ = 16
_Count$ = 24
?deallocate@?$allocator@UVertex@@@std@@QEAAXQEAUVertex@@_K@Z PROC ; std::allocator<Vertex>::deallocate, COMDAT
; File C:\Program Files\Microsoft Visual Studio\18\Community\VC\Tools\MSVC\14.50.35717\include\xmemory
; Line 989
	shl	r8, 5
; Line 288
	cmp	r8, 4096				; 00001000H
	jb	SHORT $LN15@deallocate
; Line 209
	mov	rcx, QWORD PTR [rdx-8]
; Line 223
	sub	rdx, rcx
	sub	rdx, 8
	cmp	rdx, 31
	ja	SHORT $LN11@deallocate
; Line 206
	add	r8, 39					; 00000027H
; Line 293
	mov	rdx, r8
	jmp	??3@YAXPEAX_K@Z				; operator delete
$LN11@deallocate:
; Line 223
	mov	ecx, 5
	int	41					; 00000029H
$LN15@deallocate:
; Line 989
	mov	rcx, rdx
; Line 293
	mov	rdx, r8
	jmp	??3@YAXPEAX_K@Z				; operator delete
$LN16@deallocate:
?deallocate@?$allocator@UVertex@@@std@@QEAAXQEAUVertex@@_K@Z ENDP ; std::allocator<Vertex>::deallocate
_TEXT	ENDS
; Function compile flags: /Ogtpy
;	COMDAT ??0?$allocator@UVertex@@@std@@QEAA@XZ
_TEXT	SEGMENT
this$ = 8
??0?$allocator@UVertex@@@std@@QEAA@XZ PROC		; std::allocator<Vertex>::allocator<Vertex>, COMDAT
; File C:\Program Files\Microsoft Visual Studio\18\Community\VC\Tools\MSVC\14.50.35717\include\xmemory
; Line 978
	mov	rax, rcx
	ret	0
??0?$allocator@UVertex@@@std@@QEAA@XZ ENDP		; std::allocator<Vertex>::allocator<Vertex>
_TEXT	ENDS
; Function compile flags: /Ogtpy
;	COMDAT ??_GCube@@UEAAPEAXI@Z
_TEXT	SEGMENT
this$ = 48
__flags$ = 56
??_GCube@@UEAAPEAXI@Z PROC				; Cube::`scalar deleting destructor', COMDAT
$LN14:
	mov	QWORD PTR [rsp+8], rbx
	push	rdi
	sub	rsp, 32					; 00000020H
	mov	ebx, edx
	mov	rdi, rcx
	call	??1BaseCube@@UEAA@XZ			; BaseCube::~BaseCube
	test	bl, 1
	je	SHORT $LN10@scalar
	mov	edx, 224				; 000000e0H
	mov	rcx, rdi
	call	??3@YAXPEAX_K@Z				; operator delete
$LN10@scalar:
	mov	rbx, QWORD PTR [rsp+48]
	mov	rax, rdi
	add	rsp, 32					; 00000020H
	pop	rdi
	ret	0
??_GCube@@UEAAPEAXI@Z ENDP				; Cube::`scalar deleting destructor'
_TEXT	ENDS
; Function compile flags: /Ogtpy
;	COMDAT ??1Cube@@UEAA@XZ
_TEXT	SEGMENT
this$ = 8
??1Cube@@UEAA@XZ PROC					; Cube::~Cube, COMDAT
	jmp	??1BaseCube@@UEAA@XZ			; BaseCube::~BaseCube
??1Cube@@UEAA@XZ ENDP					; Cube::~Cube
_TEXT	ENDS
; Function compile flags: /Ogtpy
;	COMDAT ?IsA@Cube@@UEAA_NV?$basic_string@DU?$char_traits@D@std@@V?$allocator@D@2@@std@@@Z
_TEXT	SEGMENT
$T1 = 40
className$GSCopy$ = 72
__$ArrayPad$ = 80
this$ = 112
className$ = 120
?IsA@Cube@@UEAA_NV?$basic_string@DU?$char_traits@D@std@@V?$allocator@D@2@@std@@@Z PROC ; Cube::IsA, COMDAT
; File C:\Users\RedDragon\Documents\Recubin\src\Instances\Cube.cpp
; Line 66
$LN43:
	mov	QWORD PTR [rsp+24], rbx
	push	rdi
	sub	rsp, 96					; 00000060H
	mov	rax, QWORD PTR __security_cookie
	xor	rax, rsp
	mov	QWORD PTR __$ArrayPad$[rsp], rax
	mov	rdi, rdx
	mov	rbx, rcx
	mov	QWORD PTR className$GSCopy$[rsp], rdx
; File C:\Program Files\Microsoft Visual Studio\18\Community\VC\Tools\MSVC\14.50.35717\include\xstring
; Line 445
	cmp	QWORD PTR [rdx+24], 15
	jbe	SHORT $LN40@IsA
; Line 446
	mov	rax, QWORD PTR [rdx]
	jmp	SHORT $LN16@IsA
$LN40@IsA:
; Line 444
	mov	rax, rdi
$LN16@IsA:
; File C:\Program Files\Microsoft Visual Studio\18\Community\VC\Tools\MSVC\14.50.35717\include\__msvc_string_view.hpp
; Line 673
	cmp	QWORD PTR [rdx+16], 4
	jne	SHORT $LN2@IsA
; Line 681
	cmp	DWORD PTR [rax], 1700951363		; 65627543H
; File C:\Users\RedDragon\Documents\Recubin\src\Instances\Cube.cpp
; Line 67
	jne	SHORT $LN2@IsA
; File C:\Program Files\Microsoft Visual Studio\18\Community\VC\Tools\MSVC\14.50.35717\include\xstring
; Line 1433
	mov	rcx, rdi
	call	?_Tidy_deallocate@?$basic_string@DU?$char_traits@D@std@@V?$allocator@D@2@@std@@AEAAXXZ ; std::basic_string<char,std::char_traits<char>,std::allocator<char> >::_Tidy_deallocate
; File C:\Users\RedDragon\Documents\Recubin\src\Instances\Cube.cpp
; Line 68
	mov	al, 1
	jmp	SHORT $LN1@IsA
$LN2@IsA:
; Line 70
	lea	rcx, QWORD PTR $T1[rsp]
	call	??0?$basic_string@DU?$char_traits@D@std@@V?$allocator@D@2@@std@@QEAA@AEBV01@@Z ; std::basic_string<char,std::char_traits<char>,std::allocator<char> >::basic_string<char,std::char_traits<char>,std::allocator<char> >
	mov	rdx, rax
	mov	rcx, rbx
	call	?IsA@BaseCube@@UEAA_NV?$basic_string@DU?$char_traits@D@std@@V?$allocator@D@2@@std@@@Z ; BaseCube::IsA
	movzx	ebx, al
; File C:\Program Files\Microsoft Visual Studio\18\Community\VC\Tools\MSVC\14.50.35717\include\xstring
; Line 1433
	mov	rcx, rdi
	call	?_Tidy_deallocate@?$basic_string@DU?$char_traits@D@std@@V?$allocator@D@2@@std@@AEAAXXZ ; std::basic_string<char,std::char_traits<char>,std::allocator<char> >::_Tidy_deallocate
; File C:\Users\RedDragon\Documents\Recubin\src\Instances\Cube.cpp
; Line 70
	movzx	eax, bl
$LN1@IsA:
; Line 71
	mov	rcx, QWORD PTR __$ArrayPad$[rsp]
	xor	rcx, rsp
	call	__security_check_cookie
	mov	rbx, QWORD PTR [rsp+128]
	add	rsp, 96					; 00000060H
	pop	rdi
	ret	0
?IsA@Cube@@UEAA_NV?$basic_string@DU?$char_traits@D@std@@V?$allocator@D@2@@std@@@Z ENDP ; Cube::IsA
_TEXT	ENDS
; Function compile flags: /Ogtpy
;	COMDAT text$x
text$x	SEGMENT
$T1 = 40
className$GSCopy$ = 72
__$ArrayPad$ = 80
this$ = 112
className$ = 120
?dtor$0@?0??IsA@Cube@@UEAA_NV?$basic_string@DU?$char_traits@D@std@@V?$allocator@D@2@@std@@@Z@4HA PROC ; `Cube::IsA'::`1'::dtor$0
	mov	rcx, QWORD PTR className$GSCopy$[rdx]
	jmp	??1?$basic_string@DU?$char_traits@D@std@@V?$allocator@D@2@@std@@QEAA@XZ ; std::basic_string<char,std::char_traits<char>,std::allocator<char> >::~basic_string<char,std::char_traits<char>,std::allocator<char> >
?dtor$0@?0??IsA@Cube@@UEAA_NV?$basic_string@DU?$char_traits@D@std@@V?$allocator@D@2@@std@@@Z@4HA ENDP ; `Cube::IsA'::`1'::dtor$0
text$x	ENDS
; Function compile flags: /Ogtpy
;	COMDAT ?GetClassName@Cube@@UEAA?AV?$basic_string@DU?$char_traits@D@std@@V?$allocator@D@2@@std@@XZ
_TEXT	SEGMENT
this$ = 32
__$ReturnUdt$ = 40
?GetClassName@Cube@@UEAA?AV?$basic_string@DU?$char_traits@D@std@@V?$allocator@D@2@@std@@XZ PROC ; Cube::GetClassName, COMDAT
; File C:\Users\RedDragon\Documents\Recubin\src\Instances\Cube.cpp
; Line 62
$LN113:
	sub	rsp, 24
	xorps	xmm0, xmm0
; File C:\Program Files\Microsoft Visual Studio\18\Community\VC\Tools\MSVC\14.50.35717\include\xstring
; Line 493
	movups	XMMWORD PTR [rdx], xmm0
; Line 940
	mov	QWORD PTR [rdx+16], 4
; Line 941
	mov	QWORD PTR [rdx+24], 15
; File C:\Program Files\Microsoft Visual Studio\18\Community\VC\Tools\MSVC\14.50.35717\include\__msvc_string_view.hpp
; Line 200
	mov	eax, DWORD PTR ??_C@_04CJLGPKHJ@Cube@
	mov	DWORD PTR [rdx], eax
; File C:\Users\RedDragon\Documents\Recubin\src\Instances\Cube.cpp
; Line 63
	mov	rax, rdx
; File C:\Program Files\Microsoft Visual Studio\18\Community\VC\Tools\MSVC\14.50.35717\include\xstring
; Line 948
	mov	BYTE PTR [rdx+4], 0
; File C:\Users\RedDragon\Documents\Recubin\src\Instances\Cube.cpp
; Line 64
	add	rsp, 24
	ret	0
?GetClassName@Cube@@UEAA?AV?$basic_string@DU?$char_traits@D@std@@V?$allocator@D@2@@std@@XZ ENDP ; Cube::GetClassName
_TEXT	ENDS
; Function compile flags: /Ogtpy
;	COMDAT ?draw@Cube@@QEAAXHH@Z
_TEXT	SEGMENT
this$ = 64
modelLoc$ = 72
shaderProgram$ = 80
?draw@Cube@@QEAAXHH@Z PROC				; Cube::draw, COMDAT
; File C:\Users\RedDragon\Documents\Recubin\src\Instances\Cube.cpp
; Line 79
$LN29:
	push	rbx
	sub	rsp, 48					; 00000030H
; Line 82
	mov	rax, QWORD PTR __glewGetUniformLocation
	lea	rdx, OFFSET FLAT:??_C@_08LILHLMFO@ourColor@
	mov	rbx, rcx
	mov	ecx, r8d
	call	rax
; Line 83
	cmp	eax, -1
	je	SHORT $LN5@draw
; Line 84
	movss	xmm0, DWORD PTR [rbx+168]
	mov	ecx, eax
	movss	xmm3, DWORD PTR [rbx+164]
	movss	xmm2, DWORD PTR [rbx+160]
	movss	xmm1, DWORD PTR [rbx+156]
	movss	DWORD PTR [rsp+32], xmm0
	call	QWORD PTR __glewUniform4f
$LN5@draw:
; Line 88
	mov	ecx, 33984				; 000084c0H
	call	QWORD PTR __glewActiveTexture
; Line 89
	mov	edx, DWORD PTR [rbx+200]
; Line 91
	mov	ecx, 3553				; 00000de1H
	test	edx, edx
	cmove	edx, DWORD PTR ?defaultTextureID@Cube@@2IA ; Cube::defaultTextureID
	call	QWORD PTR __imp_glBindTexture
; Line 92
	xor	r9d, r9d
	mov	edx, 6
	mov	r8d, 5125				; 00001405H
	mov	ecx, 4
	call	QWORD PTR __imp_glDrawElements
	mov	ecx, 33984				; 000084c0H
	call	QWORD PTR __glewActiveTexture
	mov	edx, DWORD PTR [rbx+204]
	mov	ecx, 3553				; 00000de1H
	test	edx, edx
	cmove	edx, DWORD PTR ?defaultTextureID@Cube@@2IA ; Cube::defaultTextureID
	call	QWORD PTR __imp_glBindTexture
	mov	edx, 6
	mov	r9d, 24
	mov	r8d, 5125				; 00001405H
	mov	ecx, 4
	call	QWORD PTR __imp_glDrawElements
	mov	ecx, 33984				; 000084c0H
	call	QWORD PTR __glewActiveTexture
	mov	edx, DWORD PTR [rbx+208]
	mov	ecx, 3553				; 00000de1H
	test	edx, edx
	cmove	edx, DWORD PTR ?defaultTextureID@Cube@@2IA ; Cube::defaultTextureID
	call	QWORD PTR __imp_glBindTexture
	mov	edx, 6
	mov	r9d, 48					; 00000030H
	mov	r8d, 5125				; 00001405H
	mov	ecx, 4
	call	QWORD PTR __imp_glDrawElements
	mov	ecx, 33984				; 000084c0H
	call	QWORD PTR __glewActiveTexture
	mov	edx, DWORD PTR [rbx+212]
	mov	ecx, 3553				; 00000de1H
	test	edx, edx
	cmove	edx, DWORD PTR ?defaultTextureID@Cube@@2IA ; Cube::defaultTextureID
	call	QWORD PTR __imp_glBindTexture
	mov	edx, 6
	mov	r9d, 72					; 00000048H
	mov	r8d, 5125				; 00001405H
	mov	ecx, 4
	call	QWORD PTR __imp_glDrawElements
	mov	ecx, 33984				; 000084c0H
	call	QWORD PTR __glewActiveTexture
	mov	edx, DWORD PTR [rbx+216]
	mov	ecx, 3553				; 00000de1H
	test	edx, edx
	cmove	edx, DWORD PTR ?defaultTextureID@Cube@@2IA ; Cube::defaultTextureID
	call	QWORD PTR __imp_glBindTexture
	mov	edx, 6
	mov	r9d, 96					; 00000060H
	mov	r8d, 5125				; 00001405H
	mov	ecx, 4
	call	QWORD PTR __imp_glDrawElements
	mov	ecx, 33984				; 000084c0H
	call	QWORD PTR __glewActiveTexture
	mov	edx, DWORD PTR [rbx+220]
	mov	ecx, 3553				; 00000de1H
	test	edx, edx
	cmove	edx, DWORD PTR ?defaultTextureID@Cube@@2IA ; Cube::defaultTextureID
	call	QWORD PTR __imp_glBindTexture
	mov	edx, 6
	mov	r9d, 120				; 00000078H
	mov	r8d, 5125				; 00001405H
	mov	ecx, 4
; Line 94
	add	rsp, 48					; 00000030H
	pop	rbx
; Line 92
	rex_jmp	QWORD PTR __imp_glDrawElements
?draw@Cube@@QEAAXHH@Z ENDP				; Cube::draw
_TEXT	ENDS
; Function compile flags: /Ogtpy
;	COMDAT ?setFaceTexture@Cube@@QEAAXHI@Z
_TEXT	SEGMENT
this$ = 8
faceIdx$ = 16
texID$ = 24
?setFaceTexture@Cube@@QEAAXHI@Z PROC			; Cube::setFaceTexture, COMDAT
; File C:\Users\RedDragon\Documents\Recubin\src\Instances\Cube.cpp
; Line 75
	cmp	edx, 5
	ja	SHORT $LN2@setFaceTex
	movsxd	rax, edx
	mov	DWORD PTR [rcx+rax*4+200], r8d
$LN2@setFaceTex:
; Line 76
	ret	0
?setFaceTexture@Cube@@QEAAXHI@Z ENDP			; Cube::setFaceTexture
_TEXT	ENDS
; Function compile flags: /Ogtpy
;	COMDAT ??0Cube@@QEAA@UVector3@@0I@Z
_TEXT	SEGMENT
$T1 = 32
$T2 = 48
this$ = 80
Pos$ = 88
Sz$ = 96
defaultTex$ = 104
??0Cube@@QEAA@UVector3@@0I@Z PROC			; Cube::Cube, COMDAT
; File C:\Users\RedDragon\Documents\Recubin\src\Instances\Cube.cpp
; Line 56
$LN17:
	mov	QWORD PTR [rsp+8], rbx
	push	rdi
	sub	rsp, 64					; 00000040H
; Line 55
	movsd	xmm0, QWORD PTR [r8]
; Line 56
	mov	edi, r9d
	mov	eax, DWORD PTR [r8+8]
	mov	rbx, rcx
	movsd	QWORD PTR $T1[rsp], xmm0
	lea	r8, QWORD PTR $T1[rsp]
	movsd	xmm0, QWORD PTR [rdx]
	mov	DWORD PTR $T1[rsp+8], eax
	mov	eax, DWORD PTR [rdx+8]
	lea	rdx, QWORD PTR $T2[rsp]
	movsd	QWORD PTR $T2[rsp], xmm0
	mov	DWORD PTR $T2[rsp+8], eax
	call	??0BaseCube@@QEAA@UVector3@@0@Z		; BaseCube::BaseCube
	lea	rax, OFFSET FLAT:??_7Cube@@6B@
	mov	QWORD PTR [rbx], rax
; Line 60
	mov	rax, rbx
	mov	DWORD PTR [rbx+200], edi
	mov	DWORD PTR [rbx+204], edi
	mov	DWORD PTR [rbx+208], edi
	mov	DWORD PTR [rbx+212], edi
	mov	DWORD PTR [rbx+216], edi
	mov	DWORD PTR [rbx+220], edi
	mov	rbx, QWORD PTR [rsp+80]
	add	rsp, 64					; 00000040H
	pop	rdi
	ret	0
??0Cube@@QEAA@UVector3@@0I@Z ENDP			; Cube::Cube
_TEXT	ENDS
; Function compile flags: /Ogtpy
;	COMDAT ?createCubeVertices@@YA?AV?$vector@UVertex@@V?$allocator@UVertex@@@std@@@std@@M@Z
_TEXT	SEGMENT
$T1 = 32
vy$1$ = 36
vert$2 = 40
p$3 = 72
uv$4 = 104
faces$ = 144
__$ReturnUdt$ = 448
size$ = 456
tv896 = 464
tv897 = 472
?createCubeVertices@@YA?AV?$vector@UVertex@@V?$allocator@UVertex@@@std@@@std@@M@Z PROC ; createCubeVertices, COMDAT
; File C:\Users\RedDragon\Documents\Recubin\src\Instances\Cube.cpp
; Line 8
$LN81:
	mov	rax, rsp
	mov	QWORD PTR [rax+8], rcx
	push	rbp
	push	rbx
	push	rsi
	push	rdi
	push	r14
	push	r15
	lea	rbp, QWORD PTR [rax-184]
	sub	rsp, 392				; 00000188H
	movaps	XMMWORD PTR [rax-72], xmm6
	movaps	XMMWORD PTR [rax-88], xmm7
	movaps	XMMWORD PTR [rax-104], xmm8
	movaps	XMMWORD PTR [rax-120], xmm9
	movaps	XMMWORD PTR [rax-136], xmm10
	movaps	XMMWORD PTR [rax-152], xmm11
	movaps	XMMWORD PTR [rax-168], xmm12
	movaps	XMMWORD PTR [rax-184], xmm13
	movaps	XMMWORD PTR [rax-200], xmm14
	movaps	XMMWORD PTR [rax-216], xmm15
	movaps	xmm13, xmm1
	mov	rdi, rcx
	xor	r15d, r15d
	mov	DWORD PTR $T1[rsp], r15d
; Line 9
	mulss	xmm13, DWORD PTR __real@3f000000
; File C:\Program Files\Microsoft Visual Studio\18\Community\VC\Tools\MSVC\14.50.35717\include\vector
; Line 400
	mov	QWORD PTR [rcx], r15
	mov	QWORD PTR [rcx+8], r15
	mov	QWORD PTR [rcx+16], r15
; File C:\Users\RedDragon\Documents\Recubin\src\Instances\Cube.cpp
; Line 10
	mov	DWORD PTR $T1[rsp], 1
; Line 14
	movdqa	xmm0, XMMWORD PTR __xmm@000000003f8000000000000000000000
	movaps	XMMWORD PTR faces$[rbp-256], xmm0
	movdqa	xmm1, XMMWORD PTR __xmm@3f80000000000000bf80000000000000
	movaps	XMMWORD PTR faces$[rbp-240], xmm1
; Line 15
	movdqa	xmm0, XMMWORD PTR __xmm@00000000bf8000000000000000000000
	movaps	XMMWORD PTR faces$[rbp-224], xmm0
; Line 16
	movdqa	xmm1, XMMWORD PTR __xmm@bf80000000000000000000003f800000
	movaps	XMMWORD PTR faces$[rbp-208], xmm1
	xorps	xmm6, xmm6
	mov	QWORD PTR faces$[rbp-192], r15
; Line 8
	mov	r14d, r15d
	mov	esi, r15d
	movdqa	xmm2, XMMWORD PTR __xmm@3f800000000000000000000000000000
	movdqa	xmm3, XMMWORD PTR __xmm@000000003f8000003f8000003f800000
	movdqa	xmm4, XMMWORD PTR __xmm@3f800000bf800000bf800000bf800000
	movss	xmm14, DWORD PTR __real@3f800000
	npad	8
$LL4@createCube:
; Line 20
	movss	xmm7, DWORD PTR faces$[rbp+rsi-256]
	movss	xmm9, DWORD PTR faces$[rbp+rsi-252]
	movss	xmm8, DWORD PTR faces$[rbp+rsi-248]
; Line 22
	ucomiss	xmm7, xmm6
	jp	SHORT $LN10@createCube
	jne	SHORT $LN10@createCube
	movaps	xmm12, xmm14
	jmp	SHORT $LN11@createCube
$LN10@createCube:
	xorps	xmm12, xmm12
$LN11@createCube:
; Line 23
	ucomiss	xmm7, xmm6
	jp	SHORT $LN12@createCube
	jne	SHORT $LN12@createCube
	ucomiss	xmm8, xmm6
	jp	SHORT $LN12@createCube
	jne	SHORT $LN12@createCube
	movaps	xmm11, xmm14
	jmp	SHORT $LN13@createCube
$LN12@createCube:
	xorps	xmm11, xmm11
$LN13@createCube:
; Line 24
	ucomiss	xmm8, xmm6
	jp	SHORT $LN14@createCube
	jne	SHORT $LN14@createCube
	ucomiss	xmm7, xmm6
	jp	SHORT $LN78@createCube
	je	SHORT $LN14@createCube
$LN78@createCube:
	movaps	xmm10, xmm14
	jmp	SHORT $LN15@createCube
$LN14@createCube:
	xorps	xmm10, xmm10
$LN15@createCube:
; Line 25
	ucomiss	xmm9, xmm6
	jp	SHORT $LN77@createCube
	je	SHORT $LN8@createCube
$LN77@createCube:
	movaps	xmm12, xmm14
	xorps	xmm11, xmm11
	xorps	xmm10, xmm10
$LN8@createCube:
; Line 27
	movaps	xmm15, xmm10
	mulss	xmm15, xmm9
	movaps	xmm0, xmm11
	mulss	xmm0, xmm8
	subss	xmm15, xmm0
; Line 28
	movaps	xmm5, xmm12
	mulss	xmm5, xmm8
	movaps	xmm0, xmm10
	mulss	xmm0, xmm7
	subss	xmm5, xmm0
	movss	DWORD PTR vy$1$[rsp], xmm5
; Line 29
	movaps	xmm14, xmm11
	mulss	xmm14, xmm7
	movaps	xmm0, xmm12
	mulss	xmm0, xmm9
	subss	xmm14, xmm0
; Line 31
	movdqa	xmm0, XMMWORD PTR __xmm@bf8000003f8000003f8000003f800000
	movups	XMMWORD PTR p$3[rsp], xmm0
	movups	XMMWORD PTR p$3[rsp+16], xmm4
; Line 32
	movups	XMMWORD PTR uv$4[rsp], xmm3
	movups	XMMWORD PTR uv$4[rsp+16], xmm2
	movaps	xmm6, xmm7
	mulss	xmm6, xmm13
	movaps	xmm0, xmm13
	mulss	xmm0, xmm9
	movss	DWORD PTR tv896[rbp-256], xmm0
	movaps	xmm0, xmm13
	mulss	xmm0, xmm8
	movss	DWORD PTR tv897[rbp-256], xmm0
	mov	rbx, r15
	npad	3
$LL7@createCube:
; Line 36
	movss	xmm2, DWORD PTR p$3[rsp+rbx*8]
	movss	xmm1, DWORD PTR p$3[rsp+rbx*8+4]
	movaps	xmm3, xmm2
	mulss	xmm3, xmm12
	mulss	xmm3, xmm13
	addss	xmm3, xmm6
	movaps	xmm0, xmm1
	mulss	xmm0, xmm15
	mulss	xmm0, xmm13
	addss	xmm3, xmm0
	movss	DWORD PTR vert$2[rsp], xmm3
; Line 37
	movaps	xmm4, xmm2
	mulss	xmm4, xmm11
	mulss	xmm4, xmm13
	addss	xmm4, DWORD PTR tv896[rbp-256]
	movaps	xmm0, xmm1
	mulss	xmm0, xmm5
	mulss	xmm0, xmm13
	addss	xmm4, xmm0
	movss	DWORD PTR vert$2[rsp+4], xmm4
; Line 38
	mulss	xmm2, xmm10
	mulss	xmm2, xmm13
	addss	xmm2, DWORD PTR tv897[rbp-256]
	mulss	xmm1, xmm14
	mulss	xmm1, xmm13
	addss	xmm2, xmm1
	movss	DWORD PTR vert$2[rsp+8], xmm2
; Line 40
	movss	DWORD PTR vert$2[rsp+12], xmm7
; Line 41
	movss	DWORD PTR vert$2[rsp+16], xmm9
; Line 42
	movss	DWORD PTR vert$2[rsp+20], xmm8
; Line 44
	movss	xmm0, DWORD PTR uv$4[rsp+rbx*8]
	movss	DWORD PTR vert$2[rsp+24], xmm0
; Line 45
	movss	xmm1, DWORD PTR uv$4[rsp+rbx*8+4]
	movss	DWORD PTR vert$2[rsp+28], xmm1
; File C:\Program Files\Microsoft Visual Studio\18\Community\VC\Tools\MSVC\14.50.35717\include\vector
; Line 844
	mov	rdx, QWORD PTR [rdi+8]
	cmp	rdx, QWORD PTR [rdi+16]
	je	SHORT $LN39@createCube
; Line 869
	movss	DWORD PTR [rdx], xmm3
	movss	DWORD PTR [rdx+4], xmm4
	movss	DWORD PTR [rdx+8], xmm2
	movss	DWORD PTR [rdx+12], xmm7
	movss	DWORD PTR [rdx+16], xmm9
	movss	DWORD PTR [rdx+20], xmm8
	movss	DWORD PTR [rdx+24], xmm0
	movss	DWORD PTR [rdx+28], xmm1
	add	QWORD PTR [rdi+8], 32			; 00000020H
; Line 845
	jmp	SHORT $LN5@createCube
$LN39@createCube:
; Line 848
	lea	r8, QWORD PTR vert$2[rsp]
	mov	rcx, rdi
	call	??$_Emplace_reallocate@AEBUVertex@@@?$vector@UVertex@@V?$allocator@UVertex@@@std@@@std@@AEAAPEAUVertex@@QEAU2@AEBU2@@Z ; std::vector<Vertex,std::allocator<Vertex> >::_Emplace_reallocate<Vertex const &>
	movss	xmm5, DWORD PTR vy$1$[rsp]
$LN5@createCube:
; File C:\Users\RedDragon\Documents\Recubin\src\Instances\Cube.cpp
; Line 34
	inc	rbx
	cmp	rbx, 4
	jne	$LL7@createCube
; Line 19
	inc	r14
	add	rsi, 12
	cmp	r14, 6
	xorps	xmm6, xmm6
	movss	xmm14, DWORD PTR __real@3f800000
	movdqa	xmm2, XMMWORD PTR __xmm@3f800000000000000000000000000000
	movdqa	xmm3, XMMWORD PTR __xmm@000000003f8000003f8000003f800000
	movdqa	xmm4, XMMWORD PTR __xmm@3f800000bf800000bf800000bf800000
	jne	$LL4@createCube
; Line 50
	mov	rax, rdi
; Line 51
	lea	r11, QWORD PTR [rsp+392]
	movaps	xmm6, XMMWORD PTR [r11-24]
	movaps	xmm7, XMMWORD PTR [r11-40]
	movaps	xmm8, XMMWORD PTR [r11-56]
	movaps	xmm9, XMMWORD PTR [r11-72]
	movaps	xmm10, XMMWORD PTR [r11-88]
	movaps	xmm11, XMMWORD PTR [r11-104]
	movaps	xmm12, XMMWORD PTR [r11-120]
	movaps	xmm13, XMMWORD PTR [r11-136]
	movaps	xmm14, XMMWORD PTR [r11-152]
	movaps	xmm15, XMMWORD PTR [r11-168]
	mov	rsp, r11
	pop	r15
	pop	r14
	pop	rdi
	pop	rsi
	pop	rbx
	pop	rbp
	ret	0
	int	3
?createCubeVertices@@YA?AV?$vector@UVertex@@V?$allocator@UVertex@@@std@@@std@@M@Z ENDP ; createCubeVertices
_TEXT	ENDS
; Function compile flags: /Ogtpy
;	COMDAT text$x
text$x	SEGMENT
$T1 = 32
vy$1$ = 36
vert$2 = 40
p$3 = 72
uv$4 = 104
faces$ = 144
__$ReturnUdt$ = 448
size$ = 456
tv896 = 464
tv897 = 472
?dtor$0@?0??createCubeVertices@@YA?AV?$vector@UVertex@@V?$allocator@UVertex@@@std@@@std@@M@Z@4HA PROC ; `createCubeVertices'::`1'::dtor$0
	push	rbp
	sub	rsp, 32					; 00000020H
	mov	rbp, rdx
	mov	eax, DWORD PTR $T1[rbp]
	and	eax, 1
	test	eax, eax
	je	SHORT $LN17@dtor$0
	and	DWORD PTR $T1[rbp], -2
	mov	rcx, QWORD PTR __$ReturnUdt$[rbp]
	call	??1?$vector@UVertex@@V?$allocator@UVertex@@@std@@@std@@QEAA@XZ ; std::vector<Vertex,std::allocator<Vertex> >::~vector<Vertex,std::allocator<Vertex> >
$LN17@dtor$0:
	add	rsp, 32					; 00000020H
	pop	rbp
	ret	0
?dtor$0@?0??createCubeVertices@@YA?AV?$vector@UVertex@@V?$allocator@UVertex@@@std@@@std@@M@Z@4HA ENDP ; `createCubeVertices'::`1'::dtor$0
text$x	ENDS
; Function compile flags: /Ogtpy
;	COMDAT ??0Vertex@@QEAA@XZ
_TEXT	SEGMENT
this$ = 8
??0Vertex@@QEAA@XZ PROC					; Vertex::Vertex, COMDAT
; File C:\Users\RedDragon\Documents\Recubin\include\Instances\Cube.hpp
; File C:\Users\RedDragon\Documents\Recubin\include\Math\Vector3.hpp
; Line 37
	xor	eax, eax
	mov	QWORD PTR [rcx], rax
; Line 39
	mov	QWORD PTR [rcx+8], rax
; Line 38
	mov	QWORD PTR [rcx+16], rax
; File C:\Users\RedDragon\Documents\Recubin\include\Instances\Cube.hpp
; Line 13
	mov	QWORD PTR [rcx+24], rax
	mov	rax, rcx
	ret	0
??0Vertex@@QEAA@XZ ENDP					; Vertex::Vertex
_TEXT	ENDS
; Function compile flags: /Ogtpy
;	COMDAT ??__EmaxV4Error@vecMathTests@aos@physx@@YAXXZ
text$di	SEGMENT
??__EmaxV4Error@vecMathTests@aos@physx@@YAXXZ PROC	; physx::aos::vecMathTests::`dynamic initializer for 'maxV4Error'', COMDAT
; File C:\Users\RedDragon\Documents\Recubin\include\PhysX\foundation\windows\PxWindowsInlineAoS.h
; File C:\Users\RedDragon\Documents\Recubin\include\PhysX\foundation\PxVecMathSSE.h
; Line 238
	movdqa	xmm0, XMMWORD PTR __xmm@3a83126f3a83126f3a83126f3a83126f
; File C:\Users\RedDragon\Documents\Recubin\include\PhysX\foundation\windows\PxWindowsInlineAoS.h
; Line 112
	movaps	XMMWORD PTR ?maxV4Error@vecMathTests@aos@physx@@3T__m128@@B, xmm0
	ret	0
??__EmaxV4Error@vecMathTests@aos@physx@@YAXXZ ENDP	; physx::aos::vecMathTests::`dynamic initializer for 'maxV4Error''
text$di	ENDS
; Function compile flags: /Ogtpy
;	COMDAT ??__EminV4Error@vecMathTests@aos@physx@@YAXXZ
text$di	SEGMENT
??__EminV4Error@vecMathTests@aos@physx@@YAXXZ PROC	; physx::aos::vecMathTests::`dynamic initializer for 'minV4Error'', COMDAT
; File C:\Users\RedDragon\Documents\Recubin\include\PhysX\foundation\windows\PxWindowsInlineAoS.h
; File C:\Users\RedDragon\Documents\Recubin\include\PhysX\foundation\PxVecMathSSE.h
; Line 238
	movdqa	xmm0, XMMWORD PTR __xmm@ba83126fba83126fba83126fba83126f
; File C:\Users\RedDragon\Documents\Recubin\include\PhysX\foundation\windows\PxWindowsInlineAoS.h
; Line 111
	movaps	XMMWORD PTR ?minV4Error@vecMathTests@aos@physx@@3T__m128@@B, xmm0
	ret	0
??__EminV4Error@vecMathTests@aos@physx@@YAXXZ ENDP	; physx::aos::vecMathTests::`dynamic initializer for 'minV4Error''
text$di	ENDS
; Function compile flags: /Ogtpy
;	COMDAT ??__EmaxV3Error@vecMathTests@aos@physx@@YAXXZ
text$di	SEGMENT
??__EmaxV3Error@vecMathTests@aos@physx@@YAXXZ PROC	; physx::aos::vecMathTests::`dynamic initializer for 'maxV3Error'', COMDAT
; File C:\Users\RedDragon\Documents\Recubin\include\PhysX\foundation\windows\PxWindowsInlineAoS.h
; File C:\Users\RedDragon\Documents\Recubin\include\PhysX\foundation\PxVecMathSSE.h
; Line 233
	movdqa	xmm0, XMMWORD PTR __xmm@000000003a83126f3a83126f3a83126f
; File C:\Users\RedDragon\Documents\Recubin\include\PhysX\foundation\windows\PxWindowsInlineAoS.h
; Line 110
	movaps	XMMWORD PTR ?maxV3Error@vecMathTests@aos@physx@@3T__m128@@B, xmm0
	ret	0
??__EmaxV3Error@vecMathTests@aos@physx@@YAXXZ ENDP	; physx::aos::vecMathTests::`dynamic initializer for 'maxV3Error''
text$di	ENDS
; Function compile flags: /Ogtpy
;	COMDAT ??__EminV3Error@vecMathTests@aos@physx@@YAXXZ
text$di	SEGMENT
??__EminV3Error@vecMathTests@aos@physx@@YAXXZ PROC	; physx::aos::vecMathTests::`dynamic initializer for 'minV3Error'', COMDAT
; File C:\Users\RedDragon\Documents\Recubin\include\PhysX\foundation\windows\PxWindowsInlineAoS.h
; File C:\Users\RedDragon\Documents\Recubin\include\PhysX\foundation\PxVecMathSSE.h
; Line 233
	movdqa	xmm0, XMMWORD PTR __xmm@00000000ba83126fba83126fba83126f
; File C:\Users\RedDragon\Documents\Recubin\include\PhysX\foundation\windows\PxWindowsInlineAoS.h
; Line 109
	movaps	XMMWORD PTR ?minV3Error@vecMathTests@aos@physx@@3T__m128@@B, xmm0
	ret	0
??__EminV3Error@vecMathTests@aos@physx@@YAXXZ ENDP	; physx::aos::vecMathTests::`dynamic initializer for 'minV3Error''
text$di	ENDS
; Function compile flags: /Ogtpy
;	COMDAT ??__EmaxFError@vecMathTests@aos@physx@@YAXXZ
text$di	SEGMENT
??__EmaxFError@vecMathTests@aos@physx@@YAXXZ PROC	; physx::aos::vecMathTests::`dynamic initializer for 'maxFError'', COMDAT
; File C:\Users\RedDragon\Documents\Recubin\include\PhysX\foundation\windows\PxWindowsInlineAoS.h
; File C:\Users\RedDragon\Documents\Recubin\include\PhysX\foundation\PxVecMathSSE.h
; Line 228
	movdqa	xmm0, XMMWORD PTR __xmm@3a83126f3a83126f3a83126f3a83126f
; File C:\Users\RedDragon\Documents\Recubin\include\PhysX\foundation\windows\PxWindowsInlineAoS.h
; Line 108
	movaps	XMMWORD PTR ?maxFError@vecMathTests@aos@physx@@3T__m128@@B, xmm0
	ret	0
??__EmaxFError@vecMathTests@aos@physx@@YAXXZ ENDP	; physx::aos::vecMathTests::`dynamic initializer for 'maxFError''
text$di	ENDS
; Function compile flags: /Ogtpy
;	COMDAT ??__EminFError@vecMathTests@aos@physx@@YAXXZ
text$di	SEGMENT
??__EminFError@vecMathTests@aos@physx@@YAXXZ PROC	; physx::aos::vecMathTests::`dynamic initializer for 'minFError'', COMDAT
; File C:\Users\RedDragon\Documents\Recubin\include\PhysX\foundation\windows\PxWindowsInlineAoS.h
; File C:\Users\RedDragon\Documents\Recubin\include\PhysX\foundation\PxVecMathSSE.h
; Line 228
	movdqa	xmm0, XMMWORD PTR __xmm@ba83126fba83126fba83126fba83126f
; File C:\Users\RedDragon\Documents\Recubin\include\PhysX\foundation\windows\PxWindowsInlineAoS.h
; Line 107
	movaps	XMMWORD PTR ?minFError@vecMathTests@aos@physx@@3T__m128@@B, xmm0
	ret	0
??__EminFError@vecMathTests@aos@physx@@YAXXZ ENDP	; physx::aos::vecMathTests::`dynamic initializer for 'minFError''
text$di	ENDS
; Function compile flags: /Ogtpy
;	COMDAT ?V4Load@aos@physx@@YA?AT__m128@@M@Z
_TEXT	SEGMENT
f$ = 8
?V4Load@aos@physx@@YA?AT__m128@@M@Z PROC		; physx::aos::V4Load, COMDAT
; File C:\Users\RedDragon\Documents\Recubin\include\PhysX\foundation\PxVecMathSSE.h
; Line 238
	shufps	xmm0, xmm0, 0
; Line 239
	ret	0
?V4Load@aos@physx@@YA?AT__m128@@M@Z ENDP		; physx::aos::V4Load
_TEXT	ENDS
; Function compile flags: /Ogtpy
;	COMDAT ?V3Load@aos@physx@@YA?AT__m128@@M@Z
_TEXT	SEGMENT
f$ = 8
?V3Load@aos@physx@@YA?AT__m128@@M@Z PROC		; physx::aos::V3Load, COMDAT
; File C:\Users\RedDragon\Documents\Recubin\include\PhysX\foundation\PxVecMathSSE.h
; Line 233
	movaps	xmm3, xmm0
	xorps	xmm2, xmm2
	unpcklps xmm3, xmm2
	unpcklps xmm0, xmm0
	movlhps	xmm0, xmm3
; Line 234
	ret	0
?V3Load@aos@physx@@YA?AT__m128@@M@Z ENDP		; physx::aos::V3Load
_TEXT	ENDS
; Function compile flags: /Ogtpy
;	COMDAT ?FLoad@aos@physx@@YA?AT__m128@@M@Z
_TEXT	SEGMENT
f$ = 8
?FLoad@aos@physx@@YA?AT__m128@@M@Z PROC			; physx::aos::FLoad, COMDAT
; File C:\Users\RedDragon\Documents\Recubin\include\PhysX\foundation\PxVecMathSSE.h
; Line 228
	shufps	xmm0, xmm0, 0
; Line 229
	ret	0
?FLoad@aos@physx@@YA?AT__m128@@M@Z ENDP			; physx::aos::FLoad
_TEXT	ENDS
; Function compile flags: /Ogtpy
;	COMDAT ??$_Getvals@_W@?$time_get@_WV?$istreambuf_iterator@_WU?$char_traits@_W@std@@@std@@@std@@IEAAX_WAEBV_Locinfo@1@@Z
_TEXT	SEGMENT
$T1 = 32
__$ArrayPad$ = 80
this$ = 128
__formal$ = 136
_Lobj$ = 144
??$_Getvals@_W@?$time_get@_WV?$istreambuf_iterator@_WU?$char_traits@_W@std@@@std@@@std@@IEAAX_WAEBV_Locinfo@1@@Z PROC ; std::time_get<wchar_t,std::istreambuf_iterator<wchar_t,std::char_traits<wchar_t> > >::_Getvals<wchar_t>, COMDAT
; File C:\Program Files\Microsoft Visual Studio\18\Community\VC\Tools\MSVC\14.50.35717\include\xloctime
; Line 238
$LN27:
	mov	QWORD PTR [rsp+16], rbx
	mov	QWORD PTR [rsp+32], rbp
	push	rsi
	push	rdi
	push	r14
	sub	rsp, 96					; 00000060H
	mov	rax, QWORD PTR __security_cookie
	xor	rax, rsp
	mov	QWORD PTR __$ArrayPad$[rsp], rax
	mov	rbx, rcx
; Line 239
	lea	rdx, QWORD PTR $T1[rsp]
	mov	rcx, r8
	mov	rsi, r8
	call	QWORD PTR __imp_?_Getcvt@_Locinfo@std@@QEBA?AU_Cvtvec@@XZ
; Line 242
	mov	rcx, rsi
	movups	xmm0, XMMWORD PTR [rax]
	movups	XMMWORD PTR [rbx+44], xmm0
	movups	xmm1, XMMWORD PTR [rax+16]
	movups	XMMWORD PTR [rbx+60], xmm1
	movups	xmm0, XMMWORD PTR [rax+28]
	movups	XMMWORD PTR [rbx+72], xmm0
	call	QWORD PTR __imp_?_W_Getdays@_Locinfo@std@@QEBAPEBGXZ
; File C:\Program Files\Microsoft Visual Studio\18\Community\VC\Tools\MSVC\14.50.35717\include\xlocnum
; Line 74
	mov	rcx, rax
; File C:\Program Files\Microsoft Visual Studio\18\Community\VC\Tools\MSVC\14.50.35717\include\xloctime
; Line 242
	mov	rbp, rax
; File C:\Program Files\Microsoft Visual Studio\18\Community\VC\Tools\MSVC\14.50.35717\include\xlocnum
; Line 74
	call	wcslen
; Line 76
	mov	edx, 2
	lea	r14, QWORD PTR [rax+1]
	mov	rcx, r14
	call	QWORD PTR __imp_calloc
	mov	rdi, rax
; Line 78
	test	rax, rax
	je	$LN24@Getvals
; File C:\Program Files (x86)\Windows Kits\10\Include\10.0.26100.0\ucrt\wchar.h
; Line 494
	lea	r8, QWORD PTR [r14+r14]
	mov	rdx, rbp
	mov	rcx, rax
	call	memcpy
; File C:\Program Files\Microsoft Visual Studio\18\Community\VC\Tools\MSVC\14.50.35717\include\xloctime
; Line 243
	mov	rcx, rsi
	mov	QWORD PTR [rbx+16], rdi
	call	QWORD PTR __imp_?_W_Getmonths@_Locinfo@std@@QEBAPEBGXZ
; File C:\Program Files\Microsoft Visual Studio\18\Community\VC\Tools\MSVC\14.50.35717\include\xlocnum
; Line 74
	mov	rcx, rax
; File C:\Program Files\Microsoft Visual Studio\18\Community\VC\Tools\MSVC\14.50.35717\include\xloctime
; Line 243
	mov	rsi, rax
; File C:\Program Files\Microsoft Visual Studio\18\Community\VC\Tools\MSVC\14.50.35717\include\xlocnum
; Line 74
	call	wcslen
; Line 76
	mov	edx, 2
	lea	r14, QWORD PTR [rax+1]
	mov	rcx, r14
	call	QWORD PTR __imp_calloc
	mov	rdi, rax
; Line 78
	test	rax, rax
	je	SHORT $LN25@Getvals
; File C:\Program Files (x86)\Windows Kits\10\Include\10.0.26100.0\ucrt\wchar.h
; Line 494
	lea	r8, QWORD PTR [r14+r14]
	mov	rdx, rsi
	mov	rcx, rax
	call	memcpy
; File C:\Program Files\Microsoft Visual Studio\18\Community\VC\Tools\MSVC\14.50.35717\include\xlocnum
; Line 76
	mov	edx, 2
; File C:\Program Files\Microsoft Visual Studio\18\Community\VC\Tools\MSVC\14.50.35717\include\xloctime
; Line 243
	mov	QWORD PTR [rbx+24], rdi
; File C:\Program Files\Microsoft Visual Studio\18\Community\VC\Tools\MSVC\14.50.35717\include\xlocnum
; Line 76
	mov	ecx, 13
	call	QWORD PTR __imp_calloc
; Line 78
	test	rax, rax
	je	SHORT $LN26@Getvals
; File C:\Program Files (x86)\Windows Kits\10\Include\10.0.26100.0\ucrt\wchar.h
; Line 494
	movups	xmm0, XMMWORD PTR ??_C@_1BK@MHIKGOKE@?$AA?3?$AAA?$AAM?$AA?3?$AAa?$AAm?$AA?3?$AAP?$AAM?$AA?3?$AAp?$AAm@
	movups	xmm1, XMMWORD PTR ??_C@_1BK@MHIKGOKE@?$AA?3?$AAA?$AAM?$AA?3?$AAa?$AAm?$AA?3?$AAP?$AAM?$AA?3?$AAp?$AAm@+10
; File C:\Program Files\Microsoft Visual Studio\18\Community\VC\Tools\MSVC\14.50.35717\include\xloctime
; Line 245
	mov	QWORD PTR [rbx+32], rax
; File C:\Program Files (x86)\Windows Kits\10\Include\10.0.26100.0\ucrt\wchar.h
; Line 494
	movups	XMMWORD PTR [rax], xmm0
	movups	XMMWORD PTR [rax+10], xmm1
; File C:\Program Files\Microsoft Visual Studio\18\Community\VC\Tools\MSVC\14.50.35717\include\xloctime
; Line 251
	mov	rcx, QWORD PTR __$ArrayPad$[rsp]
	xor	rcx, rsp
	call	__security_check_cookie
	lea	r11, QWORD PTR [rsp+96]
	mov	rbx, QWORD PTR [r11+40]
	mov	rbp, QWORD PTR [r11+56]
	mov	rsp, r11
	pop	r14
	pop	rdi
	pop	rsi
	ret	0
$LN24@Getvals:
; File C:\Program Files\Microsoft Visual Studio\18\Community\VC\Tools\MSVC\14.50.35717\include\xlocnum
; Line 79
	call	?_Xbad_alloc@std@@YAXXZ			; std::_Xbad_alloc
	int	3
$LN25@Getvals:
	call	?_Xbad_alloc@std@@YAXXZ			; std::_Xbad_alloc
	int	3
$LN26@Getvals:
	call	?_Xbad_alloc@std@@YAXXZ			; std::_Xbad_alloc
	int	3
$LN22@Getvals:
??$_Getvals@_W@?$time_get@_WV?$istreambuf_iterator@_WU?$char_traits@_W@std@@@std@@@std@@IEAAX_WAEBV_Locinfo@1@@Z ENDP ; std::time_get<wchar_t,std::istreambuf_iterator<wchar_t,std::char_traits<wchar_t> > >::_Getvals<wchar_t>
_TEXT	ENDS
; Function compile flags: /Ogtpy
;	COMDAT ??$_Getvals@_W@?$time_get@DV?$istreambuf_iterator@DU?$char_traits@D@std@@@std@@@std@@IEAAX_WAEBV_Locinfo@1@@Z
_TEXT	SEGMENT
$T1 = 32
__$ArrayPad$ = 80
this$ = 128
__formal$ = 136
_Lobj$ = 144
??$_Getvals@_W@?$time_get@DV?$istreambuf_iterator@DU?$char_traits@D@std@@@std@@@std@@IEAAX_WAEBV_Locinfo@1@@Z PROC ; std::time_get<char,std::istreambuf_iterator<char,std::char_traits<char> > >::_Getvals<wchar_t>, COMDAT
; File C:\Program Files\Microsoft Visual Studio\18\Community\VC\Tools\MSVC\14.50.35717\include\xloctime
; Line 238
$LN27:
	mov	QWORD PTR [rsp+16], rbx
	mov	QWORD PTR [rsp+32], rbp
	push	rsi
	push	rdi
	push	r14
	sub	rsp, 96					; 00000060H
	mov	rax, QWORD PTR __security_cookie
	xor	rax, rsp
	mov	QWORD PTR __$ArrayPad$[rsp], rax
	mov	rbx, rcx
; Line 239
	lea	rdx, QWORD PTR $T1[rsp]
	mov	rcx, r8
	mov	rsi, r8
	call	QWORD PTR __imp_?_Getcvt@_Locinfo@std@@QEBA?AU_Cvtvec@@XZ
; Line 242
	mov	rcx, rsi
	movups	xmm0, XMMWORD PTR [rax]
	movups	XMMWORD PTR [rbx+44], xmm0
	movups	xmm1, XMMWORD PTR [rax+16]
	movups	XMMWORD PTR [rbx+60], xmm1
	movups	xmm0, XMMWORD PTR [rax+28]
	movups	XMMWORD PTR [rbx+72], xmm0
	call	QWORD PTR __imp_?_W_Getdays@_Locinfo@std@@QEBAPEBGXZ
; File C:\Program Files\Microsoft Visual Studio\18\Community\VC\Tools\MSVC\14.50.35717\include\xlocnum
; Line 74
	mov	rcx, rax
; File C:\Program Files\Microsoft Visual Studio\18\Community\VC\Tools\MSVC\14.50.35717\include\xloctime
; Line 242
	mov	rbp, rax
; File C:\Program Files\Microsoft Visual Studio\18\Community\VC\Tools\MSVC\14.50.35717\include\xlocnum
; Line 74
	call	wcslen
; Line 76
	mov	edx, 2
	lea	r14, QWORD PTR [rax+1]
	mov	rcx, r14
	call	QWORD PTR __imp_calloc
	mov	rdi, rax
; Line 78
	test	rax, rax
	je	$LN24@Getvals
; File C:\Program Files (x86)\Windows Kits\10\Include\10.0.26100.0\ucrt\wchar.h
; Line 494
	lea	r8, QWORD PTR [r14+r14]
	mov	rdx, rbp
	mov	rcx, rax
	call	memcpy
; File C:\Program Files\Microsoft Visual Studio\18\Community\VC\Tools\MSVC\14.50.35717\include\xloctime
; Line 243
	mov	rcx, rsi
	mov	QWORD PTR [rbx+16], rdi
	call	QWORD PTR __imp_?_W_Getmonths@_Locinfo@std@@QEBAPEBGXZ
; File C:\Program Files\Microsoft Visual Studio\18\Community\VC\Tools\MSVC\14.50.35717\include\xlocnum
; Line 74
	mov	rcx, rax
; File C:\Program Files\Microsoft Visual Studio\18\Community\VC\Tools\MSVC\14.50.35717\include\xloctime
; Line 243
	mov	rsi, rax
; File C:\Program Files\Microsoft Visual Studio\18\Community\VC\Tools\MSVC\14.50.35717\include\xlocnum
; Line 74
	call	wcslen
; Line 76
	mov	edx, 2
	lea	r14, QWORD PTR [rax+1]
	mov	rcx, r14
	call	QWORD PTR __imp_calloc
	mov	rdi, rax
; Line 78
	test	rax, rax
	je	SHORT $LN25@Getvals
; File C:\Program Files (x86)\Windows Kits\10\Include\10.0.26100.0\ucrt\wchar.h
; Line 494
	lea	r8, QWORD PTR [r14+r14]
	mov	rdx, rsi
	mov	rcx, rax
	call	memcpy
; File C:\Program Files\Microsoft Visual Studio\18\Community\VC\Tools\MSVC\14.50.35717\include\xlocnum
; Line 76
	mov	edx, 2
; File C:\Program Files\Microsoft Visual Studio\18\Community\VC\Tools\MSVC\14.50.35717\include\xloctime
; Line 243
	mov	QWORD PTR [rbx+24], rdi
; File C:\Program Files\Microsoft Visual Studio\18\Community\VC\Tools\MSVC\14.50.35717\include\xlocnum
; Line 76
	mov	ecx, 13
	call	QWORD PTR __imp_calloc
; Line 78
	test	rax, rax
	je	SHORT $LN26@Getvals
; File C:\Program Files (x86)\Windows Kits\10\Include\10.0.26100.0\ucrt\wchar.h
; Line 494
	movups	xmm0, XMMWORD PTR ??_C@_1BK@MHIKGOKE@?$AA?3?$AAA?$AAM?$AA?3?$AAa?$AAm?$AA?3?$AAP?$AAM?$AA?3?$AAp?$AAm@
	movups	xmm1, XMMWORD PTR ??_C@_1BK@MHIKGOKE@?$AA?3?$AAA?$AAM?$AA?3?$AAa?$AAm?$AA?3?$AAP?$AAM?$AA?3?$AAp?$AAm@+10
; File C:\Program Files\Microsoft Visual Studio\18\Community\VC\Tools\MSVC\14.50.35717\include\xloctime
; Line 245
	mov	QWORD PTR [rbx+32], rax
; File C:\Program Files (x86)\Windows Kits\10\Include\10.0.26100.0\ucrt\wchar.h
; Line 494
	movups	XMMWORD PTR [rax], xmm0
	movups	XMMWORD PTR [rax+10], xmm1
; File C:\Program Files\Microsoft Visual Studio\18\Community\VC\Tools\MSVC\14.50.35717\include\xloctime
; Line 251
	mov	rcx, QWORD PTR __$ArrayPad$[rsp]
	xor	rcx, rsp
	call	__security_check_cookie
	lea	r11, QWORD PTR [rsp+96]
	mov	rbx, QWORD PTR [r11+40]
	mov	rbp, QWORD PTR [r11+56]
	mov	rsp, r11
	pop	r14
	pop	rdi
	pop	rsi
	ret	0
$LN24@Getvals:
; File C:\Program Files\Microsoft Visual Studio\18\Community\VC\Tools\MSVC\14.50.35717\include\xlocnum
; Line 79
	call	?_Xbad_alloc@std@@YAXXZ			; std::_Xbad_alloc
	int	3
$LN25@Getvals:
	call	?_Xbad_alloc@std@@YAXXZ			; std::_Xbad_alloc
	int	3
$LN26@Getvals:
	call	?_Xbad_alloc@std@@YAXXZ			; std::_Xbad_alloc
	int	3
$LN22@Getvals:
??$_Getvals@_W@?$time_get@DV?$istreambuf_iterator@DU?$char_traits@D@std@@@std@@@std@@IEAAX_WAEBV_Locinfo@1@@Z ENDP ; std::time_get<char,std::istreambuf_iterator<char,std::char_traits<char> > >::_Getvals<wchar_t>
_TEXT	ENDS
; Function compile flags: /Ogtpy
;	COMDAT ??$_Max_limit@_J@std@@YA_JXZ
_TEXT	SEGMENT
??$_Max_limit@_J@std@@YA_JXZ PROC			; std::_Max_limit<__int64>, COMDAT
; File C:\Program Files\Microsoft Visual Studio\18\Community\VC\Tools\MSVC\14.50.35717\include\utility
; Line 867
	mov	rax, 9223372036854775807		; 7fffffffffffffffH
; Line 871
	ret	0
??$_Max_limit@_J@std@@YA_JXZ ENDP			; std::_Max_limit<__int64>
_TEXT	ENDS
; Function compile flags: /Ogtpy
;	COMDAT ?_Maklocwcs@std@@YAPEA_WPEB_W@Z
_TEXT	SEGMENT
_Ptr$ = 48
?_Maklocwcs@std@@YAPEA_WPEB_W@Z PROC			; std::_Maklocwcs, COMDAT
; File C:\Program Files\Microsoft Visual Studio\18\Community\VC\Tools\MSVC\14.50.35717\include\xlocnum
; Line 73
$LN10:
	mov	QWORD PTR [rsp+8], rbx
	mov	QWORD PTR [rsp+16], rsi
	push	rdi
	sub	rsp, 32					; 00000020H
	mov	rdi, rcx
; Line 74
	call	wcslen
; Line 76
	mov	edx, 2
	lea	rsi, QWORD PTR [rax+1]
	mov	rcx, rsi
	call	QWORD PTR __imp_calloc
	mov	rbx, rax
; Line 78
	test	rax, rax
	je	SHORT $LN9@Maklocwcs
; File C:\Program Files (x86)\Windows Kits\10\Include\10.0.26100.0\ucrt\wchar.h
; Line 494
	lea	r8, QWORD PTR [rsi+rsi]
	mov	rdx, rdi
	mov	rcx, rax
	call	memcpy
; File C:\Program Files\Microsoft Visual Studio\18\Community\VC\Tools\MSVC\14.50.35717\include\xlocnum
; Line 84
	mov	rsi, QWORD PTR [rsp+56]
	mov	rax, rbx
	mov	rbx, QWORD PTR [rsp+48]
	add	rsp, 32					; 00000020H
	pop	rdi
	ret	0
$LN9@Maklocwcs:
; Line 79
	call	?_Xbad_alloc@std@@YAXXZ			; std::_Xbad_alloc
	int	3
$LN7@Maklocwcs:
?_Maklocwcs@std@@YAPEA_WPEB_W@Z ENDP			; std::_Maklocwcs
_TEXT	ENDS
; Function compile flags: /Ogtpy
;	COMDAT ??0Vector3@@QEAA@MMM@Z
_TEXT	SEGMENT
this$ = 8
x$ = 16
y$ = 24
z$ = 32
??0Vector3@@QEAA@MMM@Z PROC				; Vector3::Vector3, COMDAT
; File C:\Users\RedDragon\Documents\Recubin\include\Math\Vector3.hpp
; Line 37
	movss	DWORD PTR [rcx], xmm1
; Line 40
	mov	rax, rcx
	movss	DWORD PTR [rcx+4], xmm2
	movss	DWORD PTR [rcx+8], xmm3
	ret	0
??0Vector3@@QEAA@MMM@Z ENDP				; Vector3::Vector3
_TEXT	ENDS
; Function compile flags: /Ogtpy
;	COMDAT ??1?$_Compressed_pair@V?$allocator@D@std@@V?$_String_val@U?$_Simple_types@D@std@@@2@$00@std@@QEAA@XZ
_TEXT	SEGMENT
this$ = 8
??1?$_Compressed_pair@V?$allocator@D@std@@V?$_String_val@U?$_Simple_types@D@std@@@2@$00@std@@QEAA@XZ PROC ; std::_Compressed_pair<std::allocator<char>,std::_String_val<std::_Simple_types<char> >,1>::~_Compressed_pair<std::allocator<char>,std::_String_val<std::_Simple_types<char> >,1>, COMDAT
	ret	0
??1?$_Compressed_pair@V?$allocator@D@std@@V?$_String_val@U?$_Simple_types@D@std@@@2@$00@std@@QEAA@XZ ENDP ; std::_Compressed_pair<std::allocator<char>,std::_String_val<std::_Simple_types<char> >,1>::~_Compressed_pair<std::allocator<char>,std::_String_val<std::_Simple_types<char> >,1>
_TEXT	ENDS
; Function compile flags: /Ogtpy
;	COMDAT ?_Get_first@?$_Compressed_pair@V?$allocator@D@std@@V?$_String_val@U?$_Simple_types@D@std@@@2@$00@std@@QEBAAEBV?$allocator@D@2@XZ
_TEXT	SEGMENT
this$ = 8
?_Get_first@?$_Compressed_pair@V?$allocator@D@std@@V?$_String_val@U?$_Simple_types@D@std@@@2@$00@std@@QEBAAEBV?$allocator@D@2@XZ PROC ; std::_Compressed_pair<std::allocator<char>,std::_String_val<std::_Simple_types<char> >,1>::_Get_first, COMDAT
; File C:\Program Files\Microsoft Visual Studio\18\Community\VC\Tools\MSVC\14.50.35717\include\xmemory
; Line 1563
	mov	rax, rcx
; Line 1564
	ret	0
?_Get_first@?$_Compressed_pair@V?$allocator@D@std@@V?$_String_val@U?$_Simple_types@D@std@@@2@$00@std@@QEBAAEBV?$allocator@D@2@XZ ENDP ; std::_Compressed_pair<std::allocator<char>,std::_String_val<std::_Simple_types<char> >,1>::_Get_first
_TEXT	ENDS
; Function compile flags: /Ogtpy
;	COMDAT ?_Get_first@?$_Compressed_pair@V?$allocator@D@std@@V?$_String_val@U?$_Simple_types@D@std@@@2@$00@std@@QEAAAEAV?$allocator@D@2@XZ
_TEXT	SEGMENT
this$ = 8
?_Get_first@?$_Compressed_pair@V?$allocator@D@std@@V?$_String_val@U?$_Simple_types@D@std@@@2@$00@std@@QEAAAEAV?$allocator@D@2@XZ PROC ; std::_Compressed_pair<std::allocator<char>,std::_String_val<std::_Simple_types<char> >,1>::_Get_first, COMDAT
; File C:\Program Files\Microsoft Visual Studio\18\Community\VC\Tools\MSVC\14.50.35717\include\xmemory
; Line 1559
	mov	rax, rcx
; Line 1560
	ret	0
?_Get_first@?$_Compressed_pair@V?$allocator@D@std@@V?$_String_val@U?$_Simple_types@D@std@@@2@$00@std@@QEAAAEAV?$allocator@D@2@XZ ENDP ; std::_Compressed_pair<std::allocator<char>,std::_String_val<std::_Simple_types<char> >,1>::_Get_first
_TEXT	ENDS
; Function compile flags: /Ogtpy
;	COMDAT ?_Getal@?$basic_string@DU?$char_traits@D@std@@V?$allocator@D@2@@std@@AEBAAEBV?$allocator@D@2@XZ
_TEXT	SEGMENT
this$ = 8
?_Getal@?$basic_string@DU?$char_traits@D@std@@V?$allocator@D@2@@std@@AEBAAEBV?$allocator@D@2@XZ PROC ; std::basic_string<char,std::char_traits<char>,std::allocator<char> >::_Getal, COMDAT
; File C:\Program Files\Microsoft Visual Studio\18\Community\VC\Tools\MSVC\14.50.35717\include\xstring
; Line 3197
	mov	rax, rcx
; Line 3198
	ret	0
?_Getal@?$basic_string@DU?$char_traits@D@std@@V?$allocator@D@2@@std@@AEBAAEBV?$allocator@D@2@XZ ENDP ; std::basic_string<char,std::char_traits<char>,std::allocator<char> >::_Getal
_TEXT	ENDS
; Function compile flags: /Ogtpy
;	COMDAT ?_Getal@?$basic_string@DU?$char_traits@D@std@@V?$allocator@D@2@@std@@AEAAAEAV?$allocator@D@2@XZ
_TEXT	SEGMENT
this$ = 8
?_Getal@?$basic_string@DU?$char_traits@D@std@@V?$allocator@D@2@@std@@AEAAAEAV?$allocator@D@2@XZ PROC ; std::basic_string<char,std::char_traits<char>,std::allocator<char> >::_Getal, COMDAT
; File C:\Program Files\Microsoft Visual Studio\18\Community\VC\Tools\MSVC\14.50.35717\include\xstring
; Line 3193
	mov	rax, rcx
; Line 3194
	ret	0
?_Getal@?$basic_string@DU?$char_traits@D@std@@V?$allocator@D@2@@std@@AEAAAEAV?$allocator@D@2@XZ ENDP ; std::basic_string<char,std::char_traits<char>,std::allocator<char> >::_Getal
_TEXT	ENDS
; Function compile flags: /Ogtpy
;	COMDAT ?_Tidy_deallocate@?$basic_string@DU?$char_traits@D@std@@V?$allocator@D@2@@std@@AEAAXXZ
_TEXT	SEGMENT
this$ = 48
?_Tidy_deallocate@?$basic_string@DU?$char_traits@D@std@@V?$allocator@D@2@@std@@AEAAXXZ PROC ; std::basic_string<char,std::char_traits<char>,std::allocator<char> >::_Tidy_deallocate, COMDAT
; File C:\Program Files\Microsoft Visual Studio\18\Community\VC\Tools\MSVC\14.50.35717\include\xstring
; Line 3166
$LN34:
	push	rbx
	sub	rsp, 32					; 00000020H
; Line 453
	mov	rdx, QWORD PTR [rcx+24]
; Line 3166
	mov	rbx, rcx
; Line 453
	cmp	rdx, 15
; Line 3169
	jbe	SHORT $LN14@Tidy_deall
; Line 3172
	mov	rax, QWORD PTR [rcx]
; Line 902
	inc	rdx
; File C:\Program Files\Microsoft Visual Studio\18\Community\VC\Tools\MSVC\14.50.35717\include\xmemory
; Line 288
	cmp	rdx, 4096				; 00001000H
	jb	SHORT $LN27@Tidy_deall
; Line 209
	mov	rcx, QWORD PTR [rax-8]
; Line 223
	sub	rax, rcx
	sub	rax, 8
	cmp	rax, 31
	ja	SHORT $LN21@Tidy_deall
; Line 224
	add	rdx, 39					; 00000027H
	jmp	SHORT $LN22@Tidy_deall
$LN21@Tidy_deall:
; Line 223
	mov	ecx, 5
	int	41					; 00000029H
$LN27@Tidy_deall:
; Line 989
	mov	rcx, rax
$LN22@Tidy_deall:
; Line 293
	call	??3@YAXPEAX_K@Z				; operator delete
$LN14@Tidy_deall:
; File C:\Program Files\Microsoft Visual Studio\18\Community\VC\Tools\MSVC\14.50.35717\include\xstring
; Line 3176
	mov	QWORD PTR [rbx+16], 0
; Line 3177
	mov	QWORD PTR [rbx+24], 15
; Line 3179
	mov	BYTE PTR [rbx], 0
; Line 3180
	add	rsp, 32					; 00000020H
	pop	rbx
	ret	0
$LN31@Tidy_deall:
?_Tidy_deallocate@?$basic_string@DU?$char_traits@D@std@@V?$allocator@D@2@@std@@AEAAXXZ ENDP ; std::basic_string<char,std::char_traits<char>,std::allocator<char> >::_Tidy_deallocate
_TEXT	ENDS
; Function compile flags: /Ogtpy
;	COMDAT ?_Calculate_growth@?$basic_string@DU?$char_traits@D@std@@V?$allocator@D@2@@std@@CA_K_K00@Z
_TEXT	SEGMENT
_Requested$ = 8
_Old$ = 16
_Max$ = 24
?_Calculate_growth@?$basic_string@DU?$char_traits@D@std@@V?$allocator@D@2@@std@@CA_K_K00@Z PROC ; std::basic_string<char,std::char_traits<char>,std::allocator<char> >::_Calculate_growth, COMDAT
; File C:\Program Files\Microsoft Visual Studio\18\Community\VC\Tools\MSVC\14.50.35717\include\xstring
; Line 2885
	or	rcx, 15
	cmp	rcx, r8
; Line 2886
	ja	SHORT $LN9@Calculate_
; Line 2890
	mov	r9, rdx
	mov	rax, r8
	shr	r9, 1
	sub	rax, r9
	cmp	rdx, rax
	ja	SHORT $LN9@Calculate_
; Line 2894
	lea	rax, QWORD PTR [r9+rdx]
	cmp	rcx, rax
	cmovb	rcx, rax
	mov	rax, rcx
; Line 2895
	ret	0
$LN9@Calculate_:
; Line 2891
	mov	rax, r8
; Line 2895
	ret	0
?_Calculate_growth@?$basic_string@DU?$char_traits@D@std@@V?$allocator@D@2@@std@@CA_K_K00@Z ENDP ; std::basic_string<char,std::char_traits<char>,std::allocator<char> >::_Calculate_growth
_TEXT	ENDS
; Function compile flags: /Ogtpy
;	COMDAT ?_Equal@?$basic_string@DU?$char_traits@D@std@@V?$allocator@D@2@@std@@QEBA_NQEBD@Z
_TEXT	SEGMENT
this$ = 48
_Ptr$ = 56
?_Equal@?$basic_string@DU?$char_traits@D@std@@V?$allocator@D@2@@std@@QEBA_NQEBD@Z PROC ; std::basic_string<char,std::char_traits<char>,std::allocator<char> >::_Equal, COMDAT
; File C:\Program Files\Microsoft Visual Studio\18\Community\VC\Tools\MSVC\14.50.35717\include\xstring
; Line 2759
$LN28:
	mov	QWORD PTR [rsp+8], rbx
	push	rdi
	sub	rsp, 32					; 00000020H
	mov	rbx, rcx
	mov	rdi, rdx
; File C:\Program Files\Microsoft Visual Studio\18\Community\VC\Tools\MSVC\14.50.35717\include\__msvc_string_view.hpp
; Line 530
	mov	rcx, rdx
	call	strlen
; File C:\Program Files\Microsoft Visual Studio\18\Community\VC\Tools\MSVC\14.50.35717\include\xstring
; Line 445
	cmp	QWORD PTR [rbx+24], 15
; Line 2761
	mov	r8, QWORD PTR [rbx+16]
; Line 445
	jbe	SHORT $LN22@Equal
; Line 446
	mov	rbx, QWORD PTR [rbx]
$LN22@Equal:
; File C:\Program Files\Microsoft Visual Studio\18\Community\VC\Tools\MSVC\14.50.35717\include\__msvc_string_view.hpp
; Line 673
	cmp	r8, rax
	je	SHORT $LN15@Equal
; File C:\Program Files\Microsoft Visual Studio\18\Community\VC\Tools\MSVC\14.50.35717\include\xstring
; Line 2761
	xor	al, al
; Line 2762
	mov	rbx, QWORD PTR [rsp+48]
	add	rsp, 32					; 00000020H
	pop	rdi
	ret	0
$LN15@Equal:
; File C:\Program Files\Microsoft Visual Studio\18\Community\VC\Tools\MSVC\14.50.35717\include\__msvc_string_view.hpp
; Line 677
	test	r8, r8
	jne	SHORT $LN16@Equal
; File C:\Program Files\Microsoft Visual Studio\18\Community\VC\Tools\MSVC\14.50.35717\include\xstring
; Line 2761
	mov	al, 1
; Line 2762
	mov	rbx, QWORD PTR [rsp+48]
	add	rsp, 32					; 00000020H
	pop	rdi
	ret	0
$LN16@Equal:
; File C:\Program Files\Microsoft Visual Studio\18\Community\VC\Tools\MSVC\14.50.35717\include\__msvc_string_view.hpp
; Line 511
	mov	rdx, rdi
	mov	rcx, rbx
	call	memcmp
; File C:\Program Files\Microsoft Visual Studio\18\Community\VC\Tools\MSVC\14.50.35717\include\xstring
; Line 2762
	mov	rbx, QWORD PTR [rsp+48]
; File C:\Program Files\Microsoft Visual Studio\18\Community\VC\Tools\MSVC\14.50.35717\include\__msvc_string_view.hpp
; Line 681
	test	eax, eax
	sete	al
; File C:\Program Files\Microsoft Visual Studio\18\Community\VC\Tools\MSVC\14.50.35717\include\xstring
; Line 2762
	add	rsp, 32					; 00000020H
	pop	rdi
	ret	0
?_Equal@?$basic_string@DU?$char_traits@D@std@@V?$allocator@D@2@@std@@QEBA_NQEBD@Z ENDP ; std::basic_string<char,std::char_traits<char>,std::allocator<char> >::_Equal
_TEXT	ENDS
; Function compile flags: /Ogtpy
;	COMDAT ?max_size@?$basic_string@DU?$char_traits@D@std@@V?$allocator@D@2@@std@@QEBA_KXZ
_TEXT	SEGMENT
this$ = 8
?max_size@?$basic_string@DU?$char_traits@D@std@@V?$allocator@D@2@@std@@QEBA_KXZ PROC ; std::basic_string<char,std::char_traits<char>,std::allocator<char> >::max_size, COMDAT
; File C:\Program Files\Microsoft Visual Studio\18\Community\VC\Tools\MSVC\14.50.35717\include\xstring
; Line 2288
	mov	rax, 9223372036854775807		; 7fffffffffffffffH
; Line 2291
	ret	0
?max_size@?$basic_string@DU?$char_traits@D@std@@V?$allocator@D@2@@std@@QEBA_KXZ ENDP ; std::basic_string<char,std::char_traits<char>,std::allocator<char> >::max_size
_TEXT	ENDS
; Function compile flags: /Ogtpy
;	COMDAT ??1?$basic_string@DU?$char_traits@D@std@@V?$allocator@D@2@@std@@QEAA@XZ
_TEXT	SEGMENT
this$ = 8
??1?$basic_string@DU?$char_traits@D@std@@V?$allocator@D@2@@std@@QEAA@XZ PROC ; std::basic_string<char,std::char_traits<char>,std::allocator<char> >::~basic_string<char,std::char_traits<char>,std::allocator<char> >, COMDAT
; File C:\Program Files\Microsoft Visual Studio\18\Community\VC\Tools\MSVC\14.50.35717\include\xstring
; Line 1433
	jmp	?_Tidy_deallocate@?$basic_string@DU?$char_traits@D@std@@V?$allocator@D@2@@std@@AEAAXXZ ; std::basic_string<char,std::char_traits<char>,std::allocator<char> >::_Tidy_deallocate
??1?$basic_string@DU?$char_traits@D@std@@V?$allocator@D@2@@std@@QEAA@XZ ENDP ; std::basic_string<char,std::char_traits<char>,std::allocator<char> >::~basic_string<char,std::char_traits<char>,std::allocator<char> >
_TEXT	ENDS
; Function compile flags: /Ogtpy
;	COMDAT ?_Deallocate_for_capacity@?$basic_string@DU?$char_traits@D@std@@V?$allocator@D@2@@std@@CAXAEAV?$allocator@D@2@QEAD_K@Z
_TEXT	SEGMENT
_Al$ = 8
_Old_ptr$ = 16
_Capacity$ = 24
?_Deallocate_for_capacity@?$basic_string@DU?$char_traits@D@std@@V?$allocator@D@2@@std@@CAXAEAV?$allocator@D@2@QEAD_K@Z PROC ; std::basic_string<char,std::char_traits<char>,std::allocator<char> >::_Deallocate_for_capacity, COMDAT
; File C:\Program Files\Microsoft Visual Studio\18\Community\VC\Tools\MSVC\14.50.35717\include\xstring
; Line 902
	inc	r8
; File C:\Program Files\Microsoft Visual Studio\18\Community\VC\Tools\MSVC\14.50.35717\include\xmemory
; Line 288
	cmp	r8, 4096				; 00001000H
	jb	SHORT $LN19@Deallocate
; Line 209
	mov	rcx, QWORD PTR [rdx-8]
; Line 223
	sub	rdx, rcx
	sub	rdx, 8
	cmp	rdx, 31
	ja	SHORT $LN14@Deallocate
; Line 206
	add	r8, 39					; 00000027H
; Line 293
	mov	rdx, r8
	jmp	??3@YAXPEAX_K@Z				; operator delete
$LN14@Deallocate:
; Line 223
	mov	ecx, 5
	int	41					; 00000029H
$LN19@Deallocate:
; Line 989
	mov	rcx, rdx
; Line 293
	mov	rdx, r8
	jmp	??3@YAXPEAX_K@Z				; operator delete
$LN20@Deallocate:
?_Deallocate_for_capacity@?$basic_string@DU?$char_traits@D@std@@V?$allocator@D@2@@std@@CAXAEAV?$allocator@D@2@QEAD_K@Z ENDP ; std::basic_string<char,std::char_traits<char>,std::allocator<char> >::_Deallocate_for_capacity
_TEXT	ENDS
; Function compile flags: /Ogtpy
;	COMDAT ??0?$basic_string@DU?$char_traits@D@std@@V?$allocator@D@2@@std@@QEAA@QEBD@Z
_TEXT	SEGMENT
this$ = 48
_Ptr$ = 56
??0?$basic_string@DU?$char_traits@D@std@@V?$allocator@D@2@@std@@QEAA@QEBD@Z PROC ; std::basic_string<char,std::char_traits<char>,std::allocator<char> >::basic_string<char,std::char_traits<char>,std::allocator<char> >, COMDAT
; File C:\Program Files\Microsoft Visual Studio\18\Community\VC\Tools\MSVC\14.50.35717\include\xstring
; Line 818
$LN21:
	mov	QWORD PTR [rsp+8], rbx
	push	rdi
	sub	rsp, 32					; 00000020H
; Line 517
	xor	eax, eax
	xorps	xmm0, xmm0
; Line 493
	movups	XMMWORD PTR [rcx], xmm0
; Line 517
	mov	QWORD PTR [rcx+16], rax
; Line 818
	mov	rdi, rcx
; Line 518
	mov	QWORD PTR [rcx+24], rax
; Line 818
	mov	rbx, rdx
; File C:\Program Files\Microsoft Visual Studio\18\Community\VC\Tools\MSVC\14.50.35717\include\__msvc_string_view.hpp
; Line 530
	mov	rcx, rdx
	call	strlen
; File C:\Program Files\Microsoft Visual Studio\18\Community\VC\Tools\MSVC\14.50.35717\include\xstring
; Line 819
	mov	r8, rax
	mov	rdx, rbx
	mov	rcx, rdi
	call	??$_Construct@$00PEBD@?$basic_string@DU?$char_traits@D@std@@V?$allocator@D@2@@std@@AEAAXQEBD_K@Z ; std::basic_string<char,std::char_traits<char>,std::allocator<char> >::_Construct<1,char const *>
; Line 820
	mov	rbx, QWORD PTR [rsp+48]
	mov	rax, rdi
	add	rsp, 32					; 00000020H
	pop	rdi
	ret	0
??0?$basic_string@DU?$char_traits@D@std@@V?$allocator@D@2@@std@@QEAA@QEBD@Z ENDP ; std::basic_string<char,std::char_traits<char>,std::allocator<char> >::basic_string<char,std::char_traits<char>,std::allocator<char> >
_TEXT	ENDS
; Function compile flags: /Ogtpy
;	COMDAT ??0?$basic_string@DU?$char_traits@D@std@@V?$allocator@D@2@@std@@QEAA@AEBV01@@Z
_TEXT	SEGMENT
this$ = 80
_Right$ = 88
??0?$basic_string@DU?$char_traits@D@std@@V?$allocator@D@2@@std@@QEAA@AEBV01@@Z PROC ; std::basic_string<char,std::char_traits<char>,std::allocator<char> >::basic_string<char,std::char_traits<char>,std::allocator<char> >, COMDAT
; File C:\Program Files\Microsoft Visual Studio\18\Community\VC\Tools\MSVC\14.50.35717\include\xstring
; Line 767
$LN126:
	push	rbx
	push	rsi
	push	rdi
	push	r14
	sub	rsp, 40					; 00000028H
	mov	r14, rdx
	xorps	xmm0, xmm0
; Line 493
	movups	XMMWORD PTR [rcx], xmm0
; Line 517
	xor	edx, edx
; Line 767
	mov	rbx, rcx
; Line 517
	mov	QWORD PTR [rcx+16], rdx
; Line 518
	mov	QWORD PTR [rcx+24], rdx
; Line 453
	cmp	QWORD PTR [r14+24], 15
; Line 768
	mov	rsi, QWORD PTR [r14+16]
; Line 445
	jbe	SHORT $LN112@basic_stri
; Line 446
	mov	r14, QWORD PTR [r14]
$LN112@basic_stri:
; Line 931
	mov	rdi, 9223372036854775807		; 7fffffffffffffffH
	cmp	rsi, rdi
	ja	$LN123@basic_stri
; Line 939
	cmp	rsi, 15
	ja	SHORT $LN25@basic_stri
; Line 940
	mov	QWORD PTR [rcx+16], rsi
; Line 769
	mov	rax, rbx
; Line 941
	mov	QWORD PTR [rcx+24], 15
; File C:\Program Files\Microsoft Visual Studio\18\Community\VC\Tools\MSVC\14.50.35717\include\__msvc_string_view.hpp
; Line 200
	movups	xmm0, XMMWORD PTR [r14]
	movups	XMMWORD PTR [rcx], xmm0
; File C:\Program Files\Microsoft Visual Studio\18\Community\VC\Tools\MSVC\14.50.35717\include\xstring
; Line 769
	add	rsp, 40					; 00000028H
	pop	r14
	pop	rdi
	pop	rsi
	pop	rbx
	ret	0
$LN25@basic_stri:
; Line 2885
	mov	rax, rsi
	or	rax, 15
; Line 2886
	cmp	rax, rdi
	jbe	SHORT $LN38@basic_stri
; Line 2887
	mov	rax, -9223372036854775769		; 8000000000000027H
$LN63@basic_stri:
; File C:\Program Files\Microsoft Visual Studio\18\Community\VC\Tools\MSVC\14.50.35717\include\xmemory
; Line 140
	mov	rcx, rax
	call	??2@YAPEAX_K@Z				; operator new
	mov	rcx, rax
; Line 194
	test	rax, rax
	jne	SHORT $LN64@basic_stri
	mov	ecx, 5
	int	41					; 00000029H
$LN38@basic_stri:
; File C:\Program Files\Microsoft Visual Studio\18\Community\VC\Tools\MSVC\14.50.35717\include\utility
; Line 77
	mov	ecx, 22
	mov	rdi, rax
	cmp	rax, rcx
	cmovb	rdi, rcx
; File C:\Program Files\Microsoft Visual Studio\18\Community\VC\Tools\MSVC\14.50.35717\include\xstring
; Line 875
	lea	rcx, QWORD PTR [rdi+1]
; File C:\Program Files\Microsoft Visual Studio\18\Community\VC\Tools\MSVC\14.50.35717\include\xmemory
; Line 231
	test	rcx, rcx
	jne	SHORT $LN56@basic_stri
; Line 232
	mov	rax, rdx
	jmp	SHORT $LN55@basic_stri
$LN56@basic_stri:
; Line 255
	cmp	rcx, 4096				; 00001000H
	jb	SHORT $LN58@basic_stri
; Line 188
	lea	rax, QWORD PTR [rcx+39]
; Line 189
	cmp	rax, rcx
	jbe	SHORT $LN124@basic_stri
	jmp	SHORT $LN63@basic_stri
$LN64@basic_stri:
; Line 195
	add	rax, 39					; 00000027H
	and	rax, -32				; ffffffffffffffe0H
; Line 196
	mov	QWORD PTR [rax-8], rcx
; Line 257
	jmp	SHORT $LN55@basic_stri
$LN58@basic_stri:
; Line 140
	call	??2@YAPEAX_K@Z				; operator new
$LN55@basic_stri:
; File C:\Program Files\Microsoft Visual Studio\18\Community\VC\Tools\MSVC\14.50.35717\include\xstring
; Line 974
	lea	r8, QWORD PTR [rsi+1]
	mov	QWORD PTR [rbx], rax
; File C:\Program Files\Microsoft Visual Studio\18\Community\VC\Tools\MSVC\14.50.35717\include\__msvc_string_view.hpp
; Line 200
	mov	rdx, r14
; File C:\Program Files\Microsoft Visual Studio\18\Community\VC\Tools\MSVC\14.50.35717\include\xstring
; Line 965
	mov	QWORD PTR [rbx+16], rsi
; File C:\Program Files\Microsoft Visual Studio\18\Community\VC\Tools\MSVC\14.50.35717\include\__msvc_string_view.hpp
; Line 200
	mov	rcx, rax
; File C:\Program Files\Microsoft Visual Studio\18\Community\VC\Tools\MSVC\14.50.35717\include\xstring
; Line 966
	mov	QWORD PTR [rbx+24], rdi
; File C:\Program Files\Microsoft Visual Studio\18\Community\VC\Tools\MSVC\14.50.35717\include\__msvc_string_view.hpp
; Line 200
	call	memcpy
; File C:\Program Files\Microsoft Visual Studio\18\Community\VC\Tools\MSVC\14.50.35717\include\xstring
; Line 769
	mov	rax, rbx
	add	rsp, 40					; 00000028H
	pop	r14
	pop	rdi
	pop	rsi
	pop	rbx
	ret	0
$LN123@basic_stri:
; Line 932
	call	?_Xlen_string@std@@YAXXZ		; std::_Xlen_string
	int	3
$LN124@basic_stri:
; File C:\Program Files\Microsoft Visual Studio\18\Community\VC\Tools\MSVC\14.50.35717\include\xmemory
; Line 190
	call	?_Throw_bad_array_new_length@std@@YAXXZ	; std::_Throw_bad_array_new_length
	int	3
$LN121@basic_stri:
??0?$basic_string@DU?$char_traits@D@std@@V?$allocator@D@2@@std@@QEAA@AEBV01@@Z ENDP ; std::basic_string<char,std::char_traits<char>,std::allocator<char> >::basic_string<char,std::char_traits<char>,std::allocator<char> >
_TEXT	ENDS
; Function compile flags: /Ogtpy
;	COMDAT ??1?$_String_val@U?$_Simple_types@D@std@@@std@@QEAA@XZ
_TEXT	SEGMENT
this$ = 8
??1?$_String_val@U?$_Simple_types@D@std@@@std@@QEAA@XZ PROC ; std::_String_val<std::_Simple_types<char> >::~_String_val<std::_Simple_types<char> >, COMDAT
	ret	0
??1?$_String_val@U?$_Simple_types@D@std@@@std@@QEAA@XZ ENDP ; std::_String_val<std::_Simple_types<char> >::~_String_val<std::_Simple_types<char> >
_TEXT	ENDS
; Function compile flags: /Ogtpy
;	COMDAT ?_Switch_to_buf@_Bxty@?$_String_val@U?$_Simple_types@D@std@@@std@@QEAAXXZ
_TEXT	SEGMENT
this$ = 8
?_Switch_to_buf@_Bxty@?$_String_val@U?$_Simple_types@D@std@@@std@@QEAAXXZ PROC ; std::_String_val<std::_Simple_types<char> >::_Bxty::_Switch_to_buf, COMDAT
; File C:\Program Files\Microsoft Visual Studio\18\Community\VC\Tools\MSVC\14.50.35717\include\xstring
; Line 511
	ret	0
?_Switch_to_buf@_Bxty@?$_String_val@U?$_Simple_types@D@std@@@std@@QEAAXXZ ENDP ; std::_String_val<std::_Simple_types<char> >::_Bxty::_Switch_to_buf
_TEXT	ENDS
; Function compile flags: /Ogtpy
;	COMDAT ??1_Bxty@?$_String_val@U?$_Simple_types@D@std@@@std@@QEAA@XZ
_TEXT	SEGMENT
this$ = 8
??1_Bxty@?$_String_val@U?$_Simple_types@D@std@@@std@@QEAA@XZ PROC ; std::_String_val<std::_Simple_types<char> >::_Bxty::~_Bxty, COMDAT
; File C:\Program Files\Microsoft Visual Studio\18\Community\VC\Tools\MSVC\14.50.35717\include\xstring
; Line 494
	ret	0
??1_Bxty@?$_String_val@U?$_Simple_types@D@std@@@std@@QEAA@XZ ENDP ; std::_String_val<std::_Simple_types<char> >::_Bxty::~_Bxty
_TEXT	ENDS
; Function compile flags: /Ogtpy
;	COMDAT ??0_Bxty@?$_String_val@U?$_Simple_types@D@std@@@std@@QEAA@XZ
_TEXT	SEGMENT
this$ = 8
??0_Bxty@?$_String_val@U?$_Simple_types@D@std@@@std@@QEAA@XZ PROC ; std::_String_val<std::_Simple_types<char> >::_Bxty::_Bxty, COMDAT
; File C:\Program Files\Microsoft Visual Studio\18\Community\VC\Tools\MSVC\14.50.35717\include\xstring
; Line 493
	xorps	xmm0, xmm0
	mov	rax, rcx
	movups	XMMWORD PTR [rcx], xmm0
	ret	0
??0_Bxty@?$_String_val@U?$_Simple_types@D@std@@@std@@QEAA@XZ ENDP ; std::_String_val<std::_Simple_types<char> >::_Bxty::_Bxty
_TEXT	ENDS
; Function compile flags: /Ogtpy
;	COMDAT ?_Large_mode_engaged@?$_String_val@U?$_Simple_types@D@std@@@std@@QEBA_NXZ
_TEXT	SEGMENT
this$ = 8
?_Large_mode_engaged@?$_String_val@U?$_Simple_types@D@std@@@std@@QEBA_NXZ PROC ; std::_String_val<std::_Simple_types<char> >::_Large_mode_engaged, COMDAT
; File C:\Program Files\Microsoft Visual Studio\18\Community\VC\Tools\MSVC\14.50.35717\include\xstring
; Line 453
	cmp	QWORD PTR [rcx+24], 15
	seta	al
; Line 454
	ret	0
?_Large_mode_engaged@?$_String_val@U?$_Simple_types@D@std@@@std@@QEBA_NXZ ENDP ; std::_String_val<std::_Simple_types<char> >::_Large_mode_engaged
_TEXT	ENDS
; Function compile flags: /Ogtpy
;	COMDAT ?_Myptr@?$_String_val@U?$_Simple_types@D@std@@@std@@QEBAPEBDXZ
_TEXT	SEGMENT
this$ = 8
?_Myptr@?$_String_val@U?$_Simple_types@D@std@@@std@@QEBAPEBDXZ PROC ; std::_String_val<std::_Simple_types<char> >::_Myptr, COMDAT
; File C:\Program Files\Microsoft Visual Studio\18\Community\VC\Tools\MSVC\14.50.35717\include\xstring
; Line 445
	cmp	QWORD PTR [rcx+24], 15
	jbe	SHORT $LN8@Myptr
; Line 449
	mov	rax, QWORD PTR [rcx]
; Line 450
	ret	0
$LN8@Myptr:
; Line 449
	mov	rax, rcx
; Line 450
	ret	0
?_Myptr@?$_String_val@U?$_Simple_types@D@std@@@std@@QEBAPEBDXZ ENDP ; std::_String_val<std::_Simple_types<char> >::_Myptr
_TEXT	ENDS
; Function compile flags: /Ogtpy
;	COMDAT ??0?$_String_val@U?$_Simple_types@D@std@@@std@@QEAA@XZ
_TEXT	SEGMENT
this$ = 8
??0?$_String_val@U?$_Simple_types@D@std@@@std@@QEAA@XZ PROC ; std::_String_val<std::_Simple_types<char> >::_String_val<std::_Simple_types<char> >, COMDAT
; File C:\Program Files\Microsoft Visual Studio\18\Community\VC\Tools\MSVC\14.50.35717\include\xstring
; Line 517
	xor	eax, eax
	xorps	xmm0, xmm0
; Line 493
	movups	XMMWORD PTR [rcx], xmm0
; Line 517
	mov	QWORD PTR [rcx+16], rax
; Line 518
	mov	QWORD PTR [rcx+24], rax
	mov	rax, rcx
	ret	0
??0?$_String_val@U?$_Simple_types@D@std@@@std@@QEAA@XZ ENDP ; std::_String_val<std::_Simple_types<char> >::_String_val<std::_Simple_types<char> >
_TEXT	ENDS
; Function compile flags: /Ogtpy
;	COMDAT ?select_on_container_copy_construction@?$_Default_allocator_traits@V?$allocator@D@std@@@std@@SA?AV?$allocator@D@2@AEBV32@@Z
_TEXT	SEGMENT
__$ReturnUdt$ = 8
_Al$ = 16
?select_on_container_copy_construction@?$_Default_allocator_traits@V?$allocator@D@std@@@std@@SA?AV?$allocator@D@2@AEBV32@@Z PROC ; std::_Default_allocator_traits<std::allocator<char> >::select_on_container_copy_construction, COMDAT
; File C:\Program Files\Microsoft Visual Studio\18\Community\VC\Tools\MSVC\14.50.35717\include\xmemory
; Line 754
	mov	rax, rcx
; Line 755
	ret	0
?select_on_container_copy_construction@?$_Default_allocator_traits@V?$allocator@D@std@@@std@@SA?AV?$allocator@D@2@AEBV32@@Z ENDP ; std::_Default_allocator_traits<std::allocator<char> >::select_on_container_copy_construction
_TEXT	ENDS
; Function compile flags: /Ogtpy
;	COMDAT ?max_size@?$_Default_allocator_traits@V?$allocator@D@std@@@std@@SA_KAEBV?$allocator@D@2@@Z
_TEXT	SEGMENT
__formal$ = 8
?max_size@?$_Default_allocator_traits@V?$allocator@D@std@@@std@@SA_KAEBV?$allocator@D@2@@Z PROC ; std::_Default_allocator_traits<std::allocator<char> >::max_size, COMDAT
; File C:\Program Files\Microsoft Visual Studio\18\Community\VC\Tools\MSVC\14.50.35717\include\xmemory
; Line 750
	mov	rax, -1
; Line 751
	ret	0
?max_size@?$_Default_allocator_traits@V?$allocator@D@std@@@std@@SA_KAEBV?$allocator@D@2@@Z ENDP ; std::_Default_allocator_traits<std::allocator<char> >::max_size
_TEXT	ENDS
; Function compile flags: /Ogtpy
;	COMDAT ?allocate@?$allocator@D@std@@QEAAPEAD_K@Z
_TEXT	SEGMENT
this$ = 48
_Count$ = 56
?allocate@?$allocator@D@std@@QEAAPEAD_K@Z PROC		; std::allocator<char>::allocate, COMDAT
; File C:\Program Files\Microsoft Visual Studio\18\Community\VC\Tools\MSVC\14.50.35717\include\xmemory
; Line 992
$LN23:
	sub	rsp, 40					; 00000028H
; Line 231
	test	rdx, rdx
	jne	SHORT $LN4@allocate
; Line 232
	xor	eax, eax
; Line 995
	add	rsp, 40					; 00000028H
	ret	0
$LN4@allocate:
; Line 255
	cmp	rdx, 4096				; 00001000H
	jb	SHORT $LN6@allocate
; Line 188
	lea	rcx, QWORD PTR [rdx+39]
; Line 189
	cmp	rcx, rdx
	jbe	SHORT $LN22@allocate
; Line 140
	call	??2@YAPEAX_K@Z				; operator new
	mov	rcx, rax
; Line 194
	test	rax, rax
	jne	SHORT $LN12@allocate
	mov	ecx, 5
	int	41					; 00000029H
$LN12@allocate:
; Line 195
	add	rax, 39					; 00000027H
	and	rax, -32				; ffffffffffffffe0H
; Line 196
	mov	QWORD PTR [rax-8], rcx
; Line 995
	add	rsp, 40					; 00000028H
	ret	0
$LN6@allocate:
; Line 140
	mov	rcx, rdx
; Line 995
	add	rsp, 40					; 00000028H
; Line 140
	jmp	??2@YAPEAX_K@Z				; operator new
$LN22@allocate:
; Line 190
	call	?_Throw_bad_array_new_length@std@@YAXXZ	; std::_Throw_bad_array_new_length
	int	3
$LN20@allocate:
?allocate@?$allocator@D@std@@QEAAPEAD_K@Z ENDP		; std::allocator<char>::allocate
_TEXT	ENDS
; Function compile flags: /Ogtpy
;	COMDAT ?deallocate@?$allocator@D@std@@QEAAXQEAD_K@Z
_TEXT	SEGMENT
this$ = 8
_Ptr$ = 16
_Count$ = 24
?deallocate@?$allocator@D@std@@QEAAXQEAD_K@Z PROC	; std::allocator<char>::deallocate, COMDAT
; File C:\Program Files\Microsoft Visual Studio\18\Community\VC\Tools\MSVC\14.50.35717\include\xmemory
; Line 288
	cmp	r8, 4096				; 00001000H
	jb	SHORT $LN15@deallocate
; Line 209
	mov	rcx, QWORD PTR [rdx-8]
; Line 223
	sub	rdx, rcx
	sub	rdx, 8
	cmp	rdx, 31
	ja	SHORT $LN11@deallocate
; Line 206
	add	r8, 39					; 00000027H
; Line 293
	mov	rdx, r8
	jmp	??3@YAXPEAX_K@Z				; operator delete
$LN11@deallocate:
; Line 223
	mov	ecx, 5
	int	41					; 00000029H
$LN15@deallocate:
; Line 989
	mov	rcx, rdx
; Line 293
	mov	rdx, r8
	jmp	??3@YAXPEAX_K@Z				; operator delete
$LN16@deallocate:
?deallocate@?$allocator@D@std@@QEAAXQEAD_K@Z ENDP	; std::allocator<char>::deallocate
_TEXT	ENDS
; Function compile flags: /Ogtpy
;	COMDAT ??0?$allocator@D@std@@QEAA@XZ
_TEXT	SEGMENT
this$ = 8
??0?$allocator@D@std@@QEAA@XZ PROC			; std::allocator<char>::allocator<char>, COMDAT
; File C:\Program Files\Microsoft Visual Studio\18\Community\VC\Tools\MSVC\14.50.35717\include\xmemory
; Line 978
	mov	rax, rcx
	ret	0
??0?$allocator@D@std@@QEAA@XZ ENDP			; std::allocator<char>::allocator<char>
_TEXT	ENDS
; Function compile flags: /Ogtpy
;	COMDAT ?_Xlen_string@std@@YAXXZ
_TEXT	SEGMENT
?_Xlen_string@std@@YAXXZ PROC				; std::_Xlen_string, COMDAT
; File C:\Program Files\Microsoft Visual Studio\18\Community\VC\Tools\MSVC\14.50.35717\include\xstring
; Line 573
$LN4:
	sub	rsp, 40					; 00000028H
; Line 574
	lea	rcx, OFFSET FLAT:??_C@_0BA@JFNIOLAK@string?5too?5long@
	call	?_Xlength_error@std@@YAXPEBD@Z		; std::_Xlength_error
	int	3
$LN3@Xlen_strin:
?_Xlen_string@std@@YAXXZ ENDP				; std::_Xlen_string
_TEXT	ENDS
; Function compile flags: /Ogtpy
;	COMDAT ?_Release@_Fake_proxy_ptr_impl@std@@QEAAXXZ
_TEXT	SEGMENT
this$ = 8
?_Release@_Fake_proxy_ptr_impl@std@@QEAAXXZ PROC	; std::_Fake_proxy_ptr_impl::_Release, COMDAT
; File C:\Program Files\Microsoft Visual Studio\18\Community\VC\Tools\MSVC\14.50.35717\include\xmemory
; Line 1465
	ret	0
?_Release@_Fake_proxy_ptr_impl@std@@QEAAXXZ ENDP	; std::_Fake_proxy_ptr_impl::_Release
_TEXT	ENDS
; Function compile flags: /Ogtpy
;	COMDAT ??0_Fake_proxy_ptr_impl@std@@QEAA@AEBU_Fake_allocator@1@AEBU_Container_base0@1@@Z
_TEXT	SEGMENT
this$ = 8
__formal$ = 16
__formal$ = 24
??0_Fake_proxy_ptr_impl@std@@QEAA@AEBU_Fake_allocator@1@AEBU_Container_base0@1@@Z PROC ; std::_Fake_proxy_ptr_impl::_Fake_proxy_ptr_impl, COMDAT
; File C:\Program Files\Microsoft Visual Studio\18\Community\VC\Tools\MSVC\14.50.35717\include\xmemory
; Line 1462
	mov	rax, rcx
	ret	0
??0_Fake_proxy_ptr_impl@std@@QEAA@AEBU_Fake_allocator@1@AEBU_Container_base0@1@@Z ENDP ; std::_Fake_proxy_ptr_impl::_Fake_proxy_ptr_impl
_TEXT	ENDS
; Function compile flags: /Ogtpy
;	COMDAT ?_Alloc_proxy@_Container_base0@std@@QEAAXAEBU_Fake_allocator@2@@Z
_TEXT	SEGMENT
this$ = 8
__formal$ = 16
?_Alloc_proxy@_Container_base0@std@@QEAAXAEBU_Fake_allocator@2@@Z PROC ; std::_Container_base0::_Alloc_proxy, COMDAT
; File C:\Program Files\Microsoft Visual Studio\18\Community\VC\Tools\MSVC\14.50.35717\include\xmemory
; Line 1198
	ret	0
?_Alloc_proxy@_Container_base0@std@@QEAAXAEBU_Fake_allocator@2@@Z ENDP ; std::_Container_base0::_Alloc_proxy
_TEXT	ENDS
; Function compile flags: /Ogtpy
;	COMDAT ?_Swap_proxy_and_iterators@_Container_base0@std@@QEAAXAEAU12@@Z
_TEXT	SEGMENT
this$ = 8
__formal$ = 16
?_Swap_proxy_and_iterators@_Container_base0@std@@QEAAXAEAU12@@Z PROC ; std::_Container_base0::_Swap_proxy_and_iterators, COMDAT
; File C:\Program Files\Microsoft Visual Studio\18\Community\VC\Tools\MSVC\14.50.35717\include\xmemory
; Line 1197
	ret	0
?_Swap_proxy_and_iterators@_Container_base0@std@@QEAAXAEAU12@@Z ENDP ; std::_Container_base0::_Swap_proxy_and_iterators
_TEXT	ENDS
; Function compile flags: /Ogtpy
;	COMDAT ?_Orphan_all@_Container_base0@std@@QEAAXXZ
_TEXT	SEGMENT
this$ = 8
?_Orphan_all@_Container_base0@std@@QEAAXXZ PROC		; std::_Container_base0::_Orphan_all, COMDAT
; File C:\Program Files\Microsoft Visual Studio\18\Community\VC\Tools\MSVC\14.50.35717\include\xmemory
; Line 1196
	ret	0
?_Orphan_all@_Container_base0@std@@QEAAXXZ ENDP		; std::_Container_base0::_Orphan_all
_TEXT	ENDS
; Function compile flags: /Ogtpy
;	COMDAT ?_Adjust_manually_vector_aligned@std@@YAXAEAPEAXAEA_K@Z
_TEXT	SEGMENT
_Ptr$ = 8
_Bytes$ = 16
?_Adjust_manually_vector_aligned@std@@YAXAEAPEAXAEA_K@Z PROC ; std::_Adjust_manually_vector_aligned, COMDAT
; File C:\Program Files\Microsoft Visual Studio\18\Community\VC\Tools\MSVC\14.50.35717\include\xmemory
; Line 206
	add	QWORD PTR [rdx], 39			; 00000027H
; Line 208
	mov	rax, QWORD PTR [rcx]
; Line 209
	mov	rdx, QWORD PTR [rax-8]
; Line 223
	sub	rax, rdx
	sub	rax, 8
	cmp	rax, 31
	ja	SHORT $LN3@Adjust_man
; Line 224
	mov	QWORD PTR [rcx], rdx
; Line 225
	ret	0
$LN3@Adjust_man:
; Line 223
	mov	ecx, 5
	int	41					; 00000029H
$LN5@Adjust_man:
?_Adjust_manually_vector_aligned@std@@YAXAEAPEAXAEA_K@Z ENDP ; std::_Adjust_manually_vector_aligned
_TEXT	ENDS
; Function compile flags: /Ogtpy
;	COMDAT ?_Allocate@_Default_allocate_traits@std@@SAPEAX_K@Z
_TEXT	SEGMENT
_Bytes$ = 8
?_Allocate@_Default_allocate_traits@std@@SAPEAX_K@Z PROC ; std::_Default_allocate_traits::_Allocate, COMDAT
; File C:\Program Files\Microsoft Visual Studio\18\Community\VC\Tools\MSVC\14.50.35717\include\xmemory
; Line 140
	jmp	??2@YAPEAX_K@Z				; operator new
?_Allocate@_Default_allocate_traits@std@@SAPEAX_K@Z ENDP ; std::_Default_allocate_traits::_Allocate
_TEXT	ENDS
; Function compile flags: /Ogtpy
;	COMDAT ?_Throw_bad_array_new_length@std@@YAXXZ
_TEXT	SEGMENT
$T1 = 32
?_Throw_bad_array_new_length@std@@YAXXZ PROC		; std::_Throw_bad_array_new_length, COMDAT
; File C:\Program Files\Microsoft Visual Studio\18\Community\VC\Tools\MSVC\14.50.35717\include\xmemory
; Line 111
$LN4:
	sub	rsp, 72					; 00000048H
; Line 112
	lea	rcx, QWORD PTR $T1[rsp]
	call	??0bad_array_new_length@std@@QEAA@XZ	; std::bad_array_new_length::bad_array_new_length
	lea	rdx, OFFSET FLAT:_TI3?AVbad_array_new_length@std@@
	lea	rcx, QWORD PTR $T1[rsp]
	call	_CxxThrowException
	int	3
$LN3@Throw_bad_:
?_Throw_bad_array_new_length@std@@YAXXZ ENDP		; std::_Throw_bad_array_new_length
_TEXT	ENDS
; Function compile flags: /Ogtpy
;	COMDAT ??_Gbad_array_new_length@std@@UEAAPEAXI@Z
_TEXT	SEGMENT
this$ = 48
__flags$ = 56
??_Gbad_array_new_length@std@@UEAAPEAXI@Z PROC		; std::bad_array_new_length::`scalar deleting destructor', COMDAT
$LN22:
	mov	QWORD PTR [rsp+8], rbx
	push	rdi
	sub	rsp, 32					; 00000020H
; File C:\Program Files\Microsoft Visual Studio\18\Community\VC\Tools\MSVC\14.50.35717\include\vcruntime_exception.h
; Line 90
	lea	rax, OFFSET FLAT:??_7exception@std@@6B@
	mov	rdi, rcx
	mov	QWORD PTR [rcx], rax
	mov	ebx, edx
; Line 91
	add	rcx, 8
	call	__std_exception_destroy
	test	bl, 1
	je	SHORT $LN18@scalar
	mov	edx, 24
	mov	rcx, rdi
	call	??3@YAXPEAX_K@Z				; operator delete
$LN18@scalar:
	mov	rbx, QWORD PTR [rsp+48]
	mov	rax, rdi
	add	rsp, 32					; 00000020H
	pop	rdi
	ret	0
??_Gbad_array_new_length@std@@UEAAPEAXI@Z ENDP		; std::bad_array_new_length::`scalar deleting destructor'
_TEXT	ENDS
; Function compile flags: /Ogtpy
;	COMDAT ??0bad_array_new_length@std@@QEAA@AEBV01@@Z
_TEXT	SEGMENT
this$ = 48
__that$ = 56
??0bad_array_new_length@std@@QEAA@AEBV01@@Z PROC	; std::bad_array_new_length::bad_array_new_length, COMDAT
$LN14:
	push	rbx
	sub	rsp, 32					; 00000020H
	mov	rbx, rcx
	mov	rax, rdx
; File C:\Program Files\Microsoft Visual Studio\18\Community\VC\Tools\MSVC\14.50.35717\include\vcruntime_exception.h
; Line 73
	lea	rcx, OFFSET FLAT:??_7exception@std@@6B@
	xorps	xmm0, xmm0
; Line 72
	lea	rdx, QWORD PTR [rbx+8]
; Line 73
	mov	QWORD PTR [rbx], rcx
; Line 74
	lea	rcx, QWORD PTR [rax+8]
	movups	XMMWORD PTR [rdx], xmm0
	call	__std_exception_copy
	lea	rax, OFFSET FLAT:??_7bad_array_new_length@std@@6B@
	mov	QWORD PTR [rbx], rax
	mov	rax, rbx
	add	rsp, 32					; 00000020H
	pop	rbx
	ret	0
??0bad_array_new_length@std@@QEAA@AEBV01@@Z ENDP	; std::bad_array_new_length::bad_array_new_length
_TEXT	ENDS
; Function compile flags: /Ogtpy
;	COMDAT ??1bad_array_new_length@std@@UEAA@XZ
_TEXT	SEGMENT
this$ = 8
??1bad_array_new_length@std@@UEAA@XZ PROC		; std::bad_array_new_length::~bad_array_new_length, COMDAT
; File C:\Program Files\Microsoft Visual Studio\18\Community\VC\Tools\MSVC\14.50.35717\include\vcruntime_exception.h
; Line 90
	lea	rax, OFFSET FLAT:??_7exception@std@@6B@
	mov	QWORD PTR [rcx], rax
; Line 91
	add	rcx, 8
	jmp	__std_exception_destroy
??1bad_array_new_length@std@@UEAA@XZ ENDP		; std::bad_array_new_length::~bad_array_new_length
_TEXT	ENDS
; Function compile flags: /Ogtpy
;	COMDAT ??0bad_array_new_length@std@@QEAA@XZ
_TEXT	SEGMENT
this$ = 8
??0bad_array_new_length@std@@QEAA@XZ PROC		; std::bad_array_new_length::bad_array_new_length, COMDAT
; File C:\Program Files\Microsoft Visual Studio\18\Community\VC\Tools\MSVC\14.50.35717\include\vcruntime_exception.h
; Line 68
	lea	rax, OFFSET FLAT:??_C@_0BF@KINCDENJ@bad?5array?5new?5length@
	mov	QWORD PTR [rcx+16], 0
	mov	QWORD PTR [rcx+8], rax
; Line 144
	lea	rax, OFFSET FLAT:??_7bad_array_new_length@std@@6B@
	mov	QWORD PTR [rcx], rax
; Line 145
	mov	rax, rcx
	ret	0
??0bad_array_new_length@std@@QEAA@XZ ENDP		; std::bad_array_new_length::bad_array_new_length
_TEXT	ENDS
; Function compile flags: /Ogtpy
;	COMDAT ??_Gbad_alloc@std@@UEAAPEAXI@Z
_TEXT	SEGMENT
this$ = 48
__flags$ = 56
??_Gbad_alloc@std@@UEAAPEAXI@Z PROC			; std::bad_alloc::`scalar deleting destructor', COMDAT
$LN17:
	mov	QWORD PTR [rsp+8], rbx
	push	rdi
	sub	rsp, 32					; 00000020H
; File C:\Program Files\Microsoft Visual Studio\18\Community\VC\Tools\MSVC\14.50.35717\include\vcruntime_exception.h
; Line 90
	lea	rax, OFFSET FLAT:??_7exception@std@@6B@
	mov	rdi, rcx
	mov	QWORD PTR [rcx], rax
	mov	ebx, edx
; Line 91
	add	rcx, 8
	call	__std_exception_destroy
	test	bl, 1
	je	SHORT $LN13@scalar
	mov	edx, 24
	mov	rcx, rdi
	call	??3@YAXPEAX_K@Z				; operator delete
$LN13@scalar:
	mov	rbx, QWORD PTR [rsp+48]
	mov	rax, rdi
	add	rsp, 32					; 00000020H
	pop	rdi
	ret	0
??_Gbad_alloc@std@@UEAAPEAXI@Z ENDP			; std::bad_alloc::`scalar deleting destructor'
_TEXT	ENDS
; Function compile flags: /Ogtpy
;	COMDAT ??0bad_alloc@std@@QEAA@AEBV01@@Z
_TEXT	SEGMENT
this$ = 48
__that$ = 56
??0bad_alloc@std@@QEAA@AEBV01@@Z PROC			; std::bad_alloc::bad_alloc, COMDAT
$LN9:
	push	rbx
	sub	rsp, 32					; 00000020H
	mov	rbx, rcx
	mov	rax, rdx
; File C:\Program Files\Microsoft Visual Studio\18\Community\VC\Tools\MSVC\14.50.35717\include\vcruntime_exception.h
; Line 73
	lea	rcx, OFFSET FLAT:??_7exception@std@@6B@
	xorps	xmm0, xmm0
; Line 72
	lea	rdx, QWORD PTR [rbx+8]
; Line 73
	mov	QWORD PTR [rbx], rcx
; Line 74
	lea	rcx, QWORD PTR [rax+8]
	movups	XMMWORD PTR [rdx], xmm0
	call	__std_exception_copy
	lea	rax, OFFSET FLAT:??_7bad_alloc@std@@6B@
	mov	QWORD PTR [rbx], rax
	mov	rax, rbx
	add	rsp, 32					; 00000020H
	pop	rbx
	ret	0
??0bad_alloc@std@@QEAA@AEBV01@@Z ENDP			; std::bad_alloc::bad_alloc
_TEXT	ENDS
; Function compile flags: /Ogtpy
;	COMDAT ??1bad_alloc@std@@UEAA@XZ
_TEXT	SEGMENT
this$ = 8
??1bad_alloc@std@@UEAA@XZ PROC				; std::bad_alloc::~bad_alloc, COMDAT
; File C:\Program Files\Microsoft Visual Studio\18\Community\VC\Tools\MSVC\14.50.35717\include\vcruntime_exception.h
; Line 90
	lea	rax, OFFSET FLAT:??_7exception@std@@6B@
	mov	QWORD PTR [rcx], rax
; Line 91
	add	rcx, 8
	jmp	__std_exception_destroy
??1bad_alloc@std@@UEAA@XZ ENDP				; std::bad_alloc::~bad_alloc
_TEXT	ENDS
; Function compile flags: /Ogtpy
;	COMDAT ??0bad_alloc@std@@AEAA@QEBD@Z
_TEXT	SEGMENT
this$ = 8
_Message$ = 16
??0bad_alloc@std@@AEAA@QEBD@Z PROC			; std::bad_alloc::bad_alloc, COMDAT
; File C:\Program Files\Microsoft Visual Studio\18\Community\VC\Tools\MSVC\14.50.35717\include\vcruntime_exception.h
; Line 133
	lea	rax, OFFSET FLAT:??_7bad_alloc@std@@6B@
; Line 66
	mov	QWORD PTR [rcx+16], 0
; Line 133
	mov	QWORD PTR [rcx], rax
; Line 134
	mov	rax, rcx
; Line 68
	mov	QWORD PTR [rcx+8], rdx
; Line 134
	ret	0
??0bad_alloc@std@@AEAA@QEBD@Z ENDP			; std::bad_alloc::bad_alloc
_TEXT	ENDS
; Function compile flags: /Ogtpy
;	COMDAT ??_Gexception@std@@UEAAPEAXI@Z
_TEXT	SEGMENT
this$ = 48
__flags$ = 56
??_Gexception@std@@UEAAPEAXI@Z PROC			; std::exception::`scalar deleting destructor', COMDAT
$LN12:
	mov	QWORD PTR [rsp+8], rbx
	push	rdi
	sub	rsp, 32					; 00000020H
; File C:\Program Files\Microsoft Visual Studio\18\Community\VC\Tools\MSVC\14.50.35717\include\vcruntime_exception.h
; Line 90
	lea	rax, OFFSET FLAT:??_7exception@std@@6B@
	mov	rdi, rcx
	mov	QWORD PTR [rcx], rax
	mov	ebx, edx
; Line 91
	add	rcx, 8
	call	__std_exception_destroy
	test	bl, 1
	je	SHORT $LN8@scalar
	mov	edx, 24
	mov	rcx, rdi
	call	??3@YAXPEAX_K@Z				; operator delete
$LN8@scalar:
	mov	rbx, QWORD PTR [rsp+48]
	mov	rax, rdi
	add	rsp, 32					; 00000020H
	pop	rdi
	ret	0
??_Gexception@std@@UEAAPEAXI@Z ENDP			; std::exception::`scalar deleting destructor'
_TEXT	ENDS
; Function compile flags: /Ogtpy
;	COMDAT ?what@exception@std@@UEBAPEBDXZ
_TEXT	SEGMENT
this$ = 8
?what@exception@std@@UEBAPEBDXZ PROC			; std::exception::what, COMDAT
; File C:\Program Files\Microsoft Visual Studio\18\Community\VC\Tools\MSVC\14.50.35717\include\vcruntime_exception.h
; Line 96
	mov	rdx, QWORD PTR [rcx+8]
	lea	rax, OFFSET FLAT:??_C@_0BC@EOODALEL@Unknown?5exception@
	test	rdx, rdx
	cmovne	rax, rdx
; Line 97
	ret	0
?what@exception@std@@UEBAPEBDXZ ENDP			; std::exception::what
_TEXT	ENDS
; Function compile flags: /Ogtpy
;	COMDAT ??1exception@std@@UEAA@XZ
_TEXT	SEGMENT
this$ = 8
??1exception@std@@UEAA@XZ PROC				; std::exception::~exception, COMDAT
; File C:\Program Files\Microsoft Visual Studio\18\Community\VC\Tools\MSVC\14.50.35717\include\vcruntime_exception.h
; Line 90
	lea	rax, OFFSET FLAT:??_7exception@std@@6B@
	mov	QWORD PTR [rcx], rax
; Line 91
	add	rcx, 8
	jmp	__std_exception_destroy
??1exception@std@@UEAA@XZ ENDP				; std::exception::~exception
_TEXT	ENDS
; Function compile flags: /Ogtpy
;	COMDAT ??0exception@std@@QEAA@AEBV01@@Z
_TEXT	SEGMENT
this$ = 48
_Other$ = 56
??0exception@std@@QEAA@AEBV01@@Z PROC			; std::exception::exception, COMDAT
; File C:\Program Files\Microsoft Visual Studio\18\Community\VC\Tools\MSVC\14.50.35717\include\vcruntime_exception.h
; Line 73
$LN6:
	push	rbx
	sub	rsp, 32					; 00000020H
	mov	rbx, rcx
	mov	rax, rdx
	lea	rcx, OFFSET FLAT:??_7exception@std@@6B@
	xorps	xmm0, xmm0
	lea	rdx, QWORD PTR [rbx+8]
	mov	QWORD PTR [rbx], rcx
; Line 74
	lea	rcx, QWORD PTR [rax+8]
	movups	XMMWORD PTR [rdx], xmm0
	call	__std_exception_copy
; Line 75
	mov	rax, rbx
	add	rsp, 32					; 00000020H
	pop	rbx
	ret	0
??0exception@std@@QEAA@AEBV01@@Z ENDP			; std::exception::exception
_TEXT	ENDS
; Function compile flags: /Ogtpy
;	COMDAT ??0exception@std@@QEAA@QEBDH@Z
_TEXT	SEGMENT
this$ = 8
_Message$ = 16
__formal$ = 24
??0exception@std@@QEAA@QEBDH@Z PROC			; std::exception::exception, COMDAT
; File C:\Program Files\Microsoft Visual Studio\18\Community\VC\Tools\MSVC\14.50.35717\include\vcruntime_exception.h
; Line 67
	lea	rax, OFFSET FLAT:??_7exception@std@@6B@
	mov	QWORD PTR [rcx], rax
; Line 69
	mov	rax, rcx
	mov	QWORD PTR [rcx+16], 0
	mov	QWORD PTR [rcx+8], rdx
	ret	0
??0exception@std@@QEAA@QEBDH@Z ENDP			; std::exception::exception
_TEXT	ENDS
; Function compile flags: /Ogtpy
;	COMDAT ??$min@_K@std@@YAAEB_KAEB_K0@Z
_TEXT	SEGMENT
_Left$ = 8
_Right$ = 16
??$min@_K@std@@YAAEB_KAEB_K0@Z PROC			; std::min<unsigned __int64>, COMDAT
; File C:\Program Files\Microsoft Visual Studio\18\Community\VC\Tools\MSVC\14.50.35717\include\utility
; Line 101
	mov	rax, QWORD PTR [rcx]
	cmp	QWORD PTR [rdx], rax
	cmovb	rcx, rdx
	mov	rax, rcx
; Line 102
	ret	0
??$min@_K@std@@YAAEB_KAEB_K0@Z ENDP			; std::min<unsigned __int64>
_TEXT	ENDS
; Function compile flags: /Ogtpy
;	COMDAT ?assign@?$_Narrow_char_traits@DH@std@@SAXAEADAEBD@Z
_TEXT	SEGMENT
_Left$ = 8
_Right$ = 16
?assign@?$_Narrow_char_traits@DH@std@@SAXAEADAEBD@Z PROC ; std::_Narrow_char_traits<char,int>::assign, COMDAT
; File C:\Program Files\Microsoft Visual Studio\18\Community\VC\Tools\MSVC\14.50.35717\include\__msvc_string_view.hpp
; Line 571
	movzx	eax, BYTE PTR [rdx]
	mov	BYTE PTR [rcx], al
; Line 572
	ret	0
?assign@?$_Narrow_char_traits@DH@std@@SAXAEADAEBD@Z ENDP ; std::_Narrow_char_traits<char,int>::assign
_TEXT	ENDS
; Function compile flags: /Ogtpy
;	COMDAT ?length@?$_Narrow_char_traits@DH@std@@SA_KQEBD@Z
_TEXT	SEGMENT
_First$ = 8
?length@?$_Narrow_char_traits@DH@std@@SA_KQEBD@Z PROC	; std::_Narrow_char_traits<char,int>::length, COMDAT
; File C:\Program Files\Microsoft Visual Studio\18\Community\VC\Tools\MSVC\14.50.35717\include\__msvc_string_view.hpp
; Line 530
	jmp	strlen
?length@?$_Narrow_char_traits@DH@std@@SA_KQEBD@Z ENDP	; std::_Narrow_char_traits<char,int>::length
_TEXT	ENDS
; Function compile flags: /Ogtpy
;	COMDAT ?compare@?$_Narrow_char_traits@DH@std@@SAHQEBD0_K@Z
_TEXT	SEGMENT
_First1$ = 8
_First2$ = 16
_Count$ = 24
?compare@?$_Narrow_char_traits@DH@std@@SAHQEBD0_K@Z PROC ; std::_Narrow_char_traits<char,int>::compare, COMDAT
; File C:\Program Files\Microsoft Visual Studio\18\Community\VC\Tools\MSVC\14.50.35717\include\__msvc_string_view.hpp
; Line 511
	jmp	memcmp
?compare@?$_Narrow_char_traits@DH@std@@SAHQEBD0_K@Z ENDP ; std::_Narrow_char_traits<char,int>::compare
_TEXT	ENDS
; Function compile flags: /Ogtpy
;	COMDAT ?copy@?$_Char_traits@DH@std@@SAPEADQEADQEBD_K@Z
_TEXT	SEGMENT
_First1$ = 48
_First2$ = 56
_Count$ = 64
?copy@?$_Char_traits@DH@std@@SAPEADQEADQEBD_K@Z PROC	; std::_Char_traits<char,int>::copy, COMDAT
; File C:\Program Files\Microsoft Visual Studio\18\Community\VC\Tools\MSVC\14.50.35717\include\__msvc_string_view.hpp
; Line 184
$LN20:
	push	rbx
	sub	rsp, 32					; 00000020H
	mov	rbx, rcx
; Line 200
	call	memcpy
; Line 203
	mov	rax, rbx
; Line 204
	add	rsp, 32					; 00000020H
	pop	rbx
	ret	0
?copy@?$_Char_traits@DH@std@@SAPEADQEADQEBD_K@Z ENDP	; std::_Char_traits<char,int>::copy
_TEXT	ENDS
; Function compile flags: /Ogtpy
;	COMDAT wmemcpy
_TEXT	SEGMENT
_S1$ = 8
_S2$ = 16
_N$ = 24
wmemcpy	PROC						; COMDAT
; File C:\Program Files (x86)\Windows Kits\10\Include\10.0.26100.0\ucrt\wchar.h
; Line 494
	add	r8, r8
	jmp	memcpy
wmemcpy	ENDP
_TEXT	ENDS
; Function compile flags: /Ogtpy
;	COMDAT ?is_constant_evaluated@std@@YA_NXZ
_TEXT	SEGMENT
?is_constant_evaluated@std@@YA_NXZ PROC			; std::is_constant_evaluated, COMDAT
; File C:\Program Files\Microsoft Visual Studio\18\Community\VC\Tools\MSVC\14.50.35717\include\xtr1common
; Line 183
	xor	al, al
; Line 184
	ret	0
?is_constant_evaluated@std@@YA_NXZ ENDP			; std::is_constant_evaluated
_TEXT	ENDS
; Function compile flags: /Ogtpy
;	COMDAT ??2@YAPEAX_KPEAX@Z
_TEXT	SEGMENT
_Size$ = 8
_Where$ = 16
??2@YAPEAX_KPEAX@Z PROC					; operator new, COMDAT
; File C:\Program Files\Microsoft Visual Studio\18\Community\VC\Tools\MSVC\14.50.35717\include\vcruntime_new.h
; Line 166
	mov	rax, rdx
; Line 167
	ret	0
??2@YAPEAX_KPEAX@Z ENDP					; operator new
_TEXT	ENDS
; Function compile flags: /Ogtpy
;	COMDAT ?__empty_global_delete@@YAXPEAX_KW4align_val_t@std@@@Z
_TEXT	SEGMENT
__formal$ = 8
__formal$ = 16
__formal$ = 24
?__empty_global_delete@@YAXPEAX_KW4align_val_t@std@@@Z PROC ; __empty_global_delete, COMDAT
; File C:\Users\RedDragon\Documents\Recubin\src\Instances\Cube.cpp
; Line 95
	ret	0
?__empty_global_delete@@YAXPEAX_KW4align_val_t@std@@@Z ENDP ; __empty_global_delete
_TEXT	ENDS
; Function compile flags: /Ogtpy
;	COMDAT ?__empty_global_delete@@YAXPEAXW4align_val_t@std@@@Z
_TEXT	SEGMENT
__formal$ = 8
__formal$ = 16
?__empty_global_delete@@YAXPEAXW4align_val_t@std@@@Z PROC ; __empty_global_delete, COMDAT
; File C:\Users\RedDragon\Documents\Recubin\src\Instances\Cube.cpp
; Line 95
	ret	0
?__empty_global_delete@@YAXPEAXW4align_val_t@std@@@Z ENDP ; __empty_global_delete
_TEXT	ENDS
; Function compile flags: /Ogtpy
;	COMDAT ?__empty_global_delete@@YAXPEAX_K@Z
_TEXT	SEGMENT
__formal$ = 8
__formal$ = 16
?__empty_global_delete@@YAXPEAX_K@Z PROC		; __empty_global_delete, COMDAT
; File C:\Users\RedDragon\Documents\Recubin\src\Instances\Cube.cpp
; Line 95
	ret	0
?__empty_global_delete@@YAXPEAX_K@Z ENDP		; __empty_global_delete
_TEXT	ENDS
; Function compile flags: /Ogtpy
;	COMDAT ?__empty_global_delete@@YAXPEAX@Z
_TEXT	SEGMENT
__formal$ = 8
?__empty_global_delete@@YAXPEAX@Z PROC			; __empty_global_delete, COMDAT
; File C:\Users\RedDragon\Documents\Recubin\src\Instances\Cube.cpp
; Line 95
	ret	0
?__empty_global_delete@@YAXPEAX@Z ENDP			; __empty_global_delete
_TEXT	ENDS
; Function compile flags: /Ogtpy
;	COMDAT ??_H@YAXPEAX_K1P6APEAX0@Z@Z
_TEXT	SEGMENT
__t$ = 80
__s$ = 88
__n$ = 96
__f$ = 104
??_H@YAXPEAX_K1P6APEAX0@Z@Z PROC			; `vector constructor iterator', COMDAT
$LN14:
	test	r8, r8
	je	SHORT $LN12@vector
	push	rbx
	push	rbp
	push	rsi
	push	rdi
	sub	rsp, 40					; 00000028H
	mov	rsi, r9
	mov	rbx, r8
	mov	rbp, rdx
	mov	rdi, rcx
	npad	7
$LL2@vector:
	mov	rcx, rdi
	call	rsi
	add	rdi, rbp
	sub	rbx, 1
	jne	SHORT $LL2@vector
	add	rsp, 40					; 00000028H
	pop	rdi
	pop	rsi
	pop	rbp
	pop	rbx
$LN12@vector:
	ret	0
??_H@YAXPEAX_K1P6APEAX0@Z@Z ENDP			; `vector constructor iterator'
_TEXT	ENDS
END
