; Listing generated by Microsoft (R) Optimizing Compiler Version 19.50.35727.0 

include listing.inc

INCLUDELIB MSVCRT
INCLUDELIB OLDNAMES

PUBLIC	?g_PXSinCoefficients0@aos@physx@@3UPX_VECTORF32@12@B ; physx::aos::g_PXSinCoefficients0
PUBLIC	?g_PXSinCoefficients1@aos@physx@@3UPX_VECTORF32@12@B ; physx::aos::g_PXSinCoefficients1
PUBLIC	?g_PXSinCoefficients2@aos@physx@@3UPX_VECTORF32@12@B ; physx::aos::g_PXSinCoefficients2
PUBLIC	?g_PXCosCoefficients0@aos@physx@@3UPX_VECTORF32@12@B ; physx::aos::g_PXCosCoefficients0
PUBLIC	?g_PXCosCoefficients1@aos@physx@@3UPX_VECTORF32@12@B ; physx::aos::g_PXCosCoefficients1
PUBLIC	?g_PXCosCoefficients2@aos@physx@@3UPX_VECTORF32@12@B ; physx::aos::g_PXCosCoefficients2
PUBLIC	?g_PXReciprocalTwoPi@aos@physx@@3UPX_VECTORF32@12@B ; physx::aos::g_PXReciprocalTwoPi
PUBLIC	?g_PXTwoPi@aos@physx@@3UPX_VECTORF32@12@B	; physx::aos::g_PXTwoPi
PUBLIC	_Avx2WmemEnabledWeakValue
PUBLIC	?currentScript@LuauEngine@@0PEAVScript@@EA	; LuauEngine::currentScript
;	COMDAT _Avx2WmemEnabledWeakValue
_BSS	SEGMENT
_Avx2WmemEnabledWeakValue DD 01H DUP (?)
_BSS	ENDS
_BSS	SEGMENT
?currentScript@LuauEngine@@0PEAVScript@@EA DQ 01H DUP (?) ; LuauEngine::currentScript
_BSS	ENDS
CONST	SEGMENT
?minus1w@?A0x26a6a6bc@aos@physx@@3QBMB DD 000000000r ; 0 ; physx::aos::`anonymous namespace'::minus1w
	DD	000000000r			; 0
	DD	000000000r			; 0
	DD	0bf800000r			; -1
?gMaskXYZ@internalSimd@aos@physx@@3QBIB DD 0ffffffffH	; physx::aos::internalSimd::gMaskXYZ
	DD	0ffffffffH
	DD	0ffffffffH
	DD	00H
CONST	ENDS
;	COMDAT ?g_PXTwoPi@aos@physx@@3UPX_VECTORF32@12@B
CONST	SEGMENT
?g_PXTwoPi@aos@physx@@3UPX_VECTORF32@12@B DD 040c90fdbr ; 6.28319 ; physx::aos::g_PXTwoPi
	DD	040c90fdbr			; 6.28319
	DD	040c90fdbr			; 6.28319
	DD	040c90fdbr			; 6.28319
CONST	ENDS
;	COMDAT ?g_PXReciprocalTwoPi@aos@physx@@3UPX_VECTORF32@12@B
CONST	SEGMENT
?g_PXReciprocalTwoPi@aos@physx@@3UPX_VECTORF32@12@B DD 03e22f983r ; 0.159155 ; physx::aos::g_PXReciprocalTwoPi
	DD	03e22f983r			; 0.159155
	DD	03e22f983r			; 0.159155
	DD	03e22f983r			; 0.159155
CONST	ENDS
;	COMDAT ?g_PXCosCoefficients2@aos@physx@@3UPX_VECTORF32@12@B
CONST	SEGMENT
?g_PXCosCoefficients2@aos@physx@@3UPX_VECTORF32@12@B DD 029573f9fr ; 4.77948e-14 ; physx::aos::g_PXCosCoefficients2
	DD	0a53413c3r			; -1.56192e-16
	DD	020f2a15dr			; 4.11032e-19
	DD	09c8671cbr			; -8.89679e-22
CONST	ENDS
;	COMDAT ?g_PXCosCoefficients1@aos@physx@@3UPX_VECTORF32@12@B
CONST	SEGMENT
?g_PXCosCoefficients1@aos@physx@@3UPX_VECTORF32@12@B DD 037d00d01r ; 2.48016e-05 ; physx::aos::g_PXCosCoefficients1
	DD	0b493f27er			; -2.75573e-07
	DD	0310f76c8r			; 2.08768e-09
	DD	0ad49cba5r			; -1.14707e-11
CONST	ENDS
;	COMDAT ?g_PXCosCoefficients0@aos@physx@@3UPX_VECTORF32@12@B
CONST	SEGMENT
?g_PXCosCoefficients0@aos@physx@@3UPX_VECTORF32@12@B DD 03f800000r ; 1 ; physx::aos::g_PXCosCoefficients0
	DD	0bf000000r			; -0.5
	DD	03d2aaaabr			; 0.0416667
	DD	0bab60b61r			; -0.00138889
CONST	ENDS
;	COMDAT ?g_PXSinCoefficients2@aos@physx@@3UPX_VECTORF32@12@B
CONST	SEGMENT
?g_PXSinCoefficients2@aos@physx@@3UPX_VECTORF32@12@B DD 0274a963cr ; 2.81146e-15 ; physx::aos::g_PXSinCoefficients2
	DD	0a317a4dar			; -8.22064e-18
	DD	01eb8dc78r			; 1.95729e-20
	DD	09a3b0da1r			; -3.86817e-23
CONST	ENDS
;	COMDAT ?g_PXSinCoefficients1@aos@physx@@3UPX_VECTORF32@12@B
CONST	SEGMENT
?g_PXSinCoefficients1@aos@physx@@3UPX_VECTORF32@12@B DD 03638ef1dr ; 2.75573e-06 ; physx::aos::g_PXSinCoefficients1
	DD	0b2d7322br			; -2.50521e-08
	DD	02f309231r			; 1.6059e-10
	DD	0ab573f9fr			; -7.64716e-13
CONST	ENDS
;	COMDAT ?g_PXSinCoefficients0@aos@physx@@3UPX_VECTORF32@12@B
CONST	SEGMENT
?g_PXSinCoefficients0@aos@physx@@3UPX_VECTORF32@12@B DD 03f800000r ; 1 ; physx::aos::g_PXSinCoefficients0
	DD	0be2aaaabr			; -0.166667
	DD	03c088889r			; 0.00833333
	DD	0b9500d01r			; -0.000198413
CONST	ENDS
PUBLIC	??_H@YAXPEAX_K1P6APEAX0@Z@Z			; `vector constructor iterator'
PUBLIC	?__empty_global_delete@@YAXPEAX@Z		; __empty_global_delete
PUBLIC	?__empty_global_delete@@YAXPEAX_K@Z		; __empty_global_delete
PUBLIC	?__empty_global_delete@@YAXPEAXW4align_val_t@std@@@Z ; __empty_global_delete
PUBLIC	?__empty_global_delete@@YAXPEAX_KW4align_val_t@std@@@Z ; __empty_global_delete
PUBLIC	??2@YAPEAX_KPEAX@Z				; operator new
PUBLIC	?is_constant_evaluated@std@@YA_NXZ		; std::is_constant_evaluated
PUBLIC	?_Fnv1a_append_bytes@std@@YA_K_KQEBE_K@Z	; std::_Fnv1a_append_bytes
PUBLIC	?sqrt@@YAMM@Z					; sqrt
PUBLIC	__local_stdio_printf_options
PUBLIC	_vsprintf_s_l
PUBLIC	_vscprintf_l
PUBLIC	sprintf_s
PUBLIC	_scprintf
PUBLIC	wmemcpy
PUBLIC	??0exception@std@@QEAA@QEBDH@Z			; std::exception::exception
PUBLIC	??0exception@std@@QEAA@AEBV01@@Z		; std::exception::exception
PUBLIC	??1exception@std@@UEAA@XZ			; std::exception::~exception
PUBLIC	?what@exception@std@@UEBAPEBDXZ			; std::exception::what
PUBLIC	??_Gexception@std@@UEAAPEAXI@Z			; std::exception::`scalar deleting destructor'
PUBLIC	??0bad_alloc@std@@AEAA@QEBD@Z			; std::bad_alloc::bad_alloc
PUBLIC	??1bad_alloc@std@@UEAA@XZ			; std::bad_alloc::~bad_alloc
PUBLIC	??0bad_alloc@std@@QEAA@AEBV01@@Z		; std::bad_alloc::bad_alloc
PUBLIC	??_Gbad_alloc@std@@UEAAPEAXI@Z			; std::bad_alloc::`scalar deleting destructor'
PUBLIC	??0bad_array_new_length@std@@QEAA@XZ		; std::bad_array_new_length::bad_array_new_length
PUBLIC	??1bad_array_new_length@std@@UEAA@XZ		; std::bad_array_new_length::~bad_array_new_length
PUBLIC	??0bad_array_new_length@std@@QEAA@AEBV01@@Z	; std::bad_array_new_length::bad_array_new_length
PUBLIC	??_Gbad_array_new_length@std@@UEAAPEAXI@Z	; std::bad_array_new_length::`scalar deleting destructor'
PUBLIC	?copy@?$_Char_traits@DH@std@@SAPEADQEADQEBD_K@Z	; std::_Char_traits<char,int>::copy
PUBLIC	?move@?$_Char_traits@DH@std@@SAPEADQEADQEBD_K@Z	; std::_Char_traits<char,int>::move
PUBLIC	?assign@?$_Char_traits@DH@std@@SAPEADQEAD_KD@Z	; std::_Char_traits<char,int>::assign
PUBLIC	?compare@?$_Narrow_char_traits@DH@std@@SAHQEBD0_K@Z ; std::_Narrow_char_traits<char,int>::compare
PUBLIC	?length@?$_Narrow_char_traits@DH@std@@SA_KQEBD@Z ; std::_Narrow_char_traits<char,int>::length
PUBLIC	?assign@?$_Narrow_char_traits@DH@std@@SAPEADQEAD_KD@Z ; std::_Narrow_char_traits<char,int>::assign
PUBLIC	?assign@?$_Narrow_char_traits@DH@std@@SAXAEADAEBD@Z ; std::_Narrow_char_traits<char,int>::assign
PUBLIC	?eq_int_type@?$_Narrow_char_traits@DH@std@@SA_NHH@Z ; std::_Narrow_char_traits<char,int>::eq_int_type
PUBLIC	?eof@?$_Narrow_char_traits@DH@std@@SAHXZ	; std::_Narrow_char_traits<char,int>::eof
PUBLIC	??$min@_K@std@@YAAEB_KAEB_K0@Z			; std::min<unsigned __int64>
PUBLIC	??0?$basic_string_view@DU?$char_traits@D@std@@@std@@QEAA@QEBD@Z ; std::basic_string_view<char,std::char_traits<char> >::basic_string_view<char,std::char_traits<char> >
PUBLIC	?size@?$basic_string_view@DU?$char_traits@D@std@@@std@@QEBA_KXZ ; std::basic_string_view<char,std::char_traits<char> >::size
PUBLIC	?data@?$basic_string_view@DU?$char_traits@D@std@@@std@@QEBAPEBDXZ ; std::basic_string_view<char,std::char_traits<char> >::data
PUBLIC	?_Equal@?$basic_string_view@DU?$char_traits@D@std@@@std@@QEBA_NV12@@Z ; std::basic_string_view<char,std::char_traits<char> >::_Equal
PUBLIC	??0?$tuple@$$V@std@@QEAA@AEBV01@@Z		; std::tuple<>::tuple<>
PUBLIC	?_Throw_bad_array_new_length@std@@YAXXZ		; std::_Throw_bad_array_new_length
PUBLIC	?_Allocate@_Default_allocate_traits@std@@SAPEAX_K@Z ; std::_Default_allocate_traits::_Allocate
PUBLIC	?_Adjust_manually_vector_aligned@std@@YAXAEAPEAXAEA_K@Z ; std::_Adjust_manually_vector_aligned
PUBLIC	?_Orphan_all@_Container_base0@std@@QEAAXXZ	; std::_Container_base0::_Orphan_all
PUBLIC	?_Swap_proxy_and_iterators@_Container_base0@std@@QEAAXAEAU12@@Z ; std::_Container_base0::_Swap_proxy_and_iterators
PUBLIC	?_Alloc_proxy@_Container_base0@std@@QEAAXAEBU_Fake_allocator@2@@Z ; std::_Container_base0::_Alloc_proxy
PUBLIC	?_Adopt@_Iterator_base0@std@@QEAAXPEBX@Z	; std::_Iterator_base0::_Adopt
PUBLIC	??0_Fake_proxy_ptr_impl@std@@QEAA@AEBU_Fake_allocator@1@AEBU_Container_base0@1@@Z ; std::_Fake_proxy_ptr_impl::_Fake_proxy_ptr_impl
PUBLIC	?_Release@_Fake_proxy_ptr_impl@std@@QEAAXXZ	; std::_Fake_proxy_ptr_impl::_Release
PUBLIC	?_Xlen_string@std@@YAXXZ			; std::_Xlen_string
PUBLIC	??0?$allocator@D@std@@QEAA@XZ			; std::allocator<char>::allocator<char>
PUBLIC	?deallocate@?$allocator@D@std@@QEAAXQEAD_K@Z	; std::allocator<char>::deallocate
PUBLIC	?allocate@?$allocator@D@std@@QEAAPEAD_K@Z	; std::allocator<char>::allocate
PUBLIC	?max_size@?$_Default_allocator_traits@V?$allocator@D@std@@@std@@SA_KAEBV?$allocator@D@2@@Z ; std::_Default_allocator_traits<std::allocator<char> >::max_size
PUBLIC	?select_on_container_copy_construction@?$_Default_allocator_traits@V?$allocator@D@std@@@std@@SA?AV?$allocator@D@2@AEBV32@@Z ; std::_Default_allocator_traits<std::allocator<char> >::select_on_container_copy_construction
PUBLIC	??0?$_String_val@U?$_Simple_types@D@std@@@std@@QEAA@XZ ; std::_String_val<std::_Simple_types<char> >::_String_val<std::_Simple_types<char> >
PUBLIC	?_Myptr@?$_String_val@U?$_Simple_types@D@std@@@std@@QEAAPEADXZ ; std::_String_val<std::_Simple_types<char> >::_Myptr
PUBLIC	?_Myptr@?$_String_val@U?$_Simple_types@D@std@@@std@@QEBAPEBDXZ ; std::_String_val<std::_Simple_types<char> >::_Myptr
PUBLIC	?_Large_mode_engaged@?$_String_val@U?$_Simple_types@D@std@@@std@@QEBA_NXZ ; std::_String_val<std::_Simple_types<char> >::_Large_mode_engaged
PUBLIC	?_Activate_SSO_buffer@?$_String_val@U?$_Simple_types@D@std@@@std@@QEAAXXZ ; std::_String_val<std::_Simple_types<char> >::_Activate_SSO_buffer
PUBLIC	?_Check_offset@?$_String_val@U?$_Simple_types@D@std@@@std@@QEBAX_K@Z ; std::_String_val<std::_Simple_types<char> >::_Check_offset
PUBLIC	?_Xran@?$_String_val@U?$_Simple_types@D@std@@@std@@SAXXZ ; std::_String_val<std::_Simple_types<char> >::_Xran
PUBLIC	??0_Bxty@?$_String_val@U?$_Simple_types@D@std@@@std@@QEAA@XZ ; std::_String_val<std::_Simple_types<char> >::_Bxty::_Bxty
PUBLIC	??1_Bxty@?$_String_val@U?$_Simple_types@D@std@@@std@@QEAA@XZ ; std::_String_val<std::_Simple_types<char> >::_Bxty::~_Bxty
PUBLIC	?_Switch_to_buf@_Bxty@?$_String_val@U?$_Simple_types@D@std@@@std@@QEAAXXZ ; std::_String_val<std::_Simple_types<char> >::_Bxty::_Switch_to_buf
PUBLIC	??1?$_String_val@U?$_Simple_types@D@std@@@std@@QEAA@XZ ; std::_String_val<std::_Simple_types<char> >::~_String_val<std::_Simple_types<char> >
PUBLIC	??0?$basic_string@DU?$char_traits@D@std@@V?$allocator@D@2@@std@@QEAA@QEBD@Z ; std::basic_string<char,std::char_traits<char>,std::allocator<char> >::basic_string<char,std::char_traits<char>,std::allocator<char> >
PUBLIC	??0?$basic_string@DU?$char_traits@D@std@@V?$allocator@D@2@@std@@QEAA@_KD@Z ; std::basic_string<char,std::char_traits<char>,std::allocator<char> >::basic_string<char,std::char_traits<char>,std::allocator<char> >
PUBLIC	?_Deallocate_for_capacity@?$basic_string@DU?$char_traits@D@std@@V?$allocator@D@2@@std@@CAXAEAV?$allocator@D@2@QEAD_K@Z ; std::basic_string<char,std::char_traits<char>,std::allocator<char> >::_Deallocate_for_capacity
PUBLIC	??0?$basic_string@DU?$char_traits@D@std@@V?$allocator@D@2@@std@@QEAA@$$QEAV01@@Z ; std::basic_string<char,std::char_traits<char>,std::allocator<char> >::basic_string<char,std::char_traits<char>,std::allocator<char> >
PUBLIC	??0?$basic_string@DU?$char_traits@D@std@@V?$allocator@D@2@@std@@QEAA@U_String_constructor_concat_tag@1@AEBV01@QEBD_K23@Z ; std::basic_string<char,std::char_traits<char>,std::allocator<char> >::basic_string<char,std::char_traits<char>,std::allocator<char> >
PUBLIC	??0?$basic_string@DU?$char_traits@D@std@@V?$allocator@D@2@@std@@QEAA@U_String_constructor_concat_tag@1@AEAV01@1@Z ; std::basic_string<char,std::char_traits<char>,std::allocator<char> >::basic_string<char,std::char_traits<char>,std::allocator<char> >
PUBLIC	?_Take_contents@?$basic_string@DU?$char_traits@D@std@@V?$allocator@D@2@@std@@AEAAXAEAV12@@Z ; std::basic_string<char,std::char_traits<char>,std::allocator<char> >::_Take_contents
PUBLIC	??1?$basic_string@DU?$char_traits@D@std@@V?$allocator@D@2@@std@@QEAA@XZ ; std::basic_string<char,std::char_traits<char>,std::allocator<char> >::~basic_string<char,std::char_traits<char>,std::allocator<char> >
PUBLIC	??4?$basic_string@DU?$char_traits@D@std@@V?$allocator@D@2@@std@@QEAAAEAV01@QEBD@Z ; std::basic_string<char,std::char_traits<char>,std::allocator<char> >::operator=
PUBLIC	?append@?$basic_string@DU?$char_traits@D@std@@V?$allocator@D@2@@std@@QEAAAEAV12@QEBD@Z ; std::basic_string<char,std::char_traits<char>,std::allocator<char> >::append
PUBLIC	?assign@?$basic_string@DU?$char_traits@D@std@@V?$allocator@D@2@@std@@QEAAAEAV12@QEBD@Z ; std::basic_string<char,std::char_traits<char>,std::allocator<char> >::assign
PUBLIC	?insert@?$basic_string@DU?$char_traits@D@std@@V?$allocator@D@2@@std@@QEAAAEAV12@_KQEBD@Z ; std::basic_string<char,std::char_traits<char>,std::allocator<char> >::insert
PUBLIC	??A?$basic_string@DU?$char_traits@D@std@@V?$allocator@D@2@@std@@QEAAAEAD_K@Z ; std::basic_string<char,std::char_traits<char>,std::allocator<char> >::operator[]
PUBLIC	?c_str@?$basic_string@DU?$char_traits@D@std@@V?$allocator@D@2@@std@@QEBAPEBDXZ ; std::basic_string<char,std::char_traits<char>,std::allocator<char> >::c_str
PUBLIC	?data@?$basic_string@DU?$char_traits@D@std@@V?$allocator@D@2@@std@@QEBAPEBDXZ ; std::basic_string<char,std::char_traits<char>,std::allocator<char> >::data
PUBLIC	?length@?$basic_string@DU?$char_traits@D@std@@V?$allocator@D@2@@std@@QEBA_KXZ ; std::basic_string<char,std::char_traits<char>,std::allocator<char> >::length
PUBLIC	?size@?$basic_string@DU?$char_traits@D@std@@V?$allocator@D@2@@std@@QEBA_KXZ ; std::basic_string<char,std::char_traits<char>,std::allocator<char> >::size
PUBLIC	?max_size@?$basic_string@DU?$char_traits@D@std@@V?$allocator@D@2@@std@@QEBA_KXZ ; std::basic_string<char,std::char_traits<char>,std::allocator<char> >::max_size
PUBLIC	?_Calculate_growth@?$basic_string@DU?$char_traits@D@std@@V?$allocator@D@2@@std@@CA_K_K00@Z ; std::basic_string<char,std::char_traits<char>,std::allocator<char> >::_Calculate_growth
PUBLIC	?_Calculate_growth@?$basic_string@DU?$char_traits@D@std@@V?$allocator@D@2@@std@@AEBA_K_K@Z ; std::basic_string<char,std::char_traits<char>,std::allocator<char> >::_Calculate_growth
PUBLIC	?_Tidy_deallocate@?$basic_string@DU?$char_traits@D@std@@V?$allocator@D@2@@std@@AEAAXXZ ; std::basic_string<char,std::char_traits<char>,std::allocator<char> >::_Tidy_deallocate
PUBLIC	?_Swap_proxy_and_iterators@?$basic_string@DU?$char_traits@D@std@@V?$allocator@D@2@@std@@AEAAXAEAV12@@Z ; std::basic_string<char,std::char_traits<char>,std::allocator<char> >::_Swap_proxy_and_iterators
PUBLIC	?_Getal@?$basic_string@DU?$char_traits@D@std@@V?$allocator@D@2@@std@@AEAAAEAV?$allocator@D@2@XZ ; std::basic_string<char,std::char_traits<char>,std::allocator<char> >::_Getal
PUBLIC	?_Getal@?$basic_string@DU?$char_traits@D@std@@V?$allocator@D@2@@std@@AEBAAEBV?$allocator@D@2@XZ ; std::basic_string<char,std::char_traits<char>,std::allocator<char> >::_Getal
PUBLIC	?_Get_first@?$_Compressed_pair@V?$allocator@D@std@@V?$_String_val@U?$_Simple_types@D@std@@@2@$00@std@@QEAAAEAV?$allocator@D@2@XZ ; std::_Compressed_pair<std::allocator<char>,std::_String_val<std::_Simple_types<char> >,1>::_Get_first
PUBLIC	?_Get_first@?$_Compressed_pair@V?$allocator@D@std@@V?$_String_val@U?$_Simple_types@D@std@@@2@$00@std@@QEBAAEBV?$allocator@D@2@XZ ; std::_Compressed_pair<std::allocator<char>,std::_String_val<std::_Simple_types<char> >,1>::_Get_first
PUBLIC	??1?$_Compressed_pair@V?$allocator@D@std@@V?$_String_val@U?$_Simple_types@D@std@@@2@$00@std@@QEAA@XZ ; std::_Compressed_pair<std::allocator<char>,std::_String_val<std::_Simple_types<char> >,1>::~_Compressed_pair<std::allocator<char>,std::_String_val<std::_Simple_types<char> >,1>
PUBLIC	?_Maklocwcs@std@@YAPEA_WPEB_W@Z			; std::_Maklocwcs
PUBLIC	??$_Max_limit@_J@std@@YA_JXZ			; std::_Max_limit<__int64>
PUBLIC	?_Floor_of_log_2@std@@YAK_K@Z			; std::_Floor_of_log_2
PUBLIC	?_Ceiling_of_log_2@std@@YAK_K@Z			; std::_Ceiling_of_log_2
PUBLIC	??$_Getvals@_W@?$time_get@DV?$istreambuf_iterator@DU?$char_traits@D@std@@@std@@@std@@IEAAX_WAEBV_Locinfo@1@@Z ; std::time_get<char,std::istreambuf_iterator<char,std::char_traits<char> > >::_Getvals<wchar_t>
PUBLIC	??$_Getvals@_W@?$time_get@_WV?$istreambuf_iterator@_WU?$char_traits@_W@std@@@std@@@std@@IEAAX_WAEBV_Locinfo@1@@Z ; std::time_get<wchar_t,std::istreambuf_iterator<wchar_t,std::char_traits<wchar_t> > >::_Getvals<wchar_t>
PUBLIC	??0_Sentry_base@?$basic_ostream@DU?$char_traits@D@std@@@std@@QEAA@AEAV12@@Z ; std::basic_ostream<char,std::char_traits<char> >::_Sentry_base::_Sentry_base
PUBLIC	??1_Sentry_base@?$basic_ostream@DU?$char_traits@D@std@@@std@@QEAA@XZ ; std::basic_ostream<char,std::char_traits<char> >::_Sentry_base::~_Sentry_base
PUBLIC	??0sentry@?$basic_ostream@DU?$char_traits@D@std@@@std@@QEAA@AEAV12@@Z ; std::basic_ostream<char,std::char_traits<char> >::sentry::sentry
PUBLIC	??1sentry@?$basic_ostream@DU?$char_traits@D@std@@@std@@QEAA@XZ ; std::basic_ostream<char,std::char_traits<char> >::sentry::~sentry
PUBLIC	??Bsentry@?$basic_ostream@DU?$char_traits@D@std@@@std@@QEBA_NXZ ; std::basic_ostream<char,std::char_traits<char> >::sentry::operator bool
PUBLIC	?to_string@std@@YA?AV?$basic_string@DU?$char_traits@D@std@@V?$allocator@D@2@@1@N@Z ; std::to_string
PUBLIC	?to_string@std@@YA?AV?$basic_string@DU?$char_traits@D@std@@V?$allocator@D@2@@1@M@Z ; std::to_string
PUBLIC	??DVector3@@QEBA?AU0@M@Z			; Vector3::operator*
PUBLIC	?length@Vector3@@QEBAMXZ			; Vector3::length
PUBLIC	?normalize@Vector3@@QEBA?AU1@XZ			; Vector3::normalize
PUBLIC	??0Vector3@@QEAA@MMM@Z				; Vector3::Vector3
PUBLIC	?toString@Vector3@@QEBA?AV?$basic_string@DU?$char_traits@D@std@@V?$allocator@D@2@@std@@XZ ; Vector3::toString
PUBLIC	??$?HDU?$char_traits@D@std@@V?$allocator@D@1@@std@@YA?AV?$basic_string@DU?$char_traits@D@std@@V?$allocator@D@2@@0@$$QEAV10@QEBD@Z ; std::operator+<char,std::char_traits<char>,std::allocator<char> >
PUBLIC	??$?HDU?$char_traits@D@std@@V?$allocator@D@1@@std@@YA?AV?$basic_string@DU?$char_traits@D@std@@V?$allocator@D@2@@0@$$QEAV10@0@Z ; std::operator+<char,std::char_traits<char>,std::allocator<char> >
PUBLIC	?_Unchecked_begin@?$vector@PEAVInstance@@V?$allocator@PEAVInstance@@@std@@@std@@QEAAPEAPEAVInstance@@XZ ; std::vector<Instance *,std::allocator<Instance *> >::_Unchecked_begin
PUBLIC	?_Unchecked_end@?$vector@PEAVInstance@@V?$allocator@PEAVInstance@@@std@@@std@@QEAAPEAPEAVInstance@@XZ ; std::vector<Instance *,std::allocator<Instance *> >::_Unchecked_end
PUBLIC	??0Color4@@QEAA@MMMM@Z				; Color4::Color4
PUBLIC	?toString@Color4@@QEBA?AV?$basic_string@DU?$char_traits@D@std@@V?$allocator@D@2@@std@@XZ ; Color4::toString
PUBLIC	??0?$PxVec3T@M@physx@@QEAA@MMM@Z		; physx::PxVec3T<float>::PxVec3T<float>
PUBLIC	??4?$PxVec3T@M@physx@@QEAAAEAV01@AEBV01@@Z	; physx::PxVec3T<float>::operator=
PUBLIC	?FLoad@aos@physx@@YA?AT__m128@@M@Z		; physx::aos::FLoad
PUBLIC	?V3Load@aos@physx@@YA?AT__m128@@M@Z		; physx::aos::V3Load
PUBLIC	?V4Load@aos@physx@@YA?AT__m128@@M@Z		; physx::aos::V4Load
PUBLIC	?InitDispatchTable@LuauEngine@@AEAAXXZ		; LuauEngine::InitDispatchTable
PUBLIC	?InitSetterTable@LuauEngine@@AEAAXXZ		; LuauEngine::InitSetterTable
PUBLIC	?InitMetatables@LuauEngine@@AEAAXXZ		; LuauEngine::InitMetatables
PUBLIC	?RegisterGlobalFunctions@LuauEngine@@AEAAXPEAUlua_State@@@Z ; LuauEngine::RegisterGlobalFunctions
PUBLIC	?instance_index@LuauEngine@@CAHPEAUlua_State@@@Z ; LuauEngine::instance_index
PUBLIC	?instance_newindex@LuauEngine@@CAHPEAUlua_State@@@Z ; LuauEngine::instance_newindex
PUBLIC	?instance_tostring@LuauEngine@@CAHPEAUlua_State@@@Z ; LuauEngine::instance_tostring
PUBLIC	?instance_find_child_closure@LuauEngine@@CAHPEAUlua_State@@@Z ; LuauEngine::instance_find_child_closure
PUBLIC	?vec3_index@LuauEngine@@CAHPEAUlua_State@@@Z	; LuauEngine::vec3_index
PUBLIC	?vec3_newindex@LuauEngine@@CAHPEAUlua_State@@@Z	; LuauEngine::vec3_newindex
PUBLIC	?vec3_tostring@LuauEngine@@CAHPEAUlua_State@@@Z	; LuauEngine::vec3_tostring
PUBLIC	?vec3_constructor@LuauEngine@@CAHPEAUlua_State@@@Z ; LuauEngine::vec3_constructor
PUBLIC	?color4_index@LuauEngine@@CAHPEAUlua_State@@@Z	; LuauEngine::color4_index
PUBLIC	?color4_newindex@LuauEngine@@CAHPEAUlua_State@@@Z ; LuauEngine::color4_newindex
PUBLIC	?color4_tostring@LuauEngine@@CAHPEAUlua_State@@@Z ; LuauEngine::color4_tostring
PUBLIC	?color4_constructor@LuauEngine@@CAHPEAUlua_State@@@Z ; LuauEngine::color4_constructor
PUBLIC	?global_add@LuauEngine@@CAHPEAUlua_State@@@Z	; LuauEngine::global_add
PUBLIC	?global_print_message@LuauEngine@@CAHPEAUlua_State@@@Z ; LuauEngine::global_print_message
PUBLIC	?wait@LuauEngine@@CAHPEAUlua_State@@@Z		; LuauEngine::wait
PUBLIC	??0LuauEngine@@QEAA@XZ				; LuauEngine::LuauEngine
PUBLIC	??1LuauEngine@@QEAA@XZ				; LuauEngine::~LuauEngine
PUBLIC	?setBindings@LuauEngine@@QEAAXPEAVInstance@@@Z	; LuauEngine::setBindings
PUBLIC	?setGlobalInstance@LuauEngine@@QEAAXAEBV?$basic_string@DU?$char_traits@D@std@@V?$allocator@D@2@@std@@PEAVInstance@@@Z ; LuauEngine::setGlobalInstance
PUBLIC	?execute@LuauEngine@@QEAA_NAEAVScript@@@Z	; LuauEngine::execute
PUBLIC	?setWorkspace@LuauEngine@@QEAAXPEAVWorkspace@@@Z ; LuauEngine::setWorkspace
PUBLIC	?executeWorkspaceScripts@LuauEngine@@QEAAXXZ	; LuauEngine::executeWorkspaceScripts
PUBLIC	?update@LuauEngine@@QEAAXM@Z			; LuauEngine::update
PUBLIC	??R?$_Conditionally_enabled_hash@V?$basic_string_view@DU?$char_traits@D@std@@@std@@$00@std@@SA_KAEBV?$basic_string_view@DU?$char_traits@D@std@@@1@@Z ; std::_Conditionally_enabled_hash<std::basic_string_view<char,std::char_traits<char> >,1>::operator()
PUBLIC	?_Do_hash@?$hash@V?$basic_string_view@DU?$char_traits@D@std@@@std@@@std@@SA_KV?$basic_string_view@DU?$char_traits@D@std@@@2@@Z ; std::hash<std::basic_string_view<char,std::char_traits<char> > >::_Do_hash
PUBLIC	??0?$_Uhash_compare@V?$basic_string_view@DU?$char_traits@D@std@@@std@@U?$hash@V?$basic_string_view@DU?$char_traits@D@std@@@std@@@2@U?$equal_to@V?$basic_string_view@DU?$char_traits@D@std@@@std@@@2@@std@@QEAA@XZ ; std::_Uhash_compare<std::basic_string_view<char,std::char_traits<char> >,std::hash<std::basic_string_view<char,std::char_traits<char> > >,std::equal_to<std::basic_string_view<char,std::char_traits<char> > > >::_Uhash_compare<std::basic_string_view<char,std::char_traits<char> >,std::hash<std::basic_string_view<char,std::char_traits<char> > >,std::equal_to<std::basic_string_view<char,std::char_traits<char> > > >
PUBLIC	?_Get_max_bucket_size@?$_Uhash_compare@V?$basic_string_view@DU?$char_traits@D@std@@@std@@U?$hash@V?$basic_string_view@DU?$char_traits@D@std@@@std@@@2@U?$equal_to@V?$basic_string_view@DU?$char_traits@D@std@@@std@@@2@@std@@QEAAAEAMXZ ; std::_Uhash_compare<std::basic_string_view<char,std::char_traits<char> >,std::hash<std::basic_string_view<char,std::char_traits<char> > >,std::equal_to<std::basic_string_view<char,std::char_traits<char> > > >::_Get_max_bucket_size
PUBLIC	?_Get_max_bucket_size@?$_Uhash_compare@V?$basic_string_view@DU?$char_traits@D@std@@@std@@U?$hash@V?$basic_string_view@DU?$char_traits@D@std@@@std@@@2@U?$equal_to@V?$basic_string_view@DU?$char_traits@D@std@@@std@@@2@@std@@QEBAAEBMXZ ; std::_Uhash_compare<std::basic_string_view<char,std::char_traits<char> >,std::hash<std::basic_string_view<char,std::char_traits<char> > >,std::equal_to<std::basic_string_view<char,std::char_traits<char> > > >::_Get_max_bucket_size
PUBLIC	??R?$equal_to@V?$basic_string_view@DU?$char_traits@D@std@@@std@@@std@@QEBA_NAEBV?$basic_string_view@DU?$char_traits@D@std@@@1@0@Z ; std::equal_to<std::basic_string_view<char,std::char_traits<char> > >::operator()
PUBLIC	?_Get_first@?$_Compressed_pair@U?$equal_to@V?$basic_string_view@DU?$char_traits@D@std@@@std@@@std@@M$00@std@@QEBAAEBU?$equal_to@V?$basic_string_view@DU?$char_traits@D@std@@@std@@@2@XZ ; std::_Compressed_pair<std::equal_to<std::basic_string_view<char,std::char_traits<char> > >,float,1>::_Get_first
PUBLIC	?_Get_first@?$_Compressed_pair@U?$hash@V?$basic_string_view@DU?$char_traits@D@std@@@std@@@std@@V?$_Compressed_pair@U?$equal_to@V?$basic_string_view@DU?$char_traits@D@std@@@std@@@std@@M$00@2@$00@std@@QEBAAEBU?$hash@V?$basic_string_view@DU?$char_traits@D@std@@@std@@@2@XZ ; std::_Compressed_pair<std::hash<std::basic_string_view<char,std::char_traits<char> > >,std::_Compressed_pair<std::equal_to<std::basic_string_view<char,std::char_traits<char> > >,float,1>,1>::_Get_first
PUBLIC	??0?$allocator@U?$pair@$$CBV?$basic_string_view@DU?$char_traits@D@std@@@std@@V?$unordered_map@V?$basic_string_view@DU?$char_traits@D@std@@@std@@V?$function@$$A6AHPEAUlua_State@@PEAVInstance@@@Z@2@U?$hash@V?$basic_string_view@DU?$char_traits@D@std@@@std@@@2@U?$equal_to@V?$basic_string_view@DU?$char_traits@D@std@@@std@@@2@V?$allocator@U?$pair@$$CBV?$basic_string_view@DU?$char_traits@D@std@@@std@@V?$function@$$A6AHPEAUlua_State@@PEAVInstance@@@Z@2@@std@@@2@@2@@std@@@std@@QEAA@XZ ; std::allocator<std::pair<std::basic_string_view<char,std::char_traits<char> > const ,std::unordered_map<std::basic_string_view<char,std::char_traits<char> >,std::function<int __cdecl(lua_State *,Instance *)>,std::hash<std::basic_string_view<char,std::char_traits<char> > >,std::equal_to<std::basic_string_view<char,std::char_traits<char> > >,std::allocator<std::pair<std::basic_string_view<char,std::char_traits<char> > const ,std::function<int __cdecl(lua_State *,Instance *)> > > > > >::allocator<std::pair<std::basic_string_view<char,std::char_traits<char> > const ,std::unordered_map<std::basic_string_view<char,std::char_traits<char> >,std::function<int __cdecl(lua_State *,Instance *)>,std::hash<std::basic_string_view<char,std::char_traits<char> > >,std::equal_to<std::basic_string_view<char,std::char_traits<char> > >,std::allocator<std::pair<std::basic_string_view<char,std::char_traits<char> > const ,std::function<int __cdecl(lua_State *,Instance *)> > > > > >
PUBLIC	??0?$_Umap_traits@V?$basic_string_view@DU?$char_traits@D@std@@@std@@V?$unordered_map@V?$basic_string_view@DU?$char_traits@D@std@@@std@@V?$function@$$A6AHPEAUlua_State@@PEAVInstance@@@Z@2@U?$hash@V?$basic_string_view@DU?$char_traits@D@std@@@std@@@2@U?$equal_to@V?$basic_string_view@DU?$char_traits@D@std@@@std@@@2@V?$allocator@U?$pair@$$CBV?$basic_string_view@DU?$char_traits@D@std@@@std@@V?$function@$$A6AHPEAUlua_State@@PEAVInstance@@@Z@2@@std@@@2@@2@V?$_Uhash_compare@V?$basic_string_view@DU?$char_traits@D@std@@@std@@U?$hash@V?$basic_string_view@DU?$char_traits@D@std@@@std@@@2@U?$equal_to@V?$basic_string_view@DU?$char_traits@D@std@@@std@@@2@@2@V?$allocator@U?$pair@$$CBV?$basic_string_view@DU?$char_traits@D@std@@@std@@V?$unordered_map@V?$basic_string_view@DU?$char_traits@D@std@@@std@@V?$function@$$A6AHPEAUlua_State@@PEAVInstance@@@Z@2@U?$hash@V?$basic_string_view@DU?$char_traits@D@std@@@std@@@2@U?$equal_to@V?$basic_string_view@DU?$char_traits@D@std@@@std@@@2@V?$allocator@U?$pair@$$CBV?$basic_string_view@DU?$char_traits@D@std@@@std@@V?$function@$$A6AHPEAUlua_State@@PEAVInstance@@@Z@2@@std@@@2@@2@@std@@@2@$0A@@std@@QEAA@AEBV?$_Uhash_compare@V?$basic_string_view@DU?$char_traits@D@std@@@std@@U?$hash@V?$basic_string_view@DU?$char_traits@D@std@@@std@@@2@U?$equal_to@V?$basic_string_view@DU?$char_traits@D@std@@@std@@@2@@1@@Z ; std::_Umap_traits<std::basic_string_view<char,std::char_traits<char> >,std::unordered_map<std::basic_string_view<char,std::char_traits<char> >,std::function<int __cdecl(lua_State *,Instance *)>,std::hash<std::basic_string_view<char,std::char_traits<char> > >,std::equal_to<std::basic_string_view<char,std::char_traits<char> > >,std::allocator<std::pair<std::basic_string_view<char,std::char_traits<char> > const ,std::function<int __cdecl(lua_State *,Instance *)> > > >,std::_Uhash_compare<std::basic_string_view<char,std::char_traits<char> >,std::hash<std::basic_string_view<char,std::char_traits<char> > >,std::equal_to<std::basic_string_view<char,std::char_traits<char> > > >,std::allocator<std::pair<std::basic_string_view<char,std::char_traits<char> > const ,std::unordered_map<std::basic_string_view<char,std::char_traits<char> >,std::function<int __cdecl(lua_State *,Instance *)>,std::hash<std::basic_string_view<char,std::char_traits<char> > >,std::equal_to<std::basic_string_view<char,std::char_traits<char> > >,std::allocator<std::pair<std::basic_string_view<char,std::char_traits<char> > const ,std::function<int __cdecl(lua_State *,Instance *)> > > > > >,0>::_Umap_traits<std::basic_string_view<char,std::char_traits<char> >,std::unordered_map<std::basic_string_view<char,std::char_traits<char> >,std::function<int __cdecl(lua_State *,Instance *)>,std::hash<std::basic_string_view<char,std::char_traits<char> > >,std::equal_to<std::basic_string_view<char,std::char_traits<char> > >,std::allocator<std::pair<std::basic_string_view<char,std::char_traits<char> > const ,std::function<int __cdecl(lua_State *,Instance *)> > > >,std::_Uhash_compare<std::basic_string_view<char,std::char_traits<char> >,std::hash<std::basic_string_view<char,std::char_traits<char> > >,std::equal_to<std::basic_string_view<char,std::char_traits<char> > > >,std::allocator<std::pair<std::basic_string_view<char,std::char_traits<char> > const ,std::unordered_map<std::basic_string_view<char,std::char_traits<char> >,std::function<int __cdecl(lua_State *,Instance *)>,std::hash<std::basic_string_view<char,std::char_traits<char> > >,std::equal_to<std::basic_string_view<char,std::char_traits<char> > >,std::allocator<std::pair<std::basic_string_view<char,std::char_traits<char> > const ,std::function<int __cdecl(lua_State *,Instance *)> > > > > >,0>
PUBLIC	?deallocate@?$allocator@U?$_List_node@U?$pair@$$CBV?$basic_string_view@DU?$char_traits@D@std@@@std@@V?$unordered_map@V?$basic_string_view@DU?$char_traits@D@std@@@std@@V?$function@$$A6AHPEAUlua_State@@PEAVInstance@@@Z@2@U?$hash@V?$basic_string_view@DU?$char_traits@D@std@@@std@@@2@U?$equal_to@V?$basic_string_view@DU?$char_traits@D@std@@@std@@@2@V?$allocator@U?$pair@$$CBV?$basic_string_view@DU?$char_traits@D@std@@@std@@V?$function@$$A6AHPEAUlua_State@@PEAVInstance@@@Z@2@@std@@@2@@2@@std@@PEAX@std@@@std@@QEAAXQEAU?$_List_node@U?$pair@$$CBV?$basic_string_view@DU?$char_traits@D@std@@@std@@V?$unordered_map@V?$basic_string_view@DU?$char_traits@D@std@@@std@@V?$function@$$A6AHPEAUlua_State@@PEAVInstance@@@Z@2@U?$hash@V?$basic_string_view@DU?$char_traits@D@std@@@std@@@2@U?$equal_to@V?$basic_string_view@DU?$char_traits@D@std@@@std@@@2@V?$allocator@U?$pair@$$CBV?$basic_string_view@DU?$char_traits@D@std@@@std@@V?$function@$$A6AHPEAUlua_State@@PEAVInstance@@@Z@2@@std@@@2@@2@@std@@PEAX@2@_K@Z ; std::allocator<std::_List_node<std::pair<std::basic_string_view<char,std::char_traits<char> > const ,std::unordered_map<std::basic_string_view<char,std::char_traits<char> >,std::function<int __cdecl(lua_State *,Instance *)>,std::hash<std::basic_string_view<char,std::char_traits<char> > >,std::equal_to<std::basic_string_view<char,std::char_traits<char> > >,std::allocator<std::pair<std::basic_string_view<char,std::char_traits<char> > const ,std::function<int __cdecl(lua_State *,Instance *)> > > > >,void *> >::deallocate
PUBLIC	?allocate@?$allocator@U?$_List_node@U?$pair@$$CBV?$basic_string_view@DU?$char_traits@D@std@@@std@@V?$unordered_map@V?$basic_string_view@DU?$char_traits@D@std@@@std@@V?$function@$$A6AHPEAUlua_State@@PEAVInstance@@@Z@2@U?$hash@V?$basic_string_view@DU?$char_traits@D@std@@@std@@@2@U?$equal_to@V?$basic_string_view@DU?$char_traits@D@std@@@std@@@2@V?$allocator@U?$pair@$$CBV?$basic_string_view@DU?$char_traits@D@std@@@std@@V?$function@$$A6AHPEAUlua_State@@PEAVInstance@@@Z@2@@std@@@2@@2@@std@@PEAX@std@@@std@@QEAAPEAU?$_List_node@U?$pair@$$CBV?$basic_string_view@DU?$char_traits@D@std@@@std@@V?$unordered_map@V?$basic_string_view@DU?$char_traits@D@std@@@std@@V?$function@$$A6AHPEAUlua_State@@PEAVInstance@@@Z@2@U?$hash@V?$basic_string_view@DU?$char_traits@D@std@@@std@@@2@U?$equal_to@V?$basic_string_view@DU?$char_traits@D@std@@@std@@@2@V?$allocator@U?$pair@$$CBV?$basic_string_view@DU?$char_traits@D@std@@@std@@V?$function@$$A6AHPEAUlua_State@@PEAVInstance@@@Z@2@@std@@@2@@2@@std@@PEAX@2@_K@Z ; std::allocator<std::_List_node<std::pair<std::basic_string_view<char,std::char_traits<char> > const ,std::unordered_map<std::basic_string_view<char,std::char_traits<char> >,std::function<int __cdecl(lua_State *,Instance *)>,std::hash<std::basic_string_view<char,std::char_traits<char> > >,std::equal_to<std::basic_string_view<char,std::char_traits<char> > >,std::allocator<std::pair<std::basic_string_view<char,std::char_traits<char> > const ,std::function<int __cdecl(lua_State *,Instance *)> > > > >,void *> >::allocate
PUBLIC	?deallocate@?$_Default_allocator_traits@V?$allocator@U?$_List_node@U?$pair@$$CBV?$basic_string_view@DU?$char_traits@D@std@@@std@@V?$unordered_map@V?$basic_string_view@DU?$char_traits@D@std@@@std@@V?$function@$$A6AHPEAUlua_State@@PEAVInstance@@@Z@2@U?$hash@V?$basic_string_view@DU?$char_traits@D@std@@@std@@@2@U?$equal_to@V?$basic_string_view@DU?$char_traits@D@std@@@std@@@2@V?$allocator@U?$pair@$$CBV?$basic_string_view@DU?$char_traits@D@std@@@std@@V?$function@$$A6AHPEAUlua_State@@PEAVInstance@@@Z@2@@std@@@2@@2@@std@@PEAX@std@@@std@@@std@@SAXAEAV?$allocator@U?$_List_node@U?$pair@$$CBV?$basic_string_view@DU?$char_traits@D@std@@@std@@V?$unordered_map@V?$basic_string_view@DU?$char_traits@D@std@@@std@@V?$function@$$A6AHPEAUlua_State@@PEAVInstance@@@Z@2@U?$hash@V?$basic_string_view@DU?$char_traits@D@std@@@std@@@2@U?$equal_to@V?$basic_string_view@DU?$char_traits@D@std@@@std@@@2@V?$allocator@U?$pair@$$CBV?$basic_string_view@DU?$char_traits@D@std@@@std@@V?$function@$$A6AHPEAUlua_State@@PEAVInstance@@@Z@2@@std@@@2@@2@@std@@PEAX@std@@@2@QEAU?$_List_node@U?$pair@$$CBV?$basic_string_view@DU?$char_traits@D@std@@@std@@V?$unordered_map@V?$basic_string_view@DU?$char_traits@D@std@@@std@@V?$function@$$A6AHPEAUlua_State@@PEAVInstance@@@Z@2@U?$hash@V?$basic_string_view@DU?$char_traits@D@std@@@std@@@2@U?$equal_to@V?$basic_string_view@DU?$char_traits@D@std@@@std@@@2@V?$allocator@U?$pair@$$CBV?$basic_string_view@DU?$char_traits@D@std@@@std@@V?$function@$$A6AHPEAUlua_State@@PEAVInstance@@@Z@2@@std@@@2@@2@@std@@PEAX@2@_K@Z ; std::_Default_allocator_traits<std::allocator<std::_List_node<std::pair<std::basic_string_view<char,std::char_traits<char> > const ,std::unordered_map<std::basic_string_view<char,std::char_traits<char> >,std::function<int __cdecl(lua_State *,Instance *)>,std::hash<std::basic_string_view<char,std::char_traits<char> > >,std::equal_to<std::basic_string_view<char,std::char_traits<char> > >,std::allocator<std::pair<std::basic_string_view<char,std::char_traits<char> > const ,std::function<int __cdecl(lua_State *,Instance *)> > > > >,void *> > >::deallocate
PUBLIC	?max_size@?$_Default_allocator_traits@V?$allocator@U?$_List_node@U?$pair@$$CBV?$basic_string_view@DU?$char_traits@D@std@@@std@@V?$unordered_map@V?$basic_string_view@DU?$char_traits@D@std@@@std@@V?$function@$$A6AHPEAUlua_State@@PEAVInstance@@@Z@2@U?$hash@V?$basic_string_view@DU?$char_traits@D@std@@@std@@@2@U?$equal_to@V?$basic_string_view@DU?$char_traits@D@std@@@std@@@2@V?$allocator@U?$pair@$$CBV?$basic_string_view@DU?$char_traits@D@std@@@std@@V?$function@$$A6AHPEAUlua_State@@PEAVInstance@@@Z@2@@std@@@2@@2@@std@@PEAX@std@@@std@@@std@@SA_KAEBV?$allocator@U?$_List_node@U?$pair@$$CBV?$basic_string_view@DU?$char_traits@D@std@@@std@@V?$unordered_map@V?$basic_string_view@DU?$char_traits@D@std@@@std@@V?$function@$$A6AHPEAUlua_State@@PEAVInstance@@@Z@2@U?$hash@V?$basic_string_view@DU?$char_traits@D@std@@@std@@@2@U?$equal_to@V?$basic_string_view@DU?$char_traits@D@std@@@std@@@2@V?$allocator@U?$pair@$$CBV?$basic_string_view@DU?$char_traits@D@std@@@std@@V?$function@$$A6AHPEAUlua_State@@PEAVInstance@@@Z@2@@std@@@2@@2@@std@@PEAX@std@@@2@@Z ; std::_Default_allocator_traits<std::allocator<std::_List_node<std::pair<std::basic_string_view<char,std::char_traits<char> > const ,std::unordered_map<std::basic_string_view<char,std::char_traits<char> >,std::function<int __cdecl(lua_State *,Instance *)>,std::hash<std::basic_string_view<char,std::char_traits<char> > >,std::equal_to<std::basic_string_view<char,std::char_traits<char> > >,std::allocator<std::pair<std::basic_string_view<char,std::char_traits<char> > const ,std::function<int __cdecl(lua_State *,Instance *)> > > > >,void *> > >::max_size
PUBLIC	??0?$list@U?$pair@$$CBV?$basic_string_view@DU?$char_traits@D@std@@@std@@V?$unordered_map@V?$basic_string_view@DU?$char_traits@D@std@@@std@@V?$function@$$A6AHPEAUlua_State@@PEAVInstance@@@Z@2@U?$hash@V?$basic_string_view@DU?$char_traits@D@std@@@std@@@2@U?$equal_to@V?$basic_string_view@DU?$char_traits@D@std@@@std@@@2@V?$allocator@U?$pair@$$CBV?$basic_string_view@DU?$char_traits@D@std@@@std@@V?$function@$$A6AHPEAUlua_State@@PEAVInstance@@@Z@2@@std@@@2@@2@@std@@V?$allocator@U?$pair@$$CBV?$basic_string_view@DU?$char_traits@D@std@@@std@@V?$unordered_map@V?$basic_string_view@DU?$char_traits@D@std@@@std@@V?$function@$$A6AHPEAUlua_State@@PEAVInstance@@@Z@2@U?$hash@V?$basic_string_view@DU?$char_traits@D@std@@@std@@@2@U?$equal_to@V?$basic_string_view@DU?$char_traits@D@std@@@std@@@2@V?$allocator@U?$pair@$$CBV?$basic_string_view@DU?$char_traits@D@std@@@std@@V?$function@$$A6AHPEAUlua_State@@PEAVInstance@@@Z@2@@std@@@2@@2@@std@@@2@@std@@QEAA@AEBV?$allocator@U?$pair@$$CBV?$basic_string_view@DU?$char_traits@D@std@@@std@@V?$unordered_map@V?$basic_string_view@DU?$char_traits@D@std@@@std@@V?$function@$$A6AHPEAUlua_State@@PEAVInstance@@@Z@2@U?$hash@V?$basic_string_view@DU?$char_traits@D@std@@@std@@@2@U?$equal_to@V?$basic_string_view@DU?$char_traits@D@std@@@std@@@2@V?$allocator@U?$pair@$$CBV?$basic_string_view@DU?$char_traits@D@std@@@std@@V?$function@$$A6AHPEAUlua_State@@PEAVInstance@@@Z@2@@std@@@2@@2@@std@@@1@@Z ; std::list<std::pair<std::basic_string_view<char,std::char_traits<char> > const ,std::unordered_map<std::basic_string_view<char,std::char_traits<char> >,std::function<int __cdecl(lua_State *,Instance *)>,std::hash<std::basic_string_view<char,std::char_traits<char> > >,std::equal_to<std::basic_string_view<char,std::char_traits<char> > >,std::allocator<std::pair<std::basic_string_view<char,std::char_traits<char> > const ,std::function<int __cdecl(lua_State *,Instance *)> > > > >,std::allocator<std::pair<std::basic_string_view<char,std::char_traits<char> > const ,std::unordered_map<std::basic_string_view<char,std::char_traits<char> >,std::function<int __cdecl(lua_State *,Instance *)>,std::hash<std::basic_string_view<char,std::char_traits<char> > >,std::equal_to<std::basic_string_view<char,std::char_traits<char> > >,std::allocator<std::pair<std::basic_string_view<char,std::char_traits<char> > const ,std::function<int __cdecl(lua_State *,Instance *)> > > > > > >::list<std::pair<std::basic_string_view<char,std::char_traits<char> > const ,std::unordered_map<std::basic_string_view<char,std::char_traits<char> >,std::function<int __cdecl(lua_State *,Instance *)>,std::hash<std::basic_string_view<char,std::char_traits<char> > >,std::equal_to<std::basic_string_view<char,std::char_traits<char> > >,std::allocator<std::pair<std::basic_string_view<char,std::char_traits<char> > const ,std::function<int __cdecl(lua_State *,Instance *)> > > > >,std::allocator<std::pair<std::basic_string_view<char,std::char_traits<char> > const ,std::unordered_map<std::basic_string_view<char,std::char_traits<char> >,std::function<int __cdecl(lua_State *,Instance *)>,std::hash<std::basic_string_view<char,std::char_traits<char> > >,std::equal_to<std::basic_string_view<char,std::char_traits<char> > >,std::allocator<std::pair<std::basic_string_view<char,std::char_traits<char> > const ,std::function<int __cdecl(lua_State *,Instance *)> > > > > > >
PUBLIC	??1?$list@U?$pair@$$CBV?$basic_string_view@DU?$char_traits@D@std@@@std@@V?$unordered_map@V?$basic_string_view@DU?$char_traits@D@std@@@std@@V?$function@$$A6AHPEAUlua_State@@PEAVInstance@@@Z@2@U?$hash@V?$basic_string_view@DU?$char_traits@D@std@@@std@@@2@U?$equal_to@V?$basic_string_view@DU?$char_traits@D@std@@@std@@@2@V?$allocator@U?$pair@$$CBV?$basic_string_view@DU?$char_traits@D@std@@@std@@V?$function@$$A6AHPEAUlua_State@@PEAVInstance@@@Z@2@@std@@@2@@2@@std@@V?$allocator@U?$pair@$$CBV?$basic_string_view@DU?$char_traits@D@std@@@std@@V?$unordered_map@V?$basic_string_view@DU?$char_traits@D@std@@@std@@V?$function@$$A6AHPEAUlua_State@@PEAVInstance@@@Z@2@U?$hash@V?$basic_string_view@DU?$char_traits@D@std@@@std@@@2@U?$equal_to@V?$basic_string_view@DU?$char_traits@D@std@@@std@@@2@V?$allocator@U?$pair@$$CBV?$basic_string_view@DU?$char_traits@D@std@@@std@@V?$function@$$A6AHPEAUlua_State@@PEAVInstance@@@Z@2@@std@@@2@@2@@std@@@2@@std@@QEAA@XZ ; std::list<std::pair<std::basic_string_view<char,std::char_traits<char> > const ,std::unordered_map<std::basic_string_view<char,std::char_traits<char> >,std::function<int __cdecl(lua_State *,Instance *)>,std::hash<std::basic_string_view<char,std::char_traits<char> > >,std::equal_to<std::basic_string_view<char,std::char_traits<char> > >,std::allocator<std::pair<std::basic_string_view<char,std::char_traits<char> > const ,std::function<int __cdecl(lua_State *,Instance *)> > > > >,std::allocator<std::pair<std::basic_string_view<char,std::char_traits<char> > const ,std::unordered_map<std::basic_string_view<char,std::char_traits<char> >,std::function<int __cdecl(lua_State *,Instance *)>,std::hash<std::basic_string_view<char,std::char_traits<char> > >,std::equal_to<std::basic_string_view<char,std::char_traits<char> > >,std::allocator<std::pair<std::basic_string_view<char,std::char_traits<char> > const ,std::function<int __cdecl(lua_State *,Instance *)> > > > > > >::~list<std::pair<std::basic_string_view<char,std::char_traits<char> > const ,std::unordered_map<std::basic_string_view<char,std::char_traits<char> >,std::function<int __cdecl(lua_State *,Instance *)>,std::hash<std::basic_string_view<char,std::char_traits<char> > >,std::equal_to<std::basic_string_view<char,std::char_traits<char> > >,std::allocator<std::pair<std::basic_string_view<char,std::char_traits<char> > const ,std::function<int __cdecl(lua_State *,Instance *)> > > > >,std::allocator<std::pair<std::basic_string_view<char,std::char_traits<char> > const ,std::unordered_map<std::basic_string_view<char,std::char_traits<char> >,std::function<int __cdecl(lua_State *,Instance *)>,std::hash<std::basic_string_view<char,std::char_traits<char> > >,std::equal_to<std::basic_string_view<char,std::char_traits<char> > >,std::allocator<std::pair<std::basic_string_view<char,std::char_traits<char> > const ,std::function<int __cdecl(lua_State *,Instance *)> > > > > > >
PUBLIC	?_Unchecked_begin@?$list@U?$pair@$$CBV?$basic_string_view@DU?$char_traits@D@std@@@std@@V?$unordered_map@V?$basic_string_view@DU?$char_traits@D@std@@@std@@V?$function@$$A6AHPEAUlua_State@@PEAVInstance@@@Z@2@U?$hash@V?$basic_string_view@DU?$char_traits@D@std@@@std@@@2@U?$equal_to@V?$basic_string_view@DU?$char_traits@D@std@@@std@@@2@V?$allocator@U?$pair@$$CBV?$basic_string_view@DU?$char_traits@D@std@@@std@@V?$function@$$A6AHPEAUlua_State@@PEAVInstance@@@Z@2@@std@@@2@@2@@std@@V?$allocator@U?$pair@$$CBV?$basic_string_view@DU?$char_traits@D@std@@@std@@V?$unordered_map@V?$basic_string_view@DU?$char_traits@D@std@@@std@@V?$function@$$A6AHPEAUlua_State@@PEAVInstance@@@Z@2@U?$hash@V?$basic_string_view@DU?$char_traits@D@std@@@std@@@2@U?$equal_to@V?$basic_string_view@DU?$char_traits@D@std@@@std@@@2@V?$allocator@U?$pair@$$CBV?$basic_string_view@DU?$char_traits@D@std@@@std@@V?$function@$$A6AHPEAUlua_State@@PEAVInstance@@@Z@2@@std@@@2@@2@@std@@@2@@std@@QEAA?AV?$_List_unchecked_iterator@V?$_List_val@U?$_List_simple_types@U?$pair@$$CBV?$basic_string_view@DU?$char_traits@D@std@@@std@@V?$unordered_map@V?$basic_string_view@DU?$char_traits@D@std@@@std@@V?$function@$$A6AHPEAUlua_State@@PEAVInstance@@@Z@2@U?$hash@V?$basic_string_view@DU?$char_traits@D@std@@@std@@@2@U?$equal_to@V?$basic_string_view@DU?$char_traits@D@std@@@std@@@2@V?$allocator@U?$pair@$$CBV?$basic_string_view@DU?$char_traits@D@std@@@std@@V?$function@$$A6AHPEAUlua_State@@PEAVInstance@@@Z@2@@std@@@2@@2@@std@@@std@@@std@@@2@XZ ; std::list<std::pair<std::basic_string_view<char,std::char_traits<char> > const ,std::unordered_map<std::basic_string_view<char,std::char_traits<char> >,std::function<int __cdecl(lua_State *,Instance *)>,std::hash<std::basic_string_view<char,std::char_traits<char> > >,std::equal_to<std::basic_string_view<char,std::char_traits<char> > >,std::allocator<std::pair<std::basic_string_view<char,std::char_traits<char> > const ,std::function<int __cdecl(lua_State *,Instance *)> > > > >,std::allocator<std::pair<std::basic_string_view<char,std::char_traits<char> > const ,std::unordered_map<std::basic_string_view<char,std::char_traits<char> >,std::function<int __cdecl(lua_State *,Instance *)>,std::hash<std::basic_string_view<char,std::char_traits<char> > >,std::equal_to<std::basic_string_view<char,std::char_traits<char> > >,std::allocator<std::pair<std::basic_string_view<char,std::char_traits<char> > const ,std::function<int __cdecl(lua_State *,Instance *)> > > > > > >::_Unchecked_begin
PUBLIC	?_Unchecked_end@?$list@U?$pair@$$CBV?$basic_string_view@DU?$char_traits@D@std@@@std@@V?$unordered_map@V?$basic_string_view@DU?$char_traits@D@std@@@std@@V?$function@$$A6AHPEAUlua_State@@PEAVInstance@@@Z@2@U?$hash@V?$basic_string_view@DU?$char_traits@D@std@@@std@@@2@U?$equal_to@V?$basic_string_view@DU?$char_traits@D@std@@@std@@@2@V?$allocator@U?$pair@$$CBV?$basic_string_view@DU?$char_traits@D@std@@@std@@V?$function@$$A6AHPEAUlua_State@@PEAVInstance@@@Z@2@@std@@@2@@2@@std@@V?$allocator@U?$pair@$$CBV?$basic_string_view@DU?$char_traits@D@std@@@std@@V?$unordered_map@V?$basic_string_view@DU?$char_traits@D@std@@@std@@V?$function@$$A6AHPEAUlua_State@@PEAVInstance@@@Z@2@U?$hash@V?$basic_string_view@DU?$char_traits@D@std@@@std@@@2@U?$equal_to@V?$basic_string_view@DU?$char_traits@D@std@@@std@@@2@V?$allocator@U?$pair@$$CBV?$basic_string_view@DU?$char_traits@D@std@@@std@@V?$function@$$A6AHPEAUlua_State@@PEAVInstance@@@Z@2@@std@@@2@@2@@std@@@2@@std@@QEAA?AV?$_List_unchecked_iterator@V?$_List_val@U?$_List_simple_types@U?$pair@$$CBV?$basic_string_view@DU?$char_traits@D@std@@@std@@V?$unordered_map@V?$basic_string_view@DU?$char_traits@D@std@@@std@@V?$function@$$A6AHPEAUlua_State@@PEAVInstance@@@Z@2@U?$hash@V?$basic_string_view@DU?$char_traits@D@std@@@std@@@2@U?$equal_to@V?$basic_string_view@DU?$char_traits@D@std@@@std@@@2@V?$allocator@U?$pair@$$CBV?$basic_string_view@DU?$char_traits@D@std@@@std@@V?$function@$$A6AHPEAUlua_State@@PEAVInstance@@@Z@2@@std@@@2@@2@@std@@@std@@@std@@@2@XZ ; std::list<std::pair<std::basic_string_view<char,std::char_traits<char> > const ,std::unordered_map<std::basic_string_view<char,std::char_traits<char> >,std::function<int __cdecl(lua_State *,Instance *)>,std::hash<std::basic_string_view<char,std::char_traits<char> > >,std::equal_to<std::basic_string_view<char,std::char_traits<char> > >,std::allocator<std::pair<std::basic_string_view<char,std::char_traits<char> > const ,std::function<int __cdecl(lua_State *,Instance *)> > > > >,std::allocator<std::pair<std::basic_string_view<char,std::char_traits<char> > const ,std::unordered_map<std::basic_string_view<char,std::char_traits<char> >,std::function<int __cdecl(lua_State *,Instance *)>,std::hash<std::basic_string_view<char,std::char_traits<char> > >,std::equal_to<std::basic_string_view<char,std::char_traits<char> > >,std::allocator<std::pair<std::basic_string_view<char,std::char_traits<char> > const ,std::function<int __cdecl(lua_State *,Instance *)> > > > > > >::_Unchecked_end
PUBLIC	?max_size@?$list@U?$pair@$$CBV?$basic_string_view@DU?$char_traits@D@std@@@std@@V?$unordered_map@V?$basic_string_view@DU?$char_traits@D@std@@@std@@V?$function@$$A6AHPEAUlua_State@@PEAVInstance@@@Z@2@U?$hash@V?$basic_string_view@DU?$char_traits@D@std@@@std@@@2@U?$equal_to@V?$basic_string_view@DU?$char_traits@D@std@@@std@@@2@V?$allocator@U?$pair@$$CBV?$basic_string_view@DU?$char_traits@D@std@@@std@@V?$function@$$A6AHPEAUlua_State@@PEAVInstance@@@Z@2@@std@@@2@@2@@std@@V?$allocator@U?$pair@$$CBV?$basic_string_view@DU?$char_traits@D@std@@@std@@V?$unordered_map@V?$basic_string_view@DU?$char_traits@D@std@@@std@@V?$function@$$A6AHPEAUlua_State@@PEAVInstance@@@Z@2@U?$hash@V?$basic_string_view@DU?$char_traits@D@std@@@std@@@2@U?$equal_to@V?$basic_string_view@DU?$char_traits@D@std@@@std@@@2@V?$allocator@U?$pair@$$CBV?$basic_string_view@DU?$char_traits@D@std@@@std@@V?$function@$$A6AHPEAUlua_State@@PEAVInstance@@@Z@2@@std@@@2@@2@@std@@@2@@std@@QEBA_KXZ ; std::list<std::pair<std::basic_string_view<char,std::char_traits<char> > const ,std::unordered_map<std::basic_string_view<char,std::char_traits<char> >,std::function<int __cdecl(lua_State *,Instance *)>,std::hash<std::basic_string_view<char,std::char_traits<char> > >,std::equal_to<std::basic_string_view<char,std::char_traits<char> > >,std::allocator<std::pair<std::basic_string_view<char,std::char_traits<char> > const ,std::function<int __cdecl(lua_State *,Instance *)> > > > >,std::allocator<std::pair<std::basic_string_view<char,std::char_traits<char> > const ,std::unordered_map<std::basic_string_view<char,std::char_traits<char> >,std::function<int __cdecl(lua_State *,Instance *)>,std::hash<std::basic_string_view<char,std::char_traits<char> > >,std::equal_to<std::basic_string_view<char,std::char_traits<char> > >,std::allocator<std::pair<std::basic_string_view<char,std::char_traits<char> > const ,std::function<int __cdecl(lua_State *,Instance *)> > > > > > >::max_size
PUBLIC	?clear@?$list@U?$pair@$$CBV?$basic_string_view@DU?$char_traits@D@std@@@std@@V?$unordered_map@V?$basic_string_view@DU?$char_traits@D@std@@@std@@V?$function@$$A6AHPEAUlua_State@@PEAVInstance@@@Z@2@U?$hash@V?$basic_string_view@DU?$char_traits@D@std@@@std@@@2@U?$equal_to@V?$basic_string_view@DU?$char_traits@D@std@@@std@@@2@V?$allocator@U?$pair@$$CBV?$basic_string_view@DU?$char_traits@D@std@@@std@@V?$function@$$A6AHPEAUlua_State@@PEAVInstance@@@Z@2@@std@@@2@@2@@std@@V?$allocator@U?$pair@$$CBV?$basic_string_view@DU?$char_traits@D@std@@@std@@V?$unordered_map@V?$basic_string_view@DU?$char_traits@D@std@@@std@@V?$function@$$A6AHPEAUlua_State@@PEAVInstance@@@Z@2@U?$hash@V?$basic_string_view@DU?$char_traits@D@std@@@std@@@2@U?$equal_to@V?$basic_string_view@DU?$char_traits@D@std@@@std@@@2@V?$allocator@U?$pair@$$CBV?$basic_string_view@DU?$char_traits@D@std@@@std@@V?$function@$$A6AHPEAUlua_State@@PEAVInstance@@@Z@2@@std@@@2@@2@@std@@@2@@std@@QEAAXXZ ; std::list<std::pair<std::basic_string_view<char,std::char_traits<char> > const ,std::unordered_map<std::basic_string_view<char,std::char_traits<char> >,std::function<int __cdecl(lua_State *,Instance *)>,std::hash<std::basic_string_view<char,std::char_traits<char> > >,std::equal_to<std::basic_string_view<char,std::char_traits<char> > >,std::allocator<std::pair<std::basic_string_view<char,std::char_traits<char> > const ,std::function<int __cdecl(lua_State *,Instance *)> > > > >,std::allocator<std::pair<std::basic_string_view<char,std::char_traits<char> > const ,std::unordered_map<std::basic_string_view<char,std::char_traits<char> >,std::function<int __cdecl(lua_State *,Instance *)>,std::hash<std::basic_string_view<char,std::char_traits<char> > >,std::equal_to<std::basic_string_view<char,std::char_traits<char> > >,std::allocator<std::pair<std::basic_string_view<char,std::char_traits<char> > const ,std::function<int __cdecl(lua_State *,Instance *)> > > > > > >::clear
PUBLIC	?_Tidy@?$list@U?$pair@$$CBV?$basic_string_view@DU?$char_traits@D@std@@@std@@V?$unordered_map@V?$basic_string_view@DU?$char_traits@D@std@@@std@@V?$function@$$A6AHPEAUlua_State@@PEAVInstance@@@Z@2@U?$hash@V?$basic_string_view@DU?$char_traits@D@std@@@std@@@2@U?$equal_to@V?$basic_string_view@DU?$char_traits@D@std@@@std@@@2@V?$allocator@U?$pair@$$CBV?$basic_string_view@DU?$char_traits@D@std@@@std@@V?$function@$$A6AHPEAUlua_State@@PEAVInstance@@@Z@2@@std@@@2@@2@@std@@V?$allocator@U?$pair@$$CBV?$basic_string_view@DU?$char_traits@D@std@@@std@@V?$unordered_map@V?$basic_string_view@DU?$char_traits@D@std@@@std@@V?$function@$$A6AHPEAUlua_State@@PEAVInstance@@@Z@2@U?$hash@V?$basic_string_view@DU?$char_traits@D@std@@@std@@@2@U?$equal_to@V?$basic_string_view@DU?$char_traits@D@std@@@std@@@2@V?$allocator@U?$pair@$$CBV?$basic_string_view@DU?$char_traits@D@std@@@std@@V?$function@$$A6AHPEAUlua_State@@PEAVInstance@@@Z@2@@std@@@2@@2@@std@@@2@@std@@AEAAXXZ ; std::list<std::pair<std::basic_string_view<char,std::char_traits<char> > const ,std::unordered_map<std::basic_string_view<char,std::char_traits<char> >,std::function<int __cdecl(lua_State *,Instance *)>,std::hash<std::basic_string_view<char,std::char_traits<char> > >,std::equal_to<std::basic_string_view<char,std::char_traits<char> > >,std::allocator<std::pair<std::basic_string_view<char,std::char_traits<char> > const ,std::function<int __cdecl(lua_State *,Instance *)> > > > >,std::allocator<std::pair<std::basic_string_view<char,std::char_traits<char> > const ,std::unordered_map<std::basic_string_view<char,std::char_traits<char> >,std::function<int __cdecl(lua_State *,Instance *)>,std::hash<std::basic_string_view<char,std::char_traits<char> > >,std::equal_to<std::basic_string_view<char,std::char_traits<char> > >,std::allocator<std::pair<std::basic_string_view<char,std::char_traits<char> > const ,std::function<int __cdecl(lua_State *,Instance *)> > > > > > >::_Tidy
PUBLIC	?_Alloc_sentinel_and_proxy@?$list@U?$pair@$$CBV?$basic_string_view@DU?$char_traits@D@std@@@std@@V?$unordered_map@V?$basic_string_view@DU?$char_traits@D@std@@@std@@V?$function@$$A6AHPEAUlua_State@@PEAVInstance@@@Z@2@U?$hash@V?$basic_string_view@DU?$char_traits@D@std@@@std@@@2@U?$equal_to@V?$basic_string_view@DU?$char_traits@D@std@@@std@@@2@V?$allocator@U?$pair@$$CBV?$basic_string_view@DU?$char_traits@D@std@@@std@@V?$function@$$A6AHPEAUlua_State@@PEAVInstance@@@Z@2@@std@@@2@@2@@std@@V?$allocator@U?$pair@$$CBV?$basic_string_view@DU?$char_traits@D@std@@@std@@V?$unordered_map@V?$basic_string_view@DU?$char_traits@D@std@@@std@@V?$function@$$A6AHPEAUlua_State@@PEAVInstance@@@Z@2@U?$hash@V?$basic_string_view@DU?$char_traits@D@std@@@std@@@2@U?$equal_to@V?$basic_string_view@DU?$char_traits@D@std@@@std@@@2@V?$allocator@U?$pair@$$CBV?$basic_string_view@DU?$char_traits@D@std@@@std@@V?$function@$$A6AHPEAUlua_State@@PEAVInstance@@@Z@2@@std@@@2@@2@@std@@@2@@std@@AEAAXXZ ; std::list<std::pair<std::basic_string_view<char,std::char_traits<char> > const ,std::unordered_map<std::basic_string_view<char,std::char_traits<char> >,std::function<int __cdecl(lua_State *,Instance *)>,std::hash<std::basic_string_view<char,std::char_traits<char> > >,std::equal_to<std::basic_string_view<char,std::char_traits<char> > >,std::allocator<std::pair<std::basic_string_view<char,std::char_traits<char> > const ,std::function<int __cdecl(lua_State *,Instance *)> > > > >,std::allocator<std::pair<std::basic_string_view<char,std::char_traits<char> > const ,std::unordered_map<std::basic_string_view<char,std::char_traits<char> >,std::function<int __cdecl(lua_State *,Instance *)>,std::hash<std::basic_string_view<char,std::char_traits<char> > >,std::equal_to<std::basic_string_view<char,std::char_traits<char> > >,std::allocator<std::pair<std::basic_string_view<char,std::char_traits<char> > const ,std::function<int __cdecl(lua_State *,Instance *)> > > > > > >::_Alloc_sentinel_and_proxy
PUBLIC	?_Getal@?$list@U?$pair@$$CBV?$basic_string_view@DU?$char_traits@D@std@@@std@@V?$unordered_map@V?$basic_string_view@DU?$char_traits@D@std@@@std@@V?$function@$$A6AHPEAUlua_State@@PEAVInstance@@@Z@2@U?$hash@V?$basic_string_view@DU?$char_traits@D@std@@@std@@@2@U?$equal_to@V?$basic_string_view@DU?$char_traits@D@std@@@std@@@2@V?$allocator@U?$pair@$$CBV?$basic_string_view@DU?$char_traits@D@std@@@std@@V?$function@$$A6AHPEAUlua_State@@PEAVInstance@@@Z@2@@std@@@2@@2@@std@@V?$allocator@U?$pair@$$CBV?$basic_string_view@DU?$char_traits@D@std@@@std@@V?$unordered_map@V?$basic_string_view@DU?$char_traits@D@std@@@std@@V?$function@$$A6AHPEAUlua_State@@PEAVInstance@@@Z@2@U?$hash@V?$basic_string_view@DU?$char_traits@D@std@@@std@@@2@U?$equal_to@V?$basic_string_view@DU?$char_traits@D@std@@@std@@@2@V?$allocator@U?$pair@$$CBV?$basic_string_view@DU?$char_traits@D@std@@@std@@V?$function@$$A6AHPEAUlua_State@@PEAVInstance@@@Z@2@@std@@@2@@2@@std@@@2@@std@@AEAAAEAV?$allocator@U?$_List_node@U?$pair@$$CBV?$basic_string_view@DU?$char_traits@D@std@@@std@@V?$unordered_map@V?$basic_string_view@DU?$char_traits@D@std@@@std@@V?$function@$$A6AHPEAUlua_State@@PEAVInstance@@@Z@2@U?$hash@V?$basic_string_view@DU?$char_traits@D@std@@@std@@@2@U?$equal_to@V?$basic_string_view@DU?$char_traits@D@std@@@std@@@2@V?$allocator@U?$pair@$$CBV?$basic_string_view@DU?$char_traits@D@std@@@std@@V?$function@$$A6AHPEAUlua_State@@PEAVInstance@@@Z@2@@std@@@2@@2@@std@@PEAX@std@@@2@XZ ; std::list<std::pair<std::basic_string_view<char,std::char_traits<char> > const ,std::unordered_map<std::basic_string_view<char,std::char_traits<char> >,std::function<int __cdecl(lua_State *,Instance *)>,std::hash<std::basic_string_view<char,std::char_traits<char> > >,std::equal_to<std::basic_string_view<char,std::char_traits<char> > >,std::allocator<std::pair<std::basic_string_view<char,std::char_traits<char> > const ,std::function<int __cdecl(lua_State *,Instance *)> > > > >,std::allocator<std::pair<std::basic_string_view<char,std::char_traits<char> > const ,std::unordered_map<std::basic_string_view<char,std::char_traits<char> >,std::function<int __cdecl(lua_State *,Instance *)>,std::hash<std::basic_string_view<char,std::char_traits<char> > >,std::equal_to<std::basic_string_view<char,std::char_traits<char> > >,std::allocator<std::pair<std::basic_string_view<char,std::char_traits<char> > const ,std::function<int __cdecl(lua_State *,Instance *)> > > > > > >::_Getal
PUBLIC	?_Getal@?$list@U?$pair@$$CBV?$basic_string_view@DU?$char_traits@D@std@@@std@@V?$unordered_map@V?$basic_string_view@DU?$char_traits@D@std@@@std@@V?$function@$$A6AHPEAUlua_State@@PEAVInstance@@@Z@2@U?$hash@V?$basic_string_view@DU?$char_traits@D@std@@@std@@@2@U?$equal_to@V?$basic_string_view@DU?$char_traits@D@std@@@std@@@2@V?$allocator@U?$pair@$$CBV?$basic_string_view@DU?$char_traits@D@std@@@std@@V?$function@$$A6AHPEAUlua_State@@PEAVInstance@@@Z@2@@std@@@2@@2@@std@@V?$allocator@U?$pair@$$CBV?$basic_string_view@DU?$char_traits@D@std@@@std@@V?$unordered_map@V?$basic_string_view@DU?$char_traits@D@std@@@std@@V?$function@$$A6AHPEAUlua_State@@PEAVInstance@@@Z@2@U?$hash@V?$basic_string_view@DU?$char_traits@D@std@@@std@@@2@U?$equal_to@V?$basic_string_view@DU?$char_traits@D@std@@@std@@@2@V?$allocator@U?$pair@$$CBV?$basic_string_view@DU?$char_traits@D@std@@@std@@V?$function@$$A6AHPEAUlua_State@@PEAVInstance@@@Z@2@@std@@@2@@2@@std@@@2@@std@@AEBAAEBV?$allocator@U?$_List_node@U?$pair@$$CBV?$basic_string_view@DU?$char_traits@D@std@@@std@@V?$unordered_map@V?$basic_string_view@DU?$char_traits@D@std@@@std@@V?$function@$$A6AHPEAUlua_State@@PEAVInstance@@@Z@2@U?$hash@V?$basic_string_view@DU?$char_traits@D@std@@@std@@@2@U?$equal_to@V?$basic_string_view@DU?$char_traits@D@std@@@std@@@2@V?$allocator@U?$pair@$$CBV?$basic_string_view@DU?$char_traits@D@std@@@std@@V?$function@$$A6AHPEAUlua_State@@PEAVInstance@@@Z@2@@std@@@2@@2@@std@@PEAX@std@@@2@XZ ; std::list<std::pair<std::basic_string_view<char,std::char_traits<char> > const ,std::unordered_map<std::basic_string_view<char,std::char_traits<char> >,std::function<int __cdecl(lua_State *,Instance *)>,std::hash<std::basic_string_view<char,std::char_traits<char> > >,std::equal_to<std::basic_string_view<char,std::char_traits<char> > >,std::allocator<std::pair<std::basic_string_view<char,std::char_traits<char> > const ,std::function<int __cdecl(lua_State *,Instance *)> > > > >,std::allocator<std::pair<std::basic_string_view<char,std::char_traits<char> > const ,std::unordered_map<std::basic_string_view<char,std::char_traits<char> >,std::function<int __cdecl(lua_State *,Instance *)>,std::hash<std::basic_string_view<char,std::char_traits<char> > >,std::equal_to<std::basic_string_view<char,std::char_traits<char> > >,std::allocator<std::pair<std::basic_string_view<char,std::char_traits<char> > const ,std::function<int __cdecl(lua_State *,Instance *)> > > > > > >::_Getal
PUBLIC	??0?$_List_val@U?$_List_simple_types@U?$pair@$$CBV?$basic_string_view@DU?$char_traits@D@std@@@std@@V?$unordered_map@V?$basic_string_view@DU?$char_traits@D@std@@@std@@V?$function@$$A6AHPEAUlua_State@@PEAVInstance@@@Z@2@U?$hash@V?$basic_string_view@DU?$char_traits@D@std@@@std@@@2@U?$equal_to@V?$basic_string_view@DU?$char_traits@D@std@@@std@@@2@V?$allocator@U?$pair@$$CBV?$basic_string_view@DU?$char_traits@D@std@@@std@@V?$function@$$A6AHPEAUlua_State@@PEAVInstance@@@Z@2@@std@@@2@@2@@std@@@std@@@std@@QEAA@XZ ; std::_List_val<std::_List_simple_types<std::pair<std::basic_string_view<char,std::char_traits<char> > const ,std::unordered_map<std::basic_string_view<char,std::char_traits<char> >,std::function<int __cdecl(lua_State *,Instance *)>,std::hash<std::basic_string_view<char,std::char_traits<char> > >,std::equal_to<std::basic_string_view<char,std::char_traits<char> > >,std::allocator<std::pair<std::basic_string_view<char,std::char_traits<char> > const ,std::function<int __cdecl(lua_State *,Instance *)> > > > > > >::_List_val<std::_List_simple_types<std::pair<std::basic_string_view<char,std::char_traits<char> > const ,std::unordered_map<std::basic_string_view<char,std::char_traits<char> >,std::function<int __cdecl(lua_State *,Instance *)>,std::hash<std::basic_string_view<char,std::char_traits<char> > >,std::equal_to<std::basic_string_view<char,std::char_traits<char> > >,std::allocator<std::pair<std::basic_string_view<char,std::char_traits<char> > const ,std::function<int __cdecl(lua_State *,Instance *)> > > > > > >
PUBLIC	?_Orphan_non_end@?$_List_val@U?$_List_simple_types@U?$pair@$$CBV?$basic_string_view@DU?$char_traits@D@std@@@std@@V?$unordered_map@V?$basic_string_view@DU?$char_traits@D@std@@@std@@V?$function@$$A6AHPEAUlua_State@@PEAVInstance@@@Z@2@U?$hash@V?$basic_string_view@DU?$char_traits@D@std@@@std@@@2@U?$equal_to@V?$basic_string_view@DU?$char_traits@D@std@@@std@@@2@V?$allocator@U?$pair@$$CBV?$basic_string_view@DU?$char_traits@D@std@@@std@@V?$function@$$A6AHPEAUlua_State@@PEAVInstance@@@Z@2@@std@@@2@@2@@std@@@std@@@std@@QEAAXXZ ; std::_List_val<std::_List_simple_types<std::pair<std::basic_string_view<char,std::char_traits<char> > const ,std::unordered_map<std::basic_string_view<char,std::char_traits<char> >,std::function<int __cdecl(lua_State *,Instance *)>,std::hash<std::basic_string_view<char,std::char_traits<char> > >,std::equal_to<std::basic_string_view<char,std::char_traits<char> > >,std::allocator<std::pair<std::basic_string_view<char,std::char_traits<char> > const ,std::function<int __cdecl(lua_State *,Instance *)> > > > > > >::_Orphan_non_end
PUBLIC	?_Unchecked_splice@?$_List_val@U?$_List_simple_types@U?$pair@$$CBV?$basic_string_view@DU?$char_traits@D@std@@@std@@V?$unordered_map@V?$basic_string_view@DU?$char_traits@D@std@@@std@@V?$function@$$A6AHPEAUlua_State@@PEAVInstance@@@Z@2@U?$hash@V?$basic_string_view@DU?$char_traits@D@std@@@std@@@2@U?$equal_to@V?$basic_string_view@DU?$char_traits@D@std@@@std@@@2@V?$allocator@U?$pair@$$CBV?$basic_string_view@DU?$char_traits@D@std@@@std@@V?$function@$$A6AHPEAUlua_State@@PEAVInstance@@@Z@2@@std@@@2@@2@@std@@@std@@@std@@SAPEAU?$_List_node@U?$pair@$$CBV?$basic_string_view@DU?$char_traits@D@std@@@std@@V?$unordered_map@V?$basic_string_view@DU?$char_traits@D@std@@@std@@V?$function@$$A6AHPEAUlua_State@@PEAVInstance@@@Z@2@U?$hash@V?$basic_string_view@DU?$char_traits@D@std@@@std@@@2@U?$equal_to@V?$basic_string_view@DU?$char_traits@D@std@@@std@@@2@V?$allocator@U?$pair@$$CBV?$basic_string_view@DU?$char_traits@D@std@@@std@@V?$function@$$A6AHPEAUlua_State@@PEAVInstance@@@Z@2@@std@@@2@@2@@std@@PEAX@2@QEAU32@00@Z ; std::_List_val<std::_List_simple_types<std::pair<std::basic_string_view<char,std::char_traits<char> > const ,std::unordered_map<std::basic_string_view<char,std::char_traits<char> >,std::function<int __cdecl(lua_State *,Instance *)>,std::hash<std::basic_string_view<char,std::char_traits<char> > >,std::equal_to<std::basic_string_view<char,std::char_traits<char> > >,std::allocator<std::pair<std::basic_string_view<char,std::char_traits<char> > const ,std::function<int __cdecl(lua_State *,Instance *)> > > > > > >::_Unchecked_splice
PUBLIC	?_Get_first@?$_Compressed_pair@V?$allocator@U?$_List_node@U?$pair@$$CBV?$basic_string_view@DU?$char_traits@D@std@@@std@@V?$unordered_map@V?$basic_string_view@DU?$char_traits@D@std@@@std@@V?$function@$$A6AHPEAUlua_State@@PEAVInstance@@@Z@2@U?$hash@V?$basic_string_view@DU?$char_traits@D@std@@@std@@@2@U?$equal_to@V?$basic_string_view@DU?$char_traits@D@std@@@std@@@2@V?$allocator@U?$pair@$$CBV?$basic_string_view@DU?$char_traits@D@std@@@std@@V?$function@$$A6AHPEAUlua_State@@PEAVInstance@@@Z@2@@std@@@2@@2@@std@@PEAX@std@@@std@@V?$_List_val@U?$_List_simple_types@U?$pair@$$CBV?$basic_string_view@DU?$char_traits@D@std@@@std@@V?$unordered_map@V?$basic_string_view@DU?$char_traits@D@std@@@std@@V?$function@$$A6AHPEAUlua_State@@PEAVInstance@@@Z@2@U?$hash@V?$basic_string_view@DU?$char_traits@D@std@@@std@@@2@U?$equal_to@V?$basic_string_view@DU?$char_traits@D@std@@@std@@@2@V?$allocator@U?$pair@$$CBV?$basic_string_view@DU?$char_traits@D@std@@@std@@V?$function@$$A6AHPEAUlua_State@@PEAVInstance@@@Z@2@@std@@@2@@2@@std@@@std@@@2@$00@std@@QEAAAEAV?$allocator@U?$_List_node@U?$pair@$$CBV?$basic_string_view@DU?$char_traits@D@std@@@std@@V?$unordered_map@V?$basic_string_view@DU?$char_traits@D@std@@@std@@V?$function@$$A6AHPEAUlua_State@@PEAVInstance@@@Z@2@U?$hash@V?$basic_string_view@DU?$char_traits@D@std@@@std@@@2@U?$equal_to@V?$basic_string_view@DU?$char_traits@D@std@@@std@@@2@V?$allocator@U?$pair@$$CBV?$basic_string_view@DU?$char_traits@D@std@@@std@@V?$function@$$A6AHPEAUlua_State@@PEAVInstance@@@Z@2@@std@@@2@@2@@std@@PEAX@std@@@2@XZ ; std::_Compressed_pair<std::allocator<std::_List_node<std::pair<std::basic_string_view<char,std::char_traits<char> > const ,std::unordered_map<std::basic_string_view<char,std::char_traits<char> >,std::function<int __cdecl(lua_State *,Instance *)>,std::hash<std::basic_string_view<char,std::char_traits<char> > >,std::equal_to<std::basic_string_view<char,std::char_traits<char> > >,std::allocator<std::pair<std::basic_string_view<char,std::char_traits<char> > const ,std::function<int __cdecl(lua_State *,Instance *)> > > > >,void *> >,std::_List_val<std::_List_simple_types<std::pair<std::basic_string_view<char,std::char_traits<char> > const ,std::unordered_map<std::basic_string_view<char,std::char_traits<char> >,std::function<int __cdecl(lua_State *,Instance *)>,std::hash<std::basic_string_view<char,std::char_traits<char> > >,std::equal_to<std::basic_string_view<char,std::char_traits<char> > >,std::allocator<std::pair<std::basic_string_view<char,std::char_traits<char> > const ,std::function<int __cdecl(lua_State *,Instance *)> > > > > > >,1>::_Get_first
PUBLIC	?_Get_first@?$_Compressed_pair@V?$allocator@U?$_List_node@U?$pair@$$CBV?$basic_string_view@DU?$char_traits@D@std@@@std@@V?$unordered_map@V?$basic_string_view@DU?$char_traits@D@std@@@std@@V?$function@$$A6AHPEAUlua_State@@PEAVInstance@@@Z@2@U?$hash@V?$basic_string_view@DU?$char_traits@D@std@@@std@@@2@U?$equal_to@V?$basic_string_view@DU?$char_traits@D@std@@@std@@@2@V?$allocator@U?$pair@$$CBV?$basic_string_view@DU?$char_traits@D@std@@@std@@V?$function@$$A6AHPEAUlua_State@@PEAVInstance@@@Z@2@@std@@@2@@2@@std@@PEAX@std@@@std@@V?$_List_val@U?$_List_simple_types@U?$pair@$$CBV?$basic_string_view@DU?$char_traits@D@std@@@std@@V?$unordered_map@V?$basic_string_view@DU?$char_traits@D@std@@@std@@V?$function@$$A6AHPEAUlua_State@@PEAVInstance@@@Z@2@U?$hash@V?$basic_string_view@DU?$char_traits@D@std@@@std@@@2@U?$equal_to@V?$basic_string_view@DU?$char_traits@D@std@@@std@@@2@V?$allocator@U?$pair@$$CBV?$basic_string_view@DU?$char_traits@D@std@@@std@@V?$function@$$A6AHPEAUlua_State@@PEAVInstance@@@Z@2@@std@@@2@@2@@std@@@std@@@2@$00@std@@QEBAAEBV?$allocator@U?$_List_node@U?$pair@$$CBV?$basic_string_view@DU?$char_traits@D@std@@@std@@V?$unordered_map@V?$basic_string_view@DU?$char_traits@D@std@@@std@@V?$function@$$A6AHPEAUlua_State@@PEAVInstance@@@Z@2@U?$hash@V?$basic_string_view@DU?$char_traits@D@std@@@std@@@2@U?$equal_to@V?$basic_string_view@DU?$char_traits@D@std@@@std@@@2@V?$allocator@U?$pair@$$CBV?$basic_string_view@DU?$char_traits@D@std@@@std@@V?$function@$$A6AHPEAUlua_State@@PEAVInstance@@@Z@2@@std@@@2@@2@@std@@PEAX@std@@@2@XZ ; std::_Compressed_pair<std::allocator<std::_List_node<std::pair<std::basic_string_view<char,std::char_traits<char> > const ,std::unordered_map<std::basic_string_view<char,std::char_traits<char> >,std::function<int __cdecl(lua_State *,Instance *)>,std::hash<std::basic_string_view<char,std::char_traits<char> > >,std::equal_to<std::basic_string_view<char,std::char_traits<char> > >,std::allocator<std::pair<std::basic_string_view<char,std::char_traits<char> > const ,std::function<int __cdecl(lua_State *,Instance *)> > > > >,void *> >,std::_List_val<std::_List_simple_types<std::pair<std::basic_string_view<char,std::char_traits<char> > const ,std::unordered_map<std::basic_string_view<char,std::char_traits<char> >,std::function<int __cdecl(lua_State *,Instance *)>,std::hash<std::basic_string_view<char,std::char_traits<char> > >,std::equal_to<std::basic_string_view<char,std::char_traits<char> > >,std::allocator<std::pair<std::basic_string_view<char,std::char_traits<char> > const ,std::function<int __cdecl(lua_State *,Instance *)> > > > > > >,1>::_Get_first
PUBLIC	??0?$_Hash@V?$_Umap_traits@V?$basic_string_view@DU?$char_traits@D@std@@@std@@V?$unordered_map@V?$basic_string_view@DU?$char_traits@D@std@@@std@@V?$function@$$A6AHPEAUlua_State@@PEAVInstance@@@Z@2@U?$hash@V?$basic_string_view@DU?$char_traits@D@std@@@std@@@2@U?$equal_to@V?$basic_string_view@DU?$char_traits@D@std@@@std@@@2@V?$allocator@U?$pair@$$CBV?$basic_string_view@DU?$char_traits@D@std@@@std@@V?$function@$$A6AHPEAUlua_State@@PEAVInstance@@@Z@2@@std@@@2@@2@V?$_Uhash_compare@V?$basic_string_view@DU?$char_traits@D@std@@@std@@U?$hash@V?$basic_string_view@DU?$char_traits@D@std@@@std@@@2@U?$equal_to@V?$basic_string_view@DU?$char_traits@D@std@@@std@@@2@@2@V?$allocator@U?$pair@$$CBV?$basic_string_view@DU?$char_traits@D@std@@@std@@V?$unordered_map@V?$basic_string_view@DU?$char_traits@D@std@@@std@@V?$function@$$A6AHPEAUlua_State@@PEAVInstance@@@Z@2@U?$hash@V?$basic_string_view@DU?$char_traits@D@std@@@std@@@2@U?$equal_to@V?$basic_string_view@DU?$char_traits@D@std@@@std@@@2@V?$allocator@U?$pair@$$CBV?$basic_string_view@DU?$char_traits@D@std@@@std@@V?$function@$$A6AHPEAUlua_State@@PEAVInstance@@@Z@2@@std@@@2@@2@@std@@@2@$0A@@std@@@std@@IEAA@AEBV?$_Uhash_compare@V?$basic_string_view@DU?$char_traits@D@std@@@std@@U?$hash@V?$basic_string_view@DU?$char_traits@D@std@@@std@@@2@U?$equal_to@V?$basic_string_view@DU?$char_traits@D@std@@@std@@@2@@1@AEBV?$allocator@U?$pair@$$CBV?$basic_string_view@DU?$char_traits@D@std@@@std@@V?$unordered_map@V?$basic_string_view@DU?$char_traits@D@std@@@std@@V?$function@$$A6AHPEAUlua_State@@PEAVInstance@@@Z@2@U?$hash@V?$basic_string_view@DU?$char_traits@D@std@@@std@@@2@U?$equal_to@V?$basic_string_view@DU?$char_traits@D@std@@@std@@@2@V?$allocator@U?$pair@$$CBV?$basic_string_view@DU?$char_traits@D@std@@@std@@V?$function@$$A6AHPEAUlua_State@@PEAVInstance@@@Z@2@@std@@@2@@2@@std@@@1@@Z ; std::_Hash<std::_Umap_traits<std::basic_string_view<char,std::char_traits<char> >,std::unordered_map<std::basic_string_view<char,std::char_traits<char> >,std::function<int __cdecl(lua_State *,Instance *)>,std::hash<std::basic_string_view<char,std::char_traits<char> > >,std::equal_to<std::basic_string_view<char,std::char_traits<char> > >,std::allocator<std::pair<std::basic_string_view<char,std::char_traits<char> > const ,std::function<int __cdecl(lua_State *,Instance *)> > > >,std::_Uhash_compare<std::basic_string_view<char,std::char_traits<char> >,std::hash<std::basic_string_view<char,std::char_traits<char> > >,std::equal_to<std::basic_string_view<char,std::char_traits<char> > > >,std::allocator<std::pair<std::basic_string_view<char,std::char_traits<char> > const ,std::unordered_map<std::basic_string_view<char,std::char_traits<char> >,std::function<int __cdecl(lua_State *,Instance *)>,std::hash<std::basic_string_view<char,std::char_traits<char> > >,std::equal_to<std::basic_string_view<char,std::char_traits<char> > >,std::allocator<std::pair<std::basic_string_view<char,std::char_traits<char> > const ,std::function<int __cdecl(lua_State *,Instance *)> > > > > >,0> >::_Hash<std::_Umap_traits<std::basic_string_view<char,std::char_traits<char> >,std::unordered_map<std::basic_string_view<char,std::char_traits<char> >,std::function<int __cdecl(lua_State *,Instance *)>,std::hash<std::basic_string_view<char,std::char_traits<char> > >,std::equal_to<std::basic_string_view<char,std::char_traits<char> > >,std::allocator<std::pair<std::basic_string_view<char,std::char_traits<char> > const ,std::function<int __cdecl(lua_State *,Instance *)> > > >,std::_Uhash_compare<std::basic_string_view<char,std::char_traits<char> >,std::hash<std::basic_string_view<char,std::char_traits<char> > >,std::equal_to<std::basic_string_view<char,std::char_traits<char> > > >,std::allocator<std::pair<std::basic_string_view<char,std::char_traits<char> > const ,std::unordered_map<std::basic_string_view<char,std::char_traits<char> >,std::function<int __cdecl(lua_State *,Instance *)>,std::hash<std::basic_string_view<char,std::char_traits<char> > >,std::equal_to<std::basic_string_view<char,std::char_traits<char> > >,std::allocator<std::pair<std::basic_string_view<char,std::char_traits<char> > const ,std::function<int __cdecl(lua_State *,Instance *)> > > > > >,0> >
PUBLIC	?_Unchecked_begin@?$_Hash@V?$_Umap_traits@V?$basic_string_view@DU?$char_traits@D@std@@@std@@V?$unordered_map@V?$basic_string_view@DU?$char_traits@D@std@@@std@@V?$function@$$A6AHPEAUlua_State@@PEAVInstance@@@Z@2@U?$hash@V?$basic_string_view@DU?$char_traits@D@std@@@std@@@2@U?$equal_to@V?$basic_string_view@DU?$char_traits@D@std@@@std@@@2@V?$allocator@U?$pair@$$CBV?$basic_string_view@DU?$char_traits@D@std@@@std@@V?$function@$$A6AHPEAUlua_State@@PEAVInstance@@@Z@2@@std@@@2@@2@V?$_Uhash_compare@V?$basic_string_view@DU?$char_traits@D@std@@@std@@U?$hash@V?$basic_string_view@DU?$char_traits@D@std@@@std@@@2@U?$equal_to@V?$basic_string_view@DU?$char_traits@D@std@@@std@@@2@@2@V?$allocator@U?$pair@$$CBV?$basic_string_view@DU?$char_traits@D@std@@@std@@V?$unordered_map@V?$basic_string_view@DU?$char_traits@D@std@@@std@@V?$function@$$A6AHPEAUlua_State@@PEAVInstance@@@Z@2@U?$hash@V?$basic_string_view@DU?$char_traits@D@std@@@std@@@2@U?$equal_to@V?$basic_string_view@DU?$char_traits@D@std@@@std@@@2@V?$allocator@U?$pair@$$CBV?$basic_string_view@DU?$char_traits@D@std@@@std@@V?$function@$$A6AHPEAUlua_State@@PEAVInstance@@@Z@2@@std@@@2@@2@@std@@@2@$0A@@std@@@std@@QEAA?AV?$_List_unchecked_iterator@V?$_List_val@U?$_List_simple_types@U?$pair@$$CBV?$basic_string_view@DU?$char_traits@D@std@@@std@@V?$unordered_map@V?$basic_string_view@DU?$char_traits@D@std@@@std@@V?$function@$$A6AHPEAUlua_State@@PEAVInstance@@@Z@2@U?$hash@V?$basic_string_view@DU?$char_traits@D@std@@@std@@@2@U?$equal_to@V?$basic_string_view@DU?$char_traits@D@std@@@std@@@2@V?$allocator@U?$pair@$$CBV?$basic_string_view@DU?$char_traits@D@std@@@std@@V?$function@$$A6AHPEAUlua_State@@PEAVInstance@@@Z@2@@std@@@2@@2@@std@@@std@@@std@@@2@XZ ; std::_Hash<std::_Umap_traits<std::basic_string_view<char,std::char_traits<char> >,std::unordered_map<std::basic_string_view<char,std::char_traits<char> >,std::function<int __cdecl(lua_State *,Instance *)>,std::hash<std::basic_string_view<char,std::char_traits<char> > >,std::equal_to<std::basic_string_view<char,std::char_traits<char> > >,std::allocator<std::pair<std::basic_string_view<char,std::char_traits<char> > const ,std::function<int __cdecl(lua_State *,Instance *)> > > >,std::_Uhash_compare<std::basic_string_view<char,std::char_traits<char> >,std::hash<std::basic_string_view<char,std::char_traits<char> > >,std::equal_to<std::basic_string_view<char,std::char_traits<char> > > >,std::allocator<std::pair<std::basic_string_view<char,std::char_traits<char> > const ,std::unordered_map<std::basic_string_view<char,std::char_traits<char> >,std::function<int __cdecl(lua_State *,Instance *)>,std::hash<std::basic_string_view<char,std::char_traits<char> > >,std::equal_to<std::basic_string_view<char,std::char_traits<char> > >,std::allocator<std::pair<std::basic_string_view<char,std::char_traits<char> > const ,std::function<int __cdecl(lua_State *,Instance *)> > > > > >,0> >::_Unchecked_begin
PUBLIC	?_Unchecked_end@?$_Hash@V?$_Umap_traits@V?$basic_string_view@DU?$char_traits@D@std@@@std@@V?$unordered_map@V?$basic_string_view@DU?$char_traits@D@std@@@std@@V?$function@$$A6AHPEAUlua_State@@PEAVInstance@@@Z@2@U?$hash@V?$basic_string_view@DU?$char_traits@D@std@@@std@@@2@U?$equal_to@V?$basic_string_view@DU?$char_traits@D@std@@@std@@@2@V?$allocator@U?$pair@$$CBV?$basic_string_view@DU?$char_traits@D@std@@@std@@V?$function@$$A6AHPEAUlua_State@@PEAVInstance@@@Z@2@@std@@@2@@2@V?$_Uhash_compare@V?$basic_string_view@DU?$char_traits@D@std@@@std@@U?$hash@V?$basic_string_view@DU?$char_traits@D@std@@@std@@@2@U?$equal_to@V?$basic_string_view@DU?$char_traits@D@std@@@std@@@2@@2@V?$allocator@U?$pair@$$CBV?$basic_string_view@DU?$char_traits@D@std@@@std@@V?$unordered_map@V?$basic_string_view@DU?$char_traits@D@std@@@std@@V?$function@$$A6AHPEAUlua_State@@PEAVInstance@@@Z@2@U?$hash@V?$basic_string_view@DU?$char_traits@D@std@@@std@@@2@U?$equal_to@V?$basic_string_view@DU?$char_traits@D@std@@@std@@@2@V?$allocator@U?$pair@$$CBV?$basic_string_view@DU?$char_traits@D@std@@@std@@V?$function@$$A6AHPEAUlua_State@@PEAVInstance@@@Z@2@@std@@@2@@2@@std@@@2@$0A@@std@@@std@@QEAA?AV?$_List_unchecked_iterator@V?$_List_val@U?$_List_simple_types@U?$pair@$$CBV?$basic_string_view@DU?$char_traits@D@std@@@std@@V?$unordered_map@V?$basic_string_view@DU?$char_traits@D@std@@@std@@V?$function@$$A6AHPEAUlua_State@@PEAVInstance@@@Z@2@U?$hash@V?$basic_string_view@DU?$char_traits@D@std@@@std@@@2@U?$equal_to@V?$basic_string_view@DU?$char_traits@D@std@@@std@@@2@V?$allocator@U?$pair@$$CBV?$basic_string_view@DU?$char_traits@D@std@@@std@@V?$function@$$A6AHPEAUlua_State@@PEAVInstance@@@Z@2@@std@@@2@@2@@std@@@std@@@std@@@2@XZ ; std::_Hash<std::_Umap_traits<std::basic_string_view<char,std::char_traits<char> >,std::unordered_map<std::basic_string_view<char,std::char_traits<char> >,std::function<int __cdecl(lua_State *,Instance *)>,std::hash<std::basic_string_view<char,std::char_traits<char> > >,std::equal_to<std::basic_string_view<char,std::char_traits<char> > >,std::allocator<std::pair<std::basic_string_view<char,std::char_traits<char> > const ,std::function<int __cdecl(lua_State *,Instance *)> > > >,std::_Uhash_compare<std::basic_string_view<char,std::char_traits<char> >,std::hash<std::basic_string_view<char,std::char_traits<char> > >,std::equal_to<std::basic_string_view<char,std::char_traits<char> > > >,std::allocator<std::pair<std::basic_string_view<char,std::char_traits<char> > const ,std::unordered_map<std::basic_string_view<char,std::char_traits<char> >,std::function<int __cdecl(lua_State *,Instance *)>,std::hash<std::basic_string_view<char,std::char_traits<char> > >,std::equal_to<std::basic_string_view<char,std::char_traits<char> > >,std::allocator<std::pair<std::basic_string_view<char,std::char_traits<char> > const ,std::function<int __cdecl(lua_State *,Instance *)> > > > > >,0> >::_Unchecked_end
PUBLIC	?bucket_count@?$_Hash@V?$_Umap_traits@V?$basic_string_view@DU?$char_traits@D@std@@@std@@V?$unordered_map@V?$basic_string_view@DU?$char_traits@D@std@@@std@@V?$function@$$A6AHPEAUlua_State@@PEAVInstance@@@Z@2@U?$hash@V?$basic_string_view@DU?$char_traits@D@std@@@std@@@2@U?$equal_to@V?$basic_string_view@DU?$char_traits@D@std@@@std@@@2@V?$allocator@U?$pair@$$CBV?$basic_string_view@DU?$char_traits@D@std@@@std@@V?$function@$$A6AHPEAUlua_State@@PEAVInstance@@@Z@2@@std@@@2@@2@V?$_Uhash_compare@V?$basic_string_view@DU?$char_traits@D@std@@@std@@U?$hash@V?$basic_string_view@DU?$char_traits@D@std@@@std@@@2@U?$equal_to@V?$basic_string_view@DU?$char_traits@D@std@@@std@@@2@@2@V?$allocator@U?$pair@$$CBV?$basic_string_view@DU?$char_traits@D@std@@@std@@V?$unordered_map@V?$basic_string_view@DU?$char_traits@D@std@@@std@@V?$function@$$A6AHPEAUlua_State@@PEAVInstance@@@Z@2@U?$hash@V?$basic_string_view@DU?$char_traits@D@std@@@std@@@2@U?$equal_to@V?$basic_string_view@DU?$char_traits@D@std@@@std@@@2@V?$allocator@U?$pair@$$CBV?$basic_string_view@DU?$char_traits@D@std@@@std@@V?$function@$$A6AHPEAUlua_State@@PEAVInstance@@@Z@2@@std@@@2@@2@@std@@@2@$0A@@std@@@std@@QEBA_KXZ ; std::_Hash<std::_Umap_traits<std::basic_string_view<char,std::char_traits<char> >,std::unordered_map<std::basic_string_view<char,std::char_traits<char> >,std::function<int __cdecl(lua_State *,Instance *)>,std::hash<std::basic_string_view<char,std::char_traits<char> > >,std::equal_to<std::basic_string_view<char,std::char_traits<char> > >,std::allocator<std::pair<std::basic_string_view<char,std::char_traits<char> > const ,std::function<int __cdecl(lua_State *,Instance *)> > > >,std::_Uhash_compare<std::basic_string_view<char,std::char_traits<char> >,std::hash<std::basic_string_view<char,std::char_traits<char> > >,std::equal_to<std::basic_string_view<char,std::char_traits<char> > > >,std::allocator<std::pair<std::basic_string_view<char,std::char_traits<char> > const ,std::unordered_map<std::basic_string_view<char,std::char_traits<char> >,std::function<int __cdecl(lua_State *,Instance *)>,std::hash<std::basic_string_view<char,std::char_traits<char> > >,std::equal_to<std::basic_string_view<char,std::char_traits<char> > >,std::allocator<std::pair<std::basic_string_view<char,std::char_traits<char> > const ,std::function<int __cdecl(lua_State *,Instance *)> > > > > >,0> >::bucket_count
PUBLIC	?bucket@?$_Hash@V?$_Umap_traits@V?$basic_string_view@DU?$char_traits@D@std@@@std@@V?$unordered_map@V?$basic_string_view@DU?$char_traits@D@std@@@std@@V?$function@$$A6AHPEAUlua_State@@PEAVInstance@@@Z@2@U?$hash@V?$basic_string_view@DU?$char_traits@D@std@@@std@@@2@U?$equal_to@V?$basic_string_view@DU?$char_traits@D@std@@@std@@@2@V?$allocator@U?$pair@$$CBV?$basic_string_view@DU?$char_traits@D@std@@@std@@V?$function@$$A6AHPEAUlua_State@@PEAVInstance@@@Z@2@@std@@@2@@2@V?$_Uhash_compare@V?$basic_string_view@DU?$char_traits@D@std@@@std@@U?$hash@V?$basic_string_view@DU?$char_traits@D@std@@@std@@@2@U?$equal_to@V?$basic_string_view@DU?$char_traits@D@std@@@std@@@2@@2@V?$allocator@U?$pair@$$CBV?$basic_string_view@DU?$char_traits@D@std@@@std@@V?$unordered_map@V?$basic_string_view@DU?$char_traits@D@std@@@std@@V?$function@$$A6AHPEAUlua_State@@PEAVInstance@@@Z@2@U?$hash@V?$basic_string_view@DU?$char_traits@D@std@@@std@@@2@U?$equal_to@V?$basic_string_view@DU?$char_traits@D@std@@@std@@@2@V?$allocator@U?$pair@$$CBV?$basic_string_view@DU?$char_traits@D@std@@@std@@V?$function@$$A6AHPEAUlua_State@@PEAVInstance@@@Z@2@@std@@@2@@2@@std@@@2@$0A@@std@@@std@@QEBA_KAEBV?$basic_string_view@DU?$char_traits@D@std@@@2@@Z ; std::_Hash<std::_Umap_traits<std::basic_string_view<char,std::char_traits<char> >,std::unordered_map<std::basic_string_view<char,std::char_traits<char> >,std::function<int __cdecl(lua_State *,Instance *)>,std::hash<std::basic_string_view<char,std::char_traits<char> > >,std::equal_to<std::basic_string_view<char,std::char_traits<char> > >,std::allocator<std::pair<std::basic_string_view<char,std::char_traits<char> > const ,std::function<int __cdecl(lua_State *,Instance *)> > > >,std::_Uhash_compare<std::basic_string_view<char,std::char_traits<char> >,std::hash<std::basic_string_view<char,std::char_traits<char> > >,std::equal_to<std::basic_string_view<char,std::char_traits<char> > > >,std::allocator<std::pair<std::basic_string_view<char,std::char_traits<char> > const ,std::unordered_map<std::basic_string_view<char,std::char_traits<char> >,std::function<int __cdecl(lua_State *,Instance *)>,std::hash<std::basic_string_view<char,std::char_traits<char> > >,std::equal_to<std::basic_string_view<char,std::char_traits<char> > >,std::allocator<std::pair<std::basic_string_view<char,std::char_traits<char> > const ,std::function<int __cdecl(lua_State *,Instance *)> > > > > >,0> >::bucket
PUBLIC	?max_load_factor@?$_Hash@V?$_Umap_traits@V?$basic_string_view@DU?$char_traits@D@std@@@std@@V?$unordered_map@V?$basic_string_view@DU?$char_traits@D@std@@@std@@V?$function@$$A6AHPEAUlua_State@@PEAVInstance@@@Z@2@U?$hash@V?$basic_string_view@DU?$char_traits@D@std@@@std@@@2@U?$equal_to@V?$basic_string_view@DU?$char_traits@D@std@@@std@@@2@V?$allocator@U?$pair@$$CBV?$basic_string_view@DU?$char_traits@D@std@@@std@@V?$function@$$A6AHPEAUlua_State@@PEAVInstance@@@Z@2@@std@@@2@@2@V?$_Uhash_compare@V?$basic_string_view@DU?$char_traits@D@std@@@std@@U?$hash@V?$basic_string_view@DU?$char_traits@D@std@@@std@@@2@U?$equal_to@V?$basic_string_view@DU?$char_traits@D@std@@@std@@@2@@2@V?$allocator@U?$pair@$$CBV?$basic_string_view@DU?$char_traits@D@std@@@std@@V?$unordered_map@V?$basic_string_view@DU?$char_traits@D@std@@@std@@V?$function@$$A6AHPEAUlua_State@@PEAVInstance@@@Z@2@U?$hash@V?$basic_string_view@DU?$char_traits@D@std@@@std@@@2@U?$equal_to@V?$basic_string_view@DU?$char_traits@D@std@@@std@@@2@V?$allocator@U?$pair@$$CBV?$basic_string_view@DU?$char_traits@D@std@@@std@@V?$function@$$A6AHPEAUlua_State@@PEAVInstance@@@Z@2@@std@@@2@@2@@std@@@2@$0A@@std@@@std@@QEBAMXZ ; std::_Hash<std::_Umap_traits<std::basic_string_view<char,std::char_traits<char> >,std::unordered_map<std::basic_string_view<char,std::char_traits<char> >,std::function<int __cdecl(lua_State *,Instance *)>,std::hash<std::basic_string_view<char,std::char_traits<char> > >,std::equal_to<std::basic_string_view<char,std::char_traits<char> > >,std::allocator<std::pair<std::basic_string_view<char,std::char_traits<char> > const ,std::function<int __cdecl(lua_State *,Instance *)> > > >,std::_Uhash_compare<std::basic_string_view<char,std::char_traits<char> >,std::hash<std::basic_string_view<char,std::char_traits<char> > >,std::equal_to<std::basic_string_view<char,std::char_traits<char> > > >,std::allocator<std::pair<std::basic_string_view<char,std::char_traits<char> > const ,std::unordered_map<std::basic_string_view<char,std::char_traits<char> >,std::function<int __cdecl(lua_State *,Instance *)>,std::hash<std::basic_string_view<char,std::char_traits<char> > >,std::equal_to<std::basic_string_view<char,std::char_traits<char> > >,std::allocator<std::pair<std::basic_string_view<char,std::char_traits<char> > const ,std::function<int __cdecl(lua_State *,Instance *)> > > > > >,0> >::max_load_factor
PUBLIC	?_Unchecked_erase@?$_Hash@V?$_Umap_traits@V?$basic_string_view@DU?$char_traits@D@std@@@std@@V?$unordered_map@V?$basic_string_view@DU?$char_traits@D@std@@@std@@V?$function@$$A6AHPEAUlua_State@@PEAVInstance@@@Z@2@U?$hash@V?$basic_string_view@DU?$char_traits@D@std@@@std@@@2@U?$equal_to@V?$basic_string_view@DU?$char_traits@D@std@@@std@@@2@V?$allocator@U?$pair@$$CBV?$basic_string_view@DU?$char_traits@D@std@@@std@@V?$function@$$A6AHPEAUlua_State@@PEAVInstance@@@Z@2@@std@@@2@@2@V?$_Uhash_compare@V?$basic_string_view@DU?$char_traits@D@std@@@std@@U?$hash@V?$basic_string_view@DU?$char_traits@D@std@@@std@@@2@U?$equal_to@V?$basic_string_view@DU?$char_traits@D@std@@@std@@@2@@2@V?$allocator@U?$pair@$$CBV?$basic_string_view@DU?$char_traits@D@std@@@std@@V?$unordered_map@V?$basic_string_view@DU?$char_traits@D@std@@@std@@V?$function@$$A6AHPEAUlua_State@@PEAVInstance@@@Z@2@U?$hash@V?$basic_string_view@DU?$char_traits@D@std@@@std@@@2@U?$equal_to@V?$basic_string_view@DU?$char_traits@D@std@@@std@@@2@V?$allocator@U?$pair@$$CBV?$basic_string_view@DU?$char_traits@D@std@@@std@@V?$function@$$A6AHPEAUlua_State@@PEAVInstance@@@Z@2@@std@@@2@@2@@std@@@2@$0A@@std@@@std@@AEAAPEAU?$_List_node@U?$pair@$$CBV?$basic_string_view@DU?$char_traits@D@std@@@std@@V?$unordered_map@V?$basic_string_view@DU?$char_traits@D@std@@@std@@V?$function@$$A6AHPEAUlua_State@@PEAVInstance@@@Z@2@U?$hash@V?$basic_string_view@DU?$char_traits@D@std@@@std@@@2@U?$equal_to@V?$basic_string_view@DU?$char_traits@D@std@@@std@@@2@V?$allocator@U?$pair@$$CBV?$basic_string_view@DU?$char_traits@D@std@@@std@@V?$function@$$A6AHPEAUlua_State@@PEAVInstance@@@Z@2@@std@@@2@@2@@std@@PEAX@2@PEAU32@QEAU32@@Z ; std::_Hash<std::_Umap_traits<std::basic_string_view<char,std::char_traits<char> >,std::unordered_map<std::basic_string_view<char,std::char_traits<char> >,std::function<int __cdecl(lua_State *,Instance *)>,std::hash<std::basic_string_view<char,std::char_traits<char> > >,std::equal_to<std::basic_string_view<char,std::char_traits<char> > >,std::allocator<std::pair<std::basic_string_view<char,std::char_traits<char> > const ,std::function<int __cdecl(lua_State *,Instance *)> > > >,std::_Uhash_compare<std::basic_string_view<char,std::char_traits<char> >,std::hash<std::basic_string_view<char,std::char_traits<char> > >,std::equal_to<std::basic_string_view<char,std::char_traits<char> > > >,std::allocator<std::pair<std::basic_string_view<char,std::char_traits<char> > const ,std::unordered_map<std::basic_string_view<char,std::char_traits<char> >,std::function<int __cdecl(lua_State *,Instance *)>,std::hash<std::basic_string_view<char,std::char_traits<char> > >,std::equal_to<std::basic_string_view<char,std::char_traits<char> > >,std::allocator<std::pair<std::basic_string_view<char,std::char_traits<char> > const ,std::function<int __cdecl(lua_State *,Instance *)> > > > > >,0> >::_Unchecked_erase
PUBLIC	?clear@?$_Hash@V?$_Umap_traits@V?$basic_string_view@DU?$char_traits@D@std@@@std@@V?$unordered_map@V?$basic_string_view@DU?$char_traits@D@std@@@std@@V?$function@$$A6AHPEAUlua_State@@PEAVInstance@@@Z@2@U?$hash@V?$basic_string_view@DU?$char_traits@D@std@@@std@@@2@U?$equal_to@V?$basic_string_view@DU?$char_traits@D@std@@@std@@@2@V?$allocator@U?$pair@$$CBV?$basic_string_view@DU?$char_traits@D@std@@@std@@V?$function@$$A6AHPEAUlua_State@@PEAVInstance@@@Z@2@@std@@@2@@2@V?$_Uhash_compare@V?$basic_string_view@DU?$char_traits@D@std@@@std@@U?$hash@V?$basic_string_view@DU?$char_traits@D@std@@@std@@@2@U?$equal_to@V?$basic_string_view@DU?$char_traits@D@std@@@std@@@2@@2@V?$allocator@U?$pair@$$CBV?$basic_string_view@DU?$char_traits@D@std@@@std@@V?$unordered_map@V?$basic_string_view@DU?$char_traits@D@std@@@std@@V?$function@$$A6AHPEAUlua_State@@PEAVInstance@@@Z@2@U?$hash@V?$basic_string_view@DU?$char_traits@D@std@@@std@@@2@U?$equal_to@V?$basic_string_view@DU?$char_traits@D@std@@@std@@@2@V?$allocator@U?$pair@$$CBV?$basic_string_view@DU?$char_traits@D@std@@@std@@V?$function@$$A6AHPEAUlua_State@@PEAVInstance@@@Z@2@@std@@@2@@2@@std@@@2@$0A@@std@@@std@@QEAAXXZ ; std::_Hash<std::_Umap_traits<std::basic_string_view<char,std::char_traits<char> >,std::unordered_map<std::basic_string_view<char,std::char_traits<char> >,std::function<int __cdecl(lua_State *,Instance *)>,std::hash<std::basic_string_view<char,std::char_traits<char> > >,std::equal_to<std::basic_string_view<char,std::char_traits<char> > >,std::allocator<std::pair<std::basic_string_view<char,std::char_traits<char> > const ,std::function<int __cdecl(lua_State *,Instance *)> > > >,std::_Uhash_compare<std::basic_string_view<char,std::char_traits<char> >,std::hash<std::basic_string_view<char,std::char_traits<char> > >,std::equal_to<std::basic_string_view<char,std::char_traits<char> > > >,std::allocator<std::pair<std::basic_string_view<char,std::char_traits<char> > const ,std::unordered_map<std::basic_string_view<char,std::char_traits<char> >,std::function<int __cdecl(lua_State *,Instance *)>,std::hash<std::basic_string_view<char,std::char_traits<char> > >,std::equal_to<std::basic_string_view<char,std::char_traits<char> > >,std::allocator<std::pair<std::basic_string_view<char,std::char_traits<char> > const ,std::function<int __cdecl(lua_State *,Instance *)> > > > > >,0> >::clear
PUBLIC	?_Insert_new_node_before@?$_Hash@V?$_Umap_traits@V?$basic_string_view@DU?$char_traits@D@std@@@std@@V?$unordered_map@V?$basic_string_view@DU?$char_traits@D@std@@@std@@V?$function@$$A6AHPEAUlua_State@@PEAVInstance@@@Z@2@U?$hash@V?$basic_string_view@DU?$char_traits@D@std@@@std@@@2@U?$equal_to@V?$basic_string_view@DU?$char_traits@D@std@@@std@@@2@V?$allocator@U?$pair@$$CBV?$basic_string_view@DU?$char_traits@D@std@@@std@@V?$function@$$A6AHPEAUlua_State@@PEAVInstance@@@Z@2@@std@@@2@@2@V?$_Uhash_compare@V?$basic_string_view@DU?$char_traits@D@std@@@std@@U?$hash@V?$basic_string_view@DU?$char_traits@D@std@@@std@@@2@U?$equal_to@V?$basic_string_view@DU?$char_traits@D@std@@@std@@@2@@2@V?$allocator@U?$pair@$$CBV?$basic_string_view@DU?$char_traits@D@std@@@std@@V?$unordered_map@V?$basic_string_view@DU?$char_traits@D@std@@@std@@V?$function@$$A6AHPEAUlua_State@@PEAVInstance@@@Z@2@U?$hash@V?$basic_string_view@DU?$char_traits@D@std@@@std@@@2@U?$equal_to@V?$basic_string_view@DU?$char_traits@D@std@@@std@@@2@V?$allocator@U?$pair@$$CBV?$basic_string_view@DU?$char_traits@D@std@@@std@@V?$function@$$A6AHPEAUlua_State@@PEAVInstance@@@Z@2@@std@@@2@@2@@std@@@2@$0A@@std@@@std@@IEAAPEAU?$_List_node@U?$pair@$$CBV?$basic_string_view@DU?$char_traits@D@std@@@std@@V?$unordered_map@V?$basic_string_view@DU?$char_traits@D@std@@@std@@V?$function@$$A6AHPEAUlua_State@@PEAVInstance@@@Z@2@U?$hash@V?$basic_string_view@DU?$char_traits@D@std@@@std@@@2@U?$equal_to@V?$basic_string_view@DU?$char_traits@D@std@@@std@@@2@V?$allocator@U?$pair@$$CBV?$basic_string_view@DU?$char_traits@D@std@@@std@@V?$function@$$A6AHPEAUlua_State@@PEAVInstance@@@Z@2@@std@@@2@@2@@std@@PEAX@2@_KQEAU32@1@Z ; std::_Hash<std::_Umap_traits<std::basic_string_view<char,std::char_traits<char> >,std::unordered_map<std::basic_string_view<char,std::char_traits<char> >,std::function<int __cdecl(lua_State *,Instance *)>,std::hash<std::basic_string_view<char,std::char_traits<char> > >,std::equal_to<std::basic_string_view<char,std::char_traits<char> > >,std::allocator<std::pair<std::basic_string_view<char,std::char_traits<char> > const ,std::function<int __cdecl(lua_State *,Instance *)> > > >,std::_Uhash_compare<std::basic_string_view<char,std::char_traits<char> >,std::hash<std::basic_string_view<char,std::char_traits<char> > >,std::equal_to<std::basic_string_view<char,std::char_traits<char> > > >,std::allocator<std::pair<std::basic_string_view<char,std::char_traits<char> > const ,std::unordered_map<std::basic_string_view<char,std::char_traits<char> >,std::function<int __cdecl(lua_State *,Instance *)>,std::hash<std::basic_string_view<char,std::char_traits<char> > >,std::equal_to<std::basic_string_view<char,std::char_traits<char> > >,std::allocator<std::pair<std::basic_string_view<char,std::char_traits<char> > const ,std::function<int __cdecl(lua_State *,Instance *)> > > > > >,0> >::_Insert_new_node_before
PUBLIC	?_Check_max_size@?$_Hash@V?$_Umap_traits@V?$basic_string_view@DU?$char_traits@D@std@@@std@@V?$unordered_map@V?$basic_string_view@DU?$char_traits@D@std@@@std@@V?$function@$$A6AHPEAUlua_State@@PEAVInstance@@@Z@2@U?$hash@V?$basic_string_view@DU?$char_traits@D@std@@@std@@@2@U?$equal_to@V?$basic_string_view@DU?$char_traits@D@std@@@std@@@2@V?$allocator@U?$pair@$$CBV?$basic_string_view@DU?$char_traits@D@std@@@std@@V?$function@$$A6AHPEAUlua_State@@PEAVInstance@@@Z@2@@std@@@2@@2@V?$_Uhash_compare@V?$basic_string_view@DU?$char_traits@D@std@@@std@@U?$hash@V?$basic_string_view@DU?$char_traits@D@std@@@std@@@2@U?$equal_to@V?$basic_string_view@DU?$char_traits@D@std@@@std@@@2@@2@V?$allocator@U?$pair@$$CBV?$basic_string_view@DU?$char_traits@D@std@@@std@@V?$unordered_map@V?$basic_string_view@DU?$char_traits@D@std@@@std@@V?$function@$$A6AHPEAUlua_State@@PEAVInstance@@@Z@2@U?$hash@V?$basic_string_view@DU?$char_traits@D@std@@@std@@@2@U?$equal_to@V?$basic_string_view@DU?$char_traits@D@std@@@std@@@2@V?$allocator@U?$pair@$$CBV?$basic_string_view@DU?$char_traits@D@std@@@std@@V?$function@$$A6AHPEAUlua_State@@PEAVInstance@@@Z@2@@std@@@2@@2@@std@@@2@$0A@@std@@@std@@IEBAXXZ ; std::_Hash<std::_Umap_traits<std::basic_string_view<char,std::char_traits<char> >,std::unordered_map<std::basic_string_view<char,std::char_traits<char> >,std::function<int __cdecl(lua_State *,Instance *)>,std::hash<std::basic_string_view<char,std::char_traits<char> > >,std::equal_to<std::basic_string_view<char,std::char_traits<char> > >,std::allocator<std::pair<std::basic_string_view<char,std::char_traits<char> > const ,std::function<int __cdecl(lua_State *,Instance *)> > > >,std::_Uhash_compare<std::basic_string_view<char,std::char_traits<char> >,std::hash<std::basic_string_view<char,std::char_traits<char> > >,std::equal_to<std::basic_string_view<char,std::char_traits<char> > > >,std::allocator<std::pair<std::basic_string_view<char,std::char_traits<char> > const ,std::unordered_map<std::basic_string_view<char,std::char_traits<char> >,std::function<int __cdecl(lua_State *,Instance *)>,std::hash<std::basic_string_view<char,std::char_traits<char> > >,std::equal_to<std::basic_string_view<char,std::char_traits<char> > >,std::allocator<std::pair<std::basic_string_view<char,std::char_traits<char> > const ,std::function<int __cdecl(lua_State *,Instance *)> > > > > >,0> >::_Check_max_size
PUBLIC	?_Check_rehash_required_1@?$_Hash@V?$_Umap_traits@V?$basic_string_view@DU?$char_traits@D@std@@@std@@V?$unordered_map@V?$basic_string_view@DU?$char_traits@D@std@@@std@@V?$function@$$A6AHPEAUlua_State@@PEAVInstance@@@Z@2@U?$hash@V?$basic_string_view@DU?$char_traits@D@std@@@std@@@2@U?$equal_to@V?$basic_string_view@DU?$char_traits@D@std@@@std@@@2@V?$allocator@U?$pair@$$CBV?$basic_string_view@DU?$char_traits@D@std@@@std@@V?$function@$$A6AHPEAUlua_State@@PEAVInstance@@@Z@2@@std@@@2@@2@V?$_Uhash_compare@V?$basic_string_view@DU?$char_traits@D@std@@@std@@U?$hash@V?$basic_string_view@DU?$char_traits@D@std@@@std@@@2@U?$equal_to@V?$basic_string_view@DU?$char_traits@D@std@@@std@@@2@@2@V?$allocator@U?$pair@$$CBV?$basic_string_view@DU?$char_traits@D@std@@@std@@V?$unordered_map@V?$basic_string_view@DU?$char_traits@D@std@@@std@@V?$function@$$A6AHPEAUlua_State@@PEAVInstance@@@Z@2@U?$hash@V?$basic_string_view@DU?$char_traits@D@std@@@std@@@2@U?$equal_to@V?$basic_string_view@DU?$char_traits@D@std@@@std@@@2@V?$allocator@U?$pair@$$CBV?$basic_string_view@DU?$char_traits@D@std@@@std@@V?$function@$$A6AHPEAUlua_State@@PEAVInstance@@@Z@2@@std@@@2@@2@@std@@@2@$0A@@std@@@std@@IEBA_NXZ ; std::_Hash<std::_Umap_traits<std::basic_string_view<char,std::char_traits<char> >,std::unordered_map<std::basic_string_view<char,std::char_traits<char> >,std::function<int __cdecl(lua_State *,Instance *)>,std::hash<std::basic_string_view<char,std::char_traits<char> > >,std::equal_to<std::basic_string_view<char,std::char_traits<char> > >,std::allocator<std::pair<std::basic_string_view<char,std::char_traits<char> > const ,std::function<int __cdecl(lua_State *,Instance *)> > > >,std::_Uhash_compare<std::basic_string_view<char,std::char_traits<char> >,std::hash<std::basic_string_view<char,std::char_traits<char> > >,std::equal_to<std::basic_string_view<char,std::char_traits<char> > > >,std::allocator<std::pair<std::basic_string_view<char,std::char_traits<char> > const ,std::unordered_map<std::basic_string_view<char,std::char_traits<char> >,std::function<int __cdecl(lua_State *,Instance *)>,std::hash<std::basic_string_view<char,std::char_traits<char> > >,std::equal_to<std::basic_string_view<char,std::char_traits<char> > >,std::allocator<std::pair<std::basic_string_view<char,std::char_traits<char> > const ,std::function<int __cdecl(lua_State *,Instance *)> > > > > >,0> >::_Check_rehash_required_1
PUBLIC	?_Rehash_for_1@?$_Hash@V?$_Umap_traits@V?$basic_string_view@DU?$char_traits@D@std@@@std@@V?$unordered_map@V?$basic_string_view@DU?$char_traits@D@std@@@std@@V?$function@$$A6AHPEAUlua_State@@PEAVInstance@@@Z@2@U?$hash@V?$basic_string_view@DU?$char_traits@D@std@@@std@@@2@U?$equal_to@V?$basic_string_view@DU?$char_traits@D@std@@@std@@@2@V?$allocator@U?$pair@$$CBV?$basic_string_view@DU?$char_traits@D@std@@@std@@V?$function@$$A6AHPEAUlua_State@@PEAVInstance@@@Z@2@@std@@@2@@2@V?$_Uhash_compare@V?$basic_string_view@DU?$char_traits@D@std@@@std@@U?$hash@V?$basic_string_view@DU?$char_traits@D@std@@@std@@@2@U?$equal_to@V?$basic_string_view@DU?$char_traits@D@std@@@std@@@2@@2@V?$allocator@U?$pair@$$CBV?$basic_string_view@DU?$char_traits@D@std@@@std@@V?$unordered_map@V?$basic_string_view@DU?$char_traits@D@std@@@std@@V?$function@$$A6AHPEAUlua_State@@PEAVInstance@@@Z@2@U?$hash@V?$basic_string_view@DU?$char_traits@D@std@@@std@@@2@U?$equal_to@V?$basic_string_view@DU?$char_traits@D@std@@@std@@@2@V?$allocator@U?$pair@$$CBV?$basic_string_view@DU?$char_traits@D@std@@@std@@V?$function@$$A6AHPEAUlua_State@@PEAVInstance@@@Z@2@@std@@@2@@2@@std@@@2@$0A@@std@@@std@@IEAAXXZ ; std::_Hash<std::_Umap_traits<std::basic_string_view<char,std::char_traits<char> >,std::unordered_map<std::basic_string_view<char,std::char_traits<char> >,std::function<int __cdecl(lua_State *,Instance *)>,std::hash<std::basic_string_view<char,std::char_traits<char> > >,std::equal_to<std::basic_string_view<char,std::char_traits<char> > >,std::allocator<std::pair<std::basic_string_view<char,std::char_traits<char> > const ,std::function<int __cdecl(lua_State *,Instance *)> > > >,std::_Uhash_compare<std::basic_string_view<char,std::char_traits<char> >,std::hash<std::basic_string_view<char,std::char_traits<char> > >,std::equal_to<std::basic_string_view<char,std::char_traits<char> > > >,std::allocator<std::pair<std::basic_string_view<char,std::char_traits<char> > const ,std::unordered_map<std::basic_string_view<char,std::char_traits<char> >,std::function<int __cdecl(lua_State *,Instance *)>,std::hash<std::basic_string_view<char,std::char_traits<char> > >,std::equal_to<std::basic_string_view<char,std::char_traits<char> > >,std::allocator<std::pair<std::basic_string_view<char,std::char_traits<char> > const ,std::function<int __cdecl(lua_State *,Instance *)> > > > > >,0> >::_Rehash_for_1
PUBLIC	?_Min_load_factor_buckets@?$_Hash@V?$_Umap_traits@V?$basic_string_view@DU?$char_traits@D@std@@@std@@V?$unordered_map@V?$basic_string_view@DU?$char_traits@D@std@@@std@@V?$function@$$A6AHPEAUlua_State@@PEAVInstance@@@Z@2@U?$hash@V?$basic_string_view@DU?$char_traits@D@std@@@std@@@2@U?$equal_to@V?$basic_string_view@DU?$char_traits@D@std@@@std@@@2@V?$allocator@U?$pair@$$CBV?$basic_string_view@DU?$char_traits@D@std@@@std@@V?$function@$$A6AHPEAUlua_State@@PEAVInstance@@@Z@2@@std@@@2@@2@V?$_Uhash_compare@V?$basic_string_view@DU?$char_traits@D@std@@@std@@U?$hash@V?$basic_string_view@DU?$char_traits@D@std@@@std@@@2@U?$equal_to@V?$basic_string_view@DU?$char_traits@D@std@@@std@@@2@@2@V?$allocator@U?$pair@$$CBV?$basic_string_view@DU?$char_traits@D@std@@@std@@V?$unordered_map@V?$basic_string_view@DU?$char_traits@D@std@@@std@@V?$function@$$A6AHPEAUlua_State@@PEAVInstance@@@Z@2@U?$hash@V?$basic_string_view@DU?$char_traits@D@std@@@std@@@2@U?$equal_to@V?$basic_string_view@DU?$char_traits@D@std@@@std@@@2@V?$allocator@U?$pair@$$CBV?$basic_string_view@DU?$char_traits@D@std@@@std@@V?$function@$$A6AHPEAUlua_State@@PEAVInstance@@@Z@2@@std@@@2@@2@@std@@@2@$0A@@std@@@std@@IEBA_K_K@Z ; std::_Hash<std::_Umap_traits<std::basic_string_view<char,std::char_traits<char> >,std::unordered_map<std::basic_string_view<char,std::char_traits<char> >,std::function<int __cdecl(lua_State *,Instance *)>,std::hash<std::basic_string_view<char,std::char_traits<char> > >,std::equal_to<std::basic_string_view<char,std::char_traits<char> > >,std::allocator<std::pair<std::basic_string_view<char,std::char_traits<char> > const ,std::function<int __cdecl(lua_State *,Instance *)> > > >,std::_Uhash_compare<std::basic_string_view<char,std::char_traits<char> >,std::hash<std::basic_string_view<char,std::char_traits<char> > >,std::equal_to<std::basic_string_view<char,std::char_traits<char> > > >,std::allocator<std::pair<std::basic_string_view<char,std::char_traits<char> > const ,std::unordered_map<std::basic_string_view<char,std::char_traits<char> >,std::function<int __cdecl(lua_State *,Instance *)>,std::hash<std::basic_string_view<char,std::char_traits<char> > >,std::equal_to<std::basic_string_view<char,std::char_traits<char> > >,std::allocator<std::pair<std::basic_string_view<char,std::char_traits<char> > const ,std::function<int __cdecl(lua_State *,Instance *)> > > > > >,0> >::_Min_load_factor_buckets
PUBLIC	?_Desired_grow_bucket_count@?$_Hash@V?$_Umap_traits@V?$basic_string_view@DU?$char_traits@D@std@@@std@@V?$unordered_map@V?$basic_string_view@DU?$char_traits@D@std@@@std@@V?$function@$$A6AHPEAUlua_State@@PEAVInstance@@@Z@2@U?$hash@V?$basic_string_view@DU?$char_traits@D@std@@@std@@@2@U?$equal_to@V?$basic_string_view@DU?$char_traits@D@std@@@std@@@2@V?$allocator@U?$pair@$$CBV?$basic_string_view@DU?$char_traits@D@std@@@std@@V?$function@$$A6AHPEAUlua_State@@PEAVInstance@@@Z@2@@std@@@2@@2@V?$_Uhash_compare@V?$basic_string_view@DU?$char_traits@D@std@@@std@@U?$hash@V?$basic_string_view@DU?$char_traits@D@std@@@std@@@2@U?$equal_to@V?$basic_string_view@DU?$char_traits@D@std@@@std@@@2@@2@V?$allocator@U?$pair@$$CBV?$basic_string_view@DU?$char_traits@D@std@@@std@@V?$unordered_map@V?$basic_string_view@DU?$char_traits@D@std@@@std@@V?$function@$$A6AHPEAUlua_State@@PEAVInstance@@@Z@2@U?$hash@V?$basic_string_view@DU?$char_traits@D@std@@@std@@@2@U?$equal_to@V?$basic_string_view@DU?$char_traits@D@std@@@std@@@2@V?$allocator@U?$pair@$$CBV?$basic_string_view@DU?$char_traits@D@std@@@std@@V?$function@$$A6AHPEAUlua_State@@PEAVInstance@@@Z@2@@std@@@2@@2@@std@@@2@$0A@@std@@@std@@IEBA_K_K@Z ; std::_Hash<std::_Umap_traits<std::basic_string_view<char,std::char_traits<char> >,std::unordered_map<std::basic_string_view<char,std::char_traits<char> >,std::function<int __cdecl(lua_State *,Instance *)>,std::hash<std::basic_string_view<char,std::char_traits<char> > >,std::equal_to<std::basic_string_view<char,std::char_traits<char> > >,std::allocator<std::pair<std::basic_string_view<char,std::char_traits<char> > const ,std::function<int __cdecl(lua_State *,Instance *)> > > >,std::_Uhash_compare<std::basic_string_view<char,std::char_traits<char> >,std::hash<std::basic_string_view<char,std::char_traits<char> > >,std::equal_to<std::basic_string_view<char,std::char_traits<char> > > >,std::allocator<std::pair<std::basic_string_view<char,std::char_traits<char> > const ,std::unordered_map<std::basic_string_view<char,std::char_traits<char> >,std::function<int __cdecl(lua_State *,Instance *)>,std::hash<std::basic_string_view<char,std::char_traits<char> > >,std::equal_to<std::basic_string_view<char,std::char_traits<char> > >,std::allocator<std::pair<std::basic_string_view<char,std::char_traits<char> > const ,std::function<int __cdecl(lua_State *,Instance *)> > > > > >,0> >::_Desired_grow_bucket_count
PUBLIC	?_Forced_rehash@?$_Hash@V?$_Umap_traits@V?$basic_string_view@DU?$char_traits@D@std@@@std@@V?$unordered_map@V?$basic_string_view@DU?$char_traits@D@std@@@std@@V?$function@$$A6AHPEAUlua_State@@PEAVInstance@@@Z@2@U?$hash@V?$basic_string_view@DU?$char_traits@D@std@@@std@@@2@U?$equal_to@V?$basic_string_view@DU?$char_traits@D@std@@@std@@@2@V?$allocator@U?$pair@$$CBV?$basic_string_view@DU?$char_traits@D@std@@@std@@V?$function@$$A6AHPEAUlua_State@@PEAVInstance@@@Z@2@@std@@@2@@2@V?$_Uhash_compare@V?$basic_string_view@DU?$char_traits@D@std@@@std@@U?$hash@V?$basic_string_view@DU?$char_traits@D@std@@@std@@@2@U?$equal_to@V?$basic_string_view@DU?$char_traits@D@std@@@std@@@2@@2@V?$allocator@U?$pair@$$CBV?$basic_string_view@DU?$char_traits@D@std@@@std@@V?$unordered_map@V?$basic_string_view@DU?$char_traits@D@std@@@std@@V?$function@$$A6AHPEAUlua_State@@PEAVInstance@@@Z@2@U?$hash@V?$basic_string_view@DU?$char_traits@D@std@@@std@@@2@U?$equal_to@V?$basic_string_view@DU?$char_traits@D@std@@@std@@@2@V?$allocator@U?$pair@$$CBV?$basic_string_view@DU?$char_traits@D@std@@@std@@V?$function@$$A6AHPEAUlua_State@@PEAVInstance@@@Z@2@@std@@@2@@2@@std@@@2@$0A@@std@@@std@@IEAAX_K@Z ; std::_Hash<std::_Umap_traits<std::basic_string_view<char,std::char_traits<char> >,std::unordered_map<std::basic_string_view<char,std::char_traits<char> >,std::function<int __cdecl(lua_State *,Instance *)>,std::hash<std::basic_string_view<char,std::char_traits<char> > >,std::equal_to<std::basic_string_view<char,std::char_traits<char> > >,std::allocator<std::pair<std::basic_string_view<char,std::char_traits<char> > const ,std::function<int __cdecl(lua_State *,Instance *)> > > >,std::_Uhash_compare<std::basic_string_view<char,std::char_traits<char> >,std::hash<std::basic_string_view<char,std::char_traits<char> > >,std::equal_to<std::basic_string_view<char,std::char_traits<char> > > >,std::allocator<std::pair<std::basic_string_view<char,std::char_traits<char> > const ,std::unordered_map<std::basic_string_view<char,std::char_traits<char> >,std::function<int __cdecl(lua_State *,Instance *)>,std::hash<std::basic_string_view<char,std::char_traits<char> > >,std::equal_to<std::basic_string_view<char,std::char_traits<char> > >,std::allocator<std::pair<std::basic_string_view<char,std::char_traits<char> > const ,std::function<int __cdecl(lua_State *,Instance *)> > > > > >,0> >::_Forced_rehash
PUBLIC	?_Max_bucket_size@?$_Hash@V?$_Umap_traits@V?$basic_string_view@DU?$char_traits@D@std@@@std@@V?$unordered_map@V?$basic_string_view@DU?$char_traits@D@std@@@std@@V?$function@$$A6AHPEAUlua_State@@PEAVInstance@@@Z@2@U?$hash@V?$basic_string_view@DU?$char_traits@D@std@@@std@@@2@U?$equal_to@V?$basic_string_view@DU?$char_traits@D@std@@@std@@@2@V?$allocator@U?$pair@$$CBV?$basic_string_view@DU?$char_traits@D@std@@@std@@V?$function@$$A6AHPEAUlua_State@@PEAVInstance@@@Z@2@@std@@@2@@2@V?$_Uhash_compare@V?$basic_string_view@DU?$char_traits@D@std@@@std@@U?$hash@V?$basic_string_view@DU?$char_traits@D@std@@@std@@@2@U?$equal_to@V?$basic_string_view@DU?$char_traits@D@std@@@std@@@2@@2@V?$allocator@U?$pair@$$CBV?$basic_string_view@DU?$char_traits@D@std@@@std@@V?$unordered_map@V?$basic_string_view@DU?$char_traits@D@std@@@std@@V?$function@$$A6AHPEAUlua_State@@PEAVInstance@@@Z@2@U?$hash@V?$basic_string_view@DU?$char_traits@D@std@@@std@@@2@U?$equal_to@V?$basic_string_view@DU?$char_traits@D@std@@@std@@@2@V?$allocator@U?$pair@$$CBV?$basic_string_view@DU?$char_traits@D@std@@@std@@V?$function@$$A6AHPEAUlua_State@@PEAVInstance@@@Z@2@@std@@@2@@2@@std@@@2@$0A@@std@@@std@@IEAAAEAMXZ ; std::_Hash<std::_Umap_traits<std::basic_string_view<char,std::char_traits<char> >,std::unordered_map<std::basic_string_view<char,std::char_traits<char> >,std::function<int __cdecl(lua_State *,Instance *)>,std::hash<std::basic_string_view<char,std::char_traits<char> > >,std::equal_to<std::basic_string_view<char,std::char_traits<char> > >,std::allocator<std::pair<std::basic_string_view<char,std::char_traits<char> > const ,std::function<int __cdecl(lua_State *,Instance *)> > > >,std::_Uhash_compare<std::basic_string_view<char,std::char_traits<char> >,std::hash<std::basic_string_view<char,std::char_traits<char> > >,std::equal_to<std::basic_string_view<char,std::char_traits<char> > > >,std::allocator<std::pair<std::basic_string_view<char,std::char_traits<char> > const ,std::unordered_map<std::basic_string_view<char,std::char_traits<char> >,std::function<int __cdecl(lua_State *,Instance *)>,std::hash<std::basic_string_view<char,std::char_traits<char> > >,std::equal_to<std::basic_string_view<char,std::char_traits<char> > >,std::allocator<std::pair<std::basic_string_view<char,std::char_traits<char> > const ,std::function<int __cdecl(lua_State *,Instance *)> > > > > >,0> >::_Max_bucket_size
PUBLIC	?_Max_bucket_size@?$_Hash@V?$_Umap_traits@V?$basic_string_view@DU?$char_traits@D@std@@@std@@V?$unordered_map@V?$basic_string_view@DU?$char_traits@D@std@@@std@@V?$function@$$A6AHPEAUlua_State@@PEAVInstance@@@Z@2@U?$hash@V?$basic_string_view@DU?$char_traits@D@std@@@std@@@2@U?$equal_to@V?$basic_string_view@DU?$char_traits@D@std@@@std@@@2@V?$allocator@U?$pair@$$CBV?$basic_string_view@DU?$char_traits@D@std@@@std@@V?$function@$$A6AHPEAUlua_State@@PEAVInstance@@@Z@2@@std@@@2@@2@V?$_Uhash_compare@V?$basic_string_view@DU?$char_traits@D@std@@@std@@U?$hash@V?$basic_string_view@DU?$char_traits@D@std@@@std@@@2@U?$equal_to@V?$basic_string_view@DU?$char_traits@D@std@@@std@@@2@@2@V?$allocator@U?$pair@$$CBV?$basic_string_view@DU?$char_traits@D@std@@@std@@V?$unordered_map@V?$basic_string_view@DU?$char_traits@D@std@@@std@@V?$function@$$A6AHPEAUlua_State@@PEAVInstance@@@Z@2@U?$hash@V?$basic_string_view@DU?$char_traits@D@std@@@std@@@2@U?$equal_to@V?$basic_string_view@DU?$char_traits@D@std@@@std@@@2@V?$allocator@U?$pair@$$CBV?$basic_string_view@DU?$char_traits@D@std@@@std@@V?$function@$$A6AHPEAUlua_State@@PEAVInstance@@@Z@2@@std@@@2@@2@@std@@@2@$0A@@std@@@std@@IEBAAEBMXZ ; std::_Hash<std::_Umap_traits<std::basic_string_view<char,std::char_traits<char> >,std::unordered_map<std::basic_string_view<char,std::char_traits<char> >,std::function<int __cdecl(lua_State *,Instance *)>,std::hash<std::basic_string_view<char,std::char_traits<char> > >,std::equal_to<std::basic_string_view<char,std::char_traits<char> > >,std::allocator<std::pair<std::basic_string_view<char,std::char_traits<char> > const ,std::function<int __cdecl(lua_State *,Instance *)> > > >,std::_Uhash_compare<std::basic_string_view<char,std::char_traits<char> >,std::hash<std::basic_string_view<char,std::char_traits<char> > >,std::equal_to<std::basic_string_view<char,std::char_traits<char> > > >,std::allocator<std::pair<std::basic_string_view<char,std::char_traits<char> > const ,std::unordered_map<std::basic_string_view<char,std::char_traits<char> >,std::function<int __cdecl(lua_State *,Instance *)>,std::hash<std::basic_string_view<char,std::char_traits<char> > >,std::equal_to<std::basic_string_view<char,std::char_traits<char> > >,std::allocator<std::pair<std::basic_string_view<char,std::char_traits<char> > const ,std::function<int __cdecl(lua_State *,Instance *)> > > > > >,0> >::_Max_bucket_size
PUBLIC	?deallocate@?$allocator@V?$_List_unchecked_iterator@V?$_List_val@U?$_List_simple_types@U?$pair@$$CBV?$basic_string_view@DU?$char_traits@D@std@@@std@@V?$unordered_map@V?$basic_string_view@DU?$char_traits@D@std@@@std@@V?$function@$$A6AHPEAUlua_State@@PEAVInstance@@@Z@2@U?$hash@V?$basic_string_view@DU?$char_traits@D@std@@@std@@@2@U?$equal_to@V?$basic_string_view@DU?$char_traits@D@std@@@std@@@2@V?$allocator@U?$pair@$$CBV?$basic_string_view@DU?$char_traits@D@std@@@std@@V?$function@$$A6AHPEAUlua_State@@PEAVInstance@@@Z@2@@std@@@2@@2@@std@@@std@@@std@@@std@@@std@@QEAAXQEAV?$_List_unchecked_iterator@V?$_List_val@U?$_List_simple_types@U?$pair@$$CBV?$basic_string_view@DU?$char_traits@D@std@@@std@@V?$unordered_map@V?$basic_string_view@DU?$char_traits@D@std@@@std@@V?$function@$$A6AHPEAUlua_State@@PEAVInstance@@@Z@2@U?$hash@V?$basic_string_view@DU?$char_traits@D@std@@@std@@@2@U?$equal_to@V?$basic_string_view@DU?$char_traits@D@std@@@std@@@2@V?$allocator@U?$pair@$$CBV?$basic_string_view@DU?$char_traits@D@std@@@std@@V?$function@$$A6AHPEAUlua_State@@PEAVInstance@@@Z@2@@std@@@2@@2@@std@@@std@@@std@@@2@_K@Z ; std::allocator<std::_List_unchecked_iterator<std::_List_val<std::_List_simple_types<std::pair<std::basic_string_view<char,std::char_traits<char> > const ,std::unordered_map<std::basic_string_view<char,std::char_traits<char> >,std::function<int __cdecl(lua_State *,Instance *)>,std::hash<std::basic_string_view<char,std::char_traits<char> > >,std::equal_to<std::basic_string_view<char,std::char_traits<char> > >,std::allocator<std::pair<std::basic_string_view<char,std::char_traits<char> > const ,std::function<int __cdecl(lua_State *,Instance *)> > > > > > > > >::deallocate
PUBLIC	?allocate@?$allocator@V?$_List_unchecked_iterator@V?$_List_val@U?$_List_simple_types@U?$pair@$$CBV?$basic_string_view@DU?$char_traits@D@std@@@std@@V?$unordered_map@V?$basic_string_view@DU?$char_traits@D@std@@@std@@V?$function@$$A6AHPEAUlua_State@@PEAVInstance@@@Z@2@U?$hash@V?$basic_string_view@DU?$char_traits@D@std@@@std@@@2@U?$equal_to@V?$basic_string_view@DU?$char_traits@D@std@@@std@@@2@V?$allocator@U?$pair@$$CBV?$basic_string_view@DU?$char_traits@D@std@@@std@@V?$function@$$A6AHPEAUlua_State@@PEAVInstance@@@Z@2@@std@@@2@@2@@std@@@std@@@std@@@std@@@std@@QEAAPEAV?$_List_unchecked_iterator@V?$_List_val@U?$_List_simple_types@U?$pair@$$CBV?$basic_string_view@DU?$char_traits@D@std@@@std@@V?$unordered_map@V?$basic_string_view@DU?$char_traits@D@std@@@std@@V?$function@$$A6AHPEAUlua_State@@PEAVInstance@@@Z@2@U?$hash@V?$basic_string_view@DU?$char_traits@D@std@@@std@@@2@U?$equal_to@V?$basic_string_view@DU?$char_traits@D@std@@@std@@@2@V?$allocator@U?$pair@$$CBV?$basic_string_view@DU?$char_traits@D@std@@@std@@V?$function@$$A6AHPEAUlua_State@@PEAVInstance@@@Z@2@@std@@@2@@2@@std@@@std@@@std@@@2@_K@Z ; std::allocator<std::_List_unchecked_iterator<std::_List_val<std::_List_simple_types<std::pair<std::basic_string_view<char,std::char_traits<char> > const ,std::unordered_map<std::basic_string_view<char,std::char_traits<char> >,std::function<int __cdecl(lua_State *,Instance *)>,std::hash<std::basic_string_view<char,std::char_traits<char> > >,std::equal_to<std::basic_string_view<char,std::char_traits<char> > >,std::allocator<std::pair<std::basic_string_view<char,std::char_traits<char> > const ,std::function<int __cdecl(lua_State *,Instance *)> > > > > > > > >::allocate
PUBLIC	?max_size@?$_Default_allocator_traits@V?$allocator@V?$_List_unchecked_iterator@V?$_List_val@U?$_List_simple_types@U?$pair@$$CBV?$basic_string_view@DU?$char_traits@D@std@@@std@@V?$unordered_map@V?$basic_string_view@DU?$char_traits@D@std@@@std@@V?$function@$$A6AHPEAUlua_State@@PEAVInstance@@@Z@2@U?$hash@V?$basic_string_view@DU?$char_traits@D@std@@@std@@@2@U?$equal_to@V?$basic_string_view@DU?$char_traits@D@std@@@std@@@2@V?$allocator@U?$pair@$$CBV?$basic_string_view@DU?$char_traits@D@std@@@std@@V?$function@$$A6AHPEAUlua_State@@PEAVInstance@@@Z@2@@std@@@2@@2@@std@@@std@@@std@@@std@@@std@@@std@@SA_KAEBV?$allocator@V?$_List_unchecked_iterator@V?$_List_val@U?$_List_simple_types@U?$pair@$$CBV?$basic_string_view@DU?$char_traits@D@std@@@std@@V?$unordered_map@V?$basic_string_view@DU?$char_traits@D@std@@@std@@V?$function@$$A6AHPEAUlua_State@@PEAVInstance@@@Z@2@U?$hash@V?$basic_string_view@DU?$char_traits@D@std@@@std@@@2@U?$equal_to@V?$basic_string_view@DU?$char_traits@D@std@@@std@@@2@V?$allocator@U?$pair@$$CBV?$basic_string_view@DU?$char_traits@D@std@@@std@@V?$function@$$A6AHPEAUlua_State@@PEAVInstance@@@Z@2@@std@@@2@@2@@std@@@std@@@std@@@std@@@2@@Z ; std::_Default_allocator_traits<std::allocator<std::_List_unchecked_iterator<std::_List_val<std::_List_simple_types<std::pair<std::basic_string_view<char,std::char_traits<char> > const ,std::unordered_map<std::basic_string_view<char,std::char_traits<char> >,std::function<int __cdecl(lua_State *,Instance *)>,std::hash<std::basic_string_view<char,std::char_traits<char> > >,std::equal_to<std::basic_string_view<char,std::char_traits<char> > >,std::allocator<std::pair<std::basic_string_view<char,std::char_traits<char> > const ,std::function<int __cdecl(lua_State *,Instance *)> > > > > > > > > >::max_size
PUBLIC	?size@?$_Hash_vec@V?$allocator@V?$_List_unchecked_iterator@V?$_List_val@U?$_List_simple_types@U?$pair@$$CBV?$basic_string_view@DU?$char_traits@D@std@@@std@@V?$unordered_map@V?$basic_string_view@DU?$char_traits@D@std@@@std@@V?$function@$$A6AHPEAUlua_State@@PEAVInstance@@@Z@2@U?$hash@V?$basic_string_view@DU?$char_traits@D@std@@@std@@@2@U?$equal_to@V?$basic_string_view@DU?$char_traits@D@std@@@std@@@2@V?$allocator@U?$pair@$$CBV?$basic_string_view@DU?$char_traits@D@std@@@std@@V?$function@$$A6AHPEAUlua_State@@PEAVInstance@@@Z@2@@std@@@2@@2@@std@@@std@@@std@@@std@@@std@@@std@@QEBA_KXZ ; std::_Hash_vec<std::allocator<std::_List_unchecked_iterator<std::_List_val<std::_List_simple_types<std::pair<std::basic_string_view<char,std::char_traits<char> > const ,std::unordered_map<std::basic_string_view<char,std::char_traits<char> >,std::function<int __cdecl(lua_State *,Instance *)>,std::hash<std::basic_string_view<char,std::char_traits<char> > >,std::equal_to<std::basic_string_view<char,std::char_traits<char> > >,std::allocator<std::pair<std::basic_string_view<char,std::char_traits<char> > const ,std::function<int __cdecl(lua_State *,Instance *)> > > > > > > > > >::size
PUBLIC	?max_size@?$_Hash_vec@V?$allocator@V?$_List_unchecked_iterator@V?$_List_val@U?$_List_simple_types@U?$pair@$$CBV?$basic_string_view@DU?$char_traits@D@std@@@std@@V?$unordered_map@V?$basic_string_view@DU?$char_traits@D@std@@@std@@V?$function@$$A6AHPEAUlua_State@@PEAVInstance@@@Z@2@U?$hash@V?$basic_string_view@DU?$char_traits@D@std@@@std@@@2@U?$equal_to@V?$basic_string_view@DU?$char_traits@D@std@@@std@@@2@V?$allocator@U?$pair@$$CBV?$basic_string_view@DU?$char_traits@D@std@@@std@@V?$function@$$A6AHPEAUlua_State@@PEAVInstance@@@Z@2@@std@@@2@@2@@std@@@std@@@std@@@std@@@std@@@std@@QEBA_KXZ ; std::_Hash_vec<std::allocator<std::_List_unchecked_iterator<std::_List_val<std::_List_simple_types<std::pair<std::basic_string_view<char,std::char_traits<char> > const ,std::unordered_map<std::basic_string_view<char,std::char_traits<char> >,std::function<int __cdecl(lua_State *,Instance *)>,std::hash<std::basic_string_view<char,std::char_traits<char> > >,std::equal_to<std::basic_string_view<char,std::char_traits<char> > >,std::allocator<std::pair<std::basic_string_view<char,std::char_traits<char> > const ,std::function<int __cdecl(lua_State *,Instance *)> > > > > > > > > >::max_size
PUBLIC	?capacity@?$_Hash_vec@V?$allocator@V?$_List_unchecked_iterator@V?$_List_val@U?$_List_simple_types@U?$pair@$$CBV?$basic_string_view@DU?$char_traits@D@std@@@std@@V?$unordered_map@V?$basic_string_view@DU?$char_traits@D@std@@@std@@V?$function@$$A6AHPEAUlua_State@@PEAVInstance@@@Z@2@U?$hash@V?$basic_string_view@DU?$char_traits@D@std@@@std@@@2@U?$equal_to@V?$basic_string_view@DU?$char_traits@D@std@@@std@@@2@V?$allocator@U?$pair@$$CBV?$basic_string_view@DU?$char_traits@D@std@@@std@@V?$function@$$A6AHPEAUlua_State@@PEAVInstance@@@Z@2@@std@@@2@@2@@std@@@std@@@std@@@std@@@std@@@std@@QEBA_KXZ ; std::_Hash_vec<std::allocator<std::_List_unchecked_iterator<std::_List_val<std::_List_simple_types<std::pair<std::basic_string_view<char,std::char_traits<char> > const ,std::unordered_map<std::basic_string_view<char,std::char_traits<char> >,std::function<int __cdecl(lua_State *,Instance *)>,std::hash<std::basic_string_view<char,std::char_traits<char> > >,std::equal_to<std::basic_string_view<char,std::char_traits<char> > >,std::allocator<std::pair<std::basic_string_view<char,std::char_traits<char> > const ,std::function<int __cdecl(lua_State *,Instance *)> > > > > > > > > >::capacity
PUBLIC	?_Assign_grow@?$_Hash_vec@V?$allocator@V?$_List_unchecked_iterator@V?$_List_val@U?$_List_simple_types@U?$pair@$$CBV?$basic_string_view@DU?$char_traits@D@std@@@std@@V?$unordered_map@V?$basic_string_view@DU?$char_traits@D@std@@@std@@V?$function@$$A6AHPEAUlua_State@@PEAVInstance@@@Z@2@U?$hash@V?$basic_string_view@DU?$char_traits@D@std@@@std@@@2@U?$equal_to@V?$basic_string_view@DU?$char_traits@D@std@@@std@@@2@V?$allocator@U?$pair@$$CBV?$basic_string_view@DU?$char_traits@D@std@@@std@@V?$function@$$A6AHPEAUlua_State@@PEAVInstance@@@Z@2@@std@@@2@@2@@std@@@std@@@std@@@std@@@std@@@std@@QEAAX_KV?$_List_unchecked_iterator@V?$_List_val@U?$_List_simple_types@U?$pair@$$CBV?$basic_string_view@DU?$char_traits@D@std@@@std@@V?$unordered_map@V?$basic_string_view@DU?$char_traits@D@std@@@std@@V?$function@$$A6AHPEAUlua_State@@PEAVInstance@@@Z@2@U?$hash@V?$basic_string_view@DU?$char_traits@D@std@@@std@@@2@U?$equal_to@V?$basic_string_view@DU?$char_traits@D@std@@@std@@@2@V?$allocator@U?$pair@$$CBV?$basic_string_view@DU?$char_traits@D@std@@@std@@V?$function@$$A6AHPEAUlua_State@@PEAVInstance@@@Z@2@@std@@@2@@2@@std@@@std@@@std@@@2@@Z ; std::_Hash_vec<std::allocator<std::_List_unchecked_iterator<std::_List_val<std::_List_simple_types<std::pair<std::basic_string_view<char,std::char_traits<char> > const ,std::unordered_map<std::basic_string_view<char,std::char_traits<char> >,std::function<int __cdecl(lua_State *,Instance *)>,std::hash<std::basic_string_view<char,std::char_traits<char> > >,std::equal_to<std::basic_string_view<char,std::char_traits<char> > >,std::allocator<std::pair<std::basic_string_view<char,std::char_traits<char> > const ,std::function<int __cdecl(lua_State *,Instance *)> > > > > > > > > >::_Assign_grow
PUBLIC	?_Tidy@?$_Hash_vec@V?$allocator@V?$_List_unchecked_iterator@V?$_List_val@U?$_List_simple_types@U?$pair@$$CBV?$basic_string_view@DU?$char_traits@D@std@@@std@@V?$unordered_map@V?$basic_string_view@DU?$char_traits@D@std@@@std@@V?$function@$$A6AHPEAUlua_State@@PEAVInstance@@@Z@2@U?$hash@V?$basic_string_view@DU?$char_traits@D@std@@@std@@@2@U?$equal_to@V?$basic_string_view@DU?$char_traits@D@std@@@std@@@2@V?$allocator@U?$pair@$$CBV?$basic_string_view@DU?$char_traits@D@std@@@std@@V?$function@$$A6AHPEAUlua_State@@PEAVInstance@@@Z@2@@std@@@2@@2@@std@@@std@@@std@@@std@@@std@@@std@@QEAAXXZ ; std::_Hash_vec<std::allocator<std::_List_unchecked_iterator<std::_List_val<std::_List_simple_types<std::pair<std::basic_string_view<char,std::char_traits<char> > const ,std::unordered_map<std::basic_string_view<char,std::char_traits<char> >,std::function<int __cdecl(lua_State *,Instance *)>,std::hash<std::basic_string_view<char,std::char_traits<char> > >,std::equal_to<std::basic_string_view<char,std::char_traits<char> > >,std::allocator<std::pair<std::basic_string_view<char,std::char_traits<char> > const ,std::function<int __cdecl(lua_State *,Instance *)> > > > > > > > > >::_Tidy
PUBLIC	??1?$_Hash_vec@V?$allocator@V?$_List_unchecked_iterator@V?$_List_val@U?$_List_simple_types@U?$pair@$$CBV?$basic_string_view@DU?$char_traits@D@std@@@std@@V?$unordered_map@V?$basic_string_view@DU?$char_traits@D@std@@@std@@V?$function@$$A6AHPEAUlua_State@@PEAVInstance@@@Z@2@U?$hash@V?$basic_string_view@DU?$char_traits@D@std@@@std@@@2@U?$equal_to@V?$basic_string_view@DU?$char_traits@D@std@@@std@@@2@V?$allocator@U?$pair@$$CBV?$basic_string_view@DU?$char_traits@D@std@@@std@@V?$function@$$A6AHPEAUlua_State@@PEAVInstance@@@Z@2@@std@@@2@@2@@std@@@std@@@std@@@std@@@std@@@std@@QEAA@XZ ; std::_Hash_vec<std::allocator<std::_List_unchecked_iterator<std::_List_val<std::_List_simple_types<std::pair<std::basic_string_view<char,std::char_traits<char> > const ,std::unordered_map<std::basic_string_view<char,std::char_traits<char> >,std::function<int __cdecl(lua_State *,Instance *)>,std::hash<std::basic_string_view<char,std::char_traits<char> > >,std::equal_to<std::basic_string_view<char,std::char_traits<char> > >,std::allocator<std::pair<std::basic_string_view<char,std::char_traits<char> > const ,std::function<int __cdecl(lua_State *,Instance *)> > > > > > > > > >::~_Hash_vec<std::allocator<std::_List_unchecked_iterator<std::_List_val<std::_List_simple_types<std::pair<std::basic_string_view<char,std::char_traits<char> > const ,std::unordered_map<std::basic_string_view<char,std::char_traits<char> >,std::function<int __cdecl(lua_State *,Instance *)>,std::hash<std::basic_string_view<char,std::char_traits<char> > >,std::equal_to<std::basic_string_view<char,std::char_traits<char> > >,std::allocator<std::pair<std::basic_string_view<char,std::char_traits<char> > const ,std::function<int __cdecl(lua_State *,Instance *)> > > > > > > > > >
PUBLIC	??0?$_Vector_val@U?$_Simple_types@V?$_List_unchecked_iterator@V?$_List_val@U?$_List_simple_types@U?$pair@$$CBV?$basic_string_view@DU?$char_traits@D@std@@@std@@V?$unordered_map@V?$basic_string_view@DU?$char_traits@D@std@@@std@@V?$function@$$A6AHPEAUlua_State@@PEAVInstance@@@Z@2@U?$hash@V?$basic_string_view@DU?$char_traits@D@std@@@std@@@2@U?$equal_to@V?$basic_string_view@DU?$char_traits@D@std@@@std@@@2@V?$allocator@U?$pair@$$CBV?$basic_string_view@DU?$char_traits@D@std@@@std@@V?$function@$$A6AHPEAUlua_State@@PEAVInstance@@@Z@2@@std@@@2@@2@@std@@@std@@@std@@@std@@@std@@@std@@QEAA@XZ ; std::_Vector_val<std::_Simple_types<std::_List_unchecked_iterator<std::_List_val<std::_List_simple_types<std::pair<std::basic_string_view<char,std::char_traits<char> > const ,std::unordered_map<std::basic_string_view<char,std::char_traits<char> >,std::function<int __cdecl(lua_State *,Instance *)>,std::hash<std::basic_string_view<char,std::char_traits<char> > >,std::equal_to<std::basic_string_view<char,std::char_traits<char> > >,std::allocator<std::pair<std::basic_string_view<char,std::char_traits<char> > const ,std::function<int __cdecl(lua_State *,Instance *)> > > > > > > > > >::_Vector_val<std::_Simple_types<std::_List_unchecked_iterator<std::_List_val<std::_List_simple_types<std::pair<std::basic_string_view<char,std::char_traits<char> > const ,std::unordered_map<std::basic_string_view<char,std::char_traits<char> >,std::function<int __cdecl(lua_State *,Instance *)>,std::hash<std::basic_string_view<char,std::char_traits<char> > >,std::equal_to<std::basic_string_view<char,std::char_traits<char> > >,std::allocator<std::pair<std::basic_string_view<char,std::char_traits<char> > const ,std::function<int __cdecl(lua_State *,Instance *)> > > > > > > > > >
PUBLIC	?_Get_first@?$_Compressed_pair@V?$allocator@V?$_List_unchecked_iterator@V?$_List_val@U?$_List_simple_types@U?$pair@$$CBV?$basic_string_view@DU?$char_traits@D@std@@@std@@V?$unordered_map@V?$basic_string_view@DU?$char_traits@D@std@@@std@@V?$function@$$A6AHPEAUlua_State@@PEAVInstance@@@Z@2@U?$hash@V?$basic_string_view@DU?$char_traits@D@std@@@std@@@2@U?$equal_to@V?$basic_string_view@DU?$char_traits@D@std@@@std@@@2@V?$allocator@U?$pair@$$CBV?$basic_string_view@DU?$char_traits@D@std@@@std@@V?$function@$$A6AHPEAUlua_State@@PEAVInstance@@@Z@2@@std@@@2@@2@@std@@@std@@@std@@@std@@@std@@V?$_Vector_val@U?$_Simple_types@V?$_List_unchecked_iterator@V?$_List_val@U?$_List_simple_types@U?$pair@$$CBV?$basic_string_view@DU?$char_traits@D@std@@@std@@V?$unordered_map@V?$basic_string_view@DU?$char_traits@D@std@@@std@@V?$function@$$A6AHPEAUlua_State@@PEAVInstance@@@Z@2@U?$hash@V?$basic_string_view@DU?$char_traits@D@std@@@std@@@2@U?$equal_to@V?$basic_string_view@DU?$char_traits@D@std@@@std@@@2@V?$allocator@U?$pair@$$CBV?$basic_string_view@DU?$char_traits@D@std@@@std@@V?$function@$$A6AHPEAUlua_State@@PEAVInstance@@@Z@2@@std@@@2@@2@@std@@@std@@@std@@@std@@@std@@@2@$00@std@@QEAAAEAV?$allocator@V?$_List_unchecked_iterator@V?$_List_val@U?$_List_simple_types@U?$pair@$$CBV?$basic_string_view@DU?$char_traits@D@std@@@std@@V?$unordered_map@V?$basic_string_view@DU?$char_traits@D@std@@@std@@V?$function@$$A6AHPEAUlua_State@@PEAVInstance@@@Z@2@U?$hash@V?$basic_string_view@DU?$char_traits@D@std@@@std@@@2@U?$equal_to@V?$basic_string_view@DU?$char_traits@D@std@@@std@@@2@V?$allocator@U?$pair@$$CBV?$basic_string_view@DU?$char_traits@D@std@@@std@@V?$function@$$A6AHPEAUlua_State@@PEAVInstance@@@Z@2@@std@@@2@@2@@std@@@std@@@std@@@std@@@2@XZ ; std::_Compressed_pair<std::allocator<std::_List_unchecked_iterator<std::_List_val<std::_List_simple_types<std::pair<std::basic_string_view<char,std::char_traits<char> > const ,std::unordered_map<std::basic_string_view<char,std::char_traits<char> >,std::function<int __cdecl(lua_State *,Instance *)>,std::hash<std::basic_string_view<char,std::char_traits<char> > >,std::equal_to<std::basic_string_view<char,std::char_traits<char> > >,std::allocator<std::pair<std::basic_string_view<char,std::char_traits<char> > const ,std::function<int __cdecl(lua_State *,Instance *)> > > > > > > > >,std::_Vector_val<std::_Simple_types<std::_List_unchecked_iterator<std::_List_val<std::_List_simple_types<std::pair<std::basic_string_view<char,std::char_traits<char> > const ,std::unordered_map<std::basic_string_view<char,std::char_traits<char> >,std::function<int __cdecl(lua_State *,Instance *)>,std::hash<std::basic_string_view<char,std::char_traits<char> > >,std::equal_to<std::basic_string_view<char,std::char_traits<char> > >,std::allocator<std::pair<std::basic_string_view<char,std::char_traits<char> > const ,std::function<int __cdecl(lua_State *,Instance *)> > > > > > > > > >,1>::_Get_first
PUBLIC	?_Get_first@?$_Compressed_pair@V?$allocator@V?$_List_unchecked_iterator@V?$_List_val@U?$_List_simple_types@U?$pair@$$CBV?$basic_string_view@DU?$char_traits@D@std@@@std@@V?$unordered_map@V?$basic_string_view@DU?$char_traits@D@std@@@std@@V?$function@$$A6AHPEAUlua_State@@PEAVInstance@@@Z@2@U?$hash@V?$basic_string_view@DU?$char_traits@D@std@@@std@@@2@U?$equal_to@V?$basic_string_view@DU?$char_traits@D@std@@@std@@@2@V?$allocator@U?$pair@$$CBV?$basic_string_view@DU?$char_traits@D@std@@@std@@V?$function@$$A6AHPEAUlua_State@@PEAVInstance@@@Z@2@@std@@@2@@2@@std@@@std@@@std@@@std@@@std@@V?$_Vector_val@U?$_Simple_types@V?$_List_unchecked_iterator@V?$_List_val@U?$_List_simple_types@U?$pair@$$CBV?$basic_string_view@DU?$char_traits@D@std@@@std@@V?$unordered_map@V?$basic_string_view@DU?$char_traits@D@std@@@std@@V?$function@$$A6AHPEAUlua_State@@PEAVInstance@@@Z@2@U?$hash@V?$basic_string_view@DU?$char_traits@D@std@@@std@@@2@U?$equal_to@V?$basic_string_view@DU?$char_traits@D@std@@@std@@@2@V?$allocator@U?$pair@$$CBV?$basic_string_view@DU?$char_traits@D@std@@@std@@V?$function@$$A6AHPEAUlua_State@@PEAVInstance@@@Z@2@@std@@@2@@2@@std@@@std@@@std@@@std@@@std@@@2@$00@std@@QEBAAEBV?$allocator@V?$_List_unchecked_iterator@V?$_List_val@U?$_List_simple_types@U?$pair@$$CBV?$basic_string_view@DU?$char_traits@D@std@@@std@@V?$unordered_map@V?$basic_string_view@DU?$char_traits@D@std@@@std@@V?$function@$$A6AHPEAUlua_State@@PEAVInstance@@@Z@2@U?$hash@V?$basic_string_view@DU?$char_traits@D@std@@@std@@@2@U?$equal_to@V?$basic_string_view@DU?$char_traits@D@std@@@std@@@2@V?$allocator@U?$pair@$$CBV?$basic_string_view@DU?$char_traits@D@std@@@std@@V?$function@$$A6AHPEAUlua_State@@PEAVInstance@@@Z@2@@std@@@2@@2@@std@@@std@@@std@@@std@@@2@XZ ; std::_Compressed_pair<std::allocator<std::_List_unchecked_iterator<std::_List_val<std::_List_simple_types<std::pair<std::basic_string_view<char,std::char_traits<char> > const ,std::unordered_map<std::basic_string_view<char,std::char_traits<char> >,std::function<int __cdecl(lua_State *,Instance *)>,std::hash<std::basic_string_view<char,std::char_traits<char> > >,std::equal_to<std::basic_string_view<char,std::char_traits<char> > >,std::allocator<std::pair<std::basic_string_view<char,std::char_traits<char> > const ,std::function<int __cdecl(lua_State *,Instance *)> > > > > > > > >,std::_Vector_val<std::_Simple_types<std::_List_unchecked_iterator<std::_List_val<std::_List_simple_types<std::pair<std::basic_string_view<char,std::char_traits<char> > const ,std::unordered_map<std::basic_string_view<char,std::char_traits<char> >,std::function<int __cdecl(lua_State *,Instance *)>,std::hash<std::basic_string_view<char,std::char_traits<char> > >,std::equal_to<std::basic_string_view<char,std::char_traits<char> > >,std::allocator<std::pair<std::basic_string_view<char,std::char_traits<char> > const ,std::function<int __cdecl(lua_State *,Instance *)> > > > > > > > > >,1>::_Get_first
PUBLIC	??1?$_Hash@V?$_Umap_traits@V?$basic_string_view@DU?$char_traits@D@std@@@std@@V?$unordered_map@V?$basic_string_view@DU?$char_traits@D@std@@@std@@V?$function@$$A6AHPEAUlua_State@@PEAVInstance@@@Z@2@U?$hash@V?$basic_string_view@DU?$char_traits@D@std@@@std@@@2@U?$equal_to@V?$basic_string_view@DU?$char_traits@D@std@@@std@@@2@V?$allocator@U?$pair@$$CBV?$basic_string_view@DU?$char_traits@D@std@@@std@@V?$function@$$A6AHPEAUlua_State@@PEAVInstance@@@Z@2@@std@@@2@@2@V?$_Uhash_compare@V?$basic_string_view@DU?$char_traits@D@std@@@std@@U?$hash@V?$basic_string_view@DU?$char_traits@D@std@@@std@@@2@U?$equal_to@V?$basic_string_view@DU?$char_traits@D@std@@@std@@@2@@2@V?$allocator@U?$pair@$$CBV?$basic_string_view@DU?$char_traits@D@std@@@std@@V?$unordered_map@V?$basic_string_view@DU?$char_traits@D@std@@@std@@V?$function@$$A6AHPEAUlua_State@@PEAVInstance@@@Z@2@U?$hash@V?$basic_string_view@DU?$char_traits@D@std@@@std@@@2@U?$equal_to@V?$basic_string_view@DU?$char_traits@D@std@@@std@@@2@V?$allocator@U?$pair@$$CBV?$basic_string_view@DU?$char_traits@D@std@@@std@@V?$function@$$A6AHPEAUlua_State@@PEAVInstance@@@Z@2@@std@@@2@@2@@std@@@2@$0A@@std@@@std@@QEAA@XZ ; std::_Hash<std::_Umap_traits<std::basic_string_view<char,std::char_traits<char> >,std::unordered_map<std::basic_string_view<char,std::char_traits<char> >,std::function<int __cdecl(lua_State *,Instance *)>,std::hash<std::basic_string_view<char,std::char_traits<char> > >,std::equal_to<std::basic_string_view<char,std::char_traits<char> > >,std::allocator<std::pair<std::basic_string_view<char,std::char_traits<char> > const ,std::function<int __cdecl(lua_State *,Instance *)> > > >,std::_Uhash_compare<std::basic_string_view<char,std::char_traits<char> >,std::hash<std::basic_string_view<char,std::char_traits<char> > >,std::equal_to<std::basic_string_view<char,std::char_traits<char> > > >,std::allocator<std::pair<std::basic_string_view<char,std::char_traits<char> > const ,std::unordered_map<std::basic_string_view<char,std::char_traits<char> >,std::function<int __cdecl(lua_State *,Instance *)>,std::hash<std::basic_string_view<char,std::char_traits<char> > >,std::equal_to<std::basic_string_view<char,std::char_traits<char> > >,std::allocator<std::pair<std::basic_string_view<char,std::char_traits<char> > const ,std::function<int __cdecl(lua_State *,Instance *)> > > > > >,0> >::~_Hash<std::_Umap_traits<std::basic_string_view<char,std::char_traits<char> >,std::unordered_map<std::basic_string_view<char,std::char_traits<char> >,std::function<int __cdecl(lua_State *,Instance *)>,std::hash<std::basic_string_view<char,std::char_traits<char> > >,std::equal_to<std::basic_string_view<char,std::char_traits<char> > >,std::allocator<std::pair<std::basic_string_view<char,std::char_traits<char> > const ,std::function<int __cdecl(lua_State *,Instance *)> > > >,std::_Uhash_compare<std::basic_string_view<char,std::char_traits<char> >,std::hash<std::basic_string_view<char,std::char_traits<char> > >,std::equal_to<std::basic_string_view<char,std::char_traits<char> > > >,std::allocator<std::pair<std::basic_string_view<char,std::char_traits<char> > const ,std::unordered_map<std::basic_string_view<char,std::char_traits<char> >,std::function<int __cdecl(lua_State *,Instance *)>,std::hash<std::basic_string_view<char,std::char_traits<char> > >,std::equal_to<std::basic_string_view<char,std::char_traits<char> > >,std::allocator<std::pair<std::basic_string_view<char,std::char_traits<char> > const ,std::function<int __cdecl(lua_State *,Instance *)> > > > > >,0> >
PUBLIC	??0?$unordered_map@V?$basic_string_view@DU?$char_traits@D@std@@@std@@V?$unordered_map@V?$basic_string_view@DU?$char_traits@D@std@@@std@@V?$function@$$A6AHPEAUlua_State@@PEAVInstance@@@Z@2@U?$hash@V?$basic_string_view@DU?$char_traits@D@std@@@std@@@2@U?$equal_to@V?$basic_string_view@DU?$char_traits@D@std@@@std@@@2@V?$allocator@U?$pair@$$CBV?$basic_string_view@DU?$char_traits@D@std@@@std@@V?$function@$$A6AHPEAUlua_State@@PEAVInstance@@@Z@2@@std@@@2@@2@U?$hash@V?$basic_string_view@DU?$char_traits@D@std@@@std@@@2@U?$equal_to@V?$basic_string_view@DU?$char_traits@D@std@@@std@@@2@V?$allocator@U?$pair@$$CBV?$basic_string_view@DU?$char_traits@D@std@@@std@@V?$unordered_map@V?$basic_string_view@DU?$char_traits@D@std@@@std@@V?$function@$$A6AHPEAUlua_State@@PEAVInstance@@@Z@2@U?$hash@V?$basic_string_view@DU?$char_traits@D@std@@@std@@@2@U?$equal_to@V?$basic_string_view@DU?$char_traits@D@std@@@std@@@2@V?$allocator@U?$pair@$$CBV?$basic_string_view@DU?$char_traits@D@std@@@std@@V?$function@$$A6AHPEAUlua_State@@PEAVInstance@@@Z@2@@std@@@2@@2@@std@@@2@@std@@QEAA@XZ ; std::unordered_map<std::basic_string_view<char,std::char_traits<char> >,std::unordered_map<std::basic_string_view<char,std::char_traits<char> >,std::function<int __cdecl(lua_State *,Instance *)>,std::hash<std::basic_string_view<char,std::char_traits<char> > >,std::equal_to<std::basic_string_view<char,std::char_traits<char> > >,std::allocator<std::pair<std::basic_string_view<char,std::char_traits<char> > const ,std::function<int __cdecl(lua_State *,Instance *)> > > >,std::hash<std::basic_string_view<char,std::char_traits<char> > >,std::equal_to<std::basic_string_view<char,std::char_traits<char> > >,std::allocator<std::pair<std::basic_string_view<char,std::char_traits<char> > const ,std::unordered_map<std::basic_string_view<char,std::char_traits<char> >,std::function<int __cdecl(lua_State *,Instance *)>,std::hash<std::basic_string_view<char,std::char_traits<char> > >,std::equal_to<std::basic_string_view<char,std::char_traits<char> > >,std::allocator<std::pair<std::basic_string_view<char,std::char_traits<char> > const ,std::function<int __cdecl(lua_State *,Instance *)> > > > > > >::unordered_map<std::basic_string_view<char,std::char_traits<char> >,std::unordered_map<std::basic_string_view<char,std::char_traits<char> >,std::function<int __cdecl(lua_State *,Instance *)>,std::hash<std::basic_string_view<char,std::char_traits<char> > >,std::equal_to<std::basic_string_view<char,std::char_traits<char> > >,std::allocator<std::pair<std::basic_string_view<char,std::char_traits<char> > const ,std::function<int __cdecl(lua_State *,Instance *)> > > >,std::hash<std::basic_string_view<char,std::char_traits<char> > >,std::equal_to<std::basic_string_view<char,std::char_traits<char> > >,std::allocator<std::pair<std::basic_string_view<char,std::char_traits<char> > const ,std::unordered_map<std::basic_string_view<char,std::char_traits<char> >,std::function<int __cdecl(lua_State *,Instance *)>,std::hash<std::basic_string_view<char,std::char_traits<char> > >,std::equal_to<std::basic_string_view<char,std::char_traits<char> > >,std::allocator<std::pair<std::basic_string_view<char,std::char_traits<char> > const ,std::function<int __cdecl(lua_State *,Instance *)> > > > > > >
PUBLIC	??A?$unordered_map@V?$basic_string_view@DU?$char_traits@D@std@@@std@@V?$unordered_map@V?$basic_string_view@DU?$char_traits@D@std@@@std@@V?$function@$$A6AHPEAUlua_State@@PEAVInstance@@@Z@2@U?$hash@V?$basic_string_view@DU?$char_traits@D@std@@@std@@@2@U?$equal_to@V?$basic_string_view@DU?$char_traits@D@std@@@std@@@2@V?$allocator@U?$pair@$$CBV?$basic_string_view@DU?$char_traits@D@std@@@std@@V?$function@$$A6AHPEAUlua_State@@PEAVInstance@@@Z@2@@std@@@2@@2@U?$hash@V?$basic_string_view@DU?$char_traits@D@std@@@std@@@2@U?$equal_to@V?$basic_string_view@DU?$char_traits@D@std@@@std@@@2@V?$allocator@U?$pair@$$CBV?$basic_string_view@DU?$char_traits@D@std@@@std@@V?$unordered_map@V?$basic_string_view@DU?$char_traits@D@std@@@std@@V?$function@$$A6AHPEAUlua_State@@PEAVInstance@@@Z@2@U?$hash@V?$basic_string_view@DU?$char_traits@D@std@@@std@@@2@U?$equal_to@V?$basic_string_view@DU?$char_traits@D@std@@@std@@@2@V?$allocator@U?$pair@$$CBV?$basic_string_view@DU?$char_traits@D@std@@@std@@V?$function@$$A6AHPEAUlua_State@@PEAVInstance@@@Z@2@@std@@@2@@2@@std@@@2@@std@@QEAAAEAV?$unordered_map@V?$basic_string_view@DU?$char_traits@D@std@@@std@@V?$function@$$A6AHPEAUlua_State@@PEAVInstance@@@Z@2@U?$hash@V?$basic_string_view@DU?$char_traits@D@std@@@std@@@2@U?$equal_to@V?$basic_string_view@DU?$char_traits@D@std@@@std@@@2@V?$allocator@U?$pair@$$CBV?$basic_string_view@DU?$char_traits@D@std@@@std@@V?$function@$$A6AHPEAUlua_State@@PEAVInstance@@@Z@2@@std@@@2@@1@$$QEAV?$basic_string_view@DU?$char_traits@D@std@@@1@@Z ; std::unordered_map<std::basic_string_view<char,std::char_traits<char> >,std::unordered_map<std::basic_string_view<char,std::char_traits<char> >,std::function<int __cdecl(lua_State *,Instance *)>,std::hash<std::basic_string_view<char,std::char_traits<char> > >,std::equal_to<std::basic_string_view<char,std::char_traits<char> > >,std::allocator<std::pair<std::basic_string_view<char,std::char_traits<char> > const ,std::function<int __cdecl(lua_State *,Instance *)> > > >,std::hash<std::basic_string_view<char,std::char_traits<char> > >,std::equal_to<std::basic_string_view<char,std::char_traits<char> > >,std::allocator<std::pair<std::basic_string_view<char,std::char_traits<char> > const ,std::unordered_map<std::basic_string_view<char,std::char_traits<char> >,std::function<int __cdecl(lua_State *,Instance *)>,std::hash<std::basic_string_view<char,std::char_traits<char> > >,std::equal_to<std::basic_string_view<char,std::char_traits<char> > >,std::allocator<std::pair<std::basic_string_view<char,std::char_traits<char> > const ,std::function<int __cdecl(lua_State *,Instance *)> > > > > > >::operator[]
PUBLIC	??1?$unordered_map@V?$basic_string_view@DU?$char_traits@D@std@@@std@@V?$unordered_map@V?$basic_string_view@DU?$char_traits@D@std@@@std@@V?$function@$$A6AHPEAUlua_State@@PEAVInstance@@@Z@2@U?$hash@V?$basic_string_view@DU?$char_traits@D@std@@@std@@@2@U?$equal_to@V?$basic_string_view@DU?$char_traits@D@std@@@std@@@2@V?$allocator@U?$pair@$$CBV?$basic_string_view@DU?$char_traits@D@std@@@std@@V?$function@$$A6AHPEAUlua_State@@PEAVInstance@@@Z@2@@std@@@2@@2@U?$hash@V?$basic_string_view@DU?$char_traits@D@std@@@std@@@2@U?$equal_to@V?$basic_string_view@DU?$char_traits@D@std@@@std@@@2@V?$allocator@U?$pair@$$CBV?$basic_string_view@DU?$char_traits@D@std@@@std@@V?$unordered_map@V?$basic_string_view@DU?$char_traits@D@std@@@std@@V?$function@$$A6AHPEAUlua_State@@PEAVInstance@@@Z@2@U?$hash@V?$basic_string_view@DU?$char_traits@D@std@@@std@@@2@U?$equal_to@V?$basic_string_view@DU?$char_traits@D@std@@@std@@@2@V?$allocator@U?$pair@$$CBV?$basic_string_view@DU?$char_traits@D@std@@@std@@V?$function@$$A6AHPEAUlua_State@@PEAVInstance@@@Z@2@@std@@@2@@2@@std@@@2@@std@@QEAA@XZ ; std::unordered_map<std::basic_string_view<char,std::char_traits<char> >,std::unordered_map<std::basic_string_view<char,std::char_traits<char> >,std::function<int __cdecl(lua_State *,Instance *)>,std::hash<std::basic_string_view<char,std::char_traits<char> > >,std::equal_to<std::basic_string_view<char,std::char_traits<char> > >,std::allocator<std::pair<std::basic_string_view<char,std::char_traits<char> > const ,std::function<int __cdecl(lua_State *,Instance *)> > > >,std::hash<std::basic_string_view<char,std::char_traits<char> > >,std::equal_to<std::basic_string_view<char,std::char_traits<char> > >,std::allocator<std::pair<std::basic_string_view<char,std::char_traits<char> > const ,std::unordered_map<std::basic_string_view<char,std::char_traits<char> >,std::function<int __cdecl(lua_State *,Instance *)>,std::hash<std::basic_string_view<char,std::char_traits<char> > >,std::equal_to<std::basic_string_view<char,std::char_traits<char> > >,std::allocator<std::pair<std::basic_string_view<char,std::char_traits<char> > const ,std::function<int __cdecl(lua_State *,Instance *)> > > > > > >::~unordered_map<std::basic_string_view<char,std::char_traits<char> >,std::unordered_map<std::basic_string_view<char,std::char_traits<char> >,std::function<int __cdecl(lua_State *,Instance *)>,std::hash<std::basic_string_view<char,std::char_traits<char> > >,std::equal_to<std::basic_string_view<char,std::char_traits<char> > >,std::allocator<std::pair<std::basic_string_view<char,std::char_traits<char> > const ,std::function<int __cdecl(lua_State *,Instance *)> > > >,std::hash<std::basic_string_view<char,std::char_traits<char> > >,std::equal_to<std::basic_string_view<char,std::char_traits<char> > >,std::allocator<std::pair<std::basic_string_view<char,std::char_traits<char> > const ,std::unordered_map<std::basic_string_view<char,std::char_traits<char> >,std::function<int __cdecl(lua_State *,Instance *)>,std::hash<std::basic_string_view<char,std::char_traits<char> > >,std::equal_to<std::basic_string_view<char,std::char_traits<char> > >,std::allocator<std::pair<std::basic_string_view<char,std::char_traits<char> > const ,std::function<int __cdecl(lua_State *,Instance *)> > > > > > >
PUBLIC	?restoreFPU@@YAXXZ				; restoreFPU
PUBLIC	??0?$allocator@U?$pair@$$CBV?$basic_string_view@DU?$char_traits@D@std@@@std@@V?$function@$$A6AHPEAUlua_State@@PEAVInstance@@@Z@2@@std@@@std@@QEAA@XZ ; std::allocator<std::pair<std::basic_string_view<char,std::char_traits<char> > const ,std::function<int __cdecl(lua_State *,Instance *)> > >::allocator<std::pair<std::basic_string_view<char,std::char_traits<char> > const ,std::function<int __cdecl(lua_State *,Instance *)> > >
PUBLIC	??0?$_Umap_traits@V?$basic_string_view@DU?$char_traits@D@std@@@std@@V?$function@$$A6AHPEAUlua_State@@PEAVInstance@@@Z@2@V?$_Uhash_compare@V?$basic_string_view@DU?$char_traits@D@std@@@std@@U?$hash@V?$basic_string_view@DU?$char_traits@D@std@@@std@@@2@U?$equal_to@V?$basic_string_view@DU?$char_traits@D@std@@@std@@@2@@2@V?$allocator@U?$pair@$$CBV?$basic_string_view@DU?$char_traits@D@std@@@std@@V?$function@$$A6AHPEAUlua_State@@PEAVInstance@@@Z@2@@std@@@2@$0A@@std@@QEAA@AEBV?$_Uhash_compare@V?$basic_string_view@DU?$char_traits@D@std@@@std@@U?$hash@V?$basic_string_view@DU?$char_traits@D@std@@@std@@@2@U?$equal_to@V?$basic_string_view@DU?$char_traits@D@std@@@std@@@2@@1@@Z ; std::_Umap_traits<std::basic_string_view<char,std::char_traits<char> >,std::function<int __cdecl(lua_State *,Instance *)>,std::_Uhash_compare<std::basic_string_view<char,std::char_traits<char> >,std::hash<std::basic_string_view<char,std::char_traits<char> > >,std::equal_to<std::basic_string_view<char,std::char_traits<char> > > >,std::allocator<std::pair<std::basic_string_view<char,std::char_traits<char> > const ,std::function<int __cdecl(lua_State *,Instance *)> > >,0>::_Umap_traits<std::basic_string_view<char,std::char_traits<char> >,std::function<int __cdecl(lua_State *,Instance *)>,std::_Uhash_compare<std::basic_string_view<char,std::char_traits<char> >,std::hash<std::basic_string_view<char,std::char_traits<char> > >,std::equal_to<std::basic_string_view<char,std::char_traits<char> > > >,std::allocator<std::pair<std::basic_string_view<char,std::char_traits<char> > const ,std::function<int __cdecl(lua_State *,Instance *)> > >,0>
PUBLIC	?deallocate@?$allocator@U?$_List_node@U?$pair@$$CBV?$basic_string_view@DU?$char_traits@D@std@@@std@@V?$function@$$A6AHPEAUlua_State@@PEAVInstance@@@Z@2@@std@@PEAX@std@@@std@@QEAAXQEAU?$_List_node@U?$pair@$$CBV?$basic_string_view@DU?$char_traits@D@std@@@std@@V?$function@$$A6AHPEAUlua_State@@PEAVInstance@@@Z@2@@std@@PEAX@2@_K@Z ; std::allocator<std::_List_node<std::pair<std::basic_string_view<char,std::char_traits<char> > const ,std::function<int __cdecl(lua_State *,Instance *)> >,void *> >::deallocate
PUBLIC	?allocate@?$allocator@U?$_List_node@U?$pair@$$CBV?$basic_string_view@DU?$char_traits@D@std@@@std@@V?$function@$$A6AHPEAUlua_State@@PEAVInstance@@@Z@2@@std@@PEAX@std@@@std@@QEAAPEAU?$_List_node@U?$pair@$$CBV?$basic_string_view@DU?$char_traits@D@std@@@std@@V?$function@$$A6AHPEAUlua_State@@PEAVInstance@@@Z@2@@std@@PEAX@2@_K@Z ; std::allocator<std::_List_node<std::pair<std::basic_string_view<char,std::char_traits<char> > const ,std::function<int __cdecl(lua_State *,Instance *)> >,void *> >::allocate
PUBLIC	?deallocate@?$_Default_allocator_traits@V?$allocator@U?$_List_node@U?$pair@$$CBV?$basic_string_view@DU?$char_traits@D@std@@@std@@V?$function@$$A6AHPEAUlua_State@@PEAVInstance@@@Z@2@@std@@PEAX@std@@@std@@@std@@SAXAEAV?$allocator@U?$_List_node@U?$pair@$$CBV?$basic_string_view@DU?$char_traits@D@std@@@std@@V?$function@$$A6AHPEAUlua_State@@PEAVInstance@@@Z@2@@std@@PEAX@std@@@2@QEAU?$_List_node@U?$pair@$$CBV?$basic_string_view@DU?$char_traits@D@std@@@std@@V?$function@$$A6AHPEAUlua_State@@PEAVInstance@@@Z@2@@std@@PEAX@2@_K@Z ; std::_Default_allocator_traits<std::allocator<std::_List_node<std::pair<std::basic_string_view<char,std::char_traits<char> > const ,std::function<int __cdecl(lua_State *,Instance *)> >,void *> > >::deallocate
PUBLIC	?max_size@?$_Default_allocator_traits@V?$allocator@U?$_List_node@U?$pair@$$CBV?$basic_string_view@DU?$char_traits@D@std@@@std@@V?$function@$$A6AHPEAUlua_State@@PEAVInstance@@@Z@2@@std@@PEAX@std@@@std@@@std@@SA_KAEBV?$allocator@U?$_List_node@U?$pair@$$CBV?$basic_string_view@DU?$char_traits@D@std@@@std@@V?$function@$$A6AHPEAUlua_State@@PEAVInstance@@@Z@2@@std@@PEAX@std@@@2@@Z ; std::_Default_allocator_traits<std::allocator<std::_List_node<std::pair<std::basic_string_view<char,std::char_traits<char> > const ,std::function<int __cdecl(lua_State *,Instance *)> >,void *> > >::max_size
PUBLIC	??0?$list@U?$pair@$$CBV?$basic_string_view@DU?$char_traits@D@std@@@std@@V?$function@$$A6AHPEAUlua_State@@PEAVInstance@@@Z@2@@std@@V?$allocator@U?$pair@$$CBV?$basic_string_view@DU?$char_traits@D@std@@@std@@V?$function@$$A6AHPEAUlua_State@@PEAVInstance@@@Z@2@@std@@@2@@std@@QEAA@AEBV?$allocator@U?$pair@$$CBV?$basic_string_view@DU?$char_traits@D@std@@@std@@V?$function@$$A6AHPEAUlua_State@@PEAVInstance@@@Z@2@@std@@@1@@Z ; std::list<std::pair<std::basic_string_view<char,std::char_traits<char> > const ,std::function<int __cdecl(lua_State *,Instance *)> >,std::allocator<std::pair<std::basic_string_view<char,std::char_traits<char> > const ,std::function<int __cdecl(lua_State *,Instance *)> > > >::list<std::pair<std::basic_string_view<char,std::char_traits<char> > const ,std::function<int __cdecl(lua_State *,Instance *)> >,std::allocator<std::pair<std::basic_string_view<char,std::char_traits<char> > const ,std::function<int __cdecl(lua_State *,Instance *)> > > >
PUBLIC	??1?$list@U?$pair@$$CBV?$basic_string_view@DU?$char_traits@D@std@@@std@@V?$function@$$A6AHPEAUlua_State@@PEAVInstance@@@Z@2@@std@@V?$allocator@U?$pair@$$CBV?$basic_string_view@DU?$char_traits@D@std@@@std@@V?$function@$$A6AHPEAUlua_State@@PEAVInstance@@@Z@2@@std@@@2@@std@@QEAA@XZ ; std::list<std::pair<std::basic_string_view<char,std::char_traits<char> > const ,std::function<int __cdecl(lua_State *,Instance *)> >,std::allocator<std::pair<std::basic_string_view<char,std::char_traits<char> > const ,std::function<int __cdecl(lua_State *,Instance *)> > > >::~list<std::pair<std::basic_string_view<char,std::char_traits<char> > const ,std::function<int __cdecl(lua_State *,Instance *)> >,std::allocator<std::pair<std::basic_string_view<char,std::char_traits<char> > const ,std::function<int __cdecl(lua_State *,Instance *)> > > >
PUBLIC	?end@?$list@U?$pair@$$CBV?$basic_string_view@DU?$char_traits@D@std@@@std@@V?$function@$$A6AHPEAUlua_State@@PEAVInstance@@@Z@2@@std@@V?$allocator@U?$pair@$$CBV?$basic_string_view@DU?$char_traits@D@std@@@std@@V?$function@$$A6AHPEAUlua_State@@PEAVInstance@@@Z@2@@std@@@2@@std@@QEBA?AV?$_List_const_iterator@V?$_List_val@U?$_List_simple_types@U?$pair@$$CBV?$basic_string_view@DU?$char_traits@D@std@@@std@@V?$function@$$A6AHPEAUlua_State@@PEAVInstance@@@Z@2@@std@@@std@@@std@@@2@XZ ; std::list<std::pair<std::basic_string_view<char,std::char_traits<char> > const ,std::function<int __cdecl(lua_State *,Instance *)> >,std::allocator<std::pair<std::basic_string_view<char,std::char_traits<char> > const ,std::function<int __cdecl(lua_State *,Instance *)> > > >::end
PUBLIC	?_Unchecked_begin@?$list@U?$pair@$$CBV?$basic_string_view@DU?$char_traits@D@std@@@std@@V?$function@$$A6AHPEAUlua_State@@PEAVInstance@@@Z@2@@std@@V?$allocator@U?$pair@$$CBV?$basic_string_view@DU?$char_traits@D@std@@@std@@V?$function@$$A6AHPEAUlua_State@@PEAVInstance@@@Z@2@@std@@@2@@std@@QEAA?AV?$_List_unchecked_iterator@V?$_List_val@U?$_List_simple_types@U?$pair@$$CBV?$basic_string_view@DU?$char_traits@D@std@@@std@@V?$function@$$A6AHPEAUlua_State@@PEAVInstance@@@Z@2@@std@@@std@@@std@@@2@XZ ; std::list<std::pair<std::basic_string_view<char,std::char_traits<char> > const ,std::function<int __cdecl(lua_State *,Instance *)> >,std::allocator<std::pair<std::basic_string_view<char,std::char_traits<char> > const ,std::function<int __cdecl(lua_State *,Instance *)> > > >::_Unchecked_begin
PUBLIC	?_Unchecked_end@?$list@U?$pair@$$CBV?$basic_string_view@DU?$char_traits@D@std@@@std@@V?$function@$$A6AHPEAUlua_State@@PEAVInstance@@@Z@2@@std@@V?$allocator@U?$pair@$$CBV?$basic_string_view@DU?$char_traits@D@std@@@std@@V?$function@$$A6AHPEAUlua_State@@PEAVInstance@@@Z@2@@std@@@2@@std@@QEAA?AV?$_List_unchecked_iterator@V?$_List_val@U?$_List_simple_types@U?$pair@$$CBV?$basic_string_view@DU?$char_traits@D@std@@@std@@V?$function@$$A6AHPEAUlua_State@@PEAVInstance@@@Z@2@@std@@@std@@@std@@@2@XZ ; std::list<std::pair<std::basic_string_view<char,std::char_traits<char> > const ,std::function<int __cdecl(lua_State *,Instance *)> >,std::allocator<std::pair<std::basic_string_view<char,std::char_traits<char> > const ,std::function<int __cdecl(lua_State *,Instance *)> > > >::_Unchecked_end
PUBLIC	?_Make_const_iter@?$list@U?$pair@$$CBV?$basic_string_view@DU?$char_traits@D@std@@@std@@V?$function@$$A6AHPEAUlua_State@@PEAVInstance@@@Z@2@@std@@V?$allocator@U?$pair@$$CBV?$basic_string_view@DU?$char_traits@D@std@@@std@@V?$function@$$A6AHPEAUlua_State@@PEAVInstance@@@Z@2@@std@@@2@@std@@QEBA?AV?$_List_const_iterator@V?$_List_val@U?$_List_simple_types@U?$pair@$$CBV?$basic_string_view@DU?$char_traits@D@std@@@std@@V?$function@$$A6AHPEAUlua_State@@PEAVInstance@@@Z@2@@std@@@std@@@std@@@2@PEAU?$_List_node@U?$pair@$$CBV?$basic_string_view@DU?$char_traits@D@std@@@std@@V?$function@$$A6AHPEAUlua_State@@PEAVInstance@@@Z@2@@std@@PEAX@2@@Z ; std::list<std::pair<std::basic_string_view<char,std::char_traits<char> > const ,std::function<int __cdecl(lua_State *,Instance *)> >,std::allocator<std::pair<std::basic_string_view<char,std::char_traits<char> > const ,std::function<int __cdecl(lua_State *,Instance *)> > > >::_Make_const_iter
PUBLIC	?max_size@?$list@U?$pair@$$CBV?$basic_string_view@DU?$char_traits@D@std@@@std@@V?$function@$$A6AHPEAUlua_State@@PEAVInstance@@@Z@2@@std@@V?$allocator@U?$pair@$$CBV?$basic_string_view@DU?$char_traits@D@std@@@std@@V?$function@$$A6AHPEAUlua_State@@PEAVInstance@@@Z@2@@std@@@2@@std@@QEBA_KXZ ; std::list<std::pair<std::basic_string_view<char,std::char_traits<char> > const ,std::function<int __cdecl(lua_State *,Instance *)> >,std::allocator<std::pair<std::basic_string_view<char,std::char_traits<char> > const ,std::function<int __cdecl(lua_State *,Instance *)> > > >::max_size
PUBLIC	?clear@?$list@U?$pair@$$CBV?$basic_string_view@DU?$char_traits@D@std@@@std@@V?$function@$$A6AHPEAUlua_State@@PEAVInstance@@@Z@2@@std@@V?$allocator@U?$pair@$$CBV?$basic_string_view@DU?$char_traits@D@std@@@std@@V?$function@$$A6AHPEAUlua_State@@PEAVInstance@@@Z@2@@std@@@2@@std@@QEAAXXZ ; std::list<std::pair<std::basic_string_view<char,std::char_traits<char> > const ,std::function<int __cdecl(lua_State *,Instance *)> >,std::allocator<std::pair<std::basic_string_view<char,std::char_traits<char> > const ,std::function<int __cdecl(lua_State *,Instance *)> > > >::clear
PUBLIC	?_Tidy@?$list@U?$pair@$$CBV?$basic_string_view@DU?$char_traits@D@std@@@std@@V?$function@$$A6AHPEAUlua_State@@PEAVInstance@@@Z@2@@std@@V?$allocator@U?$pair@$$CBV?$basic_string_view@DU?$char_traits@D@std@@@std@@V?$function@$$A6AHPEAUlua_State@@PEAVInstance@@@Z@2@@std@@@2@@std@@AEAAXXZ ; std::list<std::pair<std::basic_string_view<char,std::char_traits<char> > const ,std::function<int __cdecl(lua_State *,Instance *)> >,std::allocator<std::pair<std::basic_string_view<char,std::char_traits<char> > const ,std::function<int __cdecl(lua_State *,Instance *)> > > >::_Tidy
PUBLIC	?_Alloc_sentinel_and_proxy@?$list@U?$pair@$$CBV?$basic_string_view@DU?$char_traits@D@std@@@std@@V?$function@$$A6AHPEAUlua_State@@PEAVInstance@@@Z@2@@std@@V?$allocator@U?$pair@$$CBV?$basic_string_view@DU?$char_traits@D@std@@@std@@V?$function@$$A6AHPEAUlua_State@@PEAVInstance@@@Z@2@@std@@@2@@std@@AEAAXXZ ; std::list<std::pair<std::basic_string_view<char,std::char_traits<char> > const ,std::function<int __cdecl(lua_State *,Instance *)> >,std::allocator<std::pair<std::basic_string_view<char,std::char_traits<char> > const ,std::function<int __cdecl(lua_State *,Instance *)> > > >::_Alloc_sentinel_and_proxy
PUBLIC	?_Getal@?$list@U?$pair@$$CBV?$basic_string_view@DU?$char_traits@D@std@@@std@@V?$function@$$A6AHPEAUlua_State@@PEAVInstance@@@Z@2@@std@@V?$allocator@U?$pair@$$CBV?$basic_string_view@DU?$char_traits@D@std@@@std@@V?$function@$$A6AHPEAUlua_State@@PEAVInstance@@@Z@2@@std@@@2@@std@@AEAAAEAV?$allocator@U?$_List_node@U?$pair@$$CBV?$basic_string_view@DU?$char_traits@D@std@@@std@@V?$function@$$A6AHPEAUlua_State@@PEAVInstance@@@Z@2@@std@@PEAX@std@@@2@XZ ; std::list<std::pair<std::basic_string_view<char,std::char_traits<char> > const ,std::function<int __cdecl(lua_State *,Instance *)> >,std::allocator<std::pair<std::basic_string_view<char,std::char_traits<char> > const ,std::function<int __cdecl(lua_State *,Instance *)> > > >::_Getal
PUBLIC	?_Getal@?$list@U?$pair@$$CBV?$basic_string_view@DU?$char_traits@D@std@@@std@@V?$function@$$A6AHPEAUlua_State@@PEAVInstance@@@Z@2@@std@@V?$allocator@U?$pair@$$CBV?$basic_string_view@DU?$char_traits@D@std@@@std@@V?$function@$$A6AHPEAUlua_State@@PEAVInstance@@@Z@2@@std@@@2@@std@@AEBAAEBV?$allocator@U?$_List_node@U?$pair@$$CBV?$basic_string_view@DU?$char_traits@D@std@@@std@@V?$function@$$A6AHPEAUlua_State@@PEAVInstance@@@Z@2@@std@@PEAX@std@@@2@XZ ; std::list<std::pair<std::basic_string_view<char,std::char_traits<char> > const ,std::function<int __cdecl(lua_State *,Instance *)> >,std::allocator<std::pair<std::basic_string_view<char,std::char_traits<char> > const ,std::function<int __cdecl(lua_State *,Instance *)> > > >::_Getal
PUBLIC	??0?$_List_val@U?$_List_simple_types@U?$pair@$$CBV?$basic_string_view@DU?$char_traits@D@std@@@std@@V?$function@$$A6AHPEAUlua_State@@PEAVInstance@@@Z@2@@std@@@std@@@std@@QEAA@XZ ; std::_List_val<std::_List_simple_types<std::pair<std::basic_string_view<char,std::char_traits<char> > const ,std::function<int __cdecl(lua_State *,Instance *)> > > >::_List_val<std::_List_simple_types<std::pair<std::basic_string_view<char,std::char_traits<char> > const ,std::function<int __cdecl(lua_State *,Instance *)> > > >
PUBLIC	?_Orphan_non_end@?$_List_val@U?$_List_simple_types@U?$pair@$$CBV?$basic_string_view@DU?$char_traits@D@std@@@std@@V?$function@$$A6AHPEAUlua_State@@PEAVInstance@@@Z@2@@std@@@std@@@std@@QEAAXXZ ; std::_List_val<std::_List_simple_types<std::pair<std::basic_string_view<char,std::char_traits<char> > const ,std::function<int __cdecl(lua_State *,Instance *)> > > >::_Orphan_non_end
PUBLIC	?_Unchecked_splice@?$_List_val@U?$_List_simple_types@U?$pair@$$CBV?$basic_string_view@DU?$char_traits@D@std@@@std@@V?$function@$$A6AHPEAUlua_State@@PEAVInstance@@@Z@2@@std@@@std@@@std@@SAPEAU?$_List_node@U?$pair@$$CBV?$basic_string_view@DU?$char_traits@D@std@@@std@@V?$function@$$A6AHPEAUlua_State@@PEAVInstance@@@Z@2@@std@@PEAX@2@QEAU32@00@Z ; std::_List_val<std::_List_simple_types<std::pair<std::basic_string_view<char,std::char_traits<char> > const ,std::function<int __cdecl(lua_State *,Instance *)> > > >::_Unchecked_splice
PUBLIC	?_Get_first@?$_Compressed_pair@V?$allocator@U?$_List_node@U?$pair@$$CBV?$basic_string_view@DU?$char_traits@D@std@@@std@@V?$function@$$A6AHPEAUlua_State@@PEAVInstance@@@Z@2@@std@@PEAX@std@@@std@@V?$_List_val@U?$_List_simple_types@U?$pair@$$CBV?$basic_string_view@DU?$char_traits@D@std@@@std@@V?$function@$$A6AHPEAUlua_State@@PEAVInstance@@@Z@2@@std@@@std@@@2@$00@std@@QEAAAEAV?$allocator@U?$_List_node@U?$pair@$$CBV?$basic_string_view@DU?$char_traits@D@std@@@std@@V?$function@$$A6AHPEAUlua_State@@PEAVInstance@@@Z@2@@std@@PEAX@std@@@2@XZ ; std::_Compressed_pair<std::allocator<std::_List_node<std::pair<std::basic_string_view<char,std::char_traits<char> > const ,std::function<int __cdecl(lua_State *,Instance *)> >,void *> >,std::_List_val<std::_List_simple_types<std::pair<std::basic_string_view<char,std::char_traits<char> > const ,std::function<int __cdecl(lua_State *,Instance *)> > > >,1>::_Get_first
PUBLIC	?_Get_first@?$_Compressed_pair@V?$allocator@U?$_List_node@U?$pair@$$CBV?$basic_string_view@DU?$char_traits@D@std@@@std@@V?$function@$$A6AHPEAUlua_State@@PEAVInstance@@@Z@2@@std@@PEAX@std@@@std@@V?$_List_val@U?$_List_simple_types@U?$pair@$$CBV?$basic_string_view@DU?$char_traits@D@std@@@std@@V?$function@$$A6AHPEAUlua_State@@PEAVInstance@@@Z@2@@std@@@std@@@2@$00@std@@QEBAAEBV?$allocator@U?$_List_node@U?$pair@$$CBV?$basic_string_view@DU?$char_traits@D@std@@@std@@V?$function@$$A6AHPEAUlua_State@@PEAVInstance@@@Z@2@@std@@PEAX@std@@@2@XZ ; std::_Compressed_pair<std::allocator<std::_List_node<std::pair<std::basic_string_view<char,std::char_traits<char> > const ,std::function<int __cdecl(lua_State *,Instance *)> >,void *> >,std::_List_val<std::_List_simple_types<std::pair<std::basic_string_view<char,std::char_traits<char> > const ,std::function<int __cdecl(lua_State *,Instance *)> > > >,1>::_Get_first
PUBLIC	??0?$_Hash@V?$_Umap_traits@V?$basic_string_view@DU?$char_traits@D@std@@@std@@V?$function@$$A6AHPEAUlua_State@@PEAVInstance@@@Z@2@V?$_Uhash_compare@V?$basic_string_view@DU?$char_traits@D@std@@@std@@U?$hash@V?$basic_string_view@DU?$char_traits@D@std@@@std@@@2@U?$equal_to@V?$basic_string_view@DU?$char_traits@D@std@@@std@@@2@@2@V?$allocator@U?$pair@$$CBV?$basic_string_view@DU?$char_traits@D@std@@@std@@V?$function@$$A6AHPEAUlua_State@@PEAVInstance@@@Z@2@@std@@@2@$0A@@std@@@std@@IEAA@AEBV?$_Uhash_compare@V?$basic_string_view@DU?$char_traits@D@std@@@std@@U?$hash@V?$basic_string_view@DU?$char_traits@D@std@@@std@@@2@U?$equal_to@V?$basic_string_view@DU?$char_traits@D@std@@@std@@@2@@1@AEBV?$allocator@U?$pair@$$CBV?$basic_string_view@DU?$char_traits@D@std@@@std@@V?$function@$$A6AHPEAUlua_State@@PEAVInstance@@@Z@2@@std@@@1@@Z ; std::_Hash<std::_Umap_traits<std::basic_string_view<char,std::char_traits<char> >,std::function<int __cdecl(lua_State *,Instance *)>,std::_Uhash_compare<std::basic_string_view<char,std::char_traits<char> >,std::hash<std::basic_string_view<char,std::char_traits<char> > >,std::equal_to<std::basic_string_view<char,std::char_traits<char> > > >,std::allocator<std::pair<std::basic_string_view<char,std::char_traits<char> > const ,std::function<int __cdecl(lua_State *,Instance *)> > >,0> >::_Hash<std::_Umap_traits<std::basic_string_view<char,std::char_traits<char> >,std::function<int __cdecl(lua_State *,Instance *)>,std::_Uhash_compare<std::basic_string_view<char,std::char_traits<char> >,std::hash<std::basic_string_view<char,std::char_traits<char> > >,std::equal_to<std::basic_string_view<char,std::char_traits<char> > > >,std::allocator<std::pair<std::basic_string_view<char,std::char_traits<char> > const ,std::function<int __cdecl(lua_State *,Instance *)> > >,0> >
PUBLIC	?end@?$_Hash@V?$_Umap_traits@V?$basic_string_view@DU?$char_traits@D@std@@@std@@V?$function@$$A6AHPEAUlua_State@@PEAVInstance@@@Z@2@V?$_Uhash_compare@V?$basic_string_view@DU?$char_traits@D@std@@@std@@U?$hash@V?$basic_string_view@DU?$char_traits@D@std@@@std@@@2@U?$equal_to@V?$basic_string_view@DU?$char_traits@D@std@@@std@@@2@@2@V?$allocator@U?$pair@$$CBV?$basic_string_view@DU?$char_traits@D@std@@@std@@V?$function@$$A6AHPEAUlua_State@@PEAVInstance@@@Z@2@@std@@@2@$0A@@std@@@std@@QEBA?AV?$_List_const_iterator@V?$_List_val@U?$_List_simple_types@U?$pair@$$CBV?$basic_string_view@DU?$char_traits@D@std@@@std@@V?$function@$$A6AHPEAUlua_State@@PEAVInstance@@@Z@2@@std@@@std@@@std@@@2@XZ ; std::_Hash<std::_Umap_traits<std::basic_string_view<char,std::char_traits<char> >,std::function<int __cdecl(lua_State *,Instance *)>,std::_Uhash_compare<std::basic_string_view<char,std::char_traits<char> >,std::hash<std::basic_string_view<char,std::char_traits<char> > >,std::equal_to<std::basic_string_view<char,std::char_traits<char> > > >,std::allocator<std::pair<std::basic_string_view<char,std::char_traits<char> > const ,std::function<int __cdecl(lua_State *,Instance *)> > >,0> >::end
PUBLIC	?_Unchecked_begin@?$_Hash@V?$_Umap_traits@V?$basic_string_view@DU?$char_traits@D@std@@@std@@V?$function@$$A6AHPEAUlua_State@@PEAVInstance@@@Z@2@V?$_Uhash_compare@V?$basic_string_view@DU?$char_traits@D@std@@@std@@U?$hash@V?$basic_string_view@DU?$char_traits@D@std@@@std@@@2@U?$equal_to@V?$basic_string_view@DU?$char_traits@D@std@@@std@@@2@@2@V?$allocator@U?$pair@$$CBV?$basic_string_view@DU?$char_traits@D@std@@@std@@V?$function@$$A6AHPEAUlua_State@@PEAVInstance@@@Z@2@@std@@@2@$0A@@std@@@std@@QEAA?AV?$_List_unchecked_iterator@V?$_List_val@U?$_List_simple_types@U?$pair@$$CBV?$basic_string_view@DU?$char_traits@D@std@@@std@@V?$function@$$A6AHPEAUlua_State@@PEAVInstance@@@Z@2@@std@@@std@@@std@@@2@XZ ; std::_Hash<std::_Umap_traits<std::basic_string_view<char,std::char_traits<char> >,std::function<int __cdecl(lua_State *,Instance *)>,std::_Uhash_compare<std::basic_string_view<char,std::char_traits<char> >,std::hash<std::basic_string_view<char,std::char_traits<char> > >,std::equal_to<std::basic_string_view<char,std::char_traits<char> > > >,std::allocator<std::pair<std::basic_string_view<char,std::char_traits<char> > const ,std::function<int __cdecl(lua_State *,Instance *)> > >,0> >::_Unchecked_begin
PUBLIC	?_Unchecked_end@?$_Hash@V?$_Umap_traits@V?$basic_string_view@DU?$char_traits@D@std@@@std@@V?$function@$$A6AHPEAUlua_State@@PEAVInstance@@@Z@2@V?$_Uhash_compare@V?$basic_string_view@DU?$char_traits@D@std@@@std@@U?$hash@V?$basic_string_view@DU?$char_traits@D@std@@@std@@@2@U?$equal_to@V?$basic_string_view@DU?$char_traits@D@std@@@std@@@2@@2@V?$allocator@U?$pair@$$CBV?$basic_string_view@DU?$char_traits@D@std@@@std@@V?$function@$$A6AHPEAUlua_State@@PEAVInstance@@@Z@2@@std@@@2@$0A@@std@@@std@@QEAA?AV?$_List_unchecked_iterator@V?$_List_val@U?$_List_simple_types@U?$pair@$$CBV?$basic_string_view@DU?$char_traits@D@std@@@std@@V?$function@$$A6AHPEAUlua_State@@PEAVInstance@@@Z@2@@std@@@std@@@std@@@2@XZ ; std::_Hash<std::_Umap_traits<std::basic_string_view<char,std::char_traits<char> >,std::function<int __cdecl(lua_State *,Instance *)>,std::_Uhash_compare<std::basic_string_view<char,std::char_traits<char> >,std::hash<std::basic_string_view<char,std::char_traits<char> > >,std::equal_to<std::basic_string_view<char,std::char_traits<char> > > >,std::allocator<std::pair<std::basic_string_view<char,std::char_traits<char> > const ,std::function<int __cdecl(lua_State *,Instance *)> > >,0> >::_Unchecked_end
PUBLIC	?bucket_count@?$_Hash@V?$_Umap_traits@V?$basic_string_view@DU?$char_traits@D@std@@@std@@V?$function@$$A6AHPEAUlua_State@@PEAVInstance@@@Z@2@V?$_Uhash_compare@V?$basic_string_view@DU?$char_traits@D@std@@@std@@U?$hash@V?$basic_string_view@DU?$char_traits@D@std@@@std@@@2@U?$equal_to@V?$basic_string_view@DU?$char_traits@D@std@@@std@@@2@@2@V?$allocator@U?$pair@$$CBV?$basic_string_view@DU?$char_traits@D@std@@@std@@V?$function@$$A6AHPEAUlua_State@@PEAVInstance@@@Z@2@@std@@@2@$0A@@std@@@std@@QEBA_KXZ ; std::_Hash<std::_Umap_traits<std::basic_string_view<char,std::char_traits<char> >,std::function<int __cdecl(lua_State *,Instance *)>,std::_Uhash_compare<std::basic_string_view<char,std::char_traits<char> >,std::hash<std::basic_string_view<char,std::char_traits<char> > >,std::equal_to<std::basic_string_view<char,std::char_traits<char> > > >,std::allocator<std::pair<std::basic_string_view<char,std::char_traits<char> > const ,std::function<int __cdecl(lua_State *,Instance *)> > >,0> >::bucket_count
PUBLIC	?bucket@?$_Hash@V?$_Umap_traits@V?$basic_string_view@DU?$char_traits@D@std@@@std@@V?$function@$$A6AHPEAUlua_State@@PEAVInstance@@@Z@2@V?$_Uhash_compare@V?$basic_string_view@DU?$char_traits@D@std@@@std@@U?$hash@V?$basic_string_view@DU?$char_traits@D@std@@@std@@@2@U?$equal_to@V?$basic_string_view@DU?$char_traits@D@std@@@std@@@2@@2@V?$allocator@U?$pair@$$CBV?$basic_string_view@DU?$char_traits@D@std@@@std@@V?$function@$$A6AHPEAUlua_State@@PEAVInstance@@@Z@2@@std@@@2@$0A@@std@@@std@@QEBA_KAEBV?$basic_string_view@DU?$char_traits@D@std@@@2@@Z ; std::_Hash<std::_Umap_traits<std::basic_string_view<char,std::char_traits<char> >,std::function<int __cdecl(lua_State *,Instance *)>,std::_Uhash_compare<std::basic_string_view<char,std::char_traits<char> >,std::hash<std::basic_string_view<char,std::char_traits<char> > >,std::equal_to<std::basic_string_view<char,std::char_traits<char> > > >,std::allocator<std::pair<std::basic_string_view<char,std::char_traits<char> > const ,std::function<int __cdecl(lua_State *,Instance *)> > >,0> >::bucket
PUBLIC	?max_load_factor@?$_Hash@V?$_Umap_traits@V?$basic_string_view@DU?$char_traits@D@std@@@std@@V?$function@$$A6AHPEAUlua_State@@PEAVInstance@@@Z@2@V?$_Uhash_compare@V?$basic_string_view@DU?$char_traits@D@std@@@std@@U?$hash@V?$basic_string_view@DU?$char_traits@D@std@@@std@@@2@U?$equal_to@V?$basic_string_view@DU?$char_traits@D@std@@@std@@@2@@2@V?$allocator@U?$pair@$$CBV?$basic_string_view@DU?$char_traits@D@std@@@std@@V?$function@$$A6AHPEAUlua_State@@PEAVInstance@@@Z@2@@std@@@2@$0A@@std@@@std@@QEBAMXZ ; std::_Hash<std::_Umap_traits<std::basic_string_view<char,std::char_traits<char> >,std::function<int __cdecl(lua_State *,Instance *)>,std::_Uhash_compare<std::basic_string_view<char,std::char_traits<char> >,std::hash<std::basic_string_view<char,std::char_traits<char> > >,std::equal_to<std::basic_string_view<char,std::char_traits<char> > > >,std::allocator<std::pair<std::basic_string_view<char,std::char_traits<char> > const ,std::function<int __cdecl(lua_State *,Instance *)> > >,0> >::max_load_factor
PUBLIC	?_Unchecked_erase@?$_Hash@V?$_Umap_traits@V?$basic_string_view@DU?$char_traits@D@std@@@std@@V?$function@$$A6AHPEAUlua_State@@PEAVInstance@@@Z@2@V?$_Uhash_compare@V?$basic_string_view@DU?$char_traits@D@std@@@std@@U?$hash@V?$basic_string_view@DU?$char_traits@D@std@@@std@@@2@U?$equal_to@V?$basic_string_view@DU?$char_traits@D@std@@@std@@@2@@2@V?$allocator@U?$pair@$$CBV?$basic_string_view@DU?$char_traits@D@std@@@std@@V?$function@$$A6AHPEAUlua_State@@PEAVInstance@@@Z@2@@std@@@2@$0A@@std@@@std@@AEAAPEAU?$_List_node@U?$pair@$$CBV?$basic_string_view@DU?$char_traits@D@std@@@std@@V?$function@$$A6AHPEAUlua_State@@PEAVInstance@@@Z@2@@std@@PEAX@2@PEAU32@QEAU32@@Z ; std::_Hash<std::_Umap_traits<std::basic_string_view<char,std::char_traits<char> >,std::function<int __cdecl(lua_State *,Instance *)>,std::_Uhash_compare<std::basic_string_view<char,std::char_traits<char> >,std::hash<std::basic_string_view<char,std::char_traits<char> > >,std::equal_to<std::basic_string_view<char,std::char_traits<char> > > >,std::allocator<std::pair<std::basic_string_view<char,std::char_traits<char> > const ,std::function<int __cdecl(lua_State *,Instance *)> > >,0> >::_Unchecked_erase
PUBLIC	?clear@?$_Hash@V?$_Umap_traits@V?$basic_string_view@DU?$char_traits@D@std@@@std@@V?$function@$$A6AHPEAUlua_State@@PEAVInstance@@@Z@2@V?$_Uhash_compare@V?$basic_string_view@DU?$char_traits@D@std@@@std@@U?$hash@V?$basic_string_view@DU?$char_traits@D@std@@@std@@@2@U?$equal_to@V?$basic_string_view@DU?$char_traits@D@std@@@std@@@2@@2@V?$allocator@U?$pair@$$CBV?$basic_string_view@DU?$char_traits@D@std@@@std@@V?$function@$$A6AHPEAUlua_State@@PEAVInstance@@@Z@2@@std@@@2@$0A@@std@@@std@@QEAAXXZ ; std::_Hash<std::_Umap_traits<std::basic_string_view<char,std::char_traits<char> >,std::function<int __cdecl(lua_State *,Instance *)>,std::_Uhash_compare<std::basic_string_view<char,std::char_traits<char> >,std::hash<std::basic_string_view<char,std::char_traits<char> > >,std::equal_to<std::basic_string_view<char,std::char_traits<char> > > >,std::allocator<std::pair<std::basic_string_view<char,std::char_traits<char> > const ,std::function<int __cdecl(lua_State *,Instance *)> > >,0> >::clear
PUBLIC	?find@?$_Hash@V?$_Umap_traits@V?$basic_string_view@DU?$char_traits@D@std@@@std@@V?$function@$$A6AHPEAUlua_State@@PEAVInstance@@@Z@2@V?$_Uhash_compare@V?$basic_string_view@DU?$char_traits@D@std@@@std@@U?$hash@V?$basic_string_view@DU?$char_traits@D@std@@@std@@@2@U?$equal_to@V?$basic_string_view@DU?$char_traits@D@std@@@std@@@2@@2@V?$allocator@U?$pair@$$CBV?$basic_string_view@DU?$char_traits@D@std@@@std@@V?$function@$$A6AHPEAUlua_State@@PEAVInstance@@@Z@2@@std@@@2@$0A@@std@@@std@@QEBA?AV?$_List_const_iterator@V?$_List_val@U?$_List_simple_types@U?$pair@$$CBV?$basic_string_view@DU?$char_traits@D@std@@@std@@V?$function@$$A6AHPEAUlua_State@@PEAVInstance@@@Z@2@@std@@@std@@@std@@@2@AEBV?$basic_string_view@DU?$char_traits@D@std@@@2@@Z ; std::_Hash<std::_Umap_traits<std::basic_string_view<char,std::char_traits<char> >,std::function<int __cdecl(lua_State *,Instance *)>,std::_Uhash_compare<std::basic_string_view<char,std::char_traits<char> >,std::hash<std::basic_string_view<char,std::char_traits<char> > >,std::equal_to<std::basic_string_view<char,std::char_traits<char> > > >,std::allocator<std::pair<std::basic_string_view<char,std::char_traits<char> > const ,std::function<int __cdecl(lua_State *,Instance *)> > >,0> >::find
PUBLIC	?_Insert_new_node_before@?$_Hash@V?$_Umap_traits@V?$basic_string_view@DU?$char_traits@D@std@@@std@@V?$function@$$A6AHPEAUlua_State@@PEAVInstance@@@Z@2@V?$_Uhash_compare@V?$basic_string_view@DU?$char_traits@D@std@@@std@@U?$hash@V?$basic_string_view@DU?$char_traits@D@std@@@std@@@2@U?$equal_to@V?$basic_string_view@DU?$char_traits@D@std@@@std@@@2@@2@V?$allocator@U?$pair@$$CBV?$basic_string_view@DU?$char_traits@D@std@@@std@@V?$function@$$A6AHPEAUlua_State@@PEAVInstance@@@Z@2@@std@@@2@$0A@@std@@@std@@IEAAPEAU?$_List_node@U?$pair@$$CBV?$basic_string_view@DU?$char_traits@D@std@@@std@@V?$function@$$A6AHPEAUlua_State@@PEAVInstance@@@Z@2@@std@@PEAX@2@_KQEAU32@1@Z ; std::_Hash<std::_Umap_traits<std::basic_string_view<char,std::char_traits<char> >,std::function<int __cdecl(lua_State *,Instance *)>,std::_Uhash_compare<std::basic_string_view<char,std::char_traits<char> >,std::hash<std::basic_string_view<char,std::char_traits<char> > >,std::equal_to<std::basic_string_view<char,std::char_traits<char> > > >,std::allocator<std::pair<std::basic_string_view<char,std::char_traits<char> > const ,std::function<int __cdecl(lua_State *,Instance *)> > >,0> >::_Insert_new_node_before
PUBLIC	?_Check_max_size@?$_Hash@V?$_Umap_traits@V?$basic_string_view@DU?$char_traits@D@std@@@std@@V?$function@$$A6AHPEAUlua_State@@PEAVInstance@@@Z@2@V?$_Uhash_compare@V?$basic_string_view@DU?$char_traits@D@std@@@std@@U?$hash@V?$basic_string_view@DU?$char_traits@D@std@@@std@@@2@U?$equal_to@V?$basic_string_view@DU?$char_traits@D@std@@@std@@@2@@2@V?$allocator@U?$pair@$$CBV?$basic_string_view@DU?$char_traits@D@std@@@std@@V?$function@$$A6AHPEAUlua_State@@PEAVInstance@@@Z@2@@std@@@2@$0A@@std@@@std@@IEBAXXZ ; std::_Hash<std::_Umap_traits<std::basic_string_view<char,std::char_traits<char> >,std::function<int __cdecl(lua_State *,Instance *)>,std::_Uhash_compare<std::basic_string_view<char,std::char_traits<char> >,std::hash<std::basic_string_view<char,std::char_traits<char> > >,std::equal_to<std::basic_string_view<char,std::char_traits<char> > > >,std::allocator<std::pair<std::basic_string_view<char,std::char_traits<char> > const ,std::function<int __cdecl(lua_State *,Instance *)> > >,0> >::_Check_max_size
PUBLIC	?_Check_rehash_required_1@?$_Hash@V?$_Umap_traits@V?$basic_string_view@DU?$char_traits@D@std@@@std@@V?$function@$$A6AHPEAUlua_State@@PEAVInstance@@@Z@2@V?$_Uhash_compare@V?$basic_string_view@DU?$char_traits@D@std@@@std@@U?$hash@V?$basic_string_view@DU?$char_traits@D@std@@@std@@@2@U?$equal_to@V?$basic_string_view@DU?$char_traits@D@std@@@std@@@2@@2@V?$allocator@U?$pair@$$CBV?$basic_string_view@DU?$char_traits@D@std@@@std@@V?$function@$$A6AHPEAUlua_State@@PEAVInstance@@@Z@2@@std@@@2@$0A@@std@@@std@@IEBA_NXZ ; std::_Hash<std::_Umap_traits<std::basic_string_view<char,std::char_traits<char> >,std::function<int __cdecl(lua_State *,Instance *)>,std::_Uhash_compare<std::basic_string_view<char,std::char_traits<char> >,std::hash<std::basic_string_view<char,std::char_traits<char> > >,std::equal_to<std::basic_string_view<char,std::char_traits<char> > > >,std::allocator<std::pair<std::basic_string_view<char,std::char_traits<char> > const ,std::function<int __cdecl(lua_State *,Instance *)> > >,0> >::_Check_rehash_required_1
PUBLIC	?_Rehash_for_1@?$_Hash@V?$_Umap_traits@V?$basic_string_view@DU?$char_traits@D@std@@@std@@V?$function@$$A6AHPEAUlua_State@@PEAVInstance@@@Z@2@V?$_Uhash_compare@V?$basic_string_view@DU?$char_traits@D@std@@@std@@U?$hash@V?$basic_string_view@DU?$char_traits@D@std@@@std@@@2@U?$equal_to@V?$basic_string_view@DU?$char_traits@D@std@@@std@@@2@@2@V?$allocator@U?$pair@$$CBV?$basic_string_view@DU?$char_traits@D@std@@@std@@V?$function@$$A6AHPEAUlua_State@@PEAVInstance@@@Z@2@@std@@@2@$0A@@std@@@std@@IEAAXXZ ; std::_Hash<std::_Umap_traits<std::basic_string_view<char,std::char_traits<char> >,std::function<int __cdecl(lua_State *,Instance *)>,std::_Uhash_compare<std::basic_string_view<char,std::char_traits<char> >,std::hash<std::basic_string_view<char,std::char_traits<char> > >,std::equal_to<std::basic_string_view<char,std::char_traits<char> > > >,std::allocator<std::pair<std::basic_string_view<char,std::char_traits<char> > const ,std::function<int __cdecl(lua_State *,Instance *)> > >,0> >::_Rehash_for_1
PUBLIC	?_Min_load_factor_buckets@?$_Hash@V?$_Umap_traits@V?$basic_string_view@DU?$char_traits@D@std@@@std@@V?$function@$$A6AHPEAUlua_State@@PEAVInstance@@@Z@2@V?$_Uhash_compare@V?$basic_string_view@DU?$char_traits@D@std@@@std@@U?$hash@V?$basic_string_view@DU?$char_traits@D@std@@@std@@@2@U?$equal_to@V?$basic_string_view@DU?$char_traits@D@std@@@std@@@2@@2@V?$allocator@U?$pair@$$CBV?$basic_string_view@DU?$char_traits@D@std@@@std@@V?$function@$$A6AHPEAUlua_State@@PEAVInstance@@@Z@2@@std@@@2@$0A@@std@@@std@@IEBA_K_K@Z ; std::_Hash<std::_Umap_traits<std::basic_string_view<char,std::char_traits<char> >,std::function<int __cdecl(lua_State *,Instance *)>,std::_Uhash_compare<std::basic_string_view<char,std::char_traits<char> >,std::hash<std::basic_string_view<char,std::char_traits<char> > >,std::equal_to<std::basic_string_view<char,std::char_traits<char> > > >,std::allocator<std::pair<std::basic_string_view<char,std::char_traits<char> > const ,std::function<int __cdecl(lua_State *,Instance *)> > >,0> >::_Min_load_factor_buckets
PUBLIC	?_Desired_grow_bucket_count@?$_Hash@V?$_Umap_traits@V?$basic_string_view@DU?$char_traits@D@std@@@std@@V?$function@$$A6AHPEAUlua_State@@PEAVInstance@@@Z@2@V?$_Uhash_compare@V?$basic_string_view@DU?$char_traits@D@std@@@std@@U?$hash@V?$basic_string_view@DU?$char_traits@D@std@@@std@@@2@U?$equal_to@V?$basic_string_view@DU?$char_traits@D@std@@@std@@@2@@2@V?$allocator@U?$pair@$$CBV?$basic_string_view@DU?$char_traits@D@std@@@std@@V?$function@$$A6AHPEAUlua_State@@PEAVInstance@@@Z@2@@std@@@2@$0A@@std@@@std@@IEBA_K_K@Z ; std::_Hash<std::_Umap_traits<std::basic_string_view<char,std::char_traits<char> >,std::function<int __cdecl(lua_State *,Instance *)>,std::_Uhash_compare<std::basic_string_view<char,std::char_traits<char> >,std::hash<std::basic_string_view<char,std::char_traits<char> > >,std::equal_to<std::basic_string_view<char,std::char_traits<char> > > >,std::allocator<std::pair<std::basic_string_view<char,std::char_traits<char> > const ,std::function<int __cdecl(lua_State *,Instance *)> > >,0> >::_Desired_grow_bucket_count
PUBLIC	?_Forced_rehash@?$_Hash@V?$_Umap_traits@V?$basic_string_view@DU?$char_traits@D@std@@@std@@V?$function@$$A6AHPEAUlua_State@@PEAVInstance@@@Z@2@V?$_Uhash_compare@V?$basic_string_view@DU?$char_traits@D@std@@@std@@U?$hash@V?$basic_string_view@DU?$char_traits@D@std@@@std@@@2@U?$equal_to@V?$basic_string_view@DU?$char_traits@D@std@@@std@@@2@@2@V?$allocator@U?$pair@$$CBV?$basic_string_view@DU?$char_traits@D@std@@@std@@V?$function@$$A6AHPEAUlua_State@@PEAVInstance@@@Z@2@@std@@@2@$0A@@std@@@std@@IEAAX_K@Z ; std::_Hash<std::_Umap_traits<std::basic_string_view<char,std::char_traits<char> >,std::function<int __cdecl(lua_State *,Instance *)>,std::_Uhash_compare<std::basic_string_view<char,std::char_traits<char> >,std::hash<std::basic_string_view<char,std::char_traits<char> > >,std::equal_to<std::basic_string_view<char,std::char_traits<char> > > >,std::allocator<std::pair<std::basic_string_view<char,std::char_traits<char> > const ,std::function<int __cdecl(lua_State *,Instance *)> > >,0> >::_Forced_rehash
PUBLIC	?_Max_bucket_size@?$_Hash@V?$_Umap_traits@V?$basic_string_view@DU?$char_traits@D@std@@@std@@V?$function@$$A6AHPEAUlua_State@@PEAVInstance@@@Z@2@V?$_Uhash_compare@V?$basic_string_view@DU?$char_traits@D@std@@@std@@U?$hash@V?$basic_string_view@DU?$char_traits@D@std@@@std@@@2@U?$equal_to@V?$basic_string_view@DU?$char_traits@D@std@@@std@@@2@@2@V?$allocator@U?$pair@$$CBV?$basic_string_view@DU?$char_traits@D@std@@@std@@V?$function@$$A6AHPEAUlua_State@@PEAVInstance@@@Z@2@@std@@@2@$0A@@std@@@std@@IEAAAEAMXZ ; std::_Hash<std::_Umap_traits<std::basic_string_view<char,std::char_traits<char> >,std::function<int __cdecl(lua_State *,Instance *)>,std::_Uhash_compare<std::basic_string_view<char,std::char_traits<char> >,std::hash<std::basic_string_view<char,std::char_traits<char> > >,std::equal_to<std::basic_string_view<char,std::char_traits<char> > > >,std::allocator<std::pair<std::basic_string_view<char,std::char_traits<char> > const ,std::function<int __cdecl(lua_State *,Instance *)> > >,0> >::_Max_bucket_size
PUBLIC	?_Max_bucket_size@?$_Hash@V?$_Umap_traits@V?$basic_string_view@DU?$char_traits@D@std@@@std@@V?$function@$$A6AHPEAUlua_State@@PEAVInstance@@@Z@2@V?$_Uhash_compare@V?$basic_string_view@DU?$char_traits@D@std@@@std@@U?$hash@V?$basic_string_view@DU?$char_traits@D@std@@@std@@@2@U?$equal_to@V?$basic_string_view@DU?$char_traits@D@std@@@std@@@2@@2@V?$allocator@U?$pair@$$CBV?$basic_string_view@DU?$char_traits@D@std@@@std@@V?$function@$$A6AHPEAUlua_State@@PEAVInstance@@@Z@2@@std@@@2@$0A@@std@@@std@@IEBAAEBMXZ ; std::_Hash<std::_Umap_traits<std::basic_string_view<char,std::char_traits<char> >,std::function<int __cdecl(lua_State *,Instance *)>,std::_Uhash_compare<std::basic_string_view<char,std::char_traits<char> >,std::hash<std::basic_string_view<char,std::char_traits<char> > >,std::equal_to<std::basic_string_view<char,std::char_traits<char> > > >,std::allocator<std::pair<std::basic_string_view<char,std::char_traits<char> > const ,std::function<int __cdecl(lua_State *,Instance *)> > >,0> >::_Max_bucket_size
PUBLIC	?deallocate@?$allocator@V?$_List_unchecked_iterator@V?$_List_val@U?$_List_simple_types@U?$pair@$$CBV?$basic_string_view@DU?$char_traits@D@std@@@std@@V?$function@$$A6AHPEAUlua_State@@PEAVInstance@@@Z@2@@std@@@std@@@std@@@std@@@std@@QEAAXQEAV?$_List_unchecked_iterator@V?$_List_val@U?$_List_simple_types@U?$pair@$$CBV?$basic_string_view@DU?$char_traits@D@std@@@std@@V?$function@$$A6AHPEAUlua_State@@PEAVInstance@@@Z@2@@std@@@std@@@std@@@2@_K@Z ; std::allocator<std::_List_unchecked_iterator<std::_List_val<std::_List_simple_types<std::pair<std::basic_string_view<char,std::char_traits<char> > const ,std::function<int __cdecl(lua_State *,Instance *)> > > > > >::deallocate
PUBLIC	?allocate@?$allocator@V?$_List_unchecked_iterator@V?$_List_val@U?$_List_simple_types@U?$pair@$$CBV?$basic_string_view@DU?$char_traits@D@std@@@std@@V?$function@$$A6AHPEAUlua_State@@PEAVInstance@@@Z@2@@std@@@std@@@std@@@std@@@std@@QEAAPEAV?$_List_unchecked_iterator@V?$_List_val@U?$_List_simple_types@U?$pair@$$CBV?$basic_string_view@DU?$char_traits@D@std@@@std@@V?$function@$$A6AHPEAUlua_State@@PEAVInstance@@@Z@2@@std@@@std@@@std@@@2@_K@Z ; std::allocator<std::_List_unchecked_iterator<std::_List_val<std::_List_simple_types<std::pair<std::basic_string_view<char,std::char_traits<char> > const ,std::function<int __cdecl(lua_State *,Instance *)> > > > > >::allocate
PUBLIC	?max_size@?$_Default_allocator_traits@V?$allocator@V?$_List_unchecked_iterator@V?$_List_val@U?$_List_simple_types@U?$pair@$$CBV?$basic_string_view@DU?$char_traits@D@std@@@std@@V?$function@$$A6AHPEAUlua_State@@PEAVInstance@@@Z@2@@std@@@std@@@std@@@std@@@std@@@std@@SA_KAEBV?$allocator@V?$_List_unchecked_iterator@V?$_List_val@U?$_List_simple_types@U?$pair@$$CBV?$basic_string_view@DU?$char_traits@D@std@@@std@@V?$function@$$A6AHPEAUlua_State@@PEAVInstance@@@Z@2@@std@@@std@@@std@@@std@@@2@@Z ; std::_Default_allocator_traits<std::allocator<std::_List_unchecked_iterator<std::_List_val<std::_List_simple_types<std::pair<std::basic_string_view<char,std::char_traits<char> > const ,std::function<int __cdecl(lua_State *,Instance *)> > > > > > >::max_size
PUBLIC	?size@?$_Hash_vec@V?$allocator@V?$_List_unchecked_iterator@V?$_List_val@U?$_List_simple_types@U?$pair@$$CBV?$basic_string_view@DU?$char_traits@D@std@@@std@@V?$function@$$A6AHPEAUlua_State@@PEAVInstance@@@Z@2@@std@@@std@@@std@@@std@@@std@@@std@@QEBA_KXZ ; std::_Hash_vec<std::allocator<std::_List_unchecked_iterator<std::_List_val<std::_List_simple_types<std::pair<std::basic_string_view<char,std::char_traits<char> > const ,std::function<int __cdecl(lua_State *,Instance *)> > > > > > >::size
PUBLIC	?max_size@?$_Hash_vec@V?$allocator@V?$_List_unchecked_iterator@V?$_List_val@U?$_List_simple_types@U?$pair@$$CBV?$basic_string_view@DU?$char_traits@D@std@@@std@@V?$function@$$A6AHPEAUlua_State@@PEAVInstance@@@Z@2@@std@@@std@@@std@@@std@@@std@@@std@@QEBA_KXZ ; std::_Hash_vec<std::allocator<std::_List_unchecked_iterator<std::_List_val<std::_List_simple_types<std::pair<std::basic_string_view<char,std::char_traits<char> > const ,std::function<int __cdecl(lua_State *,Instance *)> > > > > > >::max_size
PUBLIC	?capacity@?$_Hash_vec@V?$allocator@V?$_List_unchecked_iterator@V?$_List_val@U?$_List_simple_types@U?$pair@$$CBV?$basic_string_view@DU?$char_traits@D@std@@@std@@V?$function@$$A6AHPEAUlua_State@@PEAVInstance@@@Z@2@@std@@@std@@@std@@@std@@@std@@@std@@QEBA_KXZ ; std::_Hash_vec<std::allocator<std::_List_unchecked_iterator<std::_List_val<std::_List_simple_types<std::pair<std::basic_string_view<char,std::char_traits<char> > const ,std::function<int __cdecl(lua_State *,Instance *)> > > > > > >::capacity
PUBLIC	?_Assign_grow@?$_Hash_vec@V?$allocator@V?$_List_unchecked_iterator@V?$_List_val@U?$_List_simple_types@U?$pair@$$CBV?$basic_string_view@DU?$char_traits@D@std@@@std@@V?$function@$$A6AHPEAUlua_State@@PEAVInstance@@@Z@2@@std@@@std@@@std@@@std@@@std@@@std@@QEAAX_KV?$_List_unchecked_iterator@V?$_List_val@U?$_List_simple_types@U?$pair@$$CBV?$basic_string_view@DU?$char_traits@D@std@@@std@@V?$function@$$A6AHPEAUlua_State@@PEAVInstance@@@Z@2@@std@@@std@@@std@@@2@@Z ; std::_Hash_vec<std::allocator<std::_List_unchecked_iterator<std::_List_val<std::_List_simple_types<std::pair<std::basic_string_view<char,std::char_traits<char> > const ,std::function<int __cdecl(lua_State *,Instance *)> > > > > > >::_Assign_grow
PUBLIC	?_Tidy@?$_Hash_vec@V?$allocator@V?$_List_unchecked_iterator@V?$_List_val@U?$_List_simple_types@U?$pair@$$CBV?$basic_string_view@DU?$char_traits@D@std@@@std@@V?$function@$$A6AHPEAUlua_State@@PEAVInstance@@@Z@2@@std@@@std@@@std@@@std@@@std@@@std@@QEAAXXZ ; std::_Hash_vec<std::allocator<std::_List_unchecked_iterator<std::_List_val<std::_List_simple_types<std::pair<std::basic_string_view<char,std::char_traits<char> > const ,std::function<int __cdecl(lua_State *,Instance *)> > > > > > >::_Tidy
PUBLIC	??1?$_Hash_vec@V?$allocator@V?$_List_unchecked_iterator@V?$_List_val@U?$_List_simple_types@U?$pair@$$CBV?$basic_string_view@DU?$char_traits@D@std@@@std@@V?$function@$$A6AHPEAUlua_State@@PEAVInstance@@@Z@2@@std@@@std@@@std@@@std@@@std@@@std@@QEAA@XZ ; std::_Hash_vec<std::allocator<std::_List_unchecked_iterator<std::_List_val<std::_List_simple_types<std::pair<std::basic_string_view<char,std::char_traits<char> > const ,std::function<int __cdecl(lua_State *,Instance *)> > > > > > >::~_Hash_vec<std::allocator<std::_List_unchecked_iterator<std::_List_val<std::_List_simple_types<std::pair<std::basic_string_view<char,std::char_traits<char> > const ,std::function<int __cdecl(lua_State *,Instance *)> > > > > > >
PUBLIC	??0?$_Vector_val@U?$_Simple_types@V?$_List_unchecked_iterator@V?$_List_val@U?$_List_simple_types@U?$pair@$$CBV?$basic_string_view@DU?$char_traits@D@std@@@std@@V?$function@$$A6AHPEAUlua_State@@PEAVInstance@@@Z@2@@std@@@std@@@std@@@std@@@std@@@std@@QEAA@XZ ; std::_Vector_val<std::_Simple_types<std::_List_unchecked_iterator<std::_List_val<std::_List_simple_types<std::pair<std::basic_string_view<char,std::char_traits<char> > const ,std::function<int __cdecl(lua_State *,Instance *)> > > > > > >::_Vector_val<std::_Simple_types<std::_List_unchecked_iterator<std::_List_val<std::_List_simple_types<std::pair<std::basic_string_view<char,std::char_traits<char> > const ,std::function<int __cdecl(lua_State *,Instance *)> > > > > > >
PUBLIC	?_Get_first@?$_Compressed_pair@V?$allocator@V?$_List_unchecked_iterator@V?$_List_val@U?$_List_simple_types@U?$pair@$$CBV?$basic_string_view@DU?$char_traits@D@std@@@std@@V?$function@$$A6AHPEAUlua_State@@PEAVInstance@@@Z@2@@std@@@std@@@std@@@std@@@std@@V?$_Vector_val@U?$_Simple_types@V?$_List_unchecked_iterator@V?$_List_val@U?$_List_simple_types@U?$pair@$$CBV?$basic_string_view@DU?$char_traits@D@std@@@std@@V?$function@$$A6AHPEAUlua_State@@PEAVInstance@@@Z@2@@std@@@std@@@std@@@std@@@std@@@2@$00@std@@QEAAAEAV?$allocator@V?$_List_unchecked_iterator@V?$_List_val@U?$_List_simple_types@U?$pair@$$CBV?$basic_string_view@DU?$char_traits@D@std@@@std@@V?$function@$$A6AHPEAUlua_State@@PEAVInstance@@@Z@2@@std@@@std@@@std@@@std@@@2@XZ ; std::_Compressed_pair<std::allocator<std::_List_unchecked_iterator<std::_List_val<std::_List_simple_types<std::pair<std::basic_string_view<char,std::char_traits<char> > const ,std::function<int __cdecl(lua_State *,Instance *)> > > > > >,std::_Vector_val<std::_Simple_types<std::_List_unchecked_iterator<std::_List_val<std::_List_simple_types<std::pair<std::basic_string_view<char,std::char_traits<char> > const ,std::function<int __cdecl(lua_State *,Instance *)> > > > > > >,1>::_Get_first
PUBLIC	?_Get_first@?$_Compressed_pair@V?$allocator@V?$_List_unchecked_iterator@V?$_List_val@U?$_List_simple_types@U?$pair@$$CBV?$basic_string_view@DU?$char_traits@D@std@@@std@@V?$function@$$A6AHPEAUlua_State@@PEAVInstance@@@Z@2@@std@@@std@@@std@@@std@@@std@@V?$_Vector_val@U?$_Simple_types@V?$_List_unchecked_iterator@V?$_List_val@U?$_List_simple_types@U?$pair@$$CBV?$basic_string_view@DU?$char_traits@D@std@@@std@@V?$function@$$A6AHPEAUlua_State@@PEAVInstance@@@Z@2@@std@@@std@@@std@@@std@@@std@@@2@$00@std@@QEBAAEBV?$allocator@V?$_List_unchecked_iterator@V?$_List_val@U?$_List_simple_types@U?$pair@$$CBV?$basic_string_view@DU?$char_traits@D@std@@@std@@V?$function@$$A6AHPEAUlua_State@@PEAVInstance@@@Z@2@@std@@@std@@@std@@@std@@@2@XZ ; std::_Compressed_pair<std::allocator<std::_List_unchecked_iterator<std::_List_val<std::_List_simple_types<std::pair<std::basic_string_view<char,std::char_traits<char> > const ,std::function<int __cdecl(lua_State *,Instance *)> > > > > >,std::_Vector_val<std::_Simple_types<std::_List_unchecked_iterator<std::_List_val<std::_List_simple_types<std::pair<std::basic_string_view<char,std::char_traits<char> > const ,std::function<int __cdecl(lua_State *,Instance *)> > > > > > >,1>::_Get_first
PUBLIC	??1?$_Hash@V?$_Umap_traits@V?$basic_string_view@DU?$char_traits@D@std@@@std@@V?$function@$$A6AHPEAUlua_State@@PEAVInstance@@@Z@2@V?$_Uhash_compare@V?$basic_string_view@DU?$char_traits@D@std@@@std@@U?$hash@V?$basic_string_view@DU?$char_traits@D@std@@@std@@@2@U?$equal_to@V?$basic_string_view@DU?$char_traits@D@std@@@std@@@2@@2@V?$allocator@U?$pair@$$CBV?$basic_string_view@DU?$char_traits@D@std@@@std@@V?$function@$$A6AHPEAUlua_State@@PEAVInstance@@@Z@2@@std@@@2@$0A@@std@@@std@@QEAA@XZ ; std::_Hash<std::_Umap_traits<std::basic_string_view<char,std::char_traits<char> >,std::function<int __cdecl(lua_State *,Instance *)>,std::_Uhash_compare<std::basic_string_view<char,std::char_traits<char> >,std::hash<std::basic_string_view<char,std::char_traits<char> > >,std::equal_to<std::basic_string_view<char,std::char_traits<char> > > >,std::allocator<std::pair<std::basic_string_view<char,std::char_traits<char> > const ,std::function<int __cdecl(lua_State *,Instance *)> > >,0> >::~_Hash<std::_Umap_traits<std::basic_string_view<char,std::char_traits<char> >,std::function<int __cdecl(lua_State *,Instance *)>,std::_Uhash_compare<std::basic_string_view<char,std::char_traits<char> >,std::hash<std::basic_string_view<char,std::char_traits<char> > >,std::equal_to<std::basic_string_view<char,std::char_traits<char> > > >,std::allocator<std::pair<std::basic_string_view<char,std::char_traits<char> > const ,std::function<int __cdecl(lua_State *,Instance *)> > >,0> >
PUBLIC	??0?$unordered_map@V?$basic_string_view@DU?$char_traits@D@std@@@std@@V?$function@$$A6AHPEAUlua_State@@PEAVInstance@@@Z@2@U?$hash@V?$basic_string_view@DU?$char_traits@D@std@@@std@@@2@U?$equal_to@V?$basic_string_view@DU?$char_traits@D@std@@@std@@@2@V?$allocator@U?$pair@$$CBV?$basic_string_view@DU?$char_traits@D@std@@@std@@V?$function@$$A6AHPEAUlua_State@@PEAVInstance@@@Z@2@@std@@@2@@std@@QEAA@XZ ; std::unordered_map<std::basic_string_view<char,std::char_traits<char> >,std::function<int __cdecl(lua_State *,Instance *)>,std::hash<std::basic_string_view<char,std::char_traits<char> > >,std::equal_to<std::basic_string_view<char,std::char_traits<char> > >,std::allocator<std::pair<std::basic_string_view<char,std::char_traits<char> > const ,std::function<int __cdecl(lua_State *,Instance *)> > > >::unordered_map<std::basic_string_view<char,std::char_traits<char> >,std::function<int __cdecl(lua_State *,Instance *)>,std::hash<std::basic_string_view<char,std::char_traits<char> > >,std::equal_to<std::basic_string_view<char,std::char_traits<char> > >,std::allocator<std::pair<std::basic_string_view<char,std::char_traits<char> > const ,std::function<int __cdecl(lua_State *,Instance *)> > > >
PUBLIC	??A?$unordered_map@V?$basic_string_view@DU?$char_traits@D@std@@@std@@V?$function@$$A6AHPEAUlua_State@@PEAVInstance@@@Z@2@U?$hash@V?$basic_string_view@DU?$char_traits@D@std@@@std@@@2@U?$equal_to@V?$basic_string_view@DU?$char_traits@D@std@@@std@@@2@V?$allocator@U?$pair@$$CBV?$basic_string_view@DU?$char_traits@D@std@@@std@@V?$function@$$A6AHPEAUlua_State@@PEAVInstance@@@Z@2@@std@@@2@@std@@QEAAAEAV?$function@$$A6AHPEAUlua_State@@PEAVInstance@@@Z@1@$$QEAV?$basic_string_view@DU?$char_traits@D@std@@@1@@Z ; std::unordered_map<std::basic_string_view<char,std::char_traits<char> >,std::function<int __cdecl(lua_State *,Instance *)>,std::hash<std::basic_string_view<char,std::char_traits<char> > >,std::equal_to<std::basic_string_view<char,std::char_traits<char> > >,std::allocator<std::pair<std::basic_string_view<char,std::char_traits<char> > const ,std::function<int __cdecl(lua_State *,Instance *)> > > >::operator[]
PUBLIC	??1?$unordered_map@V?$basic_string_view@DU?$char_traits@D@std@@@std@@V?$function@$$A6AHPEAUlua_State@@PEAVInstance@@@Z@2@U?$hash@V?$basic_string_view@DU?$char_traits@D@std@@@std@@@2@U?$equal_to@V?$basic_string_view@DU?$char_traits@D@std@@@std@@@2@V?$allocator@U?$pair@$$CBV?$basic_string_view@DU?$char_traits@D@std@@@std@@V?$function@$$A6AHPEAUlua_State@@PEAVInstance@@@Z@2@@std@@@2@@std@@QEAA@XZ ; std::unordered_map<std::basic_string_view<char,std::char_traits<char> >,std::function<int __cdecl(lua_State *,Instance *)>,std::hash<std::basic_string_view<char,std::char_traits<char> > >,std::equal_to<std::basic_string_view<char,std::char_traits<char> > >,std::allocator<std::pair<std::basic_string_view<char,std::char_traits<char> > const ,std::function<int __cdecl(lua_State *,Instance *)> > > >::~unordered_map<std::basic_string_view<char,std::char_traits<char> >,std::function<int __cdecl(lua_State *,Instance *)>,std::hash<std::basic_string_view<char,std::char_traits<char> > >,std::equal_to<std::basic_string_view<char,std::char_traits<char> > >,std::allocator<std::pair<std::basic_string_view<char,std::char_traits<char> > const ,std::function<int __cdecl(lua_State *,Instance *)> > > >
PUBLIC	??$?6U?$char_traits@D@std@@@std@@YAAEAV?$basic_ostream@DU?$char_traits@D@std@@@0@AEAV10@PEBD@Z ; std::operator<<<std::char_traits<char> >
PUBLIC	??$?6DU?$char_traits@D@std@@V?$allocator@D@1@@std@@YAAEAV?$basic_ostream@DU?$char_traits@D@std@@@0@AEAV10@AEBV?$basic_string@DU?$char_traits@D@std@@V?$allocator@D@2@@0@@Z ; std::operator<<<char,std::char_traits<char>,std::allocator<char> >
PUBLIC	??$?6DU?$char_traits@D@std@@@std@@YAAEAV?$basic_ostream@DU?$char_traits@D@std@@@0@AEAV10@V?$basic_string_view@DU?$char_traits@D@std@@@0@@Z ; std::operator<<<char,std::char_traits<char> >
PUBLIC	??$endl@DU?$char_traits@D@std@@@std@@YAAEAV?$basic_ostream@DU?$char_traits@D@std@@@0@AEAV10@@Z ; std::endl<char,std::char_traits<char> >
PUBLIC	??0?$_Func_class@HPEAUlua_State@@PEAVInstance@@@std@@QEAA@XZ ; std::_Func_class<int,lua_State *,Instance *>::_Func_class<int,lua_State *,Instance *>
PUBLIC	??R?$_Func_class@HPEAUlua_State@@PEAVInstance@@@std@@QEBAHPEAUlua_State@@PEAVInstance@@@Z ; std::_Func_class<int,lua_State *,Instance *>::operator()
PUBLIC	??1?$_Func_class@HPEAUlua_State@@PEAVInstance@@@std@@QEAA@XZ ; std::_Func_class<int,lua_State *,Instance *>::~_Func_class<int,lua_State *,Instance *>
PUBLIC	?_Empty@?$_Func_class@HPEAUlua_State@@PEAVInstance@@@std@@IEBA_NXZ ; std::_Func_class<int,lua_State *,Instance *>::_Empty
PUBLIC	?_Reset_move@?$_Func_class@HPEAUlua_State@@PEAVInstance@@@std@@IEAAX$$QEAV12@@Z ; std::_Func_class<int,lua_State *,Instance *>::_Reset_move
PUBLIC	?_Tidy@?$_Func_class@HPEAUlua_State@@PEAVInstance@@@std@@IEAAXXZ ; std::_Func_class<int,lua_State *,Instance *>::_Tidy
PUBLIC	?_Swap@?$_Func_class@HPEAUlua_State@@PEAVInstance@@@std@@IEAAXAEAV12@@Z ; std::_Func_class<int,lua_State *,Instance *>::_Swap
PUBLIC	?_Local@?$_Func_class@HPEAUlua_State@@PEAVInstance@@@std@@AEBA_NXZ ; std::_Func_class<int,lua_State *,Instance *>::_Local
PUBLIC	?_Getimpl@?$_Func_class@HPEAUlua_State@@PEAVInstance@@@std@@AEBAPEAV?$_Func_base@HPEAUlua_State@@PEAVInstance@@@2@XZ ; std::_Func_class<int,lua_State *,Instance *>::_Getimpl
PUBLIC	?_Set@?$_Func_class@HPEAUlua_State@@PEAVInstance@@@std@@AEAAXPEAV?$_Func_base@HPEAUlua_State@@PEAVInstance@@@2@@Z ; std::_Func_class<int,lua_State *,Instance *>::_Set
PUBLIC	??0?$function@$$A6AHPEAUlua_State@@PEAVInstance@@@Z@std@@QEAA@XZ ; std::function<int __cdecl(lua_State *,Instance *)>::function<int __cdecl(lua_State *,Instance *)>
PUBLIC	?swap@?$function@$$A6AHPEAUlua_State@@PEAVInstance@@@Z@std@@QEAAXAEAV12@@Z ; std::function<int __cdecl(lua_State *,Instance *)>::swap
PUBLIC	??1?$function@$$A6AHPEAUlua_State@@PEAVInstance@@@Z@std@@QEAA@XZ ; std::function<int __cdecl(lua_State *,Instance *)>::~function<int __cdecl(lua_State *,Instance *)>
PUBLIC	??0?$_List_unchecked_const_iterator@V?$_List_val@U?$_List_simple_types@U?$pair@$$CBV?$basic_string_view@DU?$char_traits@D@std@@@std@@V?$unordered_map@V?$basic_string_view@DU?$char_traits@D@std@@@std@@V?$function@$$A6AHPEAUlua_State@@PEAVInstance@@@Z@2@U?$hash@V?$basic_string_view@DU?$char_traits@D@std@@@std@@@2@U?$equal_to@V?$basic_string_view@DU?$char_traits@D@std@@@std@@@2@V?$allocator@U?$pair@$$CBV?$basic_string_view@DU?$char_traits@D@std@@@std@@V?$function@$$A6AHPEAUlua_State@@PEAVInstance@@@Z@2@@std@@@2@@2@@std@@@std@@@std@@U_Iterator_base0@2@@std@@QEAA@PEAU?$_List_node@U?$pair@$$CBV?$basic_string_view@DU?$char_traits@D@std@@@std@@V?$unordered_map@V?$basic_string_view@DU?$char_traits@D@std@@@std@@V?$function@$$A6AHPEAUlua_State@@PEAVInstance@@@Z@2@U?$hash@V?$basic_string_view@DU?$char_traits@D@std@@@std@@@2@U?$equal_to@V?$basic_string_view@DU?$char_traits@D@std@@@std@@@2@V?$allocator@U?$pair@$$CBV?$basic_string_view@DU?$char_traits@D@std@@@std@@V?$function@$$A6AHPEAUlua_State@@PEAVInstance@@@Z@2@@std@@@2@@2@@std@@PEAX@1@PEBV?$_List_val@U?$_List_simple_types@U?$pair@$$CBV?$basic_string_view@DU?$char_traits@D@std@@@std@@V?$unordered_map@V?$basic_string_view@DU?$char_traits@D@std@@@std@@V?$function@$$A6AHPEAUlua_State@@PEAVInstance@@@Z@2@U?$hash@V?$basic_string_view@DU?$char_traits@D@std@@@std@@@2@U?$equal_to@V?$basic_string_view@DU?$char_traits@D@std@@@std@@@2@V?$allocator@U?$pair@$$CBV?$basic_string_view@DU?$char_traits@D@std@@@std@@V?$function@$$A6AHPEAUlua_State@@PEAVInstance@@@Z@2@@std@@@2@@2@@std@@@std@@@1@@Z ; std::_List_unchecked_const_iterator<std::_List_val<std::_List_simple_types<std::pair<std::basic_string_view<char,std::char_traits<char> > const ,std::unordered_map<std::basic_string_view<char,std::char_traits<char> >,std::function<int __cdecl(lua_State *,Instance *)>,std::hash<std::basic_string_view<char,std::char_traits<char> > >,std::equal_to<std::basic_string_view<char,std::char_traits<char> > >,std::allocator<std::pair<std::basic_string_view<char,std::char_traits<char> > const ,std::function<int __cdecl(lua_State *,Instance *)> > > > > > >,std::_Iterator_base0>::_List_unchecked_const_iterator<std::_List_val<std::_List_simple_types<std::pair<std::basic_string_view<char,std::char_traits<char> > const ,std::unordered_map<std::basic_string_view<char,std::char_traits<char> >,std::function<int __cdecl(lua_State *,Instance *)>,std::hash<std::basic_string_view<char,std::char_traits<char> > >,std::equal_to<std::basic_string_view<char,std::char_traits<char> > >,std::allocator<std::pair<std::basic_string_view<char,std::char_traits<char> > const ,std::function<int __cdecl(lua_State *,Instance *)> > > > > > >,std::_Iterator_base0>
PUBLIC	??D?$_List_unchecked_const_iterator@V?$_List_val@U?$_List_simple_types@U?$pair@$$CBV?$basic_string_view@DU?$char_traits@D@std@@@std@@V?$unordered_map@V?$basic_string_view@DU?$char_traits@D@std@@@std@@V?$function@$$A6AHPEAUlua_State@@PEAVInstance@@@Z@2@U?$hash@V?$basic_string_view@DU?$char_traits@D@std@@@std@@@2@U?$equal_to@V?$basic_string_view@DU?$char_traits@D@std@@@std@@@2@V?$allocator@U?$pair@$$CBV?$basic_string_view@DU?$char_traits@D@std@@@std@@V?$function@$$A6AHPEAUlua_State@@PEAVInstance@@@Z@2@@std@@@2@@2@@std@@@std@@@std@@U_Iterator_base0@2@@std@@QEBAAEBU?$pair@$$CBV?$basic_string_view@DU?$char_traits@D@std@@@std@@V?$unordered_map@V?$basic_string_view@DU?$char_traits@D@std@@@std@@V?$function@$$A6AHPEAUlua_State@@PEAVInstance@@@Z@2@U?$hash@V?$basic_string_view@DU?$char_traits@D@std@@@std@@@2@U?$equal_to@V?$basic_string_view@DU?$char_traits@D@std@@@std@@@2@V?$allocator@U?$pair@$$CBV?$basic_string_view@DU?$char_traits@D@std@@@std@@V?$function@$$A6AHPEAUlua_State@@PEAVInstance@@@Z@2@@std@@@2@@2@@1@XZ ; std::_List_unchecked_const_iterator<std::_List_val<std::_List_simple_types<std::pair<std::basic_string_view<char,std::char_traits<char> > const ,std::unordered_map<std::basic_string_view<char,std::char_traits<char> >,std::function<int __cdecl(lua_State *,Instance *)>,std::hash<std::basic_string_view<char,std::char_traits<char> > >,std::equal_to<std::basic_string_view<char,std::char_traits<char> > >,std::allocator<std::pair<std::basic_string_view<char,std::char_traits<char> > const ,std::function<int __cdecl(lua_State *,Instance *)> > > > > > >,std::_Iterator_base0>::operator*
PUBLIC	??E?$_List_unchecked_const_iterator@V?$_List_val@U?$_List_simple_types@U?$pair@$$CBV?$basic_string_view@DU?$char_traits@D@std@@@std@@V?$unordered_map@V?$basic_string_view@DU?$char_traits@D@std@@@std@@V?$function@$$A6AHPEAUlua_State@@PEAVInstance@@@Z@2@U?$hash@V?$basic_string_view@DU?$char_traits@D@std@@@std@@@2@U?$equal_to@V?$basic_string_view@DU?$char_traits@D@std@@@std@@@2@V?$allocator@U?$pair@$$CBV?$basic_string_view@DU?$char_traits@D@std@@@std@@V?$function@$$A6AHPEAUlua_State@@PEAVInstance@@@Z@2@@std@@@2@@2@@std@@@std@@@std@@U_Iterator_base0@2@@std@@QEAAAEAV01@XZ ; std::_List_unchecked_const_iterator<std::_List_val<std::_List_simple_types<std::pair<std::basic_string_view<char,std::char_traits<char> > const ,std::unordered_map<std::basic_string_view<char,std::char_traits<char> >,std::function<int __cdecl(lua_State *,Instance *)>,std::hash<std::basic_string_view<char,std::char_traits<char> > >,std::equal_to<std::basic_string_view<char,std::char_traits<char> > >,std::allocator<std::pair<std::basic_string_view<char,std::char_traits<char> > const ,std::function<int __cdecl(lua_State *,Instance *)> > > > > > >,std::_Iterator_base0>::operator++
PUBLIC	??F?$_List_unchecked_const_iterator@V?$_List_val@U?$_List_simple_types@U?$pair@$$CBV?$basic_string_view@DU?$char_traits@D@std@@@std@@V?$unordered_map@V?$basic_string_view@DU?$char_traits@D@std@@@std@@V?$function@$$A6AHPEAUlua_State@@PEAVInstance@@@Z@2@U?$hash@V?$basic_string_view@DU?$char_traits@D@std@@@std@@@2@U?$equal_to@V?$basic_string_view@DU?$char_traits@D@std@@@std@@@2@V?$allocator@U?$pair@$$CBV?$basic_string_view@DU?$char_traits@D@std@@@std@@V?$function@$$A6AHPEAUlua_State@@PEAVInstance@@@Z@2@@std@@@2@@2@@std@@@std@@@std@@U_Iterator_base0@2@@std@@QEAAAEAV01@XZ ; std::_List_unchecked_const_iterator<std::_List_val<std::_List_simple_types<std::pair<std::basic_string_view<char,std::char_traits<char> > const ,std::unordered_map<std::basic_string_view<char,std::char_traits<char> >,std::function<int __cdecl(lua_State *,Instance *)>,std::hash<std::basic_string_view<char,std::char_traits<char> > >,std::equal_to<std::basic_string_view<char,std::char_traits<char> > >,std::allocator<std::pair<std::basic_string_view<char,std::char_traits<char> > const ,std::function<int __cdecl(lua_State *,Instance *)> > > > > > >,std::_Iterator_base0>::operator--
PUBLIC	??8?$_List_unchecked_const_iterator@V?$_List_val@U?$_List_simple_types@U?$pair@$$CBV?$basic_string_view@DU?$char_traits@D@std@@@std@@V?$unordered_map@V?$basic_string_view@DU?$char_traits@D@std@@@std@@V?$function@$$A6AHPEAUlua_State@@PEAVInstance@@@Z@2@U?$hash@V?$basic_string_view@DU?$char_traits@D@std@@@std@@@2@U?$equal_to@V?$basic_string_view@DU?$char_traits@D@std@@@std@@@2@V?$allocator@U?$pair@$$CBV?$basic_string_view@DU?$char_traits@D@std@@@std@@V?$function@$$A6AHPEAUlua_State@@PEAVInstance@@@Z@2@@std@@@2@@2@@std@@@std@@@std@@U_Iterator_base0@2@@std@@QEBA_NAEBV01@@Z ; std::_List_unchecked_const_iterator<std::_List_val<std::_List_simple_types<std::pair<std::basic_string_view<char,std::char_traits<char> > const ,std::unordered_map<std::basic_string_view<char,std::char_traits<char> >,std::function<int __cdecl(lua_State *,Instance *)>,std::hash<std::basic_string_view<char,std::char_traits<char> > >,std::equal_to<std::basic_string_view<char,std::char_traits<char> > >,std::allocator<std::pair<std::basic_string_view<char,std::char_traits<char> > const ,std::function<int __cdecl(lua_State *,Instance *)> > > > > > >,std::_Iterator_base0>::operator==
PUBLIC	??D?$_List_unchecked_iterator@V?$_List_val@U?$_List_simple_types@U?$pair@$$CBV?$basic_string_view@DU?$char_traits@D@std@@@std@@V?$unordered_map@V?$basic_string_view@DU?$char_traits@D@std@@@std@@V?$function@$$A6AHPEAUlua_State@@PEAVInstance@@@Z@2@U?$hash@V?$basic_string_view@DU?$char_traits@D@std@@@std@@@2@U?$equal_to@V?$basic_string_view@DU?$char_traits@D@std@@@std@@@2@V?$allocator@U?$pair@$$CBV?$basic_string_view@DU?$char_traits@D@std@@@std@@V?$function@$$A6AHPEAUlua_State@@PEAVInstance@@@Z@2@@std@@@2@@2@@std@@@std@@@std@@@std@@QEBAAEAU?$pair@$$CBV?$basic_string_view@DU?$char_traits@D@std@@@std@@V?$unordered_map@V?$basic_string_view@DU?$char_traits@D@std@@@std@@V?$function@$$A6AHPEAUlua_State@@PEAVInstance@@@Z@2@U?$hash@V?$basic_string_view@DU?$char_traits@D@std@@@std@@@2@U?$equal_to@V?$basic_string_view@DU?$char_traits@D@std@@@std@@@2@V?$allocator@U?$pair@$$CBV?$basic_string_view@DU?$char_traits@D@std@@@std@@V?$function@$$A6AHPEAUlua_State@@PEAVInstance@@@Z@2@@std@@@2@@2@@1@XZ ; std::_List_unchecked_iterator<std::_List_val<std::_List_simple_types<std::pair<std::basic_string_view<char,std::char_traits<char> > const ,std::unordered_map<std::basic_string_view<char,std::char_traits<char> >,std::function<int __cdecl(lua_State *,Instance *)>,std::hash<std::basic_string_view<char,std::char_traits<char> > >,std::equal_to<std::basic_string_view<char,std::char_traits<char> > >,std::allocator<std::pair<std::basic_string_view<char,std::char_traits<char> > const ,std::function<int __cdecl(lua_State *,Instance *)> > > > > > > >::operator*
PUBLIC	??E?$_List_unchecked_iterator@V?$_List_val@U?$_List_simple_types@U?$pair@$$CBV?$basic_string_view@DU?$char_traits@D@std@@@std@@V?$unordered_map@V?$basic_string_view@DU?$char_traits@D@std@@@std@@V?$function@$$A6AHPEAUlua_State@@PEAVInstance@@@Z@2@U?$hash@V?$basic_string_view@DU?$char_traits@D@std@@@std@@@2@U?$equal_to@V?$basic_string_view@DU?$char_traits@D@std@@@std@@@2@V?$allocator@U?$pair@$$CBV?$basic_string_view@DU?$char_traits@D@std@@@std@@V?$function@$$A6AHPEAUlua_State@@PEAVInstance@@@Z@2@@std@@@2@@2@@std@@@std@@@std@@@std@@QEAAAEAV01@XZ ; std::_List_unchecked_iterator<std::_List_val<std::_List_simple_types<std::pair<std::basic_string_view<char,std::char_traits<char> > const ,std::unordered_map<std::basic_string_view<char,std::char_traits<char> >,std::function<int __cdecl(lua_State *,Instance *)>,std::hash<std::basic_string_view<char,std::char_traits<char> > >,std::equal_to<std::basic_string_view<char,std::char_traits<char> > >,std::allocator<std::pair<std::basic_string_view<char,std::char_traits<char> > const ,std::function<int __cdecl(lua_State *,Instance *)> > > > > > > >::operator++
PUBLIC	??0?$_List_unchecked_iterator@V?$_List_val@U?$_List_simple_types@U?$pair@$$CBV?$basic_string_view@DU?$char_traits@D@std@@@std@@V?$unordered_map@V?$basic_string_view@DU?$char_traits@D@std@@@std@@V?$function@$$A6AHPEAUlua_State@@PEAVInstance@@@Z@2@U?$hash@V?$basic_string_view@DU?$char_traits@D@std@@@std@@@2@U?$equal_to@V?$basic_string_view@DU?$char_traits@D@std@@@std@@@2@V?$allocator@U?$pair@$$CBV?$basic_string_view@DU?$char_traits@D@std@@@std@@V?$function@$$A6AHPEAUlua_State@@PEAVInstance@@@Z@2@@std@@@2@@2@@std@@@std@@@std@@@std@@QEAA@PEAU?$_List_node@U?$pair@$$CBV?$basic_string_view@DU?$char_traits@D@std@@@std@@V?$unordered_map@V?$basic_string_view@DU?$char_traits@D@std@@@std@@V?$function@$$A6AHPEAUlua_State@@PEAVInstance@@@Z@2@U?$hash@V?$basic_string_view@DU?$char_traits@D@std@@@std@@@2@U?$equal_to@V?$basic_string_view@DU?$char_traits@D@std@@@std@@@2@V?$allocator@U?$pair@$$CBV?$basic_string_view@DU?$char_traits@D@std@@@std@@V?$function@$$A6AHPEAUlua_State@@PEAVInstance@@@Z@2@@std@@@2@@2@@std@@PEAX@1@PEBV?$_List_val@U?$_List_simple_types@U?$pair@$$CBV?$basic_string_view@DU?$char_traits@D@std@@@std@@V?$unordered_map@V?$basic_string_view@DU?$char_traits@D@std@@@std@@V?$function@$$A6AHPEAUlua_State@@PEAVInstance@@@Z@2@U?$hash@V?$basic_string_view@DU?$char_traits@D@std@@@std@@@2@U?$equal_to@V?$basic_string_view@DU?$char_traits@D@std@@@std@@@2@V?$allocator@U?$pair@$$CBV?$basic_string_view@DU?$char_traits@D@std@@@std@@V?$function@$$A6AHPEAUlua_State@@PEAVInstance@@@Z@2@@std@@@2@@2@@std@@@std@@@1@@Z ; std::_List_unchecked_iterator<std::_List_val<std::_List_simple_types<std::pair<std::basic_string_view<char,std::char_traits<char> > const ,std::unordered_map<std::basic_string_view<char,std::char_traits<char> >,std::function<int __cdecl(lua_State *,Instance *)>,std::hash<std::basic_string_view<char,std::char_traits<char> > >,std::equal_to<std::basic_string_view<char,std::char_traits<char> > >,std::allocator<std::pair<std::basic_string_view<char,std::char_traits<char> > const ,std::function<int __cdecl(lua_State *,Instance *)> > > > > > > >::_List_unchecked_iterator<std::_List_val<std::_List_simple_types<std::pair<std::basic_string_view<char,std::char_traits<char> > const ,std::unordered_map<std::basic_string_view<char,std::char_traits<char> >,std::function<int __cdecl(lua_State *,Instance *)>,std::hash<std::basic_string_view<char,std::char_traits<char> > >,std::equal_to<std::basic_string_view<char,std::char_traits<char> > >,std::allocator<std::pair<std::basic_string_view<char,std::char_traits<char> > const ,std::function<int __cdecl(lua_State *,Instance *)> > > > > > > >
PUBLIC	??1?$pair@$$CBV?$basic_string_view@DU?$char_traits@D@std@@@std@@V?$unordered_map@V?$basic_string_view@DU?$char_traits@D@std@@@std@@V?$function@$$A6AHPEAUlua_State@@PEAVInstance@@@Z@2@U?$hash@V?$basic_string_view@DU?$char_traits@D@std@@@std@@@2@U?$equal_to@V?$basic_string_view@DU?$char_traits@D@std@@@std@@@2@V?$allocator@U?$pair@$$CBV?$basic_string_view@DU?$char_traits@D@std@@@std@@V?$function@$$A6AHPEAUlua_State@@PEAVInstance@@@Z@2@@std@@@2@@2@@std@@QEAA@XZ ; std::pair<std::basic_string_view<char,std::char_traits<char> > const ,std::unordered_map<std::basic_string_view<char,std::char_traits<char> >,std::function<int __cdecl(lua_State *,Instance *)>,std::hash<std::basic_string_view<char,std::char_traits<char> > >,std::equal_to<std::basic_string_view<char,std::char_traits<char> > >,std::allocator<std::pair<std::basic_string_view<char,std::char_traits<char> > const ,std::function<int __cdecl(lua_State *,Instance *)> > > > >::~pair<std::basic_string_view<char,std::char_traits<char> > const ,std::unordered_map<std::basic_string_view<char,std::char_traits<char> >,std::function<int __cdecl(lua_State *,Instance *)>,std::hash<std::basic_string_view<char,std::char_traits<char> > >,std::equal_to<std::basic_string_view<char,std::char_traits<char> > >,std::allocator<std::pair<std::basic_string_view<char,std::char_traits<char> > const ,std::function<int __cdecl(lua_State *,Instance *)> > > > >
PUBLIC	??_G?$pair@$$CBV?$basic_string_view@DU?$char_traits@D@std@@@std@@V?$unordered_map@V?$basic_string_view@DU?$char_traits@D@std@@@std@@V?$function@$$A6AHPEAUlua_State@@PEAVInstance@@@Z@2@U?$hash@V?$basic_string_view@DU?$char_traits@D@std@@@std@@@2@U?$equal_to@V?$basic_string_view@DU?$char_traits@D@std@@@std@@@2@V?$allocator@U?$pair@$$CBV?$basic_string_view@DU?$char_traits@D@std@@@std@@V?$function@$$A6AHPEAUlua_State@@PEAVInstance@@@Z@2@@std@@@2@@2@@std@@QEAAPEAXI@Z ; std::pair<std::basic_string_view<char,std::char_traits<char> > const ,std::unordered_map<std::basic_string_view<char,std::char_traits<char> >,std::function<int __cdecl(lua_State *,Instance *)>,std::hash<std::basic_string_view<char,std::char_traits<char> > >,std::equal_to<std::basic_string_view<char,std::char_traits<char> > >,std::allocator<std::pair<std::basic_string_view<char,std::char_traits<char> > const ,std::function<int __cdecl(lua_State *,Instance *)> > > > >::`scalar deleting destructor'
PUBLIC	??1?$pair@$$CBV?$basic_string_view@DU?$char_traits@D@std@@@std@@V?$function@$$A6AHPEAUlua_State@@PEAVInstance@@@Z@2@@std@@QEAA@XZ ; std::pair<std::basic_string_view<char,std::char_traits<char> > const ,std::function<int __cdecl(lua_State *,Instance *)> >::~pair<std::basic_string_view<char,std::char_traits<char> > const ,std::function<int __cdecl(lua_State *,Instance *)> >
PUBLIC	??_G?$pair@$$CBV?$basic_string_view@DU?$char_traits@D@std@@@std@@V?$function@$$A6AHPEAUlua_State@@PEAVInstance@@@Z@2@@std@@QEAAPEAXI@Z ; std::pair<std::basic_string_view<char,std::char_traits<char> > const ,std::function<int __cdecl(lua_State *,Instance *)> >::`scalar deleting destructor'
PUBLIC	??$get@$0A@$$CBV?$basic_string_view@DU?$char_traits@D@std@@@std@@V?$unordered_map@V?$basic_string_view@DU?$char_traits@D@std@@@std@@V?$function@$$A6AHPEAUlua_State@@PEAVInstance@@@Z@2@U?$hash@V?$basic_string_view@DU?$char_traits@D@std@@@std@@@2@U?$equal_to@V?$basic_string_view@DU?$char_traits@D@std@@@std@@@2@V?$allocator@U?$pair@$$CBV?$basic_string_view@DU?$char_traits@D@std@@@std@@V?$function@$$A6AHPEAUlua_State@@PEAVInstance@@@Z@2@@std@@@2@@2@@std@@YAAEBV?$basic_string_view@DU?$char_traits@D@std@@@0@AEBU?$pair@$$CBV?$basic_string_view@DU?$char_traits@D@std@@@std@@V?$unordered_map@V?$basic_string_view@DU?$char_traits@D@std@@@std@@V?$function@$$A6AHPEAUlua_State@@PEAVInstance@@@Z@2@U?$hash@V?$basic_string_view@DU?$char_traits@D@std@@@std@@@2@U?$equal_to@V?$basic_string_view@DU?$char_traits@D@std@@@std@@@2@V?$allocator@U?$pair@$$CBV?$basic_string_view@DU?$char_traits@D@std@@@std@@V?$function@$$A6AHPEAUlua_State@@PEAVInstance@@@Z@2@@std@@@2@@2@@0@@Z ; std::get<0,std::basic_string_view<char,std::char_traits<char> > const ,std::unordered_map<std::basic_string_view<char,std::char_traits<char> >,std::function<int __cdecl(lua_State *,Instance *)>,std::hash<std::basic_string_view<char,std::char_traits<char> > >,std::equal_to<std::basic_string_view<char,std::char_traits<char> > >,std::allocator<std::pair<std::basic_string_view<char,std::char_traits<char> > const ,std::function<int __cdecl(lua_State *,Instance *)> > > > >
PUBLIC	??$get@$00$$CBV?$basic_string_view@DU?$char_traits@D@std@@@std@@V?$unordered_map@V?$basic_string_view@DU?$char_traits@D@std@@@std@@V?$function@$$A6AHPEAUlua_State@@PEAVInstance@@@Z@2@U?$hash@V?$basic_string_view@DU?$char_traits@D@std@@@std@@@2@U?$equal_to@V?$basic_string_view@DU?$char_traits@D@std@@@std@@@2@V?$allocator@U?$pair@$$CBV?$basic_string_view@DU?$char_traits@D@std@@@std@@V?$function@$$A6AHPEAUlua_State@@PEAVInstance@@@Z@2@@std@@@2@@2@@std@@YAAEBV?$unordered_map@V?$basic_string_view@DU?$char_traits@D@std@@@std@@V?$function@$$A6AHPEAUlua_State@@PEAVInstance@@@Z@2@U?$hash@V?$basic_string_view@DU?$char_traits@D@std@@@std@@@2@U?$equal_to@V?$basic_string_view@DU?$char_traits@D@std@@@std@@@2@V?$allocator@U?$pair@$$CBV?$basic_string_view@DU?$char_traits@D@std@@@std@@V?$function@$$A6AHPEAUlua_State@@PEAVInstance@@@Z@2@@std@@@2@@0@AEBU?$pair@$$CBV?$basic_string_view@DU?$char_traits@D@std@@@std@@V?$unordered_map@V?$basic_string_view@DU?$char_traits@D@std@@@std@@V?$function@$$A6AHPEAUlua_State@@PEAVInstance@@@Z@2@U?$hash@V?$basic_string_view@DU?$char_traits@D@std@@@std@@@2@U?$equal_to@V?$basic_string_view@DU?$char_traits@D@std@@@std@@@2@V?$allocator@U?$pair@$$CBV?$basic_string_view@DU?$char_traits@D@std@@@std@@V?$function@$$A6AHPEAUlua_State@@PEAVInstance@@@Z@2@@std@@@2@@2@@0@@Z ; std::get<1,std::basic_string_view<char,std::char_traits<char> > const ,std::unordered_map<std::basic_string_view<char,std::char_traits<char> >,std::function<int __cdecl(lua_State *,Instance *)>,std::hash<std::basic_string_view<char,std::char_traits<char> > >,std::equal_to<std::basic_string_view<char,std::char_traits<char> > >,std::allocator<std::pair<std::basic_string_view<char,std::char_traits<char> > const ,std::function<int __cdecl(lua_State *,Instance *)> > > > >
PUBLIC	??$?0V?$basic_string_view@DU?$char_traits@D@std@@@std@@$0A@@?$basic_string@DU?$char_traits@D@std@@V?$allocator@D@2@@std@@QEAA@AEBV?$basic_string_view@DU?$char_traits@D@std@@@1@AEBV?$allocator@D@1@@Z ; std::basic_string<char,std::char_traits<char>,std::allocator<char> >::basic_string<char,std::char_traits<char>,std::allocator<char> ><std::basic_string_view<char,std::char_traits<char> >,0>
PUBLIC	??0?$_List_unchecked_const_iterator@V?$_List_val@U?$_List_simple_types@U?$pair@$$CBV?$basic_string_view@DU?$char_traits@D@std@@@std@@V?$function@$$A6AHPEAUlua_State@@PEAVInstance@@@Z@2@@std@@@std@@@std@@U_Iterator_base0@2@@std@@QEAA@PEAU?$_List_node@U?$pair@$$CBV?$basic_string_view@DU?$char_traits@D@std@@@std@@V?$function@$$A6AHPEAUlua_State@@PEAVInstance@@@Z@2@@std@@PEAX@1@PEBV?$_List_val@U?$_List_simple_types@U?$pair@$$CBV?$basic_string_view@DU?$char_traits@D@std@@@std@@V?$function@$$A6AHPEAUlua_State@@PEAVInstance@@@Z@2@@std@@@std@@@1@@Z ; std::_List_unchecked_const_iterator<std::_List_val<std::_List_simple_types<std::pair<std::basic_string_view<char,std::char_traits<char> > const ,std::function<int __cdecl(lua_State *,Instance *)> > > >,std::_Iterator_base0>::_List_unchecked_const_iterator<std::_List_val<std::_List_simple_types<std::pair<std::basic_string_view<char,std::char_traits<char> > const ,std::function<int __cdecl(lua_State *,Instance *)> > > >,std::_Iterator_base0>
PUBLIC	??D?$_List_unchecked_const_iterator@V?$_List_val@U?$_List_simple_types@U?$pair@$$CBV?$basic_string_view@DU?$char_traits@D@std@@@std@@V?$function@$$A6AHPEAUlua_State@@PEAVInstance@@@Z@2@@std@@@std@@@std@@U_Iterator_base0@2@@std@@QEBAAEBU?$pair@$$CBV?$basic_string_view@DU?$char_traits@D@std@@@std@@V?$function@$$A6AHPEAUlua_State@@PEAVInstance@@@Z@2@@1@XZ ; std::_List_unchecked_const_iterator<std::_List_val<std::_List_simple_types<std::pair<std::basic_string_view<char,std::char_traits<char> > const ,std::function<int __cdecl(lua_State *,Instance *)> > > >,std::_Iterator_base0>::operator*
PUBLIC	??E?$_List_unchecked_const_iterator@V?$_List_val@U?$_List_simple_types@U?$pair@$$CBV?$basic_string_view@DU?$char_traits@D@std@@@std@@V?$function@$$A6AHPEAUlua_State@@PEAVInstance@@@Z@2@@std@@@std@@@std@@U_Iterator_base0@2@@std@@QEAAAEAV01@XZ ; std::_List_unchecked_const_iterator<std::_List_val<std::_List_simple_types<std::pair<std::basic_string_view<char,std::char_traits<char> > const ,std::function<int __cdecl(lua_State *,Instance *)> > > >,std::_Iterator_base0>::operator++
PUBLIC	??F?$_List_unchecked_const_iterator@V?$_List_val@U?$_List_simple_types@U?$pair@$$CBV?$basic_string_view@DU?$char_traits@D@std@@@std@@V?$function@$$A6AHPEAUlua_State@@PEAVInstance@@@Z@2@@std@@@std@@@std@@U_Iterator_base0@2@@std@@QEAAAEAV01@XZ ; std::_List_unchecked_const_iterator<std::_List_val<std::_List_simple_types<std::pair<std::basic_string_view<char,std::char_traits<char> > const ,std::function<int __cdecl(lua_State *,Instance *)> > > >,std::_Iterator_base0>::operator--
PUBLIC	??8?$_List_unchecked_const_iterator@V?$_List_val@U?$_List_simple_types@U?$pair@$$CBV?$basic_string_view@DU?$char_traits@D@std@@@std@@V?$function@$$A6AHPEAUlua_State@@PEAVInstance@@@Z@2@@std@@@std@@@std@@U_Iterator_base0@2@@std@@QEBA_NAEBV01@@Z ; std::_List_unchecked_const_iterator<std::_List_val<std::_List_simple_types<std::pair<std::basic_string_view<char,std::char_traits<char> > const ,std::function<int __cdecl(lua_State *,Instance *)> > > >,std::_Iterator_base0>::operator==
PUBLIC	??D?$_List_const_iterator@V?$_List_val@U?$_List_simple_types@U?$pair@$$CBV?$basic_string_view@DU?$char_traits@D@std@@@std@@V?$function@$$A6AHPEAUlua_State@@PEAVInstance@@@Z@2@@std@@@std@@@std@@@std@@QEBAAEBU?$pair@$$CBV?$basic_string_view@DU?$char_traits@D@std@@@std@@V?$function@$$A6AHPEAUlua_State@@PEAVInstance@@@Z@2@@1@XZ ; std::_List_const_iterator<std::_List_val<std::_List_simple_types<std::pair<std::basic_string_view<char,std::char_traits<char> > const ,std::function<int __cdecl(lua_State *,Instance *)> > > > >::operator*
PUBLIC	??8?$_List_const_iterator@V?$_List_val@U?$_List_simple_types@U?$pair@$$CBV?$basic_string_view@DU?$char_traits@D@std@@@std@@V?$function@$$A6AHPEAUlua_State@@PEAVInstance@@@Z@2@@std@@@std@@@std@@@std@@QEBA_NAEBV01@@Z ; std::_List_const_iterator<std::_List_val<std::_List_simple_types<std::pair<std::basic_string_view<char,std::char_traits<char> > const ,std::function<int __cdecl(lua_State *,Instance *)> > > > >::operator==
PUBLIC	??0?$_List_const_iterator@V?$_List_val@U?$_List_simple_types@U?$pair@$$CBV?$basic_string_view@DU?$char_traits@D@std@@@std@@V?$function@$$A6AHPEAUlua_State@@PEAVInstance@@@Z@2@@std@@@std@@@std@@@std@@QEAA@PEAU?$_List_node@U?$pair@$$CBV?$basic_string_view@DU?$char_traits@D@std@@@std@@V?$function@$$A6AHPEAUlua_State@@PEAVInstance@@@Z@2@@std@@PEAX@1@PEBV?$_List_val@U?$_List_simple_types@U?$pair@$$CBV?$basic_string_view@DU?$char_traits@D@std@@@std@@V?$function@$$A6AHPEAUlua_State@@PEAVInstance@@@Z@2@@std@@@std@@@1@@Z ; std::_List_const_iterator<std::_List_val<std::_List_simple_types<std::pair<std::basic_string_view<char,std::char_traits<char> > const ,std::function<int __cdecl(lua_State *,Instance *)> > > > >::_List_const_iterator<std::_List_val<std::_List_simple_types<std::pair<std::basic_string_view<char,std::char_traits<char> > const ,std::function<int __cdecl(lua_State *,Instance *)> > > > >
PUBLIC	??$get@$0A@$$CBV?$basic_string_view@DU?$char_traits@D@std@@@std@@V?$function@$$A6AHPEAUlua_State@@PEAVInstance@@@Z@2@@std@@YAAEBV?$basic_string_view@DU?$char_traits@D@std@@@0@AEBU?$pair@$$CBV?$basic_string_view@DU?$char_traits@D@std@@@std@@V?$function@$$A6AHPEAUlua_State@@PEAVInstance@@@Z@2@@0@@Z ; std::get<0,std::basic_string_view<char,std::char_traits<char> > const ,std::function<int __cdecl(lua_State *,Instance *)> >
PUBLIC	??$get@$00$$CBV?$basic_string_view@DU?$char_traits@D@std@@@std@@V?$function@$$A6AHPEAUlua_State@@PEAVInstance@@@Z@2@@std@@YAAEBV?$function@$$A6AHPEAUlua_State@@PEAVInstance@@@Z@0@AEBU?$pair@$$CBV?$basic_string_view@DU?$char_traits@D@std@@@std@@V?$function@$$A6AHPEAUlua_State@@PEAVInstance@@@Z@2@@0@@Z ; std::get<1,std::basic_string_view<char,std::char_traits<char> > const ,std::function<int __cdecl(lua_State *,Instance *)> >
PUBLIC	??$?HDU?$char_traits@D@std@@V?$allocator@D@1@@std@@YA?AV?$basic_string@DU?$char_traits@D@std@@V?$allocator@D@2@@0@QEBDAEBV10@@Z ; std::operator+<char,std::char_traits<char>,std::allocator<char> >
PUBLIC	??$?HDU?$char_traits@D@std@@V?$allocator@D@1@@std@@YA?AV?$basic_string@DU?$char_traits@D@std@@V?$allocator@D@2@@0@QEBD$$QEAV10@@Z ; std::operator+<char,std::char_traits<char>,std::allocator<char> >
PUBLIC	??$?8DU?$char_traits@D@std@@@std@@YA_NV?$basic_string_view@DU?$char_traits@D@std@@@0@0@Z ; std::operator==<char,std::char_traits<char> >
PUBLIC	??$move@AEAV?$basic_string@DU?$char_traits@D@std@@V?$allocator@D@2@@std@@@std@@YA$$QEAV?$basic_string@DU?$char_traits@D@std@@V?$allocator@D@2@@0@AEAV10@@Z ; std::move<std::basic_string<char,std::char_traits<char>,std::allocator<char> > &>
PUBLIC	??$_Insert_string@DU?$char_traits@D@std@@_K@std@@YAAEAV?$basic_ostream@DU?$char_traits@D@std@@@0@AEAV10@QEBD_K@Z ; std::_Insert_string<char,std::char_traits<char>,unsigned __int64>
PUBLIC	??$?0AEBV?$allocator@D@std@@$$V@?$_Compressed_pair@V?$allocator@D@std@@V?$_String_val@U?$_Simple_types@D@std@@@2@$00@std@@QEAA@U_One_then_variadic_args_t@1@AEBV?$allocator@D@1@@Z ; std::_Compressed_pair<std::allocator<char>,std::_String_val<std::_Simple_types<char> >,1>::_Compressed_pair<std::allocator<char>,std::_String_val<std::_Simple_types<char> >,1><std::allocator<char> const &>
PUBLIC	??$_Convert_size@_K_K@std@@YA_K_K@Z		; std::_Convert_size<unsigned __int64,unsigned __int64>
PUBLIC	??$_Construct@$00PEBD@?$basic_string@DU?$char_traits@D@std@@V?$allocator@D@2@@std@@AEAAXQEBD_K@Z ; std::basic_string<char,std::char_traits<char>,std::allocator<char> >::_Construct<1,char const *>
PUBLIC	??$max@_K@std@@YAAEB_KAEB_K0@Z			; std::max<unsigned __int64>
PUBLIC	??0?$_Func_base@HPEAUlua_State@@PEAVInstance@@@std@@QEAA@XZ ; std::_Func_base<int,lua_State *,Instance *>::_Func_base<int,lua_State *,Instance *>
PUBLIC	??$forward@PEAUlua_State@@@std@@YA$$QEAPEAUlua_State@@AEAPEAU1@@Z ; std::forward<lua_State *>
PUBLIC	??$forward@PEAVInstance@@@std@@YA$$QEAPEAVInstance@@AEAPEAV1@@Z ; std::forward<Instance *>
PUBLIC	??$?RV?$basic_string_view@DU?$char_traits@D@std@@@std@@@?$_Uhash_compare@V?$basic_string_view@DU?$char_traits@D@std@@@std@@U?$hash@V?$basic_string_view@DU?$char_traits@D@std@@@std@@@2@U?$equal_to@V?$basic_string_view@DU?$char_traits@D@std@@@std@@@2@@std@@QEBA_KAEBV?$basic_string_view@DU?$char_traits@D@std@@@1@@Z ; std::_Uhash_compare<std::basic_string_view<char,std::char_traits<char> >,std::hash<std::basic_string_view<char,std::char_traits<char> > >,std::equal_to<std::basic_string_view<char,std::char_traits<char> > > >::operator()<std::basic_string_view<char,std::char_traits<char> > >
PUBLIC	??$_Find@V?$basic_string_view@DU?$char_traits@D@std@@@std@@@?$_Hash@V?$_Umap_traits@V?$basic_string_view@DU?$char_traits@D@std@@@std@@V?$function@$$A6AHPEAUlua_State@@PEAVInstance@@@Z@2@V?$_Uhash_compare@V?$basic_string_view@DU?$char_traits@D@std@@@std@@U?$hash@V?$basic_string_view@DU?$char_traits@D@std@@@std@@@2@U?$equal_to@V?$basic_string_view@DU?$char_traits@D@std@@@std@@@2@@2@V?$allocator@U?$pair@$$CBV?$basic_string_view@DU?$char_traits@D@std@@@std@@V?$function@$$A6AHPEAUlua_State@@PEAVInstance@@@Z@2@@std@@@2@$0A@@std@@@std@@AEBAPEAU?$_List_node@U?$pair@$$CBV?$basic_string_view@DU?$char_traits@D@std@@@std@@V?$function@$$A6AHPEAUlua_State@@PEAVInstance@@@Z@2@@std@@PEAX@1@AEBV?$basic_string_view@DU?$char_traits@D@std@@@1@_K@Z ; std::_Hash<std::_Umap_traits<std::basic_string_view<char,std::char_traits<char> >,std::function<int __cdecl(lua_State *,Instance *)>,std::_Uhash_compare<std::basic_string_view<char,std::char_traits<char> >,std::hash<std::basic_string_view<char,std::char_traits<char> > >,std::equal_to<std::basic_string_view<char,std::char_traits<char> > > >,std::allocator<std::pair<std::basic_string_view<char,std::char_traits<char> > const ,std::function<int __cdecl(lua_State *,Instance *)> > >,0> >::_Find<std::basic_string_view<char,std::char_traits<char> > >
PUBLIC	??$move@AEAV?$basic_string_view@DU?$char_traits@D@std@@@std@@@std@@YA$$QEAV?$basic_string_view@DU?$char_traits@D@std@@@0@AEAV10@@Z ; std::move<std::basic_string_view<char,std::char_traits<char> > &>
PUBLIC	??$_Try_emplace@V?$basic_string_view@DU?$char_traits@D@std@@@std@@$$V@?$_Hash@V?$_Umap_traits@V?$basic_string_view@DU?$char_traits@D@std@@@std@@V?$unordered_map@V?$basic_string_view@DU?$char_traits@D@std@@@std@@V?$function@$$A6AHPEAUlua_State@@PEAVInstance@@@Z@2@U?$hash@V?$basic_string_view@DU?$char_traits@D@std@@@std@@@2@U?$equal_to@V?$basic_string_view@DU?$char_traits@D@std@@@std@@@2@V?$allocator@U?$pair@$$CBV?$basic_string_view@DU?$char_traits@D@std@@@std@@V?$function@$$A6AHPEAUlua_State@@PEAVInstance@@@Z@2@@std@@@2@@2@V?$_Uhash_compare@V?$basic_string_view@DU?$char_traits@D@std@@@std@@U?$hash@V?$basic_string_view@DU?$char_traits@D@std@@@std@@@2@U?$equal_to@V?$basic_string_view@DU?$char_traits@D@std@@@std@@@2@@2@V?$allocator@U?$pair@$$CBV?$basic_string_view@DU?$char_traits@D@std@@@std@@V?$unordered_map@V?$basic_string_view@DU?$char_traits@D@std@@@std@@V?$function@$$A6AHPEAUlua_State@@PEAVInstance@@@Z@2@U?$hash@V?$basic_string_view@DU?$char_traits@D@std@@@std@@@2@U?$equal_to@V?$basic_string_view@DU?$char_traits@D@std@@@std@@@2@V?$allocator@U?$pair@$$CBV?$basic_string_view@DU?$char_traits@D@std@@@std@@V?$function@$$A6AHPEAUlua_State@@PEAVInstance@@@Z@2@@std@@@2@@2@@std@@@2@$0A@@std@@@std@@IEAA?AU?$pair@PEAU?$_List_node@U?$pair@$$CBV?$basic_string_view@DU?$char_traits@D@std@@@std@@V?$unordered_map@V?$basic_string_view@DU?$char_traits@D@std@@@std@@V?$function@$$A6AHPEAUlua_State@@PEAVInstance@@@Z@2@U?$hash@V?$basic_string_view@DU?$char_traits@D@std@@@std@@@2@U?$equal_to@V?$basic_string_view@DU?$char_traits@D@std@@@std@@@2@V?$allocator@U?$pair@$$CBV?$basic_string_view@DU?$char_traits@D@std@@@std@@V?$function@$$A6AHPEAUlua_State@@PEAVInstance@@@Z@2@@std@@@2@@2@@std@@PEAX@std@@_N@1@$$QEAV?$basic_string_view@DU?$char_traits@D@std@@@1@@Z ; std::_Hash<std::_Umap_traits<std::basic_string_view<char,std::char_traits<char> >,std::unordered_map<std::basic_string_view<char,std::char_traits<char> >,std::function<int __cdecl(lua_State *,Instance *)>,std::hash<std::basic_string_view<char,std::char_traits<char> > >,std::equal_to<std::basic_string_view<char,std::char_traits<char> > >,std::allocator<std::pair<std::basic_string_view<char,std::char_traits<char> > const ,std::function<int __cdecl(lua_State *,Instance *)> > > >,std::_Uhash_compare<std::basic_string_view<char,std::char_traits<char> >,std::hash<std::basic_string_view<char,std::char_traits<char> > >,std::equal_to<std::basic_string_view<char,std::char_traits<char> > > >,std::allocator<std::pair<std::basic_string_view<char,std::char_traits<char> > const ,std::unordered_map<std::basic_string_view<char,std::char_traits<char> >,std::function<int __cdecl(lua_State *,Instance *)>,std::hash<std::basic_string_view<char,std::char_traits<char> > >,std::equal_to<std::basic_string_view<char,std::char_traits<char> > >,std::allocator<std::pair<std::basic_string_view<char,std::char_traits<char> > const ,std::function<int __cdecl(lua_State *,Instance *)> > > > > >,0> >::_Try_emplace<std::basic_string_view<char,std::char_traits<char> > >
PUBLIC	??$_Try_emplace@V?$basic_string_view@DU?$char_traits@D@std@@@std@@$$V@?$_Hash@V?$_Umap_traits@V?$basic_string_view@DU?$char_traits@D@std@@@std@@V?$function@$$A6AHPEAUlua_State@@PEAVInstance@@@Z@2@V?$_Uhash_compare@V?$basic_string_view@DU?$char_traits@D@std@@@std@@U?$hash@V?$basic_string_view@DU?$char_traits@D@std@@@std@@@2@U?$equal_to@V?$basic_string_view@DU?$char_traits@D@std@@@std@@@2@@2@V?$allocator@U?$pair@$$CBV?$basic_string_view@DU?$char_traits@D@std@@@std@@V?$function@$$A6AHPEAUlua_State@@PEAVInstance@@@Z@2@@std@@@2@$0A@@std@@@std@@IEAA?AU?$pair@PEAU?$_List_node@U?$pair@$$CBV?$basic_string_view@DU?$char_traits@D@std@@@std@@V?$function@$$A6AHPEAUlua_State@@PEAVInstance@@@Z@2@@std@@PEAX@std@@_N@1@$$QEAV?$basic_string_view@DU?$char_traits@D@std@@@1@@Z ; std::_Hash<std::_Umap_traits<std::basic_string_view<char,std::char_traits<char> >,std::function<int __cdecl(lua_State *,Instance *)>,std::_Uhash_compare<std::basic_string_view<char,std::char_traits<char> >,std::hash<std::basic_string_view<char,std::char_traits<char> > >,std::equal_to<std::basic_string_view<char,std::char_traits<char> > > >,std::allocator<std::pair<std::basic_string_view<char,std::char_traits<char> > const ,std::function<int __cdecl(lua_State *,Instance *)> > >,0> >::_Try_emplace<std::basic_string_view<char,std::char_traits<char> > >
PUBLIC	??$_Unfancy_maybe_null@PEAVInstance@@@std@@YAPEAPEAVInstance@@PEAPEAV1@@Z ; std::_Unfancy_maybe_null<Instance *>
PUBLIC	??$_Hash_array_representation@D@std@@YA_KQEBD_K@Z ; std::_Hash_array_representation<char>
PUBLIC	??$_Unfancy@D@std@@YAPEADPEAD@Z			; std::_Unfancy<char>
PUBLIC	??$_Append@D@?$basic_string@DU?$char_traits@D@std@@V?$allocator@D@2@@std@@AEAAAEAV01@QEBD_K@Z ; std::basic_string<char,std::char_traits<char>,std::allocator<char> >::_Append<char>
PUBLIC	??$move@AEAV?$allocator@D@std@@@std@@YA$$QEAV?$allocator@D@0@AEAV10@@Z ; std::move<std::allocator<char> &>
PUBLIC	??$?0V?$allocator@D@std@@$$V@?$_Compressed_pair@V?$allocator@D@std@@V?$_String_val@U?$_Simple_types@D@std@@@2@$00@std@@QEAA@U_One_then_variadic_args_t@1@$$QEAV?$allocator@D@1@@Z ; std::_Compressed_pair<std::allocator<char>,std::_String_val<std::_Simple_types<char> >,1>::_Compressed_pair<std::allocator<char>,std::_String_val<std::_Simple_types<char> >,1><std::allocator<char> >
PUBLIC	??$_Get_proxy_allocator@V?$allocator@D@std@@@std@@YA?AU_Fake_allocator@0@AEBV?$allocator@D@0@@Z ; std::_Get_proxy_allocator<std::allocator<char> >
PUBLIC	??$?0$$V@?$_Compressed_pair@V?$allocator@D@std@@V?$_String_val@U?$_Simple_types@D@std@@@2@$00@std@@QEAA@U_Zero_then_variadic_args_t@1@@Z ; std::_Compressed_pair<std::allocator<char>,std::_String_val<std::_Simple_types<char> >,1>::_Compressed_pair<std::allocator<char>,std::_String_val<std::_Simple_types<char> >,1><>
PUBLIC	??$_Construct@$0A@D@?$basic_string@DU?$char_traits@D@std@@V?$allocator@D@2@@std@@AEAAXD_K@Z ; std::basic_string<char,std::char_traits<char>,std::allocator<char> >::_Construct<0,char>
PUBLIC	??$_Allocate_for_capacity@$0A@@?$basic_string@DU?$char_traits@D@std@@V?$allocator@D@2@@std@@CAPEADAEAV?$allocator@D@1@AEA_K@Z ; std::basic_string<char,std::char_traits<char>,std::allocator<char> >::_Allocate_for_capacity<0>
PUBLIC	??$_Allocate_at_least_helper@V?$allocator@D@std@@@std@@YAPEADAEAV?$allocator@D@0@AEA_K@Z ; std::_Allocate_at_least_helper<std::allocator<char> >
PUBLIC	??$construct_at@D$$V@std@@YAPEADQEAD@Z		; std::construct_at<char>
PUBLIC	??$_Construct_in_place@PEADAEBQEAD@std@@YAXAEAPEADAEBQEAD@Z ; std::_Construct_in_place<char *,char * const &>
PUBLIC	??$forward@AEBV?$allocator@D@std@@@std@@YAAEBV?$allocator@D@0@AEBV10@@Z ; std::forward<std::allocator<char> const &>
PUBLIC	??$_Traits_copy_batch@U?$char_traits@D@std@@D@std@@YAXQEADQEBD_K@Z ; std::_Traits_copy_batch<std::char_traits<char>,char>
PUBLIC	??$_Find_last@V?$basic_string_view@DU?$char_traits@D@std@@@std@@@?$_Hash@V?$_Umap_traits@V?$basic_string_view@DU?$char_traits@D@std@@@std@@V?$function@$$A6AHPEAUlua_State@@PEAVInstance@@@Z@2@V?$_Uhash_compare@V?$basic_string_view@DU?$char_traits@D@std@@@std@@U?$hash@V?$basic_string_view@DU?$char_traits@D@std@@@std@@@2@U?$equal_to@V?$basic_string_view@DU?$char_traits@D@std@@@std@@@2@@2@V?$allocator@U?$pair@$$CBV?$basic_string_view@DU?$char_traits@D@std@@@std@@V?$function@$$A6AHPEAUlua_State@@PEAVInstance@@@Z@2@@std@@@2@$0A@@std@@@std@@IEBA?AU?$_Hash_find_last_result@PEAU?$_List_node@U?$pair@$$CBV?$basic_string_view@DU?$char_traits@D@std@@@std@@V?$function@$$A6AHPEAUlua_State@@PEAVInstance@@@Z@2@@std@@PEAX@std@@@1@AEBV?$basic_string_view@DU?$char_traits@D@std@@@1@_K@Z ; std::_Hash<std::_Umap_traits<std::basic_string_view<char,std::char_traits<char> >,std::function<int __cdecl(lua_State *,Instance *)>,std::_Uhash_compare<std::basic_string_view<char,std::char_traits<char> >,std::hash<std::basic_string_view<char,std::char_traits<char> > >,std::equal_to<std::basic_string_view<char,std::char_traits<char> > > >,std::allocator<std::pair<std::basic_string_view<char,std::char_traits<char> > const ,std::function<int __cdecl(lua_State *,Instance *)> > >,0> >::_Find_last<std::basic_string_view<char,std::char_traits<char> > >
PUBLIC	??$_Find_last@V?$basic_string_view@DU?$char_traits@D@std@@@std@@@?$_Hash@V?$_Umap_traits@V?$basic_string_view@DU?$char_traits@D@std@@@std@@V?$unordered_map@V?$basic_string_view@DU?$char_traits@D@std@@@std@@V?$function@$$A6AHPEAUlua_State@@PEAVInstance@@@Z@2@U?$hash@V?$basic_string_view@DU?$char_traits@D@std@@@std@@@2@U?$equal_to@V?$basic_string_view@DU?$char_traits@D@std@@@std@@@2@V?$allocator@U?$pair@$$CBV?$basic_string_view@DU?$char_traits@D@std@@@std@@V?$function@$$A6AHPEAUlua_State@@PEAVInstance@@@Z@2@@std@@@2@@2@V?$_Uhash_compare@V?$basic_string_view@DU?$char_traits@D@std@@@std@@U?$hash@V?$basic_string_view@DU?$char_traits@D@std@@@std@@@2@U?$equal_to@V?$basic_string_view@DU?$char_traits@D@std@@@std@@@2@@2@V?$allocator@U?$pair@$$CBV?$basic_string_view@DU?$char_traits@D@std@@@std@@V?$unordered_map@V?$basic_string_view@DU?$char_traits@D@std@@@std@@V?$function@$$A6AHPEAUlua_State@@PEAVInstance@@@Z@2@U?$hash@V?$basic_string_view@DU?$char_traits@D@std@@@std@@@2@U?$equal_to@V?$basic_string_view@DU?$char_traits@D@std@@@std@@@2@V?$allocator@U?$pair@$$CBV?$basic_string_view@DU?$char_traits@D@std@@@std@@V?$function@$$A6AHPEAUlua_State@@PEAVInstance@@@Z@2@@std@@@2@@2@@std@@@2@$0A@@std@@@std@@IEBA?AU?$_Hash_find_last_result@PEAU?$_List_node@U?$pair@$$CBV?$basic_string_view@DU?$char_traits@D@std@@@std@@V?$unordered_map@V?$basic_string_view@DU?$char_traits@D@std@@@std@@V?$function@$$A6AHPEAUlua_State@@PEAVInstance@@@Z@2@U?$hash@V?$basic_string_view@DU?$char_traits@D@std@@@std@@@2@U?$equal_to@V?$basic_string_view@DU?$char_traits@D@std@@@std@@@2@V?$allocator@U?$pair@$$CBV?$basic_string_view@DU?$char_traits@D@std@@@std@@V?$function@$$A6AHPEAUlua_State@@PEAVInstance@@@Z@2@@std@@@2@@2@@std@@PEAX@std@@@1@AEBV?$basic_string_view@DU?$char_traits@D@std@@@1@_K@Z ; std::_Hash<std::_Umap_traits<std::basic_string_view<char,std::char_traits<char> >,std::unordered_map<std::basic_string_view<char,std::char_traits<char> >,std::function<int __cdecl(lua_State *,Instance *)>,std::hash<std::basic_string_view<char,std::char_traits<char> > >,std::equal_to<std::basic_string_view<char,std::char_traits<char> > >,std::allocator<std::pair<std::basic_string_view<char,std::char_traits<char> > const ,std::function<int __cdecl(lua_State *,Instance *)> > > >,std::_Uhash_compare<std::basic_string_view<char,std::char_traits<char> >,std::hash<std::basic_string_view<char,std::char_traits<char> > >,std::equal_to<std::basic_string_view<char,std::char_traits<char> > > >,std::allocator<std::pair<std::basic_string_view<char,std::char_traits<char> > const ,std::unordered_map<std::basic_string_view<char,std::char_traits<char> >,std::function<int __cdecl(lua_State *,Instance *)>,std::hash<std::basic_string_view<char,std::char_traits<char> > >,std::equal_to<std::basic_string_view<char,std::char_traits<char> > >,std::allocator<std::pair<std::basic_string_view<char,std::char_traits<char> > const ,std::function<int __cdecl(lua_State *,Instance *)> > > > > >,0> >::_Find_last<std::basic_string_view<char,std::char_traits<char> > >
PUBLIC	??0?$_Alloc_construct_ptr@V?$allocator@U?$_List_node@U?$pair@$$CBV?$basic_string_view@DU?$char_traits@D@std@@@std@@V?$unordered_map@V?$basic_string_view@DU?$char_traits@D@std@@@std@@V?$function@$$A6AHPEAUlua_State@@PEAVInstance@@@Z@2@U?$hash@V?$basic_string_view@DU?$char_traits@D@std@@@std@@@2@U?$equal_to@V?$basic_string_view@DU?$char_traits@D@std@@@std@@@2@V?$allocator@U?$pair@$$CBV?$basic_string_view@DU?$char_traits@D@std@@@std@@V?$function@$$A6AHPEAUlua_State@@PEAVInstance@@@Z@2@@std@@@2@@2@@std@@PEAX@std@@@std@@@std@@QEAA@AEAV?$allocator@U?$_List_node@U?$pair@$$CBV?$basic_string_view@DU?$char_traits@D@std@@@std@@V?$unordered_map@V?$basic_string_view@DU?$char_traits@D@std@@@std@@V?$function@$$A6AHPEAUlua_State@@PEAVInstance@@@Z@2@U?$hash@V?$basic_string_view@DU?$char_traits@D@std@@@std@@@2@U?$equal_to@V?$basic_string_view@DU?$char_traits@D@std@@@std@@@2@V?$allocator@U?$pair@$$CBV?$basic_string_view@DU?$char_traits@D@std@@@std@@V?$function@$$A6AHPEAUlua_State@@PEAVInstance@@@Z@2@@std@@@2@@2@@std@@PEAX@std@@@1@@Z ; std::_Alloc_construct_ptr<std::allocator<std::_List_node<std::pair<std::basic_string_view<char,std::char_traits<char> > const ,std::unordered_map<std::basic_string_view<char,std::char_traits<char> >,std::function<int __cdecl(lua_State *,Instance *)>,std::hash<std::basic_string_view<char,std::char_traits<char> > >,std::equal_to<std::basic_string_view<char,std::char_traits<char> > >,std::allocator<std::pair<std::basic_string_view<char,std::char_traits<char> > const ,std::function<int __cdecl(lua_State *,Instance *)> > > > >,void *> > >::_Alloc_construct_ptr<std::allocator<std::_List_node<std::pair<std::basic_string_view<char,std::char_traits<char> > const ,std::unordered_map<std::basic_string_view<char,std::char_traits<char> >,std::function<int __cdecl(lua_State *,Instance *)>,std::hash<std::basic_string_view<char,std::char_traits<char> > >,std::equal_to<std::basic_string_view<char,std::char_traits<char> > >,std::allocator<std::pair<std::basic_string_view<char,std::char_traits<char> > const ,std::function<int __cdecl(lua_State *,Instance *)> > > > >,void *> > >
PUBLIC	?_Release@?$_Alloc_construct_ptr@V?$allocator@U?$_List_node@U?$pair@$$CBV?$basic_string_view@DU?$char_traits@D@std@@@std@@V?$unordered_map@V?$basic_string_view@DU?$char_traits@D@std@@@std@@V?$function@$$A6AHPEAUlua_State@@PEAVInstance@@@Z@2@U?$hash@V?$basic_string_view@DU?$char_traits@D@std@@@std@@@2@U?$equal_to@V?$basic_string_view@DU?$char_traits@D@std@@@std@@@2@V?$allocator@U?$pair@$$CBV?$basic_string_view@DU?$char_traits@D@std@@@std@@V?$function@$$A6AHPEAUlua_State@@PEAVInstance@@@Z@2@@std@@@2@@2@@std@@PEAX@std@@@std@@@std@@QEAAPEAU?$_List_node@U?$pair@$$CBV?$basic_string_view@DU?$char_traits@D@std@@@std@@V?$unordered_map@V?$basic_string_view@DU?$char_traits@D@std@@@std@@V?$function@$$A6AHPEAUlua_State@@PEAVInstance@@@Z@2@U?$hash@V?$basic_string_view@DU?$char_traits@D@std@@@std@@@2@U?$equal_to@V?$basic_string_view@DU?$char_traits@D@std@@@std@@@2@V?$allocator@U?$pair@$$CBV?$basic_string_view@DU?$char_traits@D@std@@@std@@V?$function@$$A6AHPEAUlua_State@@PEAVInstance@@@Z@2@@std@@@2@@2@@std@@PEAX@2@XZ ; std::_Alloc_construct_ptr<std::allocator<std::_List_node<std::pair<std::basic_string_view<char,std::char_traits<char> > const ,std::unordered_map<std::basic_string_view<char,std::char_traits<char> >,std::function<int __cdecl(lua_State *,Instance *)>,std::hash<std::basic_string_view<char,std::char_traits<char> > >,std::equal_to<std::basic_string_view<char,std::char_traits<char> > >,std::allocator<std::pair<std::basic_string_view<char,std::char_traits<char> > const ,std::function<int __cdecl(lua_State *,Instance *)> > > > >,void *> > >::_Release
PUBLIC	?_Allocate@?$_Alloc_construct_ptr@V?$allocator@U?$_List_node@U?$pair@$$CBV?$basic_string_view@DU?$char_traits@D@std@@@std@@V?$unordered_map@V?$basic_string_view@DU?$char_traits@D@std@@@std@@V?$function@$$A6AHPEAUlua_State@@PEAVInstance@@@Z@2@U?$hash@V?$basic_string_view@DU?$char_traits@D@std@@@std@@@2@U?$equal_to@V?$basic_string_view@DU?$char_traits@D@std@@@std@@@2@V?$allocator@U?$pair@$$CBV?$basic_string_view@DU?$char_traits@D@std@@@std@@V?$function@$$A6AHPEAUlua_State@@PEAVInstance@@@Z@2@@std@@@2@@2@@std@@PEAX@std@@@std@@@std@@QEAAXXZ ; std::_Alloc_construct_ptr<std::allocator<std::_List_node<std::pair<std::basic_string_view<char,std::char_traits<char> > const ,std::unordered_map<std::basic_string_view<char,std::char_traits<char> >,std::function<int __cdecl(lua_State *,Instance *)>,std::hash<std::basic_string_view<char,std::char_traits<char> > >,std::equal_to<std::basic_string_view<char,std::char_traits<char> > >,std::allocator<std::pair<std::basic_string_view<char,std::char_traits<char> > const ,std::function<int __cdecl(lua_State *,Instance *)> > > > >,void *> > >::_Allocate
PUBLIC	??1?$_Alloc_construct_ptr@V?$allocator@U?$_List_node@U?$pair@$$CBV?$basic_string_view@DU?$char_traits@D@std@@@std@@V?$unordered_map@V?$basic_string_view@DU?$char_traits@D@std@@@std@@V?$function@$$A6AHPEAUlua_State@@PEAVInstance@@@Z@2@U?$hash@V?$basic_string_view@DU?$char_traits@D@std@@@std@@@2@U?$equal_to@V?$basic_string_view@DU?$char_traits@D@std@@@std@@@2@V?$allocator@U?$pair@$$CBV?$basic_string_view@DU?$char_traits@D@std@@@std@@V?$function@$$A6AHPEAUlua_State@@PEAVInstance@@@Z@2@@std@@@2@@2@@std@@PEAX@std@@@std@@@std@@QEAA@XZ ; std::_Alloc_construct_ptr<std::allocator<std::_List_node<std::pair<std::basic_string_view<char,std::char_traits<char> > const ,std::unordered_map<std::basic_string_view<char,std::char_traits<char> >,std::function<int __cdecl(lua_State *,Instance *)>,std::hash<std::basic_string_view<char,std::char_traits<char> > >,std::equal_to<std::basic_string_view<char,std::char_traits<char> > >,std::allocator<std::pair<std::basic_string_view<char,std::char_traits<char> > const ,std::function<int __cdecl(lua_State *,Instance *)> > > > >,void *> > >::~_Alloc_construct_ptr<std::allocator<std::_List_node<std::pair<std::basic_string_view<char,std::char_traits<char> > const ,std::unordered_map<std::basic_string_view<char,std::char_traits<char> >,std::function<int __cdecl(lua_State *,Instance *)>,std::hash<std::basic_string_view<char,std::char_traits<char> > >,std::equal_to<std::basic_string_view<char,std::char_traits<char> > >,std::allocator<std::pair<std::basic_string_view<char,std::char_traits<char> > const ,std::function<int __cdecl(lua_State *,Instance *)> > > > >,void *> > >
