; Listing generated by Microsoft (R) Optimizing Compiler Version 19.50.35727.0 

include listing.inc

INCLUDELIB MSVCRT
INCLUDELIB OLDNAMES

PUBLIC	_Avx2WmemEnabledWeakValue
PUBLIC	?g_PXSinCoefficients0@aos@physx@@3UPX_VECTORF32@12@B ; physx::aos::g_PXSinCoefficients0
PUBLIC	?g_PXSinCoefficients1@aos@physx@@3UPX_VECTORF32@12@B ; physx::aos::g_PXSinCoefficients1
PUBLIC	?g_PXSinCoefficients2@aos@physx@@3UPX_VECTORF32@12@B ; physx::aos::g_PXSinCoefficients2
PUBLIC	?g_PXCosCoefficients0@aos@physx@@3UPX_VECTORF32@12@B ; physx::aos::g_PXCosCoefficients0
PUBLIC	?g_PXCosCoefficients1@aos@physx@@3UPX_VECTORF32@12@B ; physx::aos::g_PXCosCoefficients1
PUBLIC	?g_PXCosCoefficients2@aos@physx@@3UPX_VECTORF32@12@B ; physx::aos::g_PXCosCoefficients2
PUBLIC	?g_PXReciprocalTwoPi@aos@physx@@3UPX_VECTORF32@12@B ; physx::aos::g_PXReciprocalTwoPi
PUBLIC	?g_PXTwoPi@aos@physx@@3UPX_VECTORF32@12@B	; physx::aos::g_PXTwoPi
;	COMDAT _Avx2WmemEnabledWeakValue
_BSS	SEGMENT
_Avx2WmemEnabledWeakValue DD 01H DUP (?)
_BSS	ENDS
;	COMDAT ?g_PXTwoPi@aos@physx@@3UPX_VECTORF32@12@B
CONST	SEGMENT
?g_PXTwoPi@aos@physx@@3UPX_VECTORF32@12@B DD 040c90fdbr ; 6.28319 ; physx::aos::g_PXTwoPi
	DD	040c90fdbr			; 6.28319
	DD	040c90fdbr			; 6.28319
	DD	040c90fdbr			; 6.28319
CONST	ENDS
;	COMDAT ?g_PXReciprocalTwoPi@aos@physx@@3UPX_VECTORF32@12@B
CONST	SEGMENT
?g_PXReciprocalTwoPi@aos@physx@@3UPX_VECTORF32@12@B DD 03e22f983r ; 0.159155 ; physx::aos::g_PXReciprocalTwoPi
	DD	03e22f983r			; 0.159155
	DD	03e22f983r			; 0.159155
	DD	03e22f983r			; 0.159155
CONST	ENDS
;	COMDAT ?g_PXCosCoefficients2@aos@physx@@3UPX_VECTORF32@12@B
CONST	SEGMENT
?g_PXCosCoefficients2@aos@physx@@3UPX_VECTORF32@12@B DD 029573f9fr ; 4.77948e-14 ; physx::aos::g_PXCosCoefficients2
	DD	0a53413c3r			; -1.56192e-16
	DD	020f2a15dr			; 4.11032e-19
	DD	09c8671cbr			; -8.89679e-22
CONST	ENDS
;	COMDAT ?g_PXCosCoefficients1@aos@physx@@3UPX_VECTORF32@12@B
CONST	SEGMENT
?g_PXCosCoefficients1@aos@physx@@3UPX_VECTORF32@12@B DD 037d00d01r ; 2.48016e-05 ; physx::aos::g_PXCosCoefficients1
	DD	0b493f27er			; -2.75573e-07
	DD	0310f76c8r			; 2.08768e-09
	DD	0ad49cba5r			; -1.14707e-11
CONST	ENDS
;	COMDAT ?g_PXCosCoefficients0@aos@physx@@3UPX_VECTORF32@12@B
CONST	SEGMENT
?g_PXCosCoefficients0@aos@physx@@3UPX_VECTORF32@12@B DD 03f800000r ; 1 ; physx::aos::g_PXCosCoefficients0
	DD	0bf000000r			; -0.5
	DD	03d2aaaabr			; 0.0416667
	DD	0bab60b61r			; -0.00138889
CONST	ENDS
;	COMDAT ?g_PXSinCoefficients2@aos@physx@@3UPX_VECTORF32@12@B
CONST	SEGMENT
?g_PXSinCoefficients2@aos@physx@@3UPX_VECTORF32@12@B DD 0274a963cr ; 2.81146e-15 ; physx::aos::g_PXSinCoefficients2
	DD	0a317a4dar			; -8.22064e-18
	DD	01eb8dc78r			; 1.95729e-20
	DD	09a3b0da1r			; -3.86817e-23
CONST	ENDS
;	COMDAT ?g_PXSinCoefficients1@aos@physx@@3UPX_VECTORF32@12@B
CONST	SEGMENT
?g_PXSinCoefficients1@aos@physx@@3UPX_VECTORF32@12@B DD 03638ef1dr ; 2.75573e-06 ; physx::aos::g_PXSinCoefficients1
	DD	0b2d7322br			; -2.50521e-08
	DD	02f309231r			; 1.6059e-10
	DD	0ab573f9fr			; -7.64716e-13
CONST	ENDS
;	COMDAT ?g_PXSinCoefficients0@aos@physx@@3UPX_VECTORF32@12@B
CONST	SEGMENT
?g_PXSinCoefficients0@aos@physx@@3UPX_VECTORF32@12@B DD 03f800000r ; 1 ; physx::aos::g_PXSinCoefficients0
	DD	0be2aaaabr			; -0.166667
	DD	03c088889r			; 0.00833333
	DD	0b9500d01r			; -0.000198413
CONST	ENDS
CONST	SEGMENT
?gMaskXYZ@internalSimd@aos@physx@@3QBIB DD 0ffffffffH	; physx::aos::internalSimd::gMaskXYZ
	DD	0ffffffffH
	DD	0ffffffffH
	DD	00H
?minus1w@?A0x21b152a0@aos@physx@@3QBMB DD 000000000r ; 0 ; physx::aos::`anonymous namespace'::minus1w
	DD	000000000r			; 0
	DD	000000000r			; 0
	DD	0bf800000r			; -1
CONST	ENDS
PUBLIC	??_H@YAXPEAX_K1P6APEAX0@Z@Z			; `vector constructor iterator'
PUBLIC	?__empty_global_delete@@YAXPEAX@Z		; __empty_global_delete
PUBLIC	?__empty_global_delete@@YAXPEAX_K@Z		; __empty_global_delete
PUBLIC	?__empty_global_delete@@YAXPEAXW4align_val_t@std@@@Z ; __empty_global_delete
PUBLIC	?__empty_global_delete@@YAXPEAX_KW4align_val_t@std@@@Z ; __empty_global_delete
PUBLIC	??2@YAPEAX_KPEAX@Z				; operator new
PUBLIC	?is_constant_evaluated@std@@YA_NXZ		; std::is_constant_evaluated
PUBLIC	wmemcpy
PUBLIC	?copy@?$_Char_traits@DH@std@@SAPEADQEADQEBD_K@Z	; std::_Char_traits<char,int>::copy
PUBLIC	?move@?$_Char_traits@DH@std@@SAPEADQEADQEBD_K@Z	; std::_Char_traits<char,int>::move
PUBLIC	?length@?$_Narrow_char_traits@DH@std@@SA_KQEBD@Z ; std::_Narrow_char_traits<char,int>::length
PUBLIC	?assign@?$_Narrow_char_traits@DH@std@@SAXAEADAEBD@Z ; std::_Narrow_char_traits<char,int>::assign
PUBLIC	?eq_int_type@?$_Narrow_char_traits@DH@std@@SA_NHH@Z ; std::_Narrow_char_traits<char,int>::eq_int_type
PUBLIC	?eof@?$_Narrow_char_traits@DH@std@@SAHXZ	; std::_Narrow_char_traits<char,int>::eof
PUBLIC	??$min@_K@std@@YAAEB_KAEB_K0@Z			; std::min<unsigned __int64>
PUBLIC	??0exception@std@@QEAA@QEBDH@Z			; std::exception::exception
PUBLIC	??0exception@std@@QEAA@AEBV01@@Z		; std::exception::exception
PUBLIC	??1exception@std@@UEAA@XZ			; std::exception::~exception
PUBLIC	?what@exception@std@@UEBAPEBDXZ			; std::exception::what
PUBLIC	??_Gexception@std@@UEAAPEAXI@Z			; std::exception::`scalar deleting destructor'
PUBLIC	??0bad_alloc@std@@AEAA@QEBD@Z			; std::bad_alloc::bad_alloc
PUBLIC	??1bad_alloc@std@@UEAA@XZ			; std::bad_alloc::~bad_alloc
PUBLIC	??0bad_alloc@std@@QEAA@AEBV01@@Z		; std::bad_alloc::bad_alloc
PUBLIC	??_Gbad_alloc@std@@UEAAPEAXI@Z			; std::bad_alloc::`scalar deleting destructor'
PUBLIC	??0bad_array_new_length@std@@QEAA@XZ		; std::bad_array_new_length::bad_array_new_length
PUBLIC	??1bad_array_new_length@std@@UEAA@XZ		; std::bad_array_new_length::~bad_array_new_length
PUBLIC	??0bad_array_new_length@std@@QEAA@AEBV01@@Z	; std::bad_array_new_length::bad_array_new_length
PUBLIC	??_Gbad_array_new_length@std@@UEAAPEAXI@Z	; std::bad_array_new_length::`scalar deleting destructor'
PUBLIC	?_Throw_bad_array_new_length@std@@YAXXZ		; std::_Throw_bad_array_new_length
PUBLIC	?_Allocate@_Default_allocate_traits@std@@SAPEAX_K@Z ; std::_Default_allocate_traits::_Allocate
PUBLIC	?_Adjust_manually_vector_aligned@std@@YAXAEAPEAXAEA_K@Z ; std::_Adjust_manually_vector_aligned
PUBLIC	?_Orphan_all@_Container_base0@std@@QEAAXXZ	; std::_Container_base0::_Orphan_all
PUBLIC	?_Alloc_proxy@_Container_base0@std@@QEAAXAEBU_Fake_allocator@2@@Z ; std::_Container_base0::_Alloc_proxy
PUBLIC	??0_Fake_proxy_ptr_impl@std@@QEAA@AEBU_Fake_allocator@1@AEBU_Container_base0@1@@Z ; std::_Fake_proxy_ptr_impl::_Fake_proxy_ptr_impl
PUBLIC	?_Release@_Fake_proxy_ptr_impl@std@@QEAAXXZ	; std::_Fake_proxy_ptr_impl::_Release
PUBLIC	?_Xlen_string@std@@YAXXZ			; std::_Xlen_string
PUBLIC	??0?$allocator@D@std@@QEAA@XZ			; std::allocator<char>::allocator<char>
PUBLIC	?deallocate@?$allocator@D@std@@QEAAXQEAD_K@Z	; std::allocator<char>::deallocate
PUBLIC	?allocate@?$allocator@D@std@@QEAAPEAD_K@Z	; std::allocator<char>::allocate
PUBLIC	?max_size@?$_Default_allocator_traits@V?$allocator@D@std@@@std@@SA_KAEBV?$allocator@D@2@@Z ; std::_Default_allocator_traits<std::allocator<char> >::max_size
PUBLIC	??0?$_String_val@U?$_Simple_types@D@std@@@std@@QEAA@XZ ; std::_String_val<std::_Simple_types<char> >::_String_val<std::_Simple_types<char> >
PUBLIC	?_Myptr@?$_String_val@U?$_Simple_types@D@std@@@std@@QEAAPEADXZ ; std::_String_val<std::_Simple_types<char> >::_Myptr
PUBLIC	?_Large_mode_engaged@?$_String_val@U?$_Simple_types@D@std@@@std@@QEBA_NXZ ; std::_String_val<std::_Simple_types<char> >::_Large_mode_engaged
PUBLIC	??0_Bxty@?$_String_val@U?$_Simple_types@D@std@@@std@@QEAA@XZ ; std::_String_val<std::_Simple_types<char> >::_Bxty::_Bxty
PUBLIC	??1_Bxty@?$_String_val@U?$_Simple_types@D@std@@@std@@QEAA@XZ ; std::_String_val<std::_Simple_types<char> >::_Bxty::~_Bxty
PUBLIC	?_Switch_to_buf@_Bxty@?$_String_val@U?$_Simple_types@D@std@@@std@@QEAAXXZ ; std::_String_val<std::_Simple_types<char> >::_Bxty::_Switch_to_buf
PUBLIC	??1?$_String_val@U?$_Simple_types@D@std@@@std@@QEAA@XZ ; std::_String_val<std::_Simple_types<char> >::~_String_val<std::_Simple_types<char> >
PUBLIC	??0?$basic_string@DU?$char_traits@D@std@@V?$allocator@D@2@@std@@QEAA@QEBD@Z ; std::basic_string<char,std::char_traits<char>,std::allocator<char> >::basic_string<char,std::char_traits<char>,std::allocator<char> >
PUBLIC	?_Deallocate_for_capacity@?$basic_string@DU?$char_traits@D@std@@V?$allocator@D@2@@std@@CAXAEAV?$allocator@D@2@QEAD_K@Z ; std::basic_string<char,std::char_traits<char>,std::allocator<char> >::_Deallocate_for_capacity
PUBLIC	??1?$basic_string@DU?$char_traits@D@std@@V?$allocator@D@2@@std@@QEAA@XZ ; std::basic_string<char,std::char_traits<char>,std::allocator<char> >::~basic_string<char,std::char_traits<char>,std::allocator<char> >
PUBLIC	??4?$basic_string@DU?$char_traits@D@std@@V?$allocator@D@2@@std@@QEAAAEAV01@QEBD@Z ; std::basic_string<char,std::char_traits<char>,std::allocator<char> >::operator=
PUBLIC	?assign@?$basic_string@DU?$char_traits@D@std@@V?$allocator@D@2@@std@@QEAAAEAV12@QEBD@Z ; std::basic_string<char,std::char_traits<char>,std::allocator<char> >::assign
PUBLIC	?max_size@?$basic_string@DU?$char_traits@D@std@@V?$allocator@D@2@@std@@QEBA_KXZ ; std::basic_string<char,std::char_traits<char>,std::allocator<char> >::max_size
PUBLIC	?_Calculate_growth@?$basic_string@DU?$char_traits@D@std@@V?$allocator@D@2@@std@@CA_K_K00@Z ; std::basic_string<char,std::char_traits<char>,std::allocator<char> >::_Calculate_growth
PUBLIC	?_Calculate_growth@?$basic_string@DU?$char_traits@D@std@@V?$allocator@D@2@@std@@AEBA_K_K@Z ; std::basic_string<char,std::char_traits<char>,std::allocator<char> >::_Calculate_growth
PUBLIC	?_Tidy_deallocate@?$basic_string@DU?$char_traits@D@std@@V?$allocator@D@2@@std@@AEAAXXZ ; std::basic_string<char,std::char_traits<char>,std::allocator<char> >::_Tidy_deallocate
PUBLIC	?_Getal@?$basic_string@DU?$char_traits@D@std@@V?$allocator@D@2@@std@@AEAAAEAV?$allocator@D@2@XZ ; std::basic_string<char,std::char_traits<char>,std::allocator<char> >::_Getal
PUBLIC	?_Getal@?$basic_string@DU?$char_traits@D@std@@V?$allocator@D@2@@std@@AEBAAEBV?$allocator@D@2@XZ ; std::basic_string<char,std::char_traits<char>,std::allocator<char> >::_Getal
PUBLIC	?_Get_first@?$_Compressed_pair@V?$allocator@D@std@@V?$_String_val@U?$_Simple_types@D@std@@@2@$00@std@@QEAAAEAV?$allocator@D@2@XZ ; std::_Compressed_pair<std::allocator<char>,std::_String_val<std::_Simple_types<char> >,1>::_Get_first
PUBLIC	?_Get_first@?$_Compressed_pair@V?$allocator@D@std@@V?$_String_val@U?$_Simple_types@D@std@@@2@$00@std@@QEBAAEBV?$allocator@D@2@XZ ; std::_Compressed_pair<std::allocator<char>,std::_String_val<std::_Simple_types<char> >,1>::_Get_first
PUBLIC	??1?$_Compressed_pair@V?$allocator@D@std@@V?$_String_val@U?$_Simple_types@D@std@@@2@$00@std@@QEAA@XZ ; std::_Compressed_pair<std::allocator<char>,std::_String_val<std::_Simple_types<char> >,1>::~_Compressed_pair<std::allocator<char>,std::_String_val<std::_Simple_types<char> >,1>
PUBLIC	??0Vector3@@QEAA@MMM@Z				; Vector3::Vector3
PUBLIC	?_Maklocwcs@std@@YAPEA_WPEB_W@Z			; std::_Maklocwcs
PUBLIC	??$_Max_limit@_J@std@@YA_JXZ			; std::_Max_limit<__int64>
PUBLIC	??$_Getvals@_W@?$time_get@DV?$istreambuf_iterator@DU?$char_traits@D@std@@@std@@@std@@IEAAX_WAEBV_Locinfo@1@@Z ; std::time_get<char,std::istreambuf_iterator<char,std::char_traits<char> > >::_Getvals<wchar_t>
PUBLIC	??$_Getvals@_W@?$time_get@_WV?$istreambuf_iterator@_WU?$char_traits@_W@std@@@std@@@std@@IEAAX_WAEBV_Locinfo@1@@Z ; std::time_get<wchar_t,std::istreambuf_iterator<wchar_t,std::char_traits<wchar_t> > >::_Getvals<wchar_t>
PUBLIC	??0_Sentry_base@?$basic_ostream@DU?$char_traits@D@std@@@std@@QEAA@AEAV12@@Z ; std::basic_ostream<char,std::char_traits<char> >::_Sentry_base::_Sentry_base
PUBLIC	??1_Sentry_base@?$basic_ostream@DU?$char_traits@D@std@@@std@@QEAA@XZ ; std::basic_ostream<char,std::char_traits<char> >::_Sentry_base::~_Sentry_base
PUBLIC	??0sentry@?$basic_ostream@DU?$char_traits@D@std@@@std@@QEAA@AEAV12@@Z ; std::basic_ostream<char,std::char_traits<char> >::sentry::sentry
PUBLIC	??1sentry@?$basic_ostream@DU?$char_traits@D@std@@@std@@QEAA@XZ ; std::basic_ostream<char,std::char_traits<char> >::sentry::~sentry
PUBLIC	??Bsentry@?$basic_ostream@DU?$char_traits@D@std@@@std@@QEBA_NXZ ; std::basic_ostream<char,std::char_traits<char> >::sentry::operator bool
PUBLIC	?deallocate@?$allocator@PEAVInstance@@@std@@QEAAXQEAPEAVInstance@@_K@Z ; std::allocator<Instance *>::deallocate
PUBLIC	??1?$vector@PEAVInstance@@V?$allocator@PEAVInstance@@@std@@@std@@QEAA@XZ ; std::vector<Instance *,std::allocator<Instance *> >::~vector<Instance *,std::allocator<Instance *> >
PUBLIC	?_Tidy@?$vector@PEAVInstance@@V?$allocator@PEAVInstance@@@std@@@std@@AEAAXXZ ; std::vector<Instance *,std::allocator<Instance *> >::_Tidy
PUBLIC	?_Getal@?$vector@PEAVInstance@@V?$allocator@PEAVInstance@@@std@@@std@@AEAAAEAV?$allocator@PEAVInstance@@@2@XZ ; std::vector<Instance *,std::allocator<Instance *> >::_Getal
PUBLIC	?_Get_first@?$_Compressed_pair@V?$allocator@PEAVInstance@@@std@@V?$_Vector_val@U?$_Simple_types@PEAVInstance@@@std@@@2@$00@std@@QEAAAEAV?$allocator@PEAVInstance@@@2@XZ ; std::_Compressed_pair<std::allocator<Instance *>,std::_Vector_val<std::_Simple_types<Instance *> >,1>::_Get_first
PUBLIC	?setPhysicsEngine@Workspace@@QEAAXPEAVPhysics@@@Z ; Workspace::setPhysicsEngine
PUBLIC	??1Workspace@@UEAA@XZ				; Workspace::~Workspace
PUBLIC	??0Color4@@QEAA@MMMM@Z				; Color4::Color4
PUBLIC	??1PxAllocatorCallback@physx@@UEAA@XZ		; physx::PxAllocatorCallback::~PxAllocatorCallback
PUBLIC	??0PxAllocatorCallback@physx@@QEAA@XZ		; physx::PxAllocatorCallback::PxAllocatorCallback
PUBLIC	??_GPxAllocatorCallback@physx@@UEAAPEAXI@Z	; physx::PxAllocatorCallback::`scalar deleting destructor'
PUBLIC	?FLoad@aos@physx@@YA?AT__m128@@M@Z		; physx::aos::FLoad
PUBLIC	?V3Load@aos@physx@@YA?AT__m128@@M@Z		; physx::aos::V3Load
PUBLIC	?V4Load@aos@physx@@YA?AT__m128@@M@Z		; physx::aos::V4Load
PUBLIC	?platformAlignedAlloc@physx@@YAPEAX_K@Z		; physx::platformAlignedAlloc
PUBLIC	?platformAlignedFree@physx@@YAXPEAX@Z		; physx::platformAlignedFree
PUBLIC	?allocate@PxDefaultAllocator@physx@@UEAAPEAX_KPEBD1H@Z ; physx::PxDefaultAllocator::allocate
PUBLIC	?deallocate@PxDefaultAllocator@physx@@UEAAXPEAX@Z ; physx::PxDefaultAllocator::deallocate
PUBLIC	??0PxDefaultAllocator@physx@@QEAA@XZ		; physx::PxDefaultAllocator::PxDefaultAllocator
PUBLIC	??1PxDefaultAllocator@physx@@UEAA@XZ		; physx::PxDefaultAllocator::~PxDefaultAllocator
PUBLIC	??_GPxDefaultAllocator@physx@@UEAAPEAXI@Z	; physx::PxDefaultAllocator::`scalar deleting destructor'
PUBLIC	??0?$allocator@PEAVBaseCube@@@std@@QEAA@XZ	; std::allocator<BaseCube *>::allocator<BaseCube *>
PUBLIC	?deallocate@?$allocator@PEAVBaseCube@@@std@@QEAAXQEAPEAVBaseCube@@_K@Z ; std::allocator<BaseCube *>::deallocate
PUBLIC	??0?$vector@PEAVBaseCube@@V?$allocator@PEAVBaseCube@@@std@@@std@@QEAA@XZ ; std::vector<BaseCube *,std::allocator<BaseCube *> >::vector<BaseCube *,std::allocator<BaseCube *> >
PUBLIC	??1?$vector@PEAVBaseCube@@V?$allocator@PEAVBaseCube@@@std@@@std@@QEAA@XZ ; std::vector<BaseCube *,std::allocator<BaseCube *> >::~vector<BaseCube *,std::allocator<BaseCube *> >
PUBLIC	?_Tidy@?$vector@PEAVBaseCube@@V?$allocator@PEAVBaseCube@@@std@@@std@@AEAAXXZ ; std::vector<BaseCube *,std::allocator<BaseCube *> >::_Tidy
PUBLIC	?_Getal@?$vector@PEAVBaseCube@@V?$allocator@PEAVBaseCube@@@std@@@std@@AEAAAEAV?$allocator@PEAVBaseCube@@@2@XZ ; std::vector<BaseCube *,std::allocator<BaseCube *> >::_Getal
PUBLIC	??0?$_Vector_val@U?$_Simple_types@PEAVBaseCube@@@std@@@std@@QEAA@XZ ; std::_Vector_val<std::_Simple_types<BaseCube *> >::_Vector_val<std::_Simple_types<BaseCube *> >
PUBLIC	?_Get_first@?$_Compressed_pair@V?$allocator@PEAVBaseCube@@@std@@V?$_Vector_val@U?$_Simple_types@PEAVBaseCube@@@std@@@2@$00@std@@QEAAAEAV?$allocator@PEAVBaseCube@@@2@XZ ; std::_Compressed_pair<std::allocator<BaseCube *>,std::_Vector_val<std::_Simple_types<BaseCube *> >,1>::_Get_first
PUBLIC	??0Physics@@QEAA@XZ				; Physics::Physics
PUBLIC	??1Physics@@QEAA@XZ				; Physics::~Physics
PUBLIC	??0?$allocator@I@std@@QEAA@XZ			; std::allocator<unsigned int>::allocator<unsigned int>
PUBLIC	?deallocate@?$allocator@I@std@@QEAAXQEAI_K@Z	; std::allocator<unsigned int>::deallocate
PUBLIC	??0?$vector@IV?$allocator@I@std@@@std@@QEAA@XZ	; std::vector<unsigned int,std::allocator<unsigned int> >::vector<unsigned int,std::allocator<unsigned int> >
PUBLIC	??1?$vector@IV?$allocator@I@std@@@std@@QEAA@XZ	; std::vector<unsigned int,std::allocator<unsigned int> >::~vector<unsigned int,std::allocator<unsigned int> >
PUBLIC	?_Tidy@?$vector@IV?$allocator@I@std@@@std@@AEAAXXZ ; std::vector<unsigned int,std::allocator<unsigned int> >::_Tidy
PUBLIC	?_Getal@?$vector@IV?$allocator@I@std@@@std@@AEAAAEAV?$allocator@I@2@XZ ; std::vector<unsigned int,std::allocator<unsigned int> >::_Getal
PUBLIC	??0?$_Vector_val@U?$_Simple_types@I@std@@@std@@QEAA@XZ ; std::_Vector_val<std::_Simple_types<unsigned int> >::_Vector_val<std::_Simple_types<unsigned int> >
PUBLIC	?_Get_first@?$_Compressed_pair@V?$allocator@I@std@@V?$_Vector_val@U?$_Simple_types@I@std@@@2@$00@std@@QEAAAEAV?$allocator@I@2@XZ ; std::_Compressed_pair<std::allocator<unsigned int>,std::_Vector_val<std::_Simple_types<unsigned int> >,1>::_Get_first
PUBLIC	??0Renderer@@QEAA@XZ				; Renderer::Renderer
PUBLIC	??1Renderer@@QEAA@XZ				; Renderer::~Renderer
PUBLIC	?setupWindow@@YAPEAUGLFWwindow@@XZ		; setupWindow
PUBLIC	??$?6U?$char_traits@D@std@@@std@@YAAEAV?$basic_ostream@DU?$char_traits@D@std@@@0@AEAV10@PEBD@Z ; std::operator<<<std::char_traits<char> >
PUBLIC	main
PUBLIC	??$endl@DU?$char_traits@D@std@@@std@@YAAEAV?$basic_ostream@DU?$char_traits@D@std@@@0@AEAV10@@Z ; std::endl<char,std::char_traits<char> >
PUBLIC	??$?0$$V@?$_Compressed_pair@V?$allocator@I@std@@V?$_Vector_val@U?$_Simple_types@I@std@@@2@$00@std@@QEAA@U_Zero_then_variadic_args_t@1@@Z ; std::_Compressed_pair<std::allocator<unsigned int>,std::_Vector_val<std::_Simple_types<unsigned int> >,1>::_Compressed_pair<std::allocator<unsigned int>,std::_Vector_val<std::_Simple_types<unsigned int> >,1><>
PUBLIC	??$_Get_proxy_allocator@V?$allocator@I@std@@@std@@YA?AU_Fake_allocator@0@AEBV?$allocator@I@0@@Z ; std::_Get_proxy_allocator<std::allocator<unsigned int> >
PUBLIC	??$?0$$V@?$_Compressed_pair@V?$allocator@PEAVBaseCube@@@std@@V?$_Vector_val@U?$_Simple_types@PEAVBaseCube@@@std@@@2@$00@std@@QEAA@U_Zero_then_variadic_args_t@1@@Z ; std::_Compressed_pair<std::allocator<BaseCube *>,std::_Vector_val<std::_Simple_types<BaseCube *> >,1>::_Compressed_pair<std::allocator<BaseCube *>,std::_Vector_val<std::_Simple_types<BaseCube *> >,1><>
PUBLIC	??$_Get_proxy_allocator@V?$allocator@PEAVBaseCube@@@std@@@std@@YA?AU_Fake_allocator@0@AEBV?$allocator@PEAVBaseCube@@@0@@Z ; std::_Get_proxy_allocator<std::allocator<BaseCube *> >
PUBLIC	??$_Unfancy@D@std@@YAPEADPEAD@Z			; std::_Unfancy<char>
PUBLIC	??$_Convert_size@_K_K@std@@YA_K_K@Z		; std::_Convert_size<unsigned __int64,unsigned __int64>
PUBLIC	??$_Get_proxy_allocator@V?$allocator@D@std@@@std@@YA?AU_Fake_allocator@0@AEBV?$allocator@D@0@@Z ; std::_Get_proxy_allocator<std::allocator<char> >
PUBLIC	??$?0$$V@?$_Compressed_pair@V?$allocator@D@std@@V?$_String_val@U?$_Simple_types@D@std@@@2@$00@std@@QEAA@U_Zero_then_variadic_args_t@1@@Z ; std::_Compressed_pair<std::allocator<char>,std::_String_val<std::_Simple_types<char> >,1>::_Compressed_pair<std::allocator<char>,std::_String_val<std::_Simple_types<char> >,1><>
PUBLIC	??$_Construct@$00PEBD@?$basic_string@DU?$char_traits@D@std@@V?$allocator@D@2@@std@@AEAAXQEBD_K@Z ; std::basic_string<char,std::char_traits<char>,std::allocator<char> >::_Construct<1,char const *>
PUBLIC	??$_Allocate_for_capacity@$0A@@?$basic_string@DU?$char_traits@D@std@@V?$allocator@D@2@@std@@CAPEADAEAV?$allocator@D@1@AEA_K@Z ; std::basic_string<char,std::char_traits<char>,std::allocator<char> >::_Allocate_for_capacity<0>
PUBLIC	??$_Allocate_at_least_helper@V?$allocator@D@std@@@std@@YAPEADAEAV?$allocator@D@0@AEA_K@Z ; std::_Allocate_at_least_helper<std::allocator<char> >
PUBLIC	??$construct_at@D$$V@std@@YAPEADQEAD@Z		; std::construct_at<char>
PUBLIC	??$_Construct_in_place@PEADAEBQEAD@std@@YAXAEAPEADAEBQEAD@Z ; std::_Construct_in_place<char *,char * const &>
PUBLIC	??$max@_K@std@@YAAEB_KAEB_K0@Z			; std::max<unsigned __int64>
PUBLIC	??$_Traits_move_batch@U?$char_traits@D@std@@D@std@@YAXQEADQEBD_K@Z ; std::_Traits_move_batch<std::char_traits<char>,char>
PUBLIC	??$_Traits_copy_batch@U?$char_traits@D@std@@D@std@@YAXQEADQEBD_K@Z ; std::_Traits_copy_batch<std::char_traits<char>,char>
PUBLIC	??$_Destroy_range@V?$allocator@I@std@@@std@@YAXPEAIQEAIAEAV?$allocator@I@0@@Z ; std::_Destroy_range<std::allocator<unsigned int> >
PUBLIC	??$_Destroy_range@V?$allocator@PEAVBaseCube@@@std@@@std@@YAXPEAPEAVBaseCube@@QEAPEAV1@AEAV?$allocator@PEAVBaseCube@@@0@@Z ; std::_Destroy_range<std::allocator<BaseCube *> >
PUBLIC	??$_Destroy_range@V?$allocator@PEAVInstance@@@std@@@std@@YAXPEAPEAVInstance@@QEAPEAV1@AEAV?$allocator@PEAVInstance@@@0@@Z ; std::_Destroy_range<std::allocator<Instance *> >
PUBLIC	??$addressof@V?$basic_ostream@DU?$char_traits@D@std@@@std@@@std@@YAPEAV?$basic_ostream@DU?$char_traits@D@std@@@0@AEAV10@@Z ; std::addressof<std::basic_ostream<char,std::char_traits<char> > >
PUBLIC	??$_Assign@D@?$basic_string@DU?$char_traits@D@std@@V?$allocator@D@2@@std@@AEAAAEAV01@QEBD_K@Z ; std::basic_string<char,std::char_traits<char>,std::allocator<char> >::_Assign<char>
PUBLIC	??$addressof@PEAD@std@@YAPEAPEADAEAPEAD@Z	; std::addressof<char *>
PUBLIC	??$forward@AEBQEAD@std@@YAAEBQEADAEBQEAD@Z	; std::forward<char * const &>
PUBLIC	??$construct_at@PEADAEBQEAD@std@@YAPEAPEADQEAPEADAEBQEAD@Z ; std::construct_at<char *,char * const &>
PUBLIC	??R<lambda_1>@?1???$_Assign@D@?$basic_string@DU?$char_traits@D@std@@V?$allocator@D@2@@std@@AEAAAEAV12@QEBD_K@Z@SA@QEAD10@Z ; `std::basic_string<char,std::char_traits<char>,std::allocator<char> >::_Assign<char>'::`2'::<lambda_1>::operator()
PUBLIC	??$_Reallocate_for@V<lambda_1>@?1???$_Assign@D@?$basic_string@DU?$char_traits@D@std@@V?$allocator@D@2@@std@@AEAAAEAV23@QEBD_K@Z@PEBD@?$basic_string@DU?$char_traits@D@std@@V?$allocator@D@2@@std@@AEAAAEAV01@_KV<lambda_1>@?1???$_Assign@D@01@AEAAAEAV01@QEBD0@Z@PEBD@Z ; std::basic_string<char,std::char_traits<char>,std::allocator<char> >::_Reallocate_for<`std::basic_string<char,std::char_traits<char>,std::allocator<char> >::_Assign<char>'::`2'::<lambda_1>,char const *>
PUBLIC	??$_Deallocate@$0BA@@std@@YAXPEAX_K@Z		; std::_Deallocate<16>
PUBLIC	??$_Destroy_in_place@PEAD@std@@YAXAEAPEAD@Z	; std::_Destroy_in_place<char *>
PUBLIC	??$_Allocate@$0BA@U_Default_allocate_traits@std@@@std@@YAPEAX_K@Z ; std::_Allocate<16,std::_Default_allocate_traits>
PUBLIC	??$_Get_size_of_n@$00@std@@YA_K_K@Z		; std::_Get_size_of_n<1>
PUBLIC	??$_Allocate_manually_vector_aligned@U_Default_allocate_traits@std@@@std@@YAPEAX_K@Z ; std::_Allocate_manually_vector_aligned<std::_Default_allocate_traits>
PUBLIC	??_7exception@std@@6B@				; std::exception::`vftable'
PUBLIC	??_C@_0BC@EOODALEL@Unknown?5exception@		; `string'
PUBLIC	??_7bad_alloc@std@@6B@				; std::bad_alloc::`vftable'
PUBLIC	??_7bad_array_new_length@std@@6B@		; std::bad_array_new_length::`vftable'
PUBLIC	??_C@_0BF@KINCDENJ@bad?5array?5new?5length@	; `string'
PUBLIC	??_R0?AVexception@std@@@8			; std::exception `RTTI Type Descriptor'
PUBLIC	_CT??_R0?AVexception@std@@@8??0exception@std@@QEAA@AEBV01@@Z24
PUBLIC	_TI3?AVbad_array_new_length@std@@
PUBLIC	_CTA3?AVbad_array_new_length@std@@
PUBLIC	??_R0?AVbad_array_new_length@std@@@8		; std::bad_array_new_length `RTTI Type Descriptor'
PUBLIC	_CT??_R0?AVbad_array_new_length@std@@@8??0bad_array_new_length@std@@QEAA@AEBV01@@Z24
PUBLIC	??_R0?AVbad_alloc@std@@@8			; std::bad_alloc `RTTI Type Descriptor'
PUBLIC	_CT??_R0?AVbad_alloc@std@@@8??0bad_alloc@std@@QEAA@AEBV01@@Z24
PUBLIC	??_C@_0BA@JFNIOLAK@string?5too?5long@		; `string'
PUBLIC	??_7PxAllocatorCallback@physx@@6B@		; physx::PxAllocatorCallback::`vftable'
PUBLIC	??_7PxDefaultAllocator@physx@@6B@		; physx::PxDefaultAllocator::`vftable'
PUBLIC	??_C@_0BB@IAAJCMMM@initing?5GLFW?4?4?4?6@	; `string'
PUBLIC	??_C@_0BC@EBHAINFF@GLFW?5init?5failed?6@	; `string'
PUBLIC	??_C@_0BE@DPHBGMBN@creating?5window?4?4?4?6@	; `string'
PUBLIC	??_C@_0BD@FCNEPOEO@Welcome?5to?5Recubin@	; `string'
PUBLIC	??_C@_0BI@MEMILFDL@Window?5creation?5failed?6@	; `string'
PUBLIC	??_C@_0BD@HJCBHOLF@making?5context?4?4?4?6@	; `string'
PUBLIC	??_C@_0BB@LBOBDGFB@initing?5GLEW?4?4?4?6@	; `string'
PUBLIC	??_C@_0BC@GILIDJKH@GLEW?5init?5failed?6@	; `string'
PUBLIC	??_C@_0O@JMNGOOAA@Version?50?466?6@		; `string'
PUBLIC	??_C@_0O@CMJEMIJA@Hello?5world?$CB?6@		; `string'
PUBLIC	??_C@_0BK@HFNBFIKJ@?$FLERROR?$FN?5Failed?5to?5setup?4?6@ ; `string'
PUBLIC	??_C@_0BM@PAPOLKLO@assets?1image?1floppa2048?4jpg@ ; `string'
PUBLIC	??_C@_0BJ@LKJAONFL@assets?1image?1the?9cat?4png@ ; `string'
PUBLIC	??_C@_0BL@HFFFDACB@assets?1image?1salad?9cat?4jpg@ ; `string'
PUBLIC	??_C@_0BH@EFEGFJOC@assets?1image?1smile?4png@	; `string'
PUBLIC	??_C@_0BH@PHFEJDFH@assets?1image?1bliss?4jpg@	; `string'
PUBLIC	??_C@_0BO@LEENDELH@assets?1image?1Limabis_logo?4png@ ; `string'
PUBLIC	??_C@_04CAKOHOCJ@Blue@				; `string'
PUBLIC	??_C@_03PADCEAKC@Red@				; `string'
PUBLIC	??_C@_05GGOIJPPE@Green@				; `string'
PUBLIC	??_C@_06GCDENNFF@Floppa@			; `string'
PUBLIC	??_C@_09EJBLCMLC@workspace@			; `string'
PUBLIC	??_C@_0BC@NEBLDNOE@scripts?1test?4luau@		; `string'
PUBLIC	??_C@_0L@MMCGBOKB@TestScript@			; `string'
PUBLIC	??_C@_09KJHLHIEH@Baseplate@			; `string'
PUBLIC	??_C@_0BE@GKCGIABO@?5windowShouldClose?$DN@	; `string'
PUBLIC	??_C@_0CE@DBCKMAIM@?$FLDEBUG?$FN?5Main?5loop?5ended?4?5wannaE@ ; `string'
PUBLIC	??_C@_1BK@MHIKGOKE@?$AA?3?$AAA?$AAM?$AA?3?$AAa?$AAm?$AA?3?$AAP?$AAM?$AA?3?$AAp?$AAm@ ; `string'
PUBLIC	??_R4exception@std@@6B@				; std::exception::`RTTI Complete Object Locator'
PUBLIC	??_R3exception@std@@8				; std::exception::`RTTI Class Hierarchy Descriptor'
PUBLIC	??_R2exception@std@@8				; std::exception::`RTTI Base Class Array'
PUBLIC	??_R1A@?0A@EA@exception@std@@8			; std::exception::`RTTI Base Class Descriptor at (0,-1,0,64)'
PUBLIC	??_R4bad_array_new_length@std@@6B@		; std::bad_array_new_length::`RTTI Complete Object Locator'
PUBLIC	??_R3bad_array_new_length@std@@8		; std::bad_array_new_length::`RTTI Class Hierarchy Descriptor'
PUBLIC	??_R2bad_array_new_length@std@@8		; std::bad_array_new_length::`RTTI Base Class Array'
PUBLIC	??_R1A@?0A@EA@bad_array_new_length@std@@8	; std::bad_array_new_length::`RTTI Base Class Descriptor at (0,-1,0,64)'
PUBLIC	??_R1A@?0A@EA@bad_alloc@std@@8			; std::bad_alloc::`RTTI Base Class Descriptor at (0,-1,0,64)'
PUBLIC	??_R3bad_alloc@std@@8				; std::bad_alloc::`RTTI Class Hierarchy Descriptor'
PUBLIC	??_R2bad_alloc@std@@8				; std::bad_alloc::`RTTI Base Class Array'
PUBLIC	??_R4bad_alloc@std@@6B@				; std::bad_alloc::`RTTI Complete Object Locator'
PUBLIC	??_R4PxAllocatorCallback@physx@@6B@		; physx::PxAllocatorCallback::`RTTI Complete Object Locator'
PUBLIC	??_R0?AVPxAllocatorCallback@physx@@@8		; physx::PxAllocatorCallback `RTTI Type Descriptor'
PUBLIC	??_R3PxAllocatorCallback@physx@@8		; physx::PxAllocatorCallback::`RTTI Class Hierarchy Descriptor'
PUBLIC	??_R2PxAllocatorCallback@physx@@8		; physx::PxAllocatorCallback::`RTTI Base Class Array'
PUBLIC	??_R1A@?0A@EA@PxAllocatorCallback@physx@@8	; physx::PxAllocatorCallback::`RTTI Base Class Descriptor at (0,-1,0,64)'
PUBLIC	??_R4PxDefaultAllocator@physx@@6B@		; physx::PxDefaultAllocator::`RTTI Complete Object Locator'
PUBLIC	??_R0?AVPxDefaultAllocator@physx@@@8		; physx::PxDefaultAllocator `RTTI Type Descriptor'
PUBLIC	??_R3PxDefaultAllocator@physx@@8		; physx::PxDefaultAllocator::`RTTI Class Hierarchy Descriptor'
PUBLIC	??_R2PxDefaultAllocator@physx@@8		; physx::PxDefaultAllocator::`RTTI Base Class Array'
PUBLIC	??_R1A@?0A@EA@PxDefaultAllocator@physx@@8	; physx::PxDefaultAllocator::`RTTI Base Class Descriptor at (0,-1,0,64)'
PUBLIC	__xmm@000000003a83126f3a83126f3a83126f
PUBLIC	__xmm@00000000ba83126fba83126fba83126f
PUBLIC	__xmm@3a83126f3a83126f3a83126f3a83126f
PUBLIC	__xmm@ba83126fba83126fba83126fba83126f
EXTRN	_purecall:PROC
EXTRN	??2@YAPEAX_K@Z:PROC				; operator new
EXTRN	??3@YAXPEAX_K@Z:PROC				; operator delete
EXTRN	__std_terminate:PROC
EXTRN	__imp_glClear:PROC
EXTRN	glewInit:PROC
EXTRN	glfwInit:PROC
EXTRN	glfwTerminate:PROC
EXTRN	glfwCreateWindow:PROC
EXTRN	glfwWindowShouldClose:PROC
EXTRN	glfwSetWindowAspectRatio:PROC
EXTRN	glfwGetTime:PROC
EXTRN	glfwMakeContextCurrent:PROC
EXTRN	__imp_calloc:PROC
EXTRN	__imp__aligned_free:PROC
EXTRN	__imp__aligned_malloc:PROC
EXTRN	?_Xbad_alloc@std@@YAXXZ:PROC			; std::_Xbad_alloc
EXTRN	?_Xlength_error@std@@YAXPEBD@Z:PROC		; std::_Xlength_error
EXTRN	?uncaught_exceptions@std@@YAHXZ:PROC		; std::uncaught_exceptions
EXTRN	__std_exception_copy:PROC
EXTRN	__std_exception_destroy:PROC
EXTRN	??_Eexception@std@@UEAAPEAXI@Z:PROC		; std::exception::`vector deleting destructor'
EXTRN	??_Ebad_alloc@std@@UEAAPEAXI@Z:PROC		; std::bad_alloc::`vector deleting destructor'
EXTRN	??_Ebad_array_new_length@std@@UEAAPEAXI@Z:PROC	; std::bad_array_new_length::`vector deleting destructor'
EXTRN	__imp_?_Getcvt@_Locinfo@std@@QEBA?AU_Cvtvec@@XZ:PROC
EXTRN	__imp_?_W_Getdays@_Locinfo@std@@QEBAPEBGXZ:PROC
EXTRN	__imp_?_W_Getmonths@_Locinfo@std@@QEBAPEBGXZ:PROC
EXTRN	__imp_?good@ios_base@std@@QEBA_NXZ:PROC
EXTRN	__imp_?flags@ios_base@std@@QEBAHXZ:PROC
EXTRN	__imp_?width@ios_base@std@@QEBA_JXZ:PROC
EXTRN	__imp_?width@ios_base@std@@QEAA_J_J@Z:PROC
EXTRN	__imp_?sputc@?$basic_streambuf@DU?$char_traits@D@std@@@std@@QEAAHD@Z:PROC
EXTRN	__imp_?sputn@?$basic_streambuf@DU?$char_traits@D@std@@@std@@QEAA_JPEBD_J@Z:PROC
EXTRN	__imp_?setstate@?$basic_ios@DU?$char_traits@D@std@@@std@@QEAAXH_N@Z:PROC
EXTRN	__imp_?tie@?$basic_ios@DU?$char_traits@D@std@@@std@@QEBAPEAV?$basic_ostream@DU?$char_traits@D@std@@@2@XZ:PROC
EXTRN	__imp_?rdbuf@?$basic_ios@DU?$char_traits@D@std@@@std@@QEBAPEAV?$basic_streambuf@DU?$char_traits@D@std@@@2@XZ:PROC
EXTRN	__imp_?fill@?$basic_ios@DU?$char_traits@D@std@@@std@@QEBADXZ:PROC
EXTRN	__imp_?widen@?$basic_ios@DU?$char_traits@D@std@@@std@@QEBADD@Z:PROC
EXTRN	__imp_?_Osfx@?$basic_ostream@DU?$char_traits@D@std@@@std@@QEAAXXZ:PROC
EXTRN	__imp_??6?$basic_ostream@DU?$char_traits@D@std@@@std@@QEAAAEAV01@P6AAEAV01@AEAV01@@Z@Z:PROC
EXTRN	__imp_??6?$basic_ostream@DU?$char_traits@D@std@@@std@@QEAAAEAV01@_N@Z:PROC
EXTRN	__imp_??6?$basic_ostream@DU?$char_traits@D@std@@@std@@QEAAAEAV01@H@Z:PROC
EXTRN	__imp_?put@?$basic_ostream@DU?$char_traits@D@std@@@std@@QEAAAEAV12@D@Z:PROC
EXTRN	__imp_?flush@?$basic_ostream@DU?$char_traits@D@std@@@std@@QEAAAEAV12@XZ:PROC
EXTRN	?addChild@Instance@@UEAAXPEAV1@@Z:PROC		; Instance::addChild
EXTRN	??1Instance@@UEAA@XZ:PROC			; Instance::~Instance
EXTRN	??0Workspace@@QEAA@XZ:PROC			; Workspace::Workspace
EXTRN	??_EPxAllocatorCallback@physx@@UEAAPEAXI@Z:PROC	; physx::PxAllocatorCallback::`vector deleting destructor'
EXTRN	??_EPxDefaultAllocator@physx@@UEAAPEAXI@Z:PROC	; physx::PxDefaultAllocator::`vector deleting destructor'
EXTRN	??0PxDefaultErrorCallback@physx@@QEAA@XZ:PROC	; physx::PxDefaultErrorCallback::PxDefaultErrorCallback
EXTRN	??1PxDefaultErrorCallback@physx@@UEAA@XZ:PROC	; physx::PxDefaultErrorCallback::~PxDefaultErrorCallback
EXTRN	??0Cube@@QEAA@UVector3@@0I@Z:PROC		; Cube::Cube
EXTRN	?setFaceTexture@Cube@@QEAAXHI@Z:PROC		; Cube::setFaceTexture
EXTRN	??0Script@@QEAA@V?$basic_string@DU?$char_traits@D@std@@V?$allocator@D@2@@std@@@Z:PROC ; Script::Script
EXTRN	?init@Physics@@QEAAXXZ:PROC			; Physics::init
EXTRN	?update@Physics@@QEAAXAEAVWorkspace@@M@Z:PROC	; Physics::update
EXTRN	??0User@@QEAA@PEAUGLFWwindow@@@Z:PROC		; User::User
EXTRN	?processInput@User@@QEAAXXZ:PROC		; User::processInput
EXTRN	?init@Renderer@@QEAAXXZ:PROC			; Renderer::init
EXTRN	?render@Renderer@@QEAAXAEAVUser@@PEAUGLFWwindow@@AEAVWorkspace@@@Z:PROC ; Renderer::render
EXTRN	?loadTexture@Renderer@@QEAAIPEBD@Z:PROC		; Renderer::loadTexture
EXTRN	??0LuauEngine@@QEAA@XZ:PROC			; LuauEngine::LuauEngine
EXTRN	??1LuauEngine@@QEAA@XZ:PROC			; LuauEngine::~LuauEngine
EXTRN	?setGlobalInstance@LuauEngine@@QEAAXAEBV?$basic_string@DU?$char_traits@D@std@@V?$allocator@D@2@@std@@PEAVInstance@@@Z:PROC ; LuauEngine::setGlobalInstance
EXTRN	?setWorkspace@LuauEngine@@QEAAXPEAVWorkspace@@@Z:PROC ; LuauEngine::setWorkspace
EXTRN	?executeWorkspaceScripts@LuauEngine@@QEAAXXZ:PROC ; LuauEngine::executeWorkspaceScripts
EXTRN	?update@LuauEngine@@QEAAXM@Z:PROC		; LuauEngine::update
EXTRN	_CxxThrowException:PROC
EXTRN	__CxxFrameHandler4:PROC
EXTRN	__GSHandlerCheck:PROC
EXTRN	__GSHandlerCheck_EH4:PROC
EXTRN	__security_check_cookie:PROC
EXTRN	memcpy:PROC
EXTRN	memmove:PROC
EXTRN	strlen:PROC
EXTRN	wcslen:PROC
EXTRN	??_7type_info@@6B@:BYTE				; type_info::`vftable'
EXTRN	__imp_?cout@std@@3V?$basic_ostream@DU?$char_traits@D@std@@@1@A:BYTE
EXTRN	__security_cookie:QWORD
EXTRN	_fltused:DWORD
_BSS	SEGMENT
?minFError@vecMathTests@aos@physx@@3T__m128@@B DB 010H DUP (?) ; physx::aos::vecMathTests::minFError
?maxFError@vecMathTests@aos@physx@@3T__m128@@B DB 010H DUP (?) ; physx::aos::vecMathTests::maxFError
?minV3Error@vecMathTests@aos@physx@@3T__m128@@B DB 010H DUP (?) ; physx::aos::vecMathTests::minV3Error
?maxV3Error@vecMathTests@aos@physx@@3T__m128@@B DB 010H DUP (?) ; physx::aos::vecMathTests::maxV3Error
?minV4Error@vecMathTests@aos@physx@@3T__m128@@B DB 010H DUP (?) ; physx::aos::vecMathTests::minV4Error
?maxV4Error@vecMathTests@aos@physx@@3T__m128@@B DB 010H DUP (?) ; physx::aos::vecMathTests::maxV4Error
_BSS	ENDS
;	COMDAT pdata
pdata	SEGMENT
$pdata$??_H@YAXPEAX_K1P6APEAX0@Z@Z DD imagerel $LN14
	DD	imagerel $LN14+55
	DD	imagerel $unwind$??_H@YAXPEAX_K1P6APEAX0@Z@Z
pdata	ENDS
;	COMDAT pdata
pdata	SEGMENT
$pdata$?copy@?$_Char_traits@DH@std@@SAPEADQEADQEBD_K@Z DD imagerel $LN20
	DD	imagerel $LN20+23
	DD	imagerel $unwind$?copy@?$_Char_traits@DH@std@@SAPEADQEADQEBD_K@Z
pdata	ENDS
;	COMDAT pdata
pdata	SEGMENT
$pdata$?move@?$_Char_traits@DH@std@@SAPEADQEADQEBD_K@Z DD imagerel $LN40
	DD	imagerel $LN40+23
	DD	imagerel $unwind$?move@?$_Char_traits@DH@std@@SAPEADQEADQEBD_K@Z
pdata	ENDS
;	COMDAT pdata
pdata	SEGMENT
$pdata$??0exception@std@@QEAA@AEBV01@@Z DD imagerel $LN6
	DD	imagerel $LN6+50
	DD	imagerel $unwind$??0exception@std@@QEAA@AEBV01@@Z
pdata	ENDS
;	COMDAT pdata
pdata	SEGMENT
$pdata$??_Gexception@std@@UEAAPEAXI@Z DD imagerel $LN12
	DD	imagerel $LN12+66
	DD	imagerel $unwind$??_Gexception@std@@UEAAPEAXI@Z
pdata	ENDS
;	COMDAT pdata
pdata	SEGMENT
$pdata$??0bad_alloc@std@@QEAA@AEBV01@@Z DD imagerel $LN9
	DD	imagerel $LN9+60
	DD	imagerel $unwind$??0bad_alloc@std@@QEAA@AEBV01@@Z
pdata	ENDS
;	COMDAT pdata
pdata	SEGMENT
$pdata$??_Gbad_alloc@std@@UEAAPEAXI@Z DD imagerel $LN17
	DD	imagerel $LN17+66
	DD	imagerel $unwind$??_Gbad_alloc@std@@UEAAPEAXI@Z
pdata	ENDS
;	COMDAT pdata
pdata	SEGMENT
$pdata$??0bad_array_new_length@std@@QEAA@AEBV01@@Z DD imagerel $LN14
	DD	imagerel $LN14+60
	DD	imagerel $unwind$??0bad_array_new_length@std@@QEAA@AEBV01@@Z
pdata	ENDS
;	COMDAT pdata
pdata	SEGMENT
$pdata$??_Gbad_array_new_length@std@@UEAAPEAXI@Z DD imagerel $LN22
	DD	imagerel $LN22+66
	DD	imagerel $unwind$??_Gbad_array_new_length@std@@UEAAPEAXI@Z
pdata	ENDS
;	COMDAT pdata
pdata	SEGMENT
$pdata$?_Throw_bad_array_new_length@std@@YAXXZ DD imagerel $LN4
	DD	imagerel $LN4+32
	DD	imagerel $unwind$?_Throw_bad_array_new_length@std@@YAXXZ
pdata	ENDS
;	COMDAT pdata
pdata	SEGMENT
$pdata$?_Xlen_string@std@@YAXXZ DD imagerel $LN4
	DD	imagerel $LN4+17
	DD	imagerel $unwind$?_Xlen_string@std@@YAXXZ
pdata	ENDS
;	COMDAT pdata
pdata	SEGMENT
$pdata$?allocate@?$allocator@D@std@@QEAAPEAD_K@Z DD imagerel $LN23
	DD	imagerel $LN23+89
	DD	imagerel $unwind$?allocate@?$allocator@D@std@@QEAAPEAD_K@Z
pdata	ENDS
;	COMDAT pdata
pdata	SEGMENT
$pdata$??0?$basic_string@DU?$char_traits@D@std@@V?$allocator@D@2@@std@@QEAA@QEBD@Z DD imagerel $LN21
	DD	imagerel $LN21+68
	DD	imagerel $unwind$??0?$basic_string@DU?$char_traits@D@std@@V?$allocator@D@2@@std@@QEAA@QEBD@Z
pdata	ENDS
;	COMDAT pdata
pdata	SEGMENT
$pdata$??4?$basic_string@DU?$char_traits@D@std@@V?$allocator@D@2@@std@@QEAAAEAV01@QEBD@Z DD imagerel $LN10
	DD	imagerel $LN10+48
	DD	imagerel $unwind$??4?$basic_string@DU?$char_traits@D@std@@V?$allocator@D@2@@std@@QEAAAEAV01@QEBD@Z
pdata	ENDS
;	COMDAT pdata
pdata	SEGMENT
$pdata$?assign@?$basic_string@DU?$char_traits@D@std@@V?$allocator@D@2@@std@@QEAAAEAV12@QEBD@Z DD imagerel $LN8
	DD	imagerel $LN8+48
	DD	imagerel $unwind$?assign@?$basic_string@DU?$char_traits@D@std@@V?$allocator@D@2@@std@@QEAAAEAV12@QEBD@Z
pdata	ENDS
;	COMDAT pdata
pdata	SEGMENT
$pdata$?_Tidy_deallocate@?$basic_string@DU?$char_traits@D@std@@V?$allocator@D@2@@std@@AEAAXXZ DD imagerel $LN34
	DD	imagerel $LN34+97
	DD	imagerel $unwind$?_Tidy_deallocate@?$basic_string@DU?$char_traits@D@std@@V?$allocator@D@2@@std@@AEAAXXZ
pdata	ENDS
;	COMDAT pdata
pdata	SEGMENT
$pdata$?_Maklocwcs@std@@YAPEA_WPEB_W@Z DD imagerel $LN10
	DD	imagerel $LN10+89
	DD	imagerel $unwind$?_Maklocwcs@std@@YAPEA_WPEB_W@Z
pdata	ENDS
;	COMDAT pdata
pdata	SEGMENT
$pdata$??$_Getvals@_W@?$time_get@DV?$istreambuf_iterator@DU?$char_traits@D@std@@@std@@@std@@IEAAX_WAEBV_Locinfo@1@@Z DD imagerel $LN27
	DD	imagerel $LN27+308
	DD	imagerel $unwind$??$_Getvals@_W@?$time_get@DV?$istreambuf_iterator@DU?$char_traits@D@std@@@std@@@std@@IEAAX_WAEBV_Locinfo@1@@Z
pdata	ENDS
;	COMDAT pdata
pdata	SEGMENT
$pdata$??$_Getvals@_W@?$time_get@_WV?$istreambuf_iterator@_WU?$char_traits@_W@std@@@std@@@std@@IEAAX_WAEBV_Locinfo@1@@Z DD imagerel $LN27
	DD	imagerel $LN27+308
	DD	imagerel $unwind$??$_Getvals@_W@?$time_get@_WV?$istreambuf_iterator@_WU?$char_traits@_W@std@@@std@@@std@@IEAAX_WAEBV_Locinfo@1@@Z
pdata	ENDS
;	COMDAT pdata
pdata	SEGMENT
$pdata$??0_Sentry_base@?$basic_ostream@DU?$char_traits@D@std@@@std@@QEAA@AEAV12@@Z DD imagerel $LN7
	DD	imagerel $LN7+51
	DD	imagerel $unwind$??0_Sentry_base@?$basic_ostream@DU?$char_traits@D@std@@@std@@QEAA@AEAV12@@Z
pdata	ENDS
;	COMDAT pdata
pdata	SEGMENT
$pdata$??1_Sentry_base@?$basic_ostream@DU?$char_traits@D@std@@@std@@QEAA@XZ DD imagerel $LN7
	DD	imagerel $LN7+43
	DD	imagerel $unwind$??1_Sentry_base@?$basic_ostream@DU?$char_traits@D@std@@@std@@QEAA@XZ
pdata	ENDS
;	COMDAT pdata
pdata	SEGMENT
$pdata$??0sentry@?$basic_ostream@DU?$char_traits@D@std@@@std@@QEAA@AEAV12@@Z DD imagerel $LN12
	DD	imagerel $LN12+148
	DD	imagerel $unwind$??0sentry@?$basic_ostream@DU?$char_traits@D@std@@@std@@QEAA@AEAV12@@Z
pdata	ENDS
;	COMDAT pdata
pdata	SEGMENT
$pdata$??1sentry@?$basic_ostream@DU?$char_traits@D@std@@@std@@QEAA@XZ DD imagerel $LN14
	DD	imagerel $LN14+68
	DD	imagerel $unwind$??1sentry@?$basic_ostream@DU?$char_traits@D@std@@@std@@QEAA@XZ
pdata	ENDS
;	COMDAT pdata
pdata	SEGMENT
$pdata$??1?$vector@PEAVInstance@@V?$allocator@PEAVInstance@@@std@@@std@@QEAA@XZ DD imagerel $LN31
	DD	imagerel $LN31+104
	DD	imagerel $unwind$??1?$vector@PEAVInstance@@V?$allocator@PEAVInstance@@@std@@@std@@QEAA@XZ
pdata	ENDS
;	COMDAT pdata
pdata	SEGMENT
$pdata$?_Tidy@?$vector@PEAVInstance@@V?$allocator@PEAVInstance@@@std@@@std@@AEAAXXZ DD imagerel $LN27
	DD	imagerel $LN27+104
	DD	imagerel $unwind$?_Tidy@?$vector@PEAVInstance@@V?$allocator@PEAVInstance@@@std@@@std@@AEAAXXZ
pdata	ENDS
;	COMDAT pdata
pdata	SEGMENT
$pdata$??1Workspace@@UEAA@XZ DD imagerel $LN6
	DD	imagerel $LN6+43
	DD	imagerel $unwind$??1Workspace@@UEAA@XZ
pdata	ENDS
;	COMDAT pdata
pdata	SEGMENT
$pdata$??_GPxAllocatorCallback@physx@@UEAAPEAXI@Z DD imagerel $LN9
	DD	imagerel $LN9+43
	DD	imagerel $unwind$??_GPxAllocatorCallback@physx@@UEAAPEAXI@Z
pdata	ENDS
;	COMDAT pdata
pdata	SEGMENT
$pdata$??_GPxDefaultAllocator@physx@@UEAAPEAXI@Z DD imagerel $LN9
	DD	imagerel $LN9+43
	DD	imagerel $unwind$??_GPxDefaultAllocator@physx@@UEAAPEAXI@Z
pdata	ENDS
;	COMDAT pdata
pdata	SEGMENT
$pdata$??1?$vector@PEAVBaseCube@@V?$allocator@PEAVBaseCube@@@std@@@std@@QEAA@XZ DD imagerel $LN31
	DD	imagerel $LN31+104
	DD	imagerel $unwind$??1?$vector@PEAVBaseCube@@V?$allocator@PEAVBaseCube@@@std@@@std@@QEAA@XZ
pdata	ENDS
;	COMDAT pdata
pdata	SEGMENT
$pdata$?_Tidy@?$vector@PEAVBaseCube@@V?$allocator@PEAVBaseCube@@@std@@@std@@AEAAXXZ DD imagerel $LN27
	DD	imagerel $LN27+104
	DD	imagerel $unwind$?_Tidy@?$vector@PEAVBaseCube@@V?$allocator@PEAVBaseCube@@@std@@@std@@AEAAXXZ
pdata	ENDS
;	COMDAT pdata
pdata	SEGMENT
$pdata$??0Physics@@QEAA@XZ DD imagerel $LN28
	DD	imagerel $LN28+81
	DD	imagerel $unwind$??0Physics@@QEAA@XZ
pdata	ENDS
;	COMDAT pdata
pdata	SEGMENT
$pdata$??1Physics@@QEAA@XZ DD imagerel $LN11
	DD	imagerel $LN11+44
	DD	imagerel $unwind$??1Physics@@QEAA@XZ
pdata	ENDS
;	COMDAT pdata
pdata	SEGMENT
$pdata$??1?$vector@IV?$allocator@I@std@@@std@@QEAA@XZ DD imagerel $LN31
	DD	imagerel $LN31+104
	DD	imagerel $unwind$??1?$vector@IV?$allocator@I@std@@@std@@QEAA@XZ
pdata	ENDS
;	COMDAT pdata
pdata	SEGMENT
$pdata$?_Tidy@?$vector@IV?$allocator@I@std@@@std@@AEAAXXZ DD imagerel $LN27
	DD	imagerel $LN27+104
	DD	imagerel $unwind$?_Tidy@?$vector@IV?$allocator@I@std@@@std@@AEAAXXZ
pdata	ENDS
;	COMDAT pdata
pdata	SEGMENT
$pdata$?setupWindow@@YAPEAUGLFWwindow@@XZ DD imagerel $LN11
	DD	imagerel $LN11+65
	DD	imagerel $unwind$?setupWindow@@YAPEAUGLFWwindow@@XZ
pdata	ENDS
;	COMDAT pdata
pdata	SEGMENT
$pdata$0$?setupWindow@@YAPEAUGLFWwindow@@XZ DD imagerel $LN11+65
	DD	imagerel $LN11+153
	DD	imagerel $chain$0$?setupWindow@@YAPEAUGLFWwindow@@XZ
pdata	ENDS
;	COMDAT pdata
pdata	SEGMENT
$pdata$2$?setupWindow@@YAPEAUGLFWwindow@@XZ DD imagerel $LN11+153
	DD	imagerel $LN11+258
	DD	imagerel $chain$2$?setupWindow@@YAPEAUGLFWwindow@@XZ
pdata	ENDS
;	COMDAT pdata
pdata	SEGMENT
$pdata$4$?setupWindow@@YAPEAUGLFWwindow@@XZ DD imagerel $LN11+258
	DD	imagerel $LN11+271
	DD	imagerel $chain$4$?setupWindow@@YAPEAUGLFWwindow@@XZ
pdata	ENDS
;	COMDAT pdata
pdata	SEGMENT
$pdata$??$?6U?$char_traits@D@std@@@std@@YAAEAV?$basic_ostream@DU?$char_traits@D@std@@@0@AEAV10@PEBD@Z DD imagerel $LN74
	DD	imagerel $LN74+592
	DD	imagerel $unwind$??$?6U?$char_traits@D@std@@@std@@YAAEAV?$basic_ostream@DU?$char_traits@D@std@@@0@AEAV10@PEBD@Z
pdata	ENDS
;	COMDAT pdata
pdata	SEGMENT
$pdata$?catch$4@?0???$?6U?$char_traits@D@std@@@std@@YAAEAV?$basic_ostream@DU?$char_traits@D@std@@@0@AEAV10@PEBD@Z@4HA DD imagerel ?catch$4@?0???$?6U?$char_traits@D@std@@@std@@YAAEAV?$basic_ostream@DU?$char_traits@D@std@@@0@AEAV10@PEBD@Z@4HA
	DD	imagerel ?catch$4@?0???$?6U?$char_traits@D@std@@@std@@YAAEAV?$basic_ostream@DU?$char_traits@D@std@@@0@AEAV10@PEBD@Z@4HA+59
	DD	imagerel $unwind$?catch$4@?0???$?6U?$char_traits@D@std@@@std@@YAAEAV?$basic_ostream@DU?$char_traits@D@std@@@0@AEAV10@PEBD@Z@4HA
pdata	ENDS
;	COMDAT pdata
pdata	SEGMENT
$pdata$main DD	imagerel $LN507
	DD	imagerel $LN507+2367
	DD	imagerel $unwind$main
pdata	ENDS
;	COMDAT pdata
pdata	SEGMENT
$pdata$main$dtor$4 DD imagerel main$dtor$4
	DD	imagerel main$dtor$4+29
	DD	imagerel $unwind$main$dtor$4
pdata	ENDS
;	COMDAT pdata
pdata	SEGMENT
$pdata$main$dtor$5 DD imagerel main$dtor$5
	DD	imagerel main$dtor$5+29
	DD	imagerel $unwind$main$dtor$5
pdata	ENDS
;	COMDAT pdata
pdata	SEGMENT
$pdata$main$dtor$6 DD imagerel main$dtor$6
	DD	imagerel main$dtor$6+29
	DD	imagerel $unwind$main$dtor$6
pdata	ENDS
;	COMDAT pdata
pdata	SEGMENT
$pdata$main$dtor$7 DD imagerel main$dtor$7
	DD	imagerel main$dtor$7+29
	DD	imagerel $unwind$main$dtor$7
pdata	ENDS
;	COMDAT pdata
pdata	SEGMENT
$pdata$main$dtor$9 DD imagerel main$dtor$9
	DD	imagerel main$dtor$9+29
	DD	imagerel $unwind$main$dtor$9
pdata	ENDS
;	COMDAT pdata
pdata	SEGMENT
$pdata$main$dtor$11 DD imagerel main$dtor$11
	DD	imagerel main$dtor$11+29
	DD	imagerel $unwind$main$dtor$11
pdata	ENDS
;	COMDAT pdata
pdata	SEGMENT
$pdata$??$endl@DU?$char_traits@D@std@@@std@@YAAEAV?$basic_ostream@DU?$char_traits@D@std@@@0@AEAV10@@Z DD imagerel $LN4
	DD	imagerel $LN4+57
	DD	imagerel $unwind$??$endl@DU?$char_traits@D@std@@@std@@YAAEAV?$basic_ostream@DU?$char_traits@D@std@@@0@AEAV10@@Z
pdata	ENDS
;	COMDAT pdata
pdata	SEGMENT
$pdata$??$_Construct@$00PEBD@?$basic_string@DU?$char_traits@D@std@@V?$allocator@D@2@@std@@AEAAXQEBD_K@Z DD imagerel $LN108
	DD	imagerel $LN108+79
	DD	imagerel $unwind$??$_Construct@$00PEBD@?$basic_string@DU?$char_traits@D@std@@V?$allocator@D@2@@std@@AEAAXQEBD_K@Z
pdata	ENDS
;	COMDAT pdata
pdata	SEGMENT
$pdata$0$??$_Construct@$00PEBD@?$basic_string@DU?$char_traits@D@std@@V?$allocator@D@2@@std@@AEAAXQEBD_K@Z DD imagerel $LN108+79
	DD	imagerel $LN108+237
	DD	imagerel $chain$0$??$_Construct@$00PEBD@?$basic_string@DU?$char_traits@D@std@@V?$allocator@D@2@@std@@AEAAXQEBD_K@Z
pdata	ENDS
;	COMDAT pdata
pdata	SEGMENT
$pdata$1$??$_Construct@$00PEBD@?$basic_string@DU?$char_traits@D@std@@V?$allocator@D@2@@std@@AEAAXQEBD_K@Z DD imagerel $LN108+237
	DD	imagerel $LN108+243
	DD	imagerel $chain$1$??$_Construct@$00PEBD@?$basic_string@DU?$char_traits@D@std@@V?$allocator@D@2@@std@@AEAAXQEBD_K@Z
pdata	ENDS
;	COMDAT pdata
pdata	SEGMENT
$pdata$2$??$_Construct@$00PEBD@?$basic_string@DU?$char_traits@D@std@@V?$allocator@D@2@@std@@AEAAXQEBD_K@Z DD imagerel $LN108+243
	DD	imagerel $LN108+249
	DD	imagerel $chain$2$??$_Construct@$00PEBD@?$basic_string@DU?$char_traits@D@std@@V?$allocator@D@2@@std@@AEAAXQEBD_K@Z
pdata	ENDS
;	COMDAT pdata
pdata	SEGMENT
$pdata$??$_Allocate_for_capacity@$0A@@?$basic_string@DU?$char_traits@D@std@@V?$allocator@D@2@@std@@CAPEADAEAV?$allocator@D@1@AEA_K@Z DD imagerel $LN46
	DD	imagerel $LN46+111
	DD	imagerel $unwind$??$_Allocate_for_capacity@$0A@@?$basic_string@DU?$char_traits@D@std@@V?$allocator@D@2@@std@@CAPEADAEAV?$allocator@D@1@AEA_K@Z
pdata	ENDS
;	COMDAT pdata
pdata	SEGMENT
$pdata$??$_Allocate_at_least_helper@V?$allocator@D@std@@@std@@YAPEADAEAV?$allocator@D@0@AEA_K@Z DD imagerel $LN26
	DD	imagerel $LN26+92
	DD	imagerel $unwind$??$_Allocate_at_least_helper@V?$allocator@D@std@@@std@@YAPEADAEAV?$allocator@D@0@AEA_K@Z
pdata	ENDS
;	COMDAT pdata
pdata	SEGMENT
$pdata$??$_Assign@D@?$basic_string@DU?$char_traits@D@std@@V?$allocator@D@2@@std@@AEAAAEAV01@QEBD_K@Z DD imagerel $LN170
	DD	imagerel $LN170+93
	DD	imagerel $unwind$??$_Assign@D@?$basic_string@DU?$char_traits@D@std@@V?$allocator@D@2@@std@@AEAAAEAV01@QEBD_K@Z
pdata	ENDS
;	COMDAT pdata
pdata	SEGMENT
$pdata$0$??$_Assign@D@?$basic_string@DU?$char_traits@D@std@@V?$allocator@D@2@@std@@AEAAAEAV01@QEBD_K@Z DD imagerel $LN170+93
	DD	imagerel $LN170+321
	DD	imagerel $chain$0$??$_Assign@D@?$basic_string@DU?$char_traits@D@std@@V?$allocator@D@2@@std@@AEAAAEAV01@QEBD_K@Z
pdata	ENDS
;	COMDAT pdata
pdata	SEGMENT
$pdata$1$??$_Assign@D@?$basic_string@DU?$char_traits@D@std@@V?$allocator@D@2@@std@@AEAAAEAV01@QEBD_K@Z DD imagerel $LN170+321
	DD	imagerel $LN170+349
	DD	imagerel $chain$1$??$_Assign@D@?$basic_string@DU?$char_traits@D@std@@V?$allocator@D@2@@std@@AEAAAEAV01@QEBD_K@Z
pdata	ENDS
;	COMDAT pdata
pdata	SEGMENT
$pdata$2$??$_Assign@D@?$basic_string@DU?$char_traits@D@std@@V?$allocator@D@2@@std@@AEAAAEAV01@QEBD_K@Z DD imagerel $LN170+349
	DD	imagerel $LN170+355
	DD	imagerel $chain$2$??$_Assign@D@?$basic_string@DU?$char_traits@D@std@@V?$allocator@D@2@@std@@AEAAAEAV01@QEBD_K@Z
pdata	ENDS
;	COMDAT pdata
pdata	SEGMENT
$pdata$??R<lambda_1>@?1???$_Assign@D@?$basic_string@DU?$char_traits@D@std@@V?$allocator@D@2@@std@@AEAAAEAV12@QEBD_K@Z@SA@QEAD10@Z DD imagerel $LN25
	DD	imagerel $LN25+45
	DD	imagerel $unwind$??R<lambda_1>@?1???$_Assign@D@?$basic_string@DU?$char_traits@D@std@@V?$allocator@D@2@@std@@AEAAAEAV12@QEBD_K@Z@SA@QEAD10@Z
pdata	ENDS
;	COMDAT pdata
pdata	SEGMENT
$pdata$??$_Reallocate_for@V<lambda_1>@?1???$_Assign@D@?$basic_string@DU?$char_traits@D@std@@V?$allocator@D@2@@std@@AEAAAEAV23@QEBD_K@Z@PEBD@?$basic_string@DU?$char_traits@D@std@@V?$allocator@D@2@@std@@AEAAAEAV01@_KV<lambda_1>@?1???$_Assign@D@01@AEAAAEAV01@QEBD0@Z@PEBD@Z DD imagerel $LN116
	DD	imagerel $LN116+42
	DD	imagerel $unwind$??$_Reallocate_for@V<lambda_1>@?1???$_Assign@D@?$basic_string@DU?$char_traits@D@std@@V?$allocator@D@2@@std@@AEAAAEAV23@QEBD_K@Z@PEBD@?$basic_string@DU?$char_traits@D@std@@V?$allocator@D@2@@std@@AEAAAEAV01@_KV<lambda_1>@?1???$_Assign@D@01@AEAAAEAV01@QEBD0@Z@PEBD@Z
pdata	ENDS
;	COMDAT pdata
pdata	SEGMENT
$pdata$1$??$_Reallocate_for@V<lambda_1>@?1???$_Assign@D@?$basic_string@DU?$char_traits@D@std@@V?$allocator@D@2@@std@@AEAAAEAV23@QEBD_K@Z@PEBD@?$basic_string@DU?$char_traits@D@std@@V?$allocator@D@2@@std@@AEAAAEAV01@_KV<lambda_1>@?1???$_Assign@D@01@AEAAAEAV01@QEBD0@Z@PEBD@Z DD imagerel $LN116+42
	DD	imagerel $LN116+301
	DD	imagerel $chain$1$??$_Reallocate_for@V<lambda_1>@?1???$_Assign@D@?$basic_string@DU?$char_traits@D@std@@V?$allocator@D@2@@std@@AEAAAEAV23@QEBD_K@Z@PEBD@?$basic_string@DU?$char_traits@D@std@@V?$allocator@D@2@@std@@AEAAAEAV01@_KV<lambda_1>@?1???$_Assign@D@01@AEAAAEAV01@QEBD0@Z@PEBD@Z
pdata	ENDS
;	COMDAT pdata
pdata	SEGMENT
$pdata$2$??$_Reallocate_for@V<lambda_1>@?1???$_Assign@D@?$basic_string@DU?$char_traits@D@std@@V?$allocator@D@2@@std@@AEAAAEAV23@QEBD_K@Z@PEBD@?$basic_string@DU?$char_traits@D@std@@V?$allocator@D@2@@std@@AEAAAEAV01@_KV<lambda_1>@?1???$_Assign@D@01@AEAAAEAV01@QEBD0@Z@PEBD@Z DD imagerel $LN116+301
	DD	imagerel $LN116+307
	DD	imagerel $chain$2$??$_Reallocate_for@V<lambda_1>@?1???$_Assign@D@?$basic_string@DU?$char_traits@D@std@@V?$allocator@D@2@@std@@AEAAAEAV23@QEBD_K@Z@PEBD@?$basic_string@DU?$char_traits@D@std@@V?$allocator@D@2@@std@@AEAAAEAV01@_KV<lambda_1>@?1???$_Assign@D@01@AEAAAEAV01@QEBD0@Z@PEBD@Z
pdata	ENDS
;	COMDAT pdata
pdata	SEGMENT
$pdata$3$??$_Reallocate_for@V<lambda_1>@?1???$_Assign@D@?$basic_string@DU?$char_traits@D@std@@V?$allocator@D@2@@std@@AEAAAEAV23@QEBD_K@Z@PEBD@?$basic_string@DU?$char_traits@D@std@@V?$allocator@D@2@@std@@AEAAAEAV01@_KV<lambda_1>@?1???$_Assign@D@01@AEAAAEAV01@QEBD0@Z@PEBD@Z DD imagerel $LN116+307
	DD	imagerel $LN116+313
	DD	imagerel $chain$3$??$_Reallocate_for@V<lambda_1>@?1???$_Assign@D@?$basic_string@DU?$char_traits@D@std@@V?$allocator@D@2@@std@@AEAAAEAV23@QEBD_K@Z@PEBD@?$basic_string@DU?$char_traits@D@std@@V?$allocator@D@2@@std@@AEAAAEAV01@_KV<lambda_1>@?1???$_Assign@D@01@AEAAAEAV01@QEBD0@Z@PEBD@Z
pdata	ENDS
;	COMDAT pdata
pdata	SEGMENT
$pdata$??$_Allocate@$0BA@U_Default_allocate_traits@std@@@std@@YAPEAX_K@Z DD imagerel $LN20
	DD	imagerel $LN20+89
	DD	imagerel $unwind$??$_Allocate@$0BA@U_Default_allocate_traits@std@@@std@@YAPEAX_K@Z
pdata	ENDS
;	COMDAT pdata
pdata	SEGMENT
$pdata$??$_Allocate_manually_vector_aligned@U_Default_allocate_traits@std@@@std@@YAPEAX_K@Z DD imagerel $LN10
	DD	imagerel $LN10+59
	DD	imagerel $unwind$??$_Allocate_manually_vector_aligned@U_Default_allocate_traits@std@@@std@@YAPEAX_K@Z
pdata	ENDS
CRT$XCU	SEGMENT
?minFError$initializer$@vecMathTests@aos@physx@@3P6AXXZEA DQ FLAT:??__EminFError@vecMathTests@aos@physx@@YAXXZ ; physx::aos::vecMathTests::minFError$initializer$
CRT$XCU	ENDS
;	COMDAT __xmm@ba83126fba83126fba83126fba83126f
CONST	SEGMENT
__xmm@ba83126fba83126fba83126fba83126f DB 'o', 012H, 083H, 0baH, 'o', 012H
	DB	083H, 0baH, 'o', 012H, 083H, 0baH, 'o', 012H, 083H, 0baH
CONST	ENDS
;	COMDAT __xmm@3a83126f3a83126f3a83126f3a83126f
CONST	SEGMENT
__xmm@3a83126f3a83126f3a83126f3a83126f DB 'o', 012H, 083H, ':o', 012H, 083H
	DB	':o', 012H, 083H, ':o', 012H, 083H, ':'
CONST	ENDS
;	COMDAT __xmm@00000000ba83126fba83126fba83126f
CONST	SEGMENT
__xmm@00000000ba83126fba83126fba83126f DB 'o', 012H, 083H, 0baH, 'o', 012H
	DB	083H, 0baH, 'o', 012H, 083H, 0baH, 00H, 00H, 00H, 00H
CONST	ENDS
;	COMDAT __xmm@000000003a83126f3a83126f3a83126f
CONST	SEGMENT
__xmm@000000003a83126f3a83126f3a83126f DB 'o', 012H, 083H, ':o', 012H, 083H
	DB	':o', 012H, 083H, ':', 00H, 00H, 00H, 00H
CONST	ENDS
;	COMDAT ??_R1A@?0A@EA@PxDefaultAllocator@physx@@8
rdata$r	SEGMENT
??_R1A@?0A@EA@PxDefaultAllocator@physx@@8 DD imagerel ??_R0?AVPxDefaultAllocator@physx@@@8 ; physx::PxDefaultAllocator::`RTTI Base Class Descriptor at (0,-1,0,64)'
	DD	01H
	DD	00H
	DD	0ffffffffH
	DD	00H
	DD	040H
	DD	imagerel ??_R3PxDefaultAllocator@physx@@8
rdata$r	ENDS
;	COMDAT ??_R2PxDefaultAllocator@physx@@8
rdata$r	SEGMENT
??_R2PxDefaultAllocator@physx@@8 DD imagerel ??_R1A@?0A@EA@PxDefaultAllocator@physx@@8 ; physx::PxDefaultAllocator::`RTTI Base Class Array'
	DD	imagerel ??_R1A@?0A@EA@PxAllocatorCallback@physx@@8
	ORG $+3
rdata$r	ENDS
;	COMDAT ??_R3PxDefaultAllocator@physx@@8
rdata$r	SEGMENT
??_R3PxDefaultAllocator@physx@@8 DD 00H			; physx::PxDefaultAllocator::`RTTI Class Hierarchy Descriptor'
	DD	00H
	DD	02H
	DD	imagerel ??_R2PxDefaultAllocator@physx@@8
rdata$r	ENDS
;	COMDAT ??_R0?AVPxDefaultAllocator@physx@@@8
data$rs	SEGMENT
??_R0?AVPxDefaultAllocator@physx@@@8 DQ FLAT:??_7type_info@@6B@ ; physx::PxDefaultAllocator `RTTI Type Descriptor'
	DQ	0000000000000000H
	DB	'.?AVPxDefaultAllocator@physx@@', 00H
data$rs	ENDS
;	COMDAT ??_R4PxDefaultAllocator@physx@@6B@
rdata$r	SEGMENT
??_R4PxDefaultAllocator@physx@@6B@ DD 01H		; physx::PxDefaultAllocator::`RTTI Complete Object Locator'
	DD	00H
	DD	00H
	DD	imagerel ??_R0?AVPxDefaultAllocator@physx@@@8
	DD	imagerel ??_R3PxDefaultAllocator@physx@@8
	DD	imagerel ??_R4PxDefaultAllocator@physx@@6B@
rdata$r	ENDS
;	COMDAT ??_R1A@?0A@EA@PxAllocatorCallback@physx@@8
rdata$r	SEGMENT
??_R1A@?0A@EA@PxAllocatorCallback@physx@@8 DD imagerel ??_R0?AVPxAllocatorCallback@physx@@@8 ; physx::PxAllocatorCallback::`RTTI Base Class Descriptor at (0,-1,0,64)'
	DD	00H
	DD	00H
	DD	0ffffffffH
	DD	00H
	DD	040H
	DD	imagerel ??_R3PxAllocatorCallback@physx@@8
rdata$r	ENDS
;	COMDAT ??_R2PxAllocatorCallback@physx@@8
rdata$r	SEGMENT
??_R2PxAllocatorCallback@physx@@8 DD imagerel ??_R1A@?0A@EA@PxAllocatorCallback@physx@@8 ; physx::PxAllocatorCallback::`RTTI Base Class Array'
	ORG $+3
rdata$r	ENDS
;	COMDAT ??_R3PxAllocatorCallback@physx@@8
rdata$r	SEGMENT
??_R3PxAllocatorCallback@physx@@8 DD 00H		; physx::PxAllocatorCallback::`RTTI Class Hierarchy Descriptor'
	DD	00H
	DD	01H
	DD	imagerel ??_R2PxAllocatorCallback@physx@@8
rdata$r	ENDS
;	COMDAT ??_R0?AVPxAllocatorCallback@physx@@@8
data$rs	SEGMENT
??_R0?AVPxAllocatorCallback@physx@@@8 DQ FLAT:??_7type_info@@6B@ ; physx::PxAllocatorCallback `RTTI Type Descriptor'
	DQ	0000000000000000H
	DB	'.?AVPxAllocatorCallback@physx@@', 00H
data$rs	ENDS
;	COMDAT ??_R4PxAllocatorCallback@physx@@6B@
rdata$r	SEGMENT
??_R4PxAllocatorCallback@physx@@6B@ DD 01H		; physx::PxAllocatorCallback::`RTTI Complete Object Locator'
	DD	00H
	DD	00H
	DD	imagerel ??_R0?AVPxAllocatorCallback@physx@@@8
	DD	imagerel ??_R3PxAllocatorCallback@physx@@8
	DD	imagerel ??_R4PxAllocatorCallback@physx@@6B@
rdata$r	ENDS
;	COMDAT ??_R4bad_alloc@std@@6B@
rdata$r	SEGMENT
??_R4bad_alloc@std@@6B@ DD 01H				; std::bad_alloc::`RTTI Complete Object Locator'
	DD	00H
	DD	00H
	DD	imagerel ??_R0?AVbad_alloc@std@@@8
	DD	imagerel ??_R3bad_alloc@std@@8
	DD	imagerel ??_R4bad_alloc@std@@6B@
rdata$r	ENDS
;	COMDAT ??_R2bad_alloc@std@@8
rdata$r	SEGMENT
??_R2bad_alloc@std@@8 DD imagerel ??_R1A@?0A@EA@bad_alloc@std@@8 ; std::bad_alloc::`RTTI Base Class Array'
	DD	imagerel ??_R1A@?0A@EA@exception@std@@8
	ORG $+3
rdata$r	ENDS
;	COMDAT ??_R3bad_alloc@std@@8
rdata$r	SEGMENT
??_R3bad_alloc@std@@8 DD 00H				; std::bad_alloc::`RTTI Class Hierarchy Descriptor'
	DD	00H
	DD	02H
	DD	imagerel ??_R2bad_alloc@std@@8
rdata$r	ENDS
;	COMDAT ??_R1A@?0A@EA@bad_alloc@std@@8
rdata$r	SEGMENT
??_R1A@?0A@EA@bad_alloc@std@@8 DD imagerel ??_R0?AVbad_alloc@std@@@8 ; std::bad_alloc::`RTTI Base Class Descriptor at (0,-1,0,64)'
	DD	01H
	DD	00H
	DD	0ffffffffH
	DD	00H
	DD	040H
	DD	imagerel ??_R3bad_alloc@std@@8
rdata$r	ENDS
;	COMDAT ??_R1A@?0A@EA@bad_array_new_length@std@@8
rdata$r	SEGMENT
??_R1A@?0A@EA@bad_array_new_length@std@@8 DD imagerel ??_R0?AVbad_array_new_length@std@@@8 ; std::bad_array_new_length::`RTTI Base Class Descriptor at (0,-1,0,64)'
	DD	02H
	DD	00H
	DD	0ffffffffH
	DD	00H
	DD	040H
	DD	imagerel ??_R3bad_array_new_length@std@@8
rdata$r	ENDS
;	COMDAT ??_R2bad_array_new_length@std@@8
rdata$r	SEGMENT
??_R2bad_array_new_length@std@@8 DD imagerel ??_R1A@?0A@EA@bad_array_new_length@std@@8 ; std::bad_array_new_length::`RTTI Base Class Array'
	DD	imagerel ??_R1A@?0A@EA@bad_alloc@std@@8
	DD	imagerel ??_R1A@?0A@EA@exception@std@@8
	ORG $+3
rdata$r	ENDS
;	COMDAT ??_R3bad_array_new_length@std@@8
rdata$r	SEGMENT
??_R3bad_array_new_length@std@@8 DD 00H			; std::bad_array_new_length::`RTTI Class Hierarchy Descriptor'
	DD	00H
	DD	03H
	DD	imagerel ??_R2bad_array_new_length@std@@8
rdata$r	ENDS
;	COMDAT ??_R4bad_array_new_length@std@@6B@
rdata$r	SEGMENT
??_R4bad_array_new_length@std@@6B@ DD 01H		; std::bad_array_new_length::`RTTI Complete Object Locator'
	DD	00H
	DD	00H
	DD	imagerel ??_R0?AVbad_array_new_length@std@@@8
	DD	imagerel ??_R3bad_array_new_length@std@@8
	DD	imagerel ??_R4bad_array_new_length@std@@6B@
rdata$r	ENDS
;	COMDAT ??_R1A@?0A@EA@exception@std@@8
rdata$r	SEGMENT
??_R1A@?0A@EA@exception@std@@8 DD imagerel ??_R0?AVexception@std@@@8 ; std::exception::`RTTI Base Class Descriptor at (0,-1,0,64)'
	DD	00H
	DD	00H
	DD	0ffffffffH
	DD	00H
	DD	040H
	DD	imagerel ??_R3exception@std@@8
rdata$r	ENDS
;	COMDAT ??_R2exception@std@@8
rdata$r	SEGMENT
??_R2exception@std@@8 DD imagerel ??_R1A@?0A@EA@exception@std@@8 ; std::exception::`RTTI Base Class Array'
	ORG $+3
rdata$r	ENDS
;	COMDAT ??_R3exception@std@@8
rdata$r	SEGMENT
??_R3exception@std@@8 DD 00H				; std::exception::`RTTI Class Hierarchy Descriptor'
	DD	00H
	DD	01H
	DD	imagerel ??_R2exception@std@@8
rdata$r	ENDS
;	COMDAT ??_R4exception@std@@6B@
rdata$r	SEGMENT
??_R4exception@std@@6B@ DD 01H				; std::exception::`RTTI Complete Object Locator'
	DD	00H
	DD	00H
	DD	imagerel ??_R0?AVexception@std@@@8
	DD	imagerel ??_R3exception@std@@8
	DD	imagerel ??_R4exception@std@@6B@
rdata$r	ENDS
;	COMDAT ??_C@_1BK@MHIKGOKE@?$AA?3?$AAA?$AAM?$AA?3?$AAa?$AAm?$AA?3?$AAP?$AAM?$AA?3?$AAp?$AAm@
CONST	SEGMENT
??_C@_1BK@MHIKGOKE@?$AA?3?$AAA?$AAM?$AA?3?$AAa?$AAm?$AA?3?$AAP?$AAM?$AA?3?$AAp?$AAm@ DB ':'
	DB	00H, 'A', 00H, 'M', 00H, ':', 00H, 'a', 00H, 'm', 00H, ':', 00H
	DB	'P', 00H, 'M', 00H, ':', 00H, 'p', 00H, 'm', 00H, 00H, 00H ; `string'
CONST	ENDS
;	COMDAT ??_C@_0CE@DBCKMAIM@?$FLDEBUG?$FN?5Main?5loop?5ended?4?5wannaE@
CONST	SEGMENT
??_C@_0CE@DBCKMAIM@?$FLDEBUG?$FN?5Main?5loop?5ended?4?5wannaE@ DB '[DEBUG'
	DB	'] Main loop ended. wannaExit=', 00H		; `string'
CONST	ENDS
;	COMDAT ??_C@_0BE@GKCGIABO@?5windowShouldClose?$DN@
CONST	SEGMENT
??_C@_0BE@GKCGIABO@?5windowShouldClose?$DN@ DB ' windowShouldClose=', 00H ; `string'
CONST	ENDS
;	COMDAT ??_C@_09KJHLHIEH@Baseplate@
CONST	SEGMENT
??_C@_09KJHLHIEH@Baseplate@ DB 'Baseplate', 00H		; `string'
CONST	ENDS
;	COMDAT ??_C@_0L@MMCGBOKB@TestScript@
CONST	SEGMENT
??_C@_0L@MMCGBOKB@TestScript@ DB 'TestScript', 00H	; `string'
CONST	ENDS
;	COMDAT ??_C@_0BC@NEBLDNOE@scripts?1test?4luau@
CONST	SEGMENT
??_C@_0BC@NEBLDNOE@scripts?1test?4luau@ DB 'scripts/test.luau', 00H ; `string'
CONST	ENDS
;	COMDAT ??_C@_09EJBLCMLC@workspace@
CONST	SEGMENT
??_C@_09EJBLCMLC@workspace@ DB 'workspace', 00H		; `string'
CONST	ENDS
;	COMDAT ??_C@_06GCDENNFF@Floppa@
CONST	SEGMENT
??_C@_06GCDENNFF@Floppa@ DB 'Floppa', 00H		; `string'
CONST	ENDS
;	COMDAT ??_C@_05GGOIJPPE@Green@
CONST	SEGMENT
??_C@_05GGOIJPPE@Green@ DB 'Green', 00H			; `string'
CONST	ENDS
;	COMDAT ??_C@_03PADCEAKC@Red@
CONST	SEGMENT
??_C@_03PADCEAKC@Red@ DB 'Red', 00H			; `string'
CONST	ENDS
;	COMDAT ??_C@_04CAKOHOCJ@Blue@
CONST	SEGMENT
??_C@_04CAKOHOCJ@Blue@ DB 'Blue', 00H			; `string'
CONST	ENDS
;	COMDAT ??_C@_0BO@LEENDELH@assets?1image?1Limabis_logo?4png@
CONST	SEGMENT
??_C@_0BO@LEENDELH@assets?1image?1Limabis_logo?4png@ DB 'assets/image/Lim'
	DB	'abis_logo.png', 00H				; `string'
CONST	ENDS
;	COMDAT ??_C@_0BH@PHFEJDFH@assets?1image?1bliss?4jpg@
CONST	SEGMENT
??_C@_0BH@PHFEJDFH@assets?1image?1bliss?4jpg@ DB 'assets/image/bliss.jpg', 00H ; `string'
CONST	ENDS
;	COMDAT ??_C@_0BH@EFEGFJOC@assets?1image?1smile?4png@
CONST	SEGMENT
??_C@_0BH@EFEGFJOC@assets?1image?1smile?4png@ DB 'assets/image/smile.png', 00H ; `string'
CONST	ENDS
;	COMDAT ??_C@_0BL@HFFFDACB@assets?1image?1salad?9cat?4jpg@
CONST	SEGMENT
??_C@_0BL@HFFFDACB@assets?1image?1salad?9cat?4jpg@ DB 'assets/image/salad'
	DB	'-cat.jpg', 00H				; `string'
CONST	ENDS
;	COMDAT ??_C@_0BJ@LKJAONFL@assets?1image?1the?9cat?4png@
CONST	SEGMENT
??_C@_0BJ@LKJAONFL@assets?1image?1the?9cat?4png@ DB 'assets/image/the-cat'
	DB	'.png', 00H					; `string'
CONST	ENDS
;	COMDAT ??_C@_0BM@PAPOLKLO@assets?1image?1floppa2048?4jpg@
CONST	SEGMENT
??_C@_0BM@PAPOLKLO@assets?1image?1floppa2048?4jpg@ DB 'assets/image/flopp'
	DB	'a2048.jpg', 00H				; `string'
CONST	ENDS
;	COMDAT ??_C@_0BK@HFNBFIKJ@?$FLERROR?$FN?5Failed?5to?5setup?4?6@
CONST	SEGMENT
??_C@_0BK@HFNBFIKJ@?$FLERROR?$FN?5Failed?5to?5setup?4?6@ DB '[ERROR] Fail'
	DB	'ed to setup.', 0aH, 00H			; `string'
CONST	ENDS
;	COMDAT ??_C@_0O@CMJEMIJA@Hello?5world?$CB?6@
CONST	SEGMENT
??_C@_0O@CMJEMIJA@Hello?5world?$CB?6@ DB 'Hello world!', 0aH, 00H ; `string'
CONST	ENDS
;	COMDAT ??_C@_0O@JMNGOOAA@Version?50?466?6@
CONST	SEGMENT
??_C@_0O@JMNGOOAA@Version?50?466?6@ DB 'Version 0.66', 0aH, 00H ; `string'
CONST	ENDS
;	COMDAT ??_C@_0BC@GILIDJKH@GLEW?5init?5failed?6@
CONST	SEGMENT
??_C@_0BC@GILIDJKH@GLEW?5init?5failed?6@ DB 'GLEW init failed', 0aH, 00H ; `string'
CONST	ENDS
;	COMDAT ??_C@_0BB@LBOBDGFB@initing?5GLEW?4?4?4?6@
CONST	SEGMENT
??_C@_0BB@LBOBDGFB@initing?5GLEW?4?4?4?6@ DB 'initing GLEW...', 0aH, 00H ; `string'
CONST	ENDS
;	COMDAT ??_C@_0BD@HJCBHOLF@making?5context?4?4?4?6@
CONST	SEGMENT
??_C@_0BD@HJCBHOLF@making?5context?4?4?4?6@ DB 'making context...', 0aH, 00H ; `string'
CONST	ENDS
;	COMDAT ??_C@_0BI@MEMILFDL@Window?5creation?5failed?6@
CONST	SEGMENT
??_C@_0BI@MEMILFDL@Window?5creation?5failed?6@ DB 'Window creation failed'
	DB	0aH, 00H					; `string'
CONST	ENDS
;	COMDAT ??_C@_0BD@FCNEPOEO@Welcome?5to?5Recubin@
CONST	SEGMENT
??_C@_0BD@FCNEPOEO@Welcome?5to?5Recubin@ DB 'Welcome to Recubin', 00H ; `string'
CONST	ENDS
;	COMDAT ??_C@_0BE@DPHBGMBN@creating?5window?4?4?4?6@
CONST	SEGMENT
??_C@_0BE@DPHBGMBN@creating?5window?4?4?4?6@ DB 'creating window...', 0aH
	DB	00H						; `string'
CONST	ENDS
;	COMDAT ??_C@_0BC@EBHAINFF@GLFW?5init?5failed?6@
CONST	SEGMENT
??_C@_0BC@EBHAINFF@GLFW?5init?5failed?6@ DB 'GLFW init failed', 0aH, 00H ; `string'
CONST	ENDS
;	COMDAT ??_C@_0BB@IAAJCMMM@initing?5GLFW?4?4?4?6@
CONST	SEGMENT
??_C@_0BB@IAAJCMMM@initing?5GLFW?4?4?4?6@ DB 'initing GLFW...', 0aH, 00H ; `string'
CONST	ENDS
;	COMDAT ??_7PxDefaultAllocator@physx@@6B@
CONST	SEGMENT
??_7PxDefaultAllocator@physx@@6B@ DQ FLAT:??_R4PxDefaultAllocator@physx@@6B@ ; physx::PxDefaultAllocator::`vftable'
	DQ	FLAT:??_EPxDefaultAllocator@physx@@UEAAPEAXI@Z
	DQ	FLAT:?allocate@PxDefaultAllocator@physx@@UEAAPEAX_KPEBD1H@Z
	DQ	FLAT:?deallocate@PxDefaultAllocator@physx@@UEAAXPEAX@Z
CONST	ENDS
;	COMDAT ??_7PxAllocatorCallback@physx@@6B@
CONST	SEGMENT
??_7PxAllocatorCallback@physx@@6B@ DQ FLAT:??_R4PxAllocatorCallback@physx@@6B@ ; physx::PxAllocatorCallback::`vftable'
	DQ	FLAT:??_EPxAllocatorCallback@physx@@UEAAPEAXI@Z
	DQ	FLAT:_purecall
	DQ	FLAT:_purecall
CONST	ENDS
;	COMDAT ??_C@_0BA@JFNIOLAK@string?5too?5long@
CONST	SEGMENT
??_C@_0BA@JFNIOLAK@string?5too?5long@ DB 'string too long', 00H ; `string'
CONST	ENDS
;	COMDAT _CT??_R0?AVbad_alloc@std@@@8??0bad_alloc@std@@QEAA@AEBV01@@Z24
xdata$x	SEGMENT
_CT??_R0?AVbad_alloc@std@@@8??0bad_alloc@std@@QEAA@AEBV01@@Z24 DD 010H
	DD	imagerel ??_R0?AVbad_alloc@std@@@8
	DD	00H
	DD	0ffffffffH
	ORG $+4
	DD	018H
	DD	imagerel ??0bad_alloc@std@@QEAA@AEBV01@@Z
xdata$x	ENDS
;	COMDAT ??_R0?AVbad_alloc@std@@@8
data$r	SEGMENT
??_R0?AVbad_alloc@std@@@8 DQ FLAT:??_7type_info@@6B@	; std::bad_alloc `RTTI Type Descriptor'
	DQ	0000000000000000H
	DB	'.?AVbad_alloc@std@@', 00H
data$r	ENDS
;	COMDAT _CT??_R0?AVbad_array_new_length@std@@@8??0bad_array_new_length@std@@QEAA@AEBV01@@Z24
xdata$x	SEGMENT
_CT??_R0?AVbad_array_new_length@std@@@8??0bad_array_new_length@std@@QEAA@AEBV01@@Z24 DD 00H
	DD	imagerel ??_R0?AVbad_array_new_length@std@@@8
	DD	00H
	DD	0ffffffffH
	ORG $+4
	DD	018H
	DD	imagerel ??0bad_array_new_length@std@@QEAA@AEBV01@@Z
xdata$x	ENDS
;	COMDAT ??_R0?AVbad_array_new_length@std@@@8
data$r	SEGMENT
??_R0?AVbad_array_new_length@std@@@8 DQ FLAT:??_7type_info@@6B@ ; std::bad_array_new_length `RTTI Type Descriptor'
	DQ	0000000000000000H
	DB	'.?AVbad_array_new_length@std@@', 00H
data$r	ENDS
;	COMDAT _CTA3?AVbad_array_new_length@std@@
xdata$x	SEGMENT
_CTA3?AVbad_array_new_length@std@@ DD 03H
	DD	imagerel _CT??_R0?AVbad_array_new_length@std@@@8??0bad_array_new_length@std@@QEAA@AEBV01@@Z24
	DD	imagerel _CT??_R0?AVbad_alloc@std@@@8??0bad_alloc@std@@QEAA@AEBV01@@Z24
	DD	imagerel _CT??_R0?AVexception@std@@@8??0exception@std@@QEAA@AEBV01@@Z24
xdata$x	ENDS
;	COMDAT _TI3?AVbad_array_new_length@std@@
xdata$x	SEGMENT
_TI3?AVbad_array_new_length@std@@ DD 00H
	DD	imagerel ??1bad_array_new_length@std@@UEAA@XZ
	DD	00H
	DD	imagerel _CTA3?AVbad_array_new_length@std@@
xdata$x	ENDS
;	COMDAT _CT??_R0?AVexception@std@@@8??0exception@std@@QEAA@AEBV01@@Z24
xdata$x	SEGMENT
_CT??_R0?AVexception@std@@@8??0exception@std@@QEAA@AEBV01@@Z24 DD 00H
	DD	imagerel ??_R0?AVexception@std@@@8
	DD	00H
	DD	0ffffffffH
	ORG $+4
	DD	018H
	DD	imagerel ??0exception@std@@QEAA@AEBV01@@Z
xdata$x	ENDS
;	COMDAT ??_R0?AVexception@std@@@8
data$r	SEGMENT
??_R0?AVexception@std@@@8 DQ FLAT:??_7type_info@@6B@	; std::exception `RTTI Type Descriptor'
	DQ	0000000000000000H
	DB	'.?AVexception@std@@', 00H
data$r	ENDS
;	COMDAT ??_C@_0BF@KINCDENJ@bad?5array?5new?5length@
CONST	SEGMENT
??_C@_0BF@KINCDENJ@bad?5array?5new?5length@ DB 'bad array new length', 00H ; `string'
CONST	ENDS
;	COMDAT ??_7bad_array_new_length@std@@6B@
CONST	SEGMENT
??_7bad_array_new_length@std@@6B@ DQ FLAT:??_R4bad_array_new_length@std@@6B@ ; std::bad_array_new_length::`vftable'
	DQ	FLAT:??_Ebad_array_new_length@std@@UEAAPEAXI@Z
	DQ	FLAT:?what@exception@std@@UEBAPEBDXZ
CONST	ENDS
;	COMDAT ??_7bad_alloc@std@@6B@
CONST	SEGMENT
??_7bad_alloc@std@@6B@ DQ FLAT:??_R4bad_alloc@std@@6B@	; std::bad_alloc::`vftable'
	DQ	FLAT:??_Ebad_alloc@std@@UEAAPEAXI@Z
	DQ	FLAT:?what@exception@std@@UEBAPEBDXZ
CONST	ENDS
;	COMDAT ??_C@_0BC@EOODALEL@Unknown?5exception@
CONST	SEGMENT
??_C@_0BC@EOODALEL@Unknown?5exception@ DB 'Unknown exception', 00H ; `string'
CONST	ENDS
;	COMDAT ??_7exception@std@@6B@
CONST	SEGMENT
??_7exception@std@@6B@ DQ FLAT:??_R4exception@std@@6B@	; std::exception::`vftable'
	DQ	FLAT:??_Eexception@std@@UEAAPEAXI@Z
	DQ	FLAT:?what@exception@std@@UEBAPEBDXZ
CONST	ENDS
;	COMDAT xdata
xdata	SEGMENT
$unwind$??$_Allocate_manually_vector_aligned@U_Default_allocate_traits@std@@@std@@YAPEAX_K@Z DD 010401H
	DD	04204H
xdata	ENDS
;	COMDAT xdata
xdata	SEGMENT
$unwind$??$_Allocate@$0BA@U_Default_allocate_traits@std@@@std@@YAPEAX_K@Z DD 010401H
	DD	04204H
xdata	ENDS
;	COMDAT xdata
xdata	SEGMENT
$chain$3$??$_Reallocate_for@V<lambda_1>@?1???$_Assign@D@?$basic_string@DU?$char_traits@D@std@@V?$allocator@D@2@@std@@AEAAAEAV23@QEBD_K@Z@PEBD@?$basic_string@DU?$char_traits@D@std@@V?$allocator@D@2@@std@@AEAAAEAV01@_KV<lambda_1>@?1???$_Assign@D@01@AEAAAEAV01@QEBD0@Z@PEBD@Z DD 040021H
	DD	096400H
	DD	085400H
	DD	imagerel $LN116
	DD	imagerel $LN116+42
	DD	imagerel $unwind$??$_Reallocate_for@V<lambda_1>@?1???$_Assign@D@?$basic_string@DU?$char_traits@D@std@@V?$allocator@D@2@@std@@AEAAAEAV23@QEBD_K@Z@PEBD@?$basic_string@DU?$char_traits@D@std@@V?$allocator@D@2@@std@@AEAAAEAV01@_KV<lambda_1>@?1???$_Assign@D@01@AEAAAEAV01@QEBD0@Z@PEBD@Z
xdata	ENDS
;	COMDAT xdata
xdata	SEGMENT
$chain$2$??$_Reallocate_for@V<lambda_1>@?1???$_Assign@D@?$basic_string@DU?$char_traits@D@std@@V?$allocator@D@2@@std@@AEAAAEAV23@QEBD_K@Z@PEBD@?$basic_string@DU?$char_traits@D@std@@V?$allocator@D@2@@std@@AEAAAEAV01@_KV<lambda_1>@?1???$_Assign@D@01@AEAAAEAV01@QEBD0@Z@PEBD@Z DD 021H
	DD	imagerel $LN116
	DD	imagerel $LN116+42
	DD	imagerel $unwind$??$_Reallocate_for@V<lambda_1>@?1???$_Assign@D@?$basic_string@DU?$char_traits@D@std@@V?$allocator@D@2@@std@@AEAAAEAV23@QEBD_K@Z@PEBD@?$basic_string@DU?$char_traits@D@std@@V?$allocator@D@2@@std@@AEAAAEAV01@_KV<lambda_1>@?1???$_Assign@D@01@AEAAAEAV01@QEBD0@Z@PEBD@Z
xdata	ENDS
;	COMDAT xdata
xdata	SEGMENT
$chain$1$??$_Reallocate_for@V<lambda_1>@?1???$_Assign@D@?$basic_string@DU?$char_traits@D@std@@V?$allocator@D@2@@std@@AEAAAEAV23@QEBD_K@Z@PEBD@?$basic_string@DU?$char_traits@D@std@@V?$allocator@D@2@@std@@AEAAAEAV01@_KV<lambda_1>@?1???$_Assign@D@01@AEAAAEAV01@QEBD0@Z@PEBD@Z DD 041521H
	DD	096415H
	DD	085405H
	DD	imagerel $LN116
	DD	imagerel $LN116+42
	DD	imagerel $unwind$??$_Reallocate_for@V<lambda_1>@?1???$_Assign@D@?$basic_string@DU?$char_traits@D@std@@V?$allocator@D@2@@std@@AEAAAEAV23@QEBD_K@Z@PEBD@?$basic_string@DU?$char_traits@D@std@@V?$allocator@D@2@@std@@AEAAAEAV01@_KV<lambda_1>@?1???$_Assign@D@01@AEAAAEAV01@QEBD0@Z@PEBD@Z
xdata	ENDS
;	COMDAT xdata
xdata	SEGMENT
$unwind$??$_Reallocate_for@V<lambda_1>@?1???$_Assign@D@?$basic_string@DU?$char_traits@D@std@@V?$allocator@D@2@@std@@AEAAAEAV23@QEBD_K@Z@PEBD@?$basic_string@DU?$char_traits@D@std@@V?$allocator@D@2@@std@@AEAAAEAV01@_KV<lambda_1>@?1???$_Assign@D@01@AEAAAEAV01@QEBD0@Z@PEBD@Z DD 060e01H
	DD	0a340eH
	DD	0f00a320eH
	DD	07006e008H
xdata	ENDS
;	COMDAT xdata
xdata	SEGMENT
$unwind$??R<lambda_1>@?1???$_Assign@D@?$basic_string@DU?$char_traits@D@std@@V?$allocator@D@2@@std@@AEAAAEAV12@QEBD_K@Z@SA@QEAD10@Z DD 040a01H
	DD	06340aH
	DD	07006320aH
xdata	ENDS
;	COMDAT xdata
xdata	SEGMENT
$chain$2$??$_Assign@D@?$basic_string@DU?$char_traits@D@std@@V?$allocator@D@2@@std@@AEAAAEAV01@QEBD_K@Z DD 020021H
	DD	08e400H
	DD	imagerel $LN170
	DD	imagerel $LN170+93
	DD	imagerel $unwind$??$_Assign@D@?$basic_string@DU?$char_traits@D@std@@V?$allocator@D@2@@std@@AEAAAEAV01@QEBD_K@Z
xdata	ENDS
;	COMDAT xdata
xdata	SEGMENT
$chain$1$??$_Assign@D@?$basic_string@DU?$char_traits@D@std@@V?$allocator@D@2@@std@@AEAAAEAV01@QEBD_K@Z DD 021H
	DD	imagerel $LN170
	DD	imagerel $LN170+93
	DD	imagerel $unwind$??$_Assign@D@?$basic_string@DU?$char_traits@D@std@@V?$allocator@D@2@@std@@AEAAAEAV01@QEBD_K@Z
xdata	ENDS
;	COMDAT xdata
xdata	SEGMENT
$chain$0$??$_Assign@D@?$basic_string@DU?$char_traits@D@std@@V?$allocator@D@2@@std@@AEAAAEAV01@QEBD_K@Z DD 020521H
	DD	08e405H
	DD	imagerel $LN170
	DD	imagerel $LN170+93
	DD	imagerel $unwind$??$_Assign@D@?$basic_string@DU?$char_traits@D@std@@V?$allocator@D@2@@std@@AEAAAEAV01@QEBD_K@Z
xdata	ENDS
;	COMDAT xdata
xdata	SEGMENT
$unwind$??$_Assign@D@?$basic_string@DU?$char_traits@D@std@@V?$allocator@D@2@@std@@AEAAAEAV01@QEBD_K@Z DD 081201H
	DD	0a5412H
	DD	093412H
	DD	0f00e3212H
	DD	0600b700cH
xdata	ENDS
;	COMDAT xdata
xdata	SEGMENT
$unwind$??$_Allocate_at_least_helper@V?$allocator@D@std@@@std@@YAPEADAEAV?$allocator@D@0@AEA_K@Z DD 010401H
	DD	04204H
xdata	ENDS
;	COMDAT xdata
xdata	SEGMENT
$unwind$??$_Allocate_for_capacity@$0A@@?$basic_string@DU?$char_traits@D@std@@V?$allocator@D@2@@std@@CAPEADAEAV?$allocator@D@1@AEA_K@Z DD 020601H
	DD	030023206H
xdata	ENDS
;	COMDAT xdata
xdata	SEGMENT
$chain$2$??$_Construct@$00PEBD@?$basic_string@DU?$char_traits@D@std@@V?$allocator@D@2@@std@@AEAAXQEBD_K@Z DD 020021H
	DD	0a7400H
	DD	imagerel $LN108
	DD	imagerel $LN108+79
	DD	imagerel $unwind$??$_Construct@$00PEBD@?$basic_string@DU?$char_traits@D@std@@V?$allocator@D@2@@std@@AEAAXQEBD_K@Z
xdata	ENDS
;	COMDAT xdata
xdata	SEGMENT
$chain$1$??$_Construct@$00PEBD@?$basic_string@DU?$char_traits@D@std@@V?$allocator@D@2@@std@@AEAAXQEBD_K@Z DD 021H
	DD	imagerel $LN108
	DD	imagerel $LN108+79
	DD	imagerel $unwind$??$_Construct@$00PEBD@?$basic_string@DU?$char_traits@D@std@@V?$allocator@D@2@@std@@AEAAXQEBD_K@Z
xdata	ENDS
;	COMDAT xdata
xdata	SEGMENT
$chain$0$??$_Construct@$00PEBD@?$basic_string@DU?$char_traits@D@std@@V?$allocator@D@2@@std@@AEAAXQEBD_K@Z DD 020521H
	DD	0a7405H
	DD	imagerel $LN108
	DD	imagerel $LN108+79
	DD	imagerel $unwind$??$_Construct@$00PEBD@?$basic_string@DU?$char_traits@D@std@@V?$allocator@D@2@@std@@AEAAXQEBD_K@Z
xdata	ENDS
;	COMDAT xdata
xdata	SEGMENT
$unwind$??$_Construct@$00PEBD@?$basic_string@DU?$char_traits@D@std@@V?$allocator@D@2@@std@@AEAAXQEBD_K@Z DD 050a01H
	DD	0e006420aH
	DD	050036004H
	DD	03002H
xdata	ENDS
;	COMDAT xdata
xdata	SEGMENT
$unwind$??$endl@DU?$char_traits@D@std@@@std@@YAAEAV?$basic_ostream@DU?$char_traits@D@std@@@0@AEAV10@@Z DD 020601H
	DD	030023206H
xdata	ENDS
;	COMDAT xdata
xdata	SEGMENT
$unwind$main$dtor$11 DD 020601H
	DD	050023206H
xdata	ENDS
;	COMDAT xdata
xdata	SEGMENT
$unwind$main$dtor$9 DD 020601H
	DD	050023206H
xdata	ENDS
;	COMDAT xdata
xdata	SEGMENT
$unwind$main$dtor$7 DD 020601H
	DD	050023206H
xdata	ENDS
;	COMDAT xdata
xdata	SEGMENT
$unwind$main$dtor$6 DD 020601H
	DD	050023206H
xdata	ENDS
;	COMDAT xdata
xdata	SEGMENT
$unwind$main$dtor$5 DD 020601H
	DD	050023206H
xdata	ENDS
;	COMDAT xdata
xdata	SEGMENT
$unwind$main$dtor$4 DD 020601H
	DD	050023206H
xdata	ENDS
;	COMDAT xdata
xdata	SEGMENT
$ip2state$main DB ','
	DB	092H
	DB	00H
	DB	08dH, 04H
	DB	02H
	DB	'8'
	DB	04H
	DB	','
	DB	06H
	DB	014H
	DB	08H
	DB	'Q', 02H
	DB	0aH
	DB	'4'
	DB	0cH
	DB	08eH
	DB	0aH
	DB	0a2H
	DB	0eH
	DB	096H
	DB	0aH
	DB	0a2H
	DB	010H
	DB	0a4H
	DB	0aH
	DB	0a2H
	DB	012H
	DB	096H
	DB	0aH
	DB	0d9H, 03H
	DB	014H
	DB	','
	DB	0aH
	DB	0c6H
	DB	016H
	DB	0c0H
	DB	0aH
	DB	'h'
	DB	018H
	DB	0a6H
	DB	0aH
	DB	'5', 05H
	DB	08H
	DB	0e1H, 03H
	DB	00H
xdata	ENDS
;	COMDAT xdata
xdata	SEGMENT
$stateUnwindMap$main DB 018H
	DB	0aH
	DD	imagerel ??1Renderer@@QEAA@XZ
	DB	0e0H
	DB	036H
	DD	imagerel main$dtor$13
	DB	05aH
	DD	imagerel ??1Physics@@QEAA@XZ
	DB	081H
	DB	02H
	DB	03aH
	DD	imagerel ??1LuauEngine@@QEAA@XZ
	DB	0b0H
	DB	032H
	DD	imagerel ??1Workspace@@UEAA@XZ
	DB	01H
	DB	06H
	DB	03eH
	DD	imagerel main$dtor$4
	DB	066H
	DD	imagerel main$dtor$5
	DB	08eH
	DD	imagerel main$dtor$6
	DB	0b6H
	DD	imagerel main$dtor$7
	DB	0daH
	DD	imagerel ??1?$basic_string@DU?$char_traits@D@std@@V?$allocator@D@2@@std@@QEAA@XZ
	DB	081H
	DB	05H
	DB	02dH
	DB	02H
	DD	imagerel main$dtor$9
	DB	08dH
	DB	02H
	DD	imagerel main$dtor$11
xdata	ENDS
;	COMDAT xdata
xdata	SEGMENT
$cppxdata$main DB 028H
	DD	imagerel $stateUnwindMap$main
	DD	imagerel $ip2state$main
xdata	ENDS
;	COMDAT xdata
xdata	SEGMENT
$unwind$main DD	0103b19H
	DD	024882aH
	DD	0257825H
	DD	0266821H
	DD	04f011dH
	DD	0e00df00fH
	DD	0c009d00bH
	DD	060067007H
	DD	050043005H
	DD	imagerel __GSHandlerCheck_EH4
	DD	imagerel $cppxdata$main
	DD	0232H
xdata	ENDS
;	COMDAT voltbl
voltbl	SEGMENT
_volmd	DB	00H
voltbl	ENDS
;	COMDAT xdata
xdata	SEGMENT
$unwind$?catch$4@?0???$?6U?$char_traits@D@std@@@std@@YAAEAV?$basic_ostream@DU?$char_traits@D@std@@@0@AEAV10@PEBD@Z@4HA DD 020a01H
	DD	05006320aH
xdata	ENDS
;	COMDAT xdata
xdata	SEGMENT
$ip2state$??$?6U?$char_traits@D@std@@@std@@YAAEAV?$basic_ostream@DU?$char_traits@D@std@@@0@AEAV10@PEBD@Z DB 0cH
	DB	'm', 02H
	DB	00H
	DB	'v'
	DB	02H
	DB	0f2H
	DB	06H
	DB	'9', 02H
	DB	04H
	DB	'L'
	DB	00H
	DB	'\'
	DB	0aH
xdata	ENDS
;	COMDAT xdata
xdata	SEGMENT
$handlerMap$??$?6U?$char_traits@D@std@@@std@@YAAEAV?$basic_ostream@DU?$char_traits@D@std@@@0@AEAV10@PEBD@Z DB 02H
	DB	011H
	DB	080H
	DD	imagerel ?catch$4@?0???$?6U?$char_traits@D@std@@@std@@YAAEAV?$basic_ostream@DU?$char_traits@D@std@@@0@AEAV10@PEBD@Z@4HA
	DB	'}', 07H
xdata	ENDS
;	COMDAT xdata
xdata	SEGMENT
$tryMap$??$?6U?$char_traits@D@std@@@std@@YAAEAV?$basic_ostream@DU?$char_traits@D@std@@@0@AEAV10@PEBD@Z DB 02H
	DB	04H
	DB	04H
	DB	06H
	DD	imagerel $handlerMap$??$?6U?$char_traits@D@std@@@std@@YAAEAV?$basic_ostream@DU?$char_traits@D@std@@@0@AEAV10@PEBD@Z
xdata	ENDS
;	COMDAT xdata
xdata	SEGMENT
$stateUnwindMap$??$?6U?$char_traits@D@std@@@std@@YAAEAV?$basic_ostream@DU?$char_traits@D@std@@@0@AEAV10@PEBD@Z DB 0aH
	DB	0aH
	DD	imagerel ??1_Sentry_base@?$basic_ostream@DU?$char_traits@D@std@@@std@@QEAA@XZ
	DB	040H
	DB	03aH
	DD	imagerel ??1sentry@?$basic_ostream@DU?$char_traits@D@std@@@std@@QEAA@XZ
	DB	040H
	DB	030H
	DB	038H
	DB	07eH
	DD	imagerel __std_terminate
xdata	ENDS
;	COMDAT xdata
xdata	SEGMENT
$cppxdata$??$?6U?$char_traits@D@std@@@std@@YAAEAV?$basic_ostream@DU?$char_traits@D@std@@@0@AEAV10@PEBD@Z DB 038H
	DD	imagerel $stateUnwindMap$??$?6U?$char_traits@D@std@@@std@@YAAEAV?$basic_ostream@DU?$char_traits@D@std@@@0@AEAV10@PEBD@Z
	DD	imagerel $tryMap$??$?6U?$char_traits@D@std@@@std@@YAAEAV?$basic_ostream@DU?$char_traits@D@std@@@0@AEAV10@PEBD@Z
	DD	imagerel $ip2state$??$?6U?$char_traits@D@std@@@std@@YAAEAV?$basic_ostream@DU?$char_traits@D@std@@@0@AEAV10@PEBD@Z
xdata	ENDS
;	COMDAT xdata
xdata	SEGMENT
$unwind$??$?6U?$char_traits@D@std@@@std@@YAAEAV?$basic_ostream@DU?$char_traits@D@std@@@0@AEAV10@PEBD@Z DD 0a1c19H
	DD	0f641cH
	DD	0d341cH
	DD	0f018521cH
	DD	0d014e016H
	DD	07010c012H
	DD	imagerel __CxxFrameHandler4
	DD	imagerel $cppxdata$??$?6U?$char_traits@D@std@@@std@@YAAEAV?$basic_ostream@DU?$char_traits@D@std@@@0@AEAV10@PEBD@Z
xdata	ENDS
;	COMDAT xdata
xdata	SEGMENT
$chain$4$?setupWindow@@YAPEAUGLFWwindow@@XZ DD 020021H
	DD	063400H
	DD	imagerel $LN11
	DD	imagerel $LN11+65
	DD	imagerel $unwind$?setupWindow@@YAPEAUGLFWwindow@@XZ
xdata	ENDS
;	COMDAT xdata
xdata	SEGMENT
$chain$2$?setupWindow@@YAPEAUGLFWwindow@@XZ DD 020021H
	DD	063400H
	DD	imagerel $LN11
	DD	imagerel $LN11+65
	DD	imagerel $unwind$?setupWindow@@YAPEAUGLFWwindow@@XZ
xdata	ENDS
;	COMDAT xdata
xdata	SEGMENT
$chain$0$?setupWindow@@YAPEAUGLFWwindow@@XZ DD 020521H
	DD	063405H
	DD	imagerel $LN11
	DD	imagerel $LN11+65
	DD	imagerel $unwind$?setupWindow@@YAPEAUGLFWwindow@@XZ
xdata	ENDS
;	COMDAT xdata
xdata	SEGMENT
$unwind$?setupWindow@@YAPEAUGLFWwindow@@XZ DD 010401H
	DD	06204H
xdata	ENDS
;	COMDAT xdata
xdata	SEGMENT
$unwind$?_Tidy@?$vector@IV?$allocator@I@std@@@std@@AEAAXXZ DD 020601H
	DD	030023206H
xdata	ENDS
;	COMDAT xdata
xdata	SEGMENT
$unwind$??1?$vector@IV?$allocator@I@std@@@std@@QEAA@XZ DD 020601H
	DD	030023206H
xdata	ENDS
;	COMDAT xdata
xdata	SEGMENT
$unwind$??1Physics@@QEAA@XZ DD 020601H
	DD	030023206H
xdata	ENDS
;	COMDAT xdata
xdata	SEGMENT
$ip2state$??0Physics@@QEAA@XZ DB 02H
	DB	'd'
	DB	02H
xdata	ENDS
;	COMDAT xdata
xdata	SEGMENT
$stateUnwindMap$??0Physics@@QEAA@XZ DB 02H
	DB	0eH
	DD	imagerel ?dtor$0@?0???0Physics@@QEAA@XZ@4HA
xdata	ENDS
;	COMDAT xdata
xdata	SEGMENT
$cppxdata$??0Physics@@QEAA@XZ DB 028H
	DD	imagerel $stateUnwindMap$??0Physics@@QEAA@XZ
	DD	imagerel $ip2state$??0Physics@@QEAA@XZ
xdata	ENDS
;	COMDAT xdata
xdata	SEGMENT
$unwind$??0Physics@@QEAA@XZ DD 040f11H
	DD	07340fH
	DD	0700b320fH
	DD	imagerel __CxxFrameHandler4
	DD	imagerel $cppxdata$??0Physics@@QEAA@XZ
xdata	ENDS
;	COMDAT xdata
xdata	SEGMENT
$unwind$?_Tidy@?$vector@PEAVBaseCube@@V?$allocator@PEAVBaseCube@@@std@@@std@@AEAAXXZ DD 020601H
	DD	030023206H
xdata	ENDS
;	COMDAT xdata
xdata	SEGMENT
$unwind$??1?$vector@PEAVBaseCube@@V?$allocator@PEAVBaseCube@@@std@@@std@@QEAA@XZ DD 020601H
	DD	030023206H
xdata	ENDS
;	COMDAT xdata
xdata	SEGMENT
$unwind$??_GPxDefaultAllocator@physx@@UEAAPEAXI@Z DD 020601H
	DD	030023206H
xdata	ENDS
;	COMDAT xdata
xdata	SEGMENT
$unwind$??_GPxAllocatorCallback@physx@@UEAAPEAXI@Z DD 020601H
	DD	030023206H
xdata	ENDS
;	COMDAT xdata
xdata	SEGMENT
$unwind$??1Workspace@@UEAA@XZ DD 020601H
	DD	030023206H
xdata	ENDS
;	COMDAT xdata
xdata	SEGMENT
$unwind$?_Tidy@?$vector@PEAVInstance@@V?$allocator@PEAVInstance@@@std@@@std@@AEAAXXZ DD 020601H
	DD	030023206H
xdata	ENDS
;	COMDAT xdata
xdata	SEGMENT
$unwind$??1?$vector@PEAVInstance@@V?$allocator@PEAVInstance@@@std@@@std@@QEAA@XZ DD 020601H
	DD	030023206H
xdata	ENDS
;	COMDAT xdata
xdata	SEGMENT
$ip2state$??1sentry@?$basic_ostream@DU?$char_traits@D@std@@@std@@QEAA@XZ DB 02H
	DB	't'
	DB	02H
xdata	ENDS
;	COMDAT xdata
xdata	SEGMENT
$stateUnwindMap$??1sentry@?$basic_ostream@DU?$char_traits@D@std@@@std@@QEAA@XZ DB 02H
	DB	0eH
	DD	imagerel __std_terminate
xdata	ENDS
;	COMDAT xdata
xdata	SEGMENT
$cppxdata$??1sentry@?$basic_ostream@DU?$char_traits@D@std@@@std@@QEAA@XZ DB 068H
	DD	imagerel $stateUnwindMap$??1sentry@?$basic_ostream@DU?$char_traits@D@std@@@std@@QEAA@XZ
	DD	imagerel $ip2state$??1sentry@?$basic_ostream@DU?$char_traits@D@std@@@std@@QEAA@XZ
xdata	ENDS
;	COMDAT xdata
xdata	SEGMENT
$unwind$??1sentry@?$basic_ostream@DU?$char_traits@D@std@@@std@@QEAA@XZ DD 020619H
	DD	030023206H
	DD	imagerel __CxxFrameHandler4
	DD	imagerel $cppxdata$??1sentry@?$basic_ostream@DU?$char_traits@D@std@@@std@@QEAA@XZ
xdata	ENDS
;	COMDAT xdata
xdata	SEGMENT
$ip2state$??0sentry@?$basic_ostream@DU?$char_traits@D@std@@@std@@QEAA@AEAV12@@Z DB 04H
	DB	'f'
	DB	00H
	DB	'l'
	DB	02H
xdata	ENDS
;	COMDAT xdata
xdata	SEGMENT
$stateUnwindMap$??0sentry@?$basic_ostream@DU?$char_traits@D@std@@@std@@QEAA@AEAV12@@Z DB 02H
	DB	0cH
	DD	imagerel ??1_Sentry_base@?$basic_ostream@DU?$char_traits@D@std@@@std@@QEAA@XZ
	DB	060H
xdata	ENDS
;	COMDAT xdata
xdata	SEGMENT
$cppxdata$??0sentry@?$basic_ostream@DU?$char_traits@D@std@@@std@@QEAA@AEAV12@@Z DB 028H
	DD	imagerel $stateUnwindMap$??0sentry@?$basic_ostream@DU?$char_traits@D@std@@@std@@QEAA@AEAV12@@Z
	DD	imagerel $ip2state$??0sentry@?$basic_ostream@DU?$char_traits@D@std@@@std@@QEAA@AEAV12@@Z
xdata	ENDS
;	COMDAT xdata
xdata	SEGMENT
$unwind$??0sentry@?$basic_ostream@DU?$char_traits@D@std@@@std@@QEAA@AEAV12@@Z DD 040f11H
	DD	07340fH
	DD	0700b320fH
	DD	imagerel __CxxFrameHandler4
	DD	imagerel $cppxdata$??0sentry@?$basic_ostream@DU?$char_traits@D@std@@@std@@QEAA@AEAV12@@Z
xdata	ENDS
;	COMDAT xdata
xdata	SEGMENT
$ip2state$??1_Sentry_base@?$basic_ostream@DU?$char_traits@D@std@@@std@@QEAA@XZ DB 02H
	DB	'D'
	DB	00H
xdata	ENDS
;	COMDAT xdata
xdata	SEGMENT
$cppxdata$??1_Sentry_base@?$basic_ostream@DU?$char_traits@D@std@@@std@@QEAA@XZ DB 060H
	DD	imagerel $ip2state$??1_Sentry_base@?$basic_ostream@DU?$char_traits@D@std@@@std@@QEAA@XZ
xdata	ENDS
;	COMDAT xdata
xdata	SEGMENT
$unwind$??1_Sentry_base@?$basic_ostream@DU?$char_traits@D@std@@@std@@QEAA@XZ DD 010419H
	DD	04204H
	DD	imagerel __CxxFrameHandler4
	DD	imagerel $cppxdata$??1_Sentry_base@?$basic_ostream@DU?$char_traits@D@std@@@std@@QEAA@XZ
xdata	ENDS
;	COMDAT xdata
xdata	SEGMENT
$unwind$??0_Sentry_base@?$basic_ostream@DU?$char_traits@D@std@@@std@@QEAA@AEAV12@@Z DD 020601H
	DD	030023206H
xdata	ENDS
;	COMDAT xdata
xdata	SEGMENT
$unwind$??$_Getvals@_W@?$time_get@_WV?$istreambuf_iterator@_WU?$char_traits@_W@std@@@std@@@std@@IEAAX_WAEBV_Locinfo@1@@Z DD 082119H
	DD	0135412H
	DD	0113412H
	DD	0e00eb212H
	DD	0600b700cH
	DD	imagerel __GSHandlerCheck
	DD	050H
xdata	ENDS
;	COMDAT xdata
xdata	SEGMENT
$unwind$??$_Getvals@_W@?$time_get@DV?$istreambuf_iterator@DU?$char_traits@D@std@@@std@@@std@@IEAAX_WAEBV_Locinfo@1@@Z DD 082119H
	DD	0135412H
	DD	0113412H
	DD	0e00eb212H
	DD	0600b700cH
	DD	imagerel __GSHandlerCheck
	DD	050H
xdata	ENDS
;	COMDAT xdata
xdata	SEGMENT
$unwind$?_Maklocwcs@std@@YAPEA_WPEB_W@Z DD 060f01H
	DD	07640fH
	DD	06340fH
	DD	0700b320fH
xdata	ENDS
;	COMDAT xdata
xdata	SEGMENT
$unwind$?_Tidy_deallocate@?$basic_string@DU?$char_traits@D@std@@V?$allocator@D@2@@std@@AEAAXXZ DD 020601H
	DD	030023206H
xdata	ENDS
;	COMDAT xdata
xdata	SEGMENT
$unwind$?assign@?$basic_string@DU?$char_traits@D@std@@V?$allocator@D@2@@std@@QEAAAEAV12@QEBD@Z DD 040a01H
	DD	06340aH
	DD	07006320aH
xdata	ENDS
;	COMDAT xdata
xdata	SEGMENT
$unwind$??4?$basic_string@DU?$char_traits@D@std@@V?$allocator@D@2@@std@@QEAAAEAV01@QEBD@Z DD 040a01H
	DD	06340aH
	DD	07006320aH
xdata	ENDS
;	COMDAT xdata
xdata	SEGMENT
$unwind$??0?$basic_string@DU?$char_traits@D@std@@V?$allocator@D@2@@std@@QEAA@QEBD@Z DD 040a01H
	DD	06340aH
	DD	07006320aH
xdata	ENDS
;	COMDAT xdata
xdata	SEGMENT
$unwind$?allocate@?$allocator@D@std@@QEAAPEAD_K@Z DD 010401H
	DD	04204H
xdata	ENDS
;	COMDAT xdata
xdata	SEGMENT
$unwind$?_Xlen_string@std@@YAXXZ DD 010401H
	DD	04204H
xdata	ENDS
;	COMDAT xdata
xdata	SEGMENT
$unwind$?_Throw_bad_array_new_length@std@@YAXXZ DD 010401H
	DD	08204H
xdata	ENDS
;	COMDAT xdata
xdata	SEGMENT
$unwind$??_Gbad_array_new_length@std@@UEAAPEAXI@Z DD 040a01H
	DD	06340aH
	DD	07006320aH
xdata	ENDS
;	COMDAT xdata
xdata	SEGMENT
$unwind$??0bad_array_new_length@std@@QEAA@AEBV01@@Z DD 020601H
	DD	030023206H
xdata	ENDS
;	COMDAT xdata
xdata	SEGMENT
$unwind$??_Gbad_alloc@std@@UEAAPEAXI@Z DD 040a01H
	DD	06340aH
	DD	07006320aH
xdata	ENDS
;	COMDAT xdata
xdata	SEGMENT
$unwind$??0bad_alloc@std@@QEAA@AEBV01@@Z DD 020601H
	DD	030023206H
xdata	ENDS
;	COMDAT xdata
xdata	SEGMENT
$unwind$??_Gexception@std@@UEAAPEAXI@Z DD 040a01H
	DD	06340aH
	DD	07006320aH
xdata	ENDS
;	COMDAT xdata
xdata	SEGMENT
$unwind$??0exception@std@@QEAA@AEBV01@@Z DD 020601H
	DD	030023206H
xdata	ENDS
;	COMDAT xdata
xdata	SEGMENT
$unwind$?move@?$_Char_traits@DH@std@@SAPEADQEADQEBD_K@Z DD 020601H
	DD	030023206H
xdata	ENDS
;	COMDAT xdata
xdata	SEGMENT
$unwind$?copy@?$_Char_traits@DH@std@@SAPEADQEADQEBD_K@Z DD 020601H
	DD	030023206H
xdata	ENDS
;	COMDAT xdata
xdata	SEGMENT
$unwind$??_H@YAXPEAX_K1P6APEAX0@Z@Z DD 050d01H
	DD	07009420dH
	DD	050076008H
	DD	03006H
xdata	ENDS
CRT$XCU	SEGMENT
?maxFError$initializer$@vecMathTests@aos@physx@@3P6AXXZEA DQ FLAT:??__EmaxFError@vecMathTests@aos@physx@@YAXXZ ; physx::aos::vecMathTests::maxFError$initializer$
CRT$XCU	ENDS
CRT$XCU	SEGMENT
?minV3Error$initializer$@vecMathTests@aos@physx@@3P6AXXZEA DQ FLAT:??__EminV3Error@vecMathTests@aos@physx@@YAXXZ ; physx::aos::vecMathTests::minV3Error$initializer$
CRT$XCU	ENDS
CRT$XCU	SEGMENT
?maxV3Error$initializer$@vecMathTests@aos@physx@@3P6AXXZEA DQ FLAT:??__EmaxV3Error@vecMathTests@aos@physx@@YAXXZ ; physx::aos::vecMathTests::maxV3Error$initializer$
CRT$XCU	ENDS
CRT$XCU	SEGMENT
?minV4Error$initializer$@vecMathTests@aos@physx@@3P6AXXZEA DQ FLAT:??__EminV4Error@vecMathTests@aos@physx@@YAXXZ ; physx::aos::vecMathTests::minV4Error$initializer$
CRT$XCU	ENDS
CRT$XCU	SEGMENT
?maxV4Error$initializer$@vecMathTests@aos@physx@@3P6AXXZEA DQ FLAT:??__EmaxV4Error@vecMathTests@aos@physx@@YAXXZ ; physx::aos::vecMathTests::maxV4Error$initializer$
CRT$XCU	ENDS
; Function compile flags: /Ogtpy
;	COMDAT ??$_Allocate_manually_vector_aligned@U_Default_allocate_traits@std@@@std@@YAPEAX_K@Z
_TEXT	SEGMENT
_Bytes$ = 48
??$_Allocate_manually_vector_aligned@U_Default_allocate_traits@std@@@std@@YAPEAX_K@Z PROC ; std::_Allocate_manually_vector_aligned<std::_Default_allocate_traits>, COMDAT
; File C:\Program Files\Microsoft Visual Studio\18\Community\VC\Tools\MSVC\14.50.35717\include\xmemory
; Line 186
$LN10:
	sub	rsp, 40					; 00000028H
; Line 188
	lea	rax, QWORD PTR [rcx+39]
; Line 189
	cmp	rax, rcx
	jbe	SHORT $LN9@Allocate_m
; Line 140
	mov	rcx, rax
	call	??2@YAPEAX_K@Z				; operator new
	mov	rcx, rax
; Line 194
	test	rax, rax
	jne	SHORT $LN3@Allocate_m
	mov	ecx, 5
	int	41					; 00000029H
$LN3@Allocate_m:
; Line 195
	add	rax, 39					; 00000027H
	and	rax, -32				; ffffffffffffffe0H
; Line 196
	mov	QWORD PTR [rax-8], rcx
; Line 202
	add	rsp, 40					; 00000028H
	ret	0
$LN9@Allocate_m:
; Line 190
	call	?_Throw_bad_array_new_length@std@@YAXXZ	; std::_Throw_bad_array_new_length
	int	3
$LN7@Allocate_m:
??$_Allocate_manually_vector_aligned@U_Default_allocate_traits@std@@@std@@YAPEAX_K@Z ENDP ; std::_Allocate_manually_vector_aligned<std::_Default_allocate_traits>
_TEXT	ENDS
; Function compile flags: /Ogtpy
;	COMDAT ??$_Get_size_of_n@$00@std@@YA_K_K@Z
_TEXT	SEGMENT
_Count$ = 8
??$_Get_size_of_n@$00@std@@YA_K_K@Z PROC		; std::_Get_size_of_n<1>, COMDAT
; File C:\Program Files\Microsoft Visual Studio\18\Community\VC\Tools\MSVC\14.50.35717\include\xmemory
; Line 126
	mov	rax, rcx
; Line 127
	ret	0
??$_Get_size_of_n@$00@std@@YA_K_K@Z ENDP		; std::_Get_size_of_n<1>
_TEXT	ENDS
; Function compile flags: /Ogtpy
;	COMDAT ??$_Allocate@$0BA@U_Default_allocate_traits@std@@@std@@YAPEAX_K@Z
_TEXT	SEGMENT
_Bytes$ = 48
??$_Allocate@$0BA@U_Default_allocate_traits@std@@@std@@YAPEAX_K@Z PROC ; std::_Allocate<16,std::_Default_allocate_traits>, COMDAT
; File C:\Program Files\Microsoft Visual Studio\18\Community\VC\Tools\MSVC\14.50.35717\include\xmemory
; Line 229
$LN20:
	sub	rsp, 40					; 00000028H
; Line 231
	test	rcx, rcx
	jne	SHORT $LN2@Allocate
; Line 232
	xor	eax, eax
; Line 262
	add	rsp, 40					; 00000028H
	ret	0
$LN2@Allocate:
; Line 255
	cmp	rcx, 4096				; 00001000H
	jb	SHORT $LN4@Allocate
; Line 188
	lea	rax, QWORD PTR [rcx+39]
; Line 189
	cmp	rax, rcx
	jbe	SHORT $LN19@Allocate
; Line 140
	mov	rcx, rax
	call	??2@YAPEAX_K@Z				; operator new
	mov	rcx, rax
; Line 194
	test	rax, rax
	jne	SHORT $LN10@Allocate
	mov	ecx, 5
	int	41					; 00000029H
$LN10@Allocate:
; Line 195
	add	rax, 39					; 00000027H
	and	rax, -32				; ffffffffffffffe0H
; Line 196
	mov	QWORD PTR [rax-8], rcx
; Line 262
	add	rsp, 40					; 00000028H
	ret	0
$LN4@Allocate:
	add	rsp, 40					; 00000028H
; Line 140
	jmp	??2@YAPEAX_K@Z				; operator new
$LN19@Allocate:
; Line 190
	call	?_Throw_bad_array_new_length@std@@YAXXZ	; std::_Throw_bad_array_new_length
	int	3
$LN17@Allocate:
??$_Allocate@$0BA@U_Default_allocate_traits@std@@@std@@YAPEAX_K@Z ENDP ; std::_Allocate<16,std::_Default_allocate_traits>
_TEXT	ENDS
; Function compile flags: /Ogtpy
;	COMDAT ??$_Destroy_in_place@PEAD@std@@YAXAEAPEAD@Z
_TEXT	SEGMENT
_Obj$ = 8
??$_Destroy_in_place@PEAD@std@@YAXAEAPEAD@Z PROC	; std::_Destroy_in_place<char *>, COMDAT
; File C:\Program Files\Microsoft Visual Studio\18\Community\VC\Tools\MSVC\14.50.35717\include\xmemory
; Line 330
	ret	0
??$_Destroy_in_place@PEAD@std@@YAXAEAPEAD@Z ENDP	; std::_Destroy_in_place<char *>
_TEXT	ENDS
; Function compile flags: /Ogtpy
;	COMDAT ??$_Deallocate@$0BA@@std@@YAXPEAX_K@Z
_TEXT	SEGMENT
_Ptr$ = 8
_Bytes$ = 16
??$_Deallocate@$0BA@@std@@YAXPEAX_K@Z PROC		; std::_Deallocate<16>, COMDAT
; File C:\Program Files\Microsoft Visual Studio\18\Community\VC\Tools\MSVC\14.50.35717\include\xmemory
; Line 288
	cmp	rdx, 4096				; 00001000H
	jb	SHORT $LN9@Deallocate
; Line 209
	mov	rax, QWORD PTR [rcx-8]
; Line 223
	sub	rcx, rax
	sub	rcx, 8
	cmp	rcx, 31
	ja	SHORT $LN8@Deallocate
; Line 224
	add	rdx, 39					; 00000027H
	mov	rcx, rax
$LN9@Deallocate:
; Line 293
	jmp	??3@YAXPEAX_K@Z				; operator delete
$LN8@Deallocate:
; Line 223
	mov	ecx, 5
	int	41					; 00000029H
$LN11@Deallocate:
??$_Deallocate@$0BA@@std@@YAXPEAX_K@Z ENDP		; std::_Deallocate<16>
_TEXT	ENDS
; Function compile flags: /Ogtpy
;	COMDAT ??$_Reallocate_for@V<lambda_1>@?1???$_Assign@D@?$basic_string@DU?$char_traits@D@std@@V?$allocator@D@2@@std@@AEAAAEAV23@QEBD_K@Z@PEBD@?$basic_string@DU?$char_traits@D@std@@V?$allocator@D@2@@std@@AEAAAEAV01@_KV<lambda_1>@?1???$_Assign@D@01@AEAAAEAV01@QEBD0@Z@PEBD@Z
_TEXT	SEGMENT
this$ = 64
_New_size$ = 72
_Fn$ = 80
<_Args_0>$ = 88
??$_Reallocate_for@V<lambda_1>@?1???$_Assign@D@?$basic_string@DU?$char_traits@D@std@@V?$allocator@D@2@@std@@AEAAAEAV23@QEBD_K@Z@PEBD@?$basic_string@DU?$char_traits@D@std@@V?$allocator@D@2@@std@@AEAAAEAV01@_KV<lambda_1>@?1???$_Assign@D@01@AEAAAEAV01@QEBD0@Z@PEBD@Z PROC ; std::basic_string<char,std::char_traits<char>,std::allocator<char> >::_Reallocate_for<`std::basic_string<char,std::char_traits<char>,std::allocator<char> >::_Assign<char>'::`2'::<lambda_1>,char const *>, COMDAT
; File C:\Program Files\Microsoft Visual Studio\18\Community\VC\Tools\MSVC\14.50.35717\include\xstring
; Line 2902
$LN116:
	mov	QWORD PTR [rsp+24], rbx
	push	rdi
	push	r14
	push	r15
	sub	rsp, 32					; 00000020H
; Line 2905
	mov	rbx, 9223372036854775807		; 7fffffffffffffffH
	mov	r15, r9
	mov	r14, rdx
	mov	rdi, rcx
	cmp	rdx, rbx
	ja	$LN113@Reallocate
; Line 2909
	mov	QWORD PTR [rsp+64], rbp
	mov	rbp, QWORD PTR [rcx+24]
; Line 2885
	mov	rcx, rdx
	or	rcx, 15
	mov	QWORD PTR [rsp+72], rsi
; Line 2886
	cmp	rcx, rbx
	ja	SHORT $LN111@Reallocate
; Line 2890
	mov	rdx, rbp
	mov	rax, rbx
	shr	rdx, 1
	sub	rax, rdx
	cmp	rbp, rax
	ja	SHORT $LN111@Reallocate
; Line 2894
	lea	rax, QWORD PTR [rdx+rbp]
; File C:\Program Files\Microsoft Visual Studio\18\Community\VC\Tools\MSVC\14.50.35717\include\utility
; Line 77
	mov	rbx, rcx
	cmp	rcx, rax
	cmovb	rbx, rax
; File C:\Program Files\Microsoft Visual Studio\18\Community\VC\Tools\MSVC\14.50.35717\include\xstring
; Line 875
	lea	rax, QWORD PTR [rbx+1]
; File C:\Program Files\Microsoft Visual Studio\18\Community\VC\Tools\MSVC\14.50.35717\include\xmemory
; Line 231
	test	rax, rax
	jne	SHORT $LN28@Reallocate
; Line 232
	xor	esi, esi
	jmp	SHORT $LN27@Reallocate
$LN28@Reallocate:
; Line 255
	cmp	rax, 4096				; 00001000H
	jb	SHORT $LN30@Reallocate
; Line 188
	lea	rcx, QWORD PTR [rax+39]
; Line 189
	cmp	rcx, rax
	jbe	$LN114@Reallocate
	jmp	SHORT $LN35@Reallocate
$LN111@Reallocate:
; Line 140
	mov	rcx, -9223372036854775769		; 8000000000000027H
$LN35@Reallocate:
	call	??2@YAPEAX_K@Z				; operator new
; Line 194
	test	rax, rax
	je	SHORT $LN75@Reallocate
; Line 195
	lea	rsi, QWORD PTR [rax+39]
	and	rsi, -32				; ffffffffffffffe0H
; Line 196
	mov	QWORD PTR [rsi-8], rax
; Line 257
	jmp	SHORT $LN27@Reallocate
$LN30@Reallocate:
; Line 140
	mov	rcx, rax
	call	??2@YAPEAX_K@Z				; operator new
	mov	rsi, rax
$LN27@Reallocate:
; File C:\Program Files\Microsoft Visual Studio\18\Community\VC\Tools\MSVC\14.50.35717\include\__msvc_string_view.hpp
; Line 200
	mov	r8, r14
; File C:\Program Files\Microsoft Visual Studio\18\Community\VC\Tools\MSVC\14.50.35717\include\xstring
; Line 2916
	mov	QWORD PTR [rdi+16], r14
; File C:\Program Files\Microsoft Visual Studio\18\Community\VC\Tools\MSVC\14.50.35717\include\__msvc_string_view.hpp
; Line 200
	mov	rdx, r15
; File C:\Program Files\Microsoft Visual Studio\18\Community\VC\Tools\MSVC\14.50.35717\include\xstring
; Line 2917
	mov	QWORD PTR [rdi+24], rbx
; File C:\Program Files\Microsoft Visual Studio\18\Community\VC\Tools\MSVC\14.50.35717\include\__msvc_string_view.hpp
; Line 200
	mov	rcx, rsi
	call	memcpy
; File C:\Program Files\Microsoft Visual Studio\18\Community\VC\Tools\MSVC\14.50.35717\include\xstring
; Line 3034
	mov	BYTE PTR [rsi+r14], 0
; Line 2919
	cmp	rbp, 15
	jbe	SHORT $LN3@Reallocate
; Line 2920
	mov	rcx, QWORD PTR [rdi]
; Line 902
	lea	rdx, QWORD PTR [rbp+1]
; File C:\Program Files\Microsoft Visual Studio\18\Community\VC\Tools\MSVC\14.50.35717\include\xmemory
; Line 288
	cmp	rdx, 4096				; 00001000H
	jb	SHORT $LN97@Reallocate
; Line 209
	mov	rax, QWORD PTR [rcx-8]
; Line 223
	sub	rcx, rax
	sub	rcx, 8
	cmp	rcx, 31
	ja	SHORT $LN75@Reallocate
; Line 224
	add	rdx, 39					; 00000027H
	jmp	SHORT $LN76@Reallocate
$LN75@Reallocate:
; Line 223
	mov	ecx, 5
	int	41					; 00000029H
$LN97@Reallocate:
; Line 989
	mov	rax, rcx
$LN76@Reallocate:
; Line 293
	mov	rcx, rax
	call	??3@YAXPEAX_K@Z				; operator delete
$LN3@Reallocate:
; File C:\Program Files\Microsoft Visual Studio\18\Community\VC\Tools\MSVC\14.50.35717\include\xstring
; Line 2927
	mov	rax, rdi
	mov	QWORD PTR [rax], rsi
	mov	rbp, QWORD PTR [rsp+64]
	mov	rsi, QWORD PTR [rsp+72]
; Line 2928
	mov	rbx, QWORD PTR [rsp+80]
	add	rsp, 32					; 00000020H
	pop	r15
	pop	r14
	pop	rdi
	ret	0
$LN113@Reallocate:
; Line 2906
	call	?_Xlen_string@std@@YAXXZ		; std::_Xlen_string
	int	3
$LN114@Reallocate:
; File C:\Program Files\Microsoft Visual Studio\18\Community\VC\Tools\MSVC\14.50.35717\include\xmemory
; Line 190
	call	?_Throw_bad_array_new_length@std@@YAXXZ	; std::_Throw_bad_array_new_length
	int	3
$LN110@Reallocate:
??$_Reallocate_for@V<lambda_1>@?1???$_Assign@D@?$basic_string@DU?$char_traits@D@std@@V?$allocator@D@2@@std@@AEAAAEAV23@QEBD_K@Z@PEBD@?$basic_string@DU?$char_traits@D@std@@V?$allocator@D@2@@std@@AEAAAEAV01@_KV<lambda_1>@?1???$_Assign@D@01@AEAAAEAV01@QEBD0@Z@PEBD@Z ENDP ; std::basic_string<char,std::char_traits<char>,std::allocator<char> >::_Reallocate_for<`std::basic_string<char,std::char_traits<char>,std::allocator<char> >::_Assign<char>'::`2'::<lambda_1>,char const *>
_TEXT	ENDS
; Function compile flags: /Ogtpy
;	COMDAT ??R<lambda_1>@?1???$_Assign@D@?$basic_string@DU?$char_traits@D@std@@V?$allocator@D@2@@std@@AEAAAEAV12@QEBD_K@Z@SA@QEAD10@Z
_TEXT	SEGMENT
_New_ptr$ = 48
_Count$ = 56
_Ptr$ = 64
??R<lambda_1>@?1???$_Assign@D@?$basic_string@DU?$char_traits@D@std@@V?$allocator@D@2@@std@@AEAAAEAV12@QEBD_K@Z@SA@QEAD10@Z PROC ; `std::basic_string<char,std::char_traits<char>,std::allocator<char> >::_Assign<char>'::`2'::<lambda_1>::operator(), COMDAT
; File C:\Program Files\Microsoft Visual Studio\18\Community\VC\Tools\MSVC\14.50.35717\include\xstring
; Line 3032
$LN25:
	mov	QWORD PTR [rsp+8], rbx
	push	rdi
	sub	rsp, 32					; 00000020H
	mov	rax, r8
	mov	rdi, rdx
; File C:\Program Files\Microsoft Visual Studio\18\Community\VC\Tools\MSVC\14.50.35717\include\__msvc_string_view.hpp
; Line 200
	mov	r8, rdx
; File C:\Program Files\Microsoft Visual Studio\18\Community\VC\Tools\MSVC\14.50.35717\include\xstring
; Line 3032
	mov	rbx, rcx
; File C:\Program Files\Microsoft Visual Studio\18\Community\VC\Tools\MSVC\14.50.35717\include\__msvc_string_view.hpp
; Line 200
	mov	rdx, rax
	call	memcpy
; File C:\Program Files\Microsoft Visual Studio\18\Community\VC\Tools\MSVC\14.50.35717\include\xstring
; Line 3034
	mov	BYTE PTR [rbx+rdi], 0
; Line 3035
	mov	rbx, QWORD PTR [rsp+48]
	add	rsp, 32					; 00000020H
	pop	rdi
	ret	0
??R<lambda_1>@?1???$_Assign@D@?$basic_string@DU?$char_traits@D@std@@V?$allocator@D@2@@std@@AEAAAEAV12@QEBD_K@Z@SA@QEAD10@Z ENDP ; `std::basic_string<char,std::char_traits<char>,std::allocator<char> >::_Assign<char>'::`2'::<lambda_1>::operator()
_TEXT	ENDS
; Function compile flags: /Ogtpy
;	COMDAT ??$construct_at@PEADAEBQEAD@std@@YAPEAPEADQEAPEADAEBQEAD@Z
_TEXT	SEGMENT
_Location$ = 8
<_Args_0>$ = 16
??$construct_at@PEADAEBQEAD@std@@YAPEAPEADQEAPEADAEBQEAD@Z PROC ; std::construct_at<char *,char * const &>, COMDAT
; File C:\Program Files\Microsoft Visual Studio\18\Community\VC\Tools\MSVC\14.50.35717\include\xutility
; Line 509
	mov	rax, QWORD PTR [rdx]
	mov	QWORD PTR [rcx], rax
	mov	rax, rcx
; Line 510
	ret	0
??$construct_at@PEADAEBQEAD@std@@YAPEAPEADQEAPEADAEBQEAD@Z ENDP ; std::construct_at<char *,char * const &>
_TEXT	ENDS
; Function compile flags: /Ogtpy
;	COMDAT ??$forward@AEBQEAD@std@@YAAEBQEADAEBQEAD@Z
_TEXT	SEGMENT
_Arg$ = 8
??$forward@AEBQEAD@std@@YAAEBQEADAEBQEAD@Z PROC		; std::forward<char * const &>, COMDAT
; File C:\Program Files\Microsoft Visual Studio\18\Community\VC\Tools\MSVC\14.50.35717\include\type_traits
; Line 1510
	mov	rax, rcx
; Line 1511
	ret	0
??$forward@AEBQEAD@std@@YAAEBQEADAEBQEAD@Z ENDP		; std::forward<char * const &>
_TEXT	ENDS
; Function compile flags: /Ogtpy
;	COMDAT ??$addressof@PEAD@std@@YAPEAPEADAEAPEAD@Z
_TEXT	SEGMENT
_Val$ = 8
??$addressof@PEAD@std@@YAPEAPEADAEAPEAD@Z PROC		; std::addressof<char *>, COMDAT
; File C:\Program Files\Microsoft Visual Studio\18\Community\VC\Tools\MSVC\14.50.35717\include\type_traits
; Line 1533
	mov	rax, rcx
; Line 1534
	ret	0
??$addressof@PEAD@std@@YAPEAPEADAEAPEAD@Z ENDP		; std::addressof<char *>
_TEXT	ENDS
; Function compile flags: /Ogtpy
;	COMDAT ??$_Assign@D@?$basic_string@DU?$char_traits@D@std@@V?$allocator@D@2@@std@@AEAAAEAV01@QEBD_K@Z
_TEXT	SEGMENT
this$ = 64
_Ptr$ = 72
_Count$ = 80
??$_Assign@D@?$basic_string@DU?$char_traits@D@std@@V?$allocator@D@2@@std@@AEAAAEAV01@QEBD_K@Z PROC ; std::basic_string<char,std::char_traits<char>,std::allocator<char> >::_Assign<char>, COMDAT
; File C:\Program Files\Microsoft Visual Studio\18\Community\VC\Tools\MSVC\14.50.35717\include\xstring
; Line 3016
$LN170:
	mov	QWORD PTR [rsp+16], rbx
	mov	QWORD PTR [rsp+24], rbp
	push	rsi
	push	rdi
	push	r15
	sub	rsp, 32					; 00000020H
; Line 3020
	mov	rbp, QWORD PTR [rcx+24]
	mov	rsi, r8
	mov	r15, rdx
	mov	rbx, rcx
	cmp	r8, rbp
	ja	SHORT $LN2@Assign
; Line 453
	cmp	rbp, 15
; Line 436
	jbe	SHORT $LN148@Assign
; Line 437
	mov	rdi, QWORD PTR [rcx]
; File C:\Program Files\Microsoft Visual Studio\18\Community\VC\Tools\MSVC\14.50.35717\include\xmemory
; Line 194
	jmp	SHORT $LN5@Assign
$LN148@Assign:
; File C:\Program Files\Microsoft Visual Studio\18\Community\VC\Tools\MSVC\14.50.35717\include\xstring
; Line 435
	mov	rdi, rbx
$LN5@Assign:
; Line 3023
	mov	QWORD PTR [rcx+16], rsi
; File C:\Program Files\Microsoft Visual Studio\18\Community\VC\Tools\MSVC\14.50.35717\include\__msvc_string_view.hpp
; Line 253
	mov	rcx, rdi
	call	memmove
; File C:\Program Files\Microsoft Visual Studio\18\Community\VC\Tools\MSVC\14.50.35717\include\xstring
; Line 3025
	mov	BYTE PTR [rdi+rsi], 0
; Line 3027
	jmp	$LN164@Assign
$LN2@Assign:
; Line 2905
	mov	rdi, 9223372036854775807		; 7fffffffffffffffH
	cmp	rsi, rdi
	ja	$LN167@Assign
; Line 2885
	mov	rcx, rsi
	mov	QWORD PTR [rsp+64], r14
	or	rcx, 15
; Line 2886
	cmp	rcx, rdi
	ja	SHORT $LN165@Assign
; Line 2890
	mov	rdx, rbp
	mov	rax, rdi
	shr	rdx, 1
	sub	rax, rdx
	cmp	rbp, rax
	ja	SHORT $LN165@Assign
; Line 2894
	lea	rax, QWORD PTR [rdx+rbp]
; File C:\Program Files\Microsoft Visual Studio\18\Community\VC\Tools\MSVC\14.50.35717\include\utility
; Line 77
	mov	rdi, rcx
	cmp	rcx, rax
	cmovb	rdi, rax
; File C:\Program Files\Microsoft Visual Studio\18\Community\VC\Tools\MSVC\14.50.35717\include\xstring
; Line 875
	lea	rax, QWORD PTR [rdi+1]
; File C:\Program Files\Microsoft Visual Studio\18\Community\VC\Tools\MSVC\14.50.35717\include\xmemory
; Line 231
	test	rax, rax
	jne	SHORT $LN57@Assign
; Line 232
	xor	r14d, r14d
	jmp	SHORT $LN56@Assign
$LN57@Assign:
; Line 255
	cmp	rax, 4096				; 00001000H
	jb	SHORT $LN59@Assign
; Line 188
	lea	rcx, QWORD PTR [rax+39]
; Line 189
	cmp	rcx, rax
	jbe	$LN168@Assign
	jmp	SHORT $LN64@Assign
$LN165@Assign:
; Line 140
	mov	rcx, -9223372036854775769		; 8000000000000027H
$LN64@Assign:
	call	??2@YAPEAX_K@Z				; operator new
; Line 194
	test	rax, rax
	je	SHORT $LN104@Assign
; Line 195
	lea	r14, QWORD PTR [rax+39]
	and	r14, -32				; ffffffffffffffe0H
; Line 196
	mov	QWORD PTR [r14-8], rax
; Line 257
	jmp	SHORT $LN56@Assign
$LN59@Assign:
; Line 140
	mov	rcx, rax
	call	??2@YAPEAX_K@Z				; operator new
	mov	r14, rax
$LN56@Assign:
; File C:\Program Files\Microsoft Visual Studio\18\Community\VC\Tools\MSVC\14.50.35717\include\__msvc_string_view.hpp
; Line 200
	mov	r8, rsi
; File C:\Program Files\Microsoft Visual Studio\18\Community\VC\Tools\MSVC\14.50.35717\include\xstring
; Line 2916
	mov	QWORD PTR [rbx+16], rsi
; File C:\Program Files\Microsoft Visual Studio\18\Community\VC\Tools\MSVC\14.50.35717\include\__msvc_string_view.hpp
; Line 200
	mov	rdx, r15
; File C:\Program Files\Microsoft Visual Studio\18\Community\VC\Tools\MSVC\14.50.35717\include\xstring
; Line 2917
	mov	QWORD PTR [rbx+24], rdi
; File C:\Program Files\Microsoft Visual Studio\18\Community\VC\Tools\MSVC\14.50.35717\include\__msvc_string_view.hpp
; Line 200
	mov	rcx, r14
	call	memcpy
; File C:\Program Files\Microsoft Visual Studio\18\Community\VC\Tools\MSVC\14.50.35717\include\xstring
; Line 3034
	mov	BYTE PTR [r14+rsi], 0
; Line 2919
	cmp	rbp, 15
	jbe	SHORT $LN32@Assign
; Line 2920
	mov	rcx, QWORD PTR [rbx]
; Line 902
	lea	rdx, QWORD PTR [rbp+1]
; File C:\Program Files\Microsoft Visual Studio\18\Community\VC\Tools\MSVC\14.50.35717\include\xmemory
; Line 288
	cmp	rdx, 4096				; 00001000H
	jb	SHORT $LN149@Assign
; Line 209
	mov	rax, QWORD PTR [rcx-8]
; Line 223
	sub	rcx, rax
	sub	rcx, 8
	cmp	rcx, 31
	ja	SHORT $LN104@Assign
; Line 224
	add	rdx, 39					; 00000027H
	jmp	SHORT $LN105@Assign
$LN104@Assign:
; Line 223
	mov	ecx, 5
	int	41					; 00000029H
$LN149@Assign:
; Line 989
	mov	rax, rcx
$LN105@Assign:
; Line 293
	mov	rcx, rax
	call	??3@YAXPEAX_K@Z				; operator delete
$LN32@Assign:
; File C:\Program Files\Microsoft Visual Studio\18\Community\VC\Tools\MSVC\14.50.35717\include\xstring
; Line 3030
	mov	QWORD PTR [rbx], r14
	mov	rax, rbx
	mov	r14, QWORD PTR [rsp+64]
$LN164@Assign:
; Line 3037
	mov	rbp, QWORD PTR [rsp+80]
	mov	rax, rbx
	mov	rbx, QWORD PTR [rsp+72]
	add	rsp, 32					; 00000020H
	pop	r15
	pop	rdi
	pop	rsi
	ret	0
$LN167@Assign:
; Line 2906
	call	?_Xlen_string@std@@YAXXZ		; std::_Xlen_string
	int	3
$LN168@Assign:
; File C:\Program Files\Microsoft Visual Studio\18\Community\VC\Tools\MSVC\14.50.35717\include\xmemory
; Line 190
	call	?_Throw_bad_array_new_length@std@@YAXXZ	; std::_Throw_bad_array_new_length
	int	3
$LN163@Assign:
??$_Assign@D@?$basic_string@DU?$char_traits@D@std@@V?$allocator@D@2@@std@@AEAAAEAV01@QEBD_K@Z ENDP ; std::basic_string<char,std::char_traits<char>,std::allocator<char> >::_Assign<char>
_TEXT	ENDS
; Function compile flags: /Ogtpy
;	COMDAT ??$addressof@V?$basic_ostream@DU?$char_traits@D@std@@@std@@@std@@YAPEAV?$basic_ostream@DU?$char_traits@D@std@@@0@AEAV10@@Z
_TEXT	SEGMENT
_Val$ = 8
??$addressof@V?$basic_ostream@DU?$char_traits@D@std@@@std@@@std@@YAPEAV?$basic_ostream@DU?$char_traits@D@std@@@0@AEAV10@@Z PROC ; std::addressof<std::basic_ostream<char,std::char_traits<char> > >, COMDAT
; File C:\Program Files\Microsoft Visual Studio\18\Community\VC\Tools\MSVC\14.50.35717\include\type_traits
; Line 1533
	mov	rax, rcx
; Line 1534
	ret	0
??$addressof@V?$basic_ostream@DU?$char_traits@D@std@@@std@@@std@@YAPEAV?$basic_ostream@DU?$char_traits@D@std@@@0@AEAV10@@Z ENDP ; std::addressof<std::basic_ostream<char,std::char_traits<char> > >
_TEXT	ENDS
; Function compile flags: /Ogtpy
;	COMDAT ??$_Destroy_range@V?$allocator@PEAVInstance@@@std@@@std@@YAXPEAPEAVInstance@@QEAPEAV1@AEAV?$allocator@PEAVInstance@@@0@@Z
_TEXT	SEGMENT
_First$ = 8
_Last$ = 16
_Al$ = 24
??$_Destroy_range@V?$allocator@PEAVInstance@@@std@@@std@@YAXPEAPEAVInstance@@QEAPEAV1@AEAV?$allocator@PEAVInstance@@@0@@Z PROC ; std::_Destroy_range<std::allocator<Instance *> >, COMDAT
; File C:\Program Files\Microsoft Visual Studio\18\Community\VC\Tools\MSVC\14.50.35717\include\xmemory
; Line 1110
	ret	0
??$_Destroy_range@V?$allocator@PEAVInstance@@@std@@@std@@YAXPEAPEAVInstance@@QEAPEAV1@AEAV?$allocator@PEAVInstance@@@0@@Z ENDP ; std::_Destroy_range<std::allocator<Instance *> >
_TEXT	ENDS
; Function compile flags: /Ogtpy
;	COMDAT ??$_Destroy_range@V?$allocator@PEAVBaseCube@@@std@@@std@@YAXPEAPEAVBaseCube@@QEAPEAV1@AEAV?$allocator@PEAVBaseCube@@@0@@Z
_TEXT	SEGMENT
_First$ = 8
_Last$ = 16
_Al$ = 24
??$_Destroy_range@V?$allocator@PEAVBaseCube@@@std@@@std@@YAXPEAPEAVBaseCube@@QEAPEAV1@AEAV?$allocator@PEAVBaseCube@@@0@@Z PROC ; std::_Destroy_range<std::allocator<BaseCube *> >, COMDAT
; File C:\Program Files\Microsoft Visual Studio\18\Community\VC\Tools\MSVC\14.50.35717\include\xmemory
; Line 1110
	ret	0
??$_Destroy_range@V?$allocator@PEAVBaseCube@@@std@@@std@@YAXPEAPEAVBaseCube@@QEAPEAV1@AEAV?$allocator@PEAVBaseCube@@@0@@Z ENDP ; std::_Destroy_range<std::allocator<BaseCube *> >
_TEXT	ENDS
; Function compile flags: /Ogtpy
;	COMDAT ??$_Destroy_range@V?$allocator@I@std@@@std@@YAXPEAIQEAIAEAV?$allocator@I@0@@Z
_TEXT	SEGMENT
_First$ = 8
_Last$ = 16
_Al$ = 24
??$_Destroy_range@V?$allocator@I@std@@@std@@YAXPEAIQEAIAEAV?$allocator@I@0@@Z PROC ; std::_Destroy_range<std::allocator<unsigned int> >, COMDAT
; File C:\Program Files\Microsoft Visual Studio\18\Community\VC\Tools\MSVC\14.50.35717\include\xmemory
; Line 1110
	ret	0
??$_Destroy_range@V?$allocator@I@std@@@std@@YAXPEAIQEAIAEAV?$allocator@I@0@@Z ENDP ; std::_Destroy_range<std::allocator<unsigned int> >
_TEXT	ENDS
; Function compile flags: /Ogtpy
;	COMDAT ??$_Traits_copy_batch@U?$char_traits@D@std@@D@std@@YAXQEADQEBD_K@Z
_TEXT	SEGMENT
_First1$ = 8
_First2$ = 16
_Count$ = 24
??$_Traits_copy_batch@U?$char_traits@D@std@@D@std@@YAXQEADQEBD_K@Z PROC ; std::_Traits_copy_batch<std::char_traits<char>,char>, COMDAT
; File C:\Program Files\Microsoft Visual Studio\18\Community\VC\Tools\MSVC\14.50.35717\include\xstring
; File C:\Program Files\Microsoft Visual Studio\18\Community\VC\Tools\MSVC\14.50.35717\include\__msvc_string_view.hpp
; Line 200
	jmp	memcpy
??$_Traits_copy_batch@U?$char_traits@D@std@@D@std@@YAXQEADQEBD_K@Z ENDP ; std::_Traits_copy_batch<std::char_traits<char>,char>
_TEXT	ENDS
; Function compile flags: /Ogtpy
;	COMDAT ??$_Traits_move_batch@U?$char_traits@D@std@@D@std@@YAXQEADQEBD_K@Z
_TEXT	SEGMENT
_First1$ = 8
_First2$ = 16
_Count$ = 24
??$_Traits_move_batch@U?$char_traits@D@std@@D@std@@YAXQEADQEBD_K@Z PROC ; std::_Traits_move_batch<std::char_traits<char>,char>, COMDAT
; File C:\Program Files\Microsoft Visual Studio\18\Community\VC\Tools\MSVC\14.50.35717\include\xstring
; File C:\Program Files\Microsoft Visual Studio\18\Community\VC\Tools\MSVC\14.50.35717\include\__msvc_string_view.hpp
; Line 253
	jmp	memmove
??$_Traits_move_batch@U?$char_traits@D@std@@D@std@@YAXQEADQEBD_K@Z ENDP ; std::_Traits_move_batch<std::char_traits<char>,char>
_TEXT	ENDS
; Function compile flags: /Ogtpy
;	COMDAT ??$max@_K@std@@YAAEB_KAEB_K0@Z
_TEXT	SEGMENT
_Left$ = 8
_Right$ = 16
??$max@_K@std@@YAAEB_KAEB_K0@Z PROC			; std::max<unsigned __int64>, COMDAT
; File C:\Program Files\Microsoft Visual Studio\18\Community\VC\Tools\MSVC\14.50.35717\include\utility
; Line 77
	mov	rax, QWORD PTR [rdx]
	cmp	QWORD PTR [rcx], rax
	cmovb	rcx, rdx
	mov	rax, rcx
; Line 78
	ret	0
??$max@_K@std@@YAAEB_KAEB_K0@Z ENDP			; std::max<unsigned __int64>
_TEXT	ENDS
; Function compile flags: /Ogtpy
;	COMDAT ??$_Construct_in_place@PEADAEBQEAD@std@@YAXAEAPEADAEBQEAD@Z
_TEXT	SEGMENT
_Obj$ = 8
<_Args_0>$ = 16
??$_Construct_in_place@PEADAEBQEAD@std@@YAXAEAPEADAEBQEAD@Z PROC ; std::_Construct_in_place<char *,char * const &>, COMDAT
; File C:\Program Files\Microsoft Visual Studio\18\Community\VC\Tools\MSVC\14.50.35717\include\xutility
; Line 524
	mov	rax, QWORD PTR [rdx]
	mov	QWORD PTR [rcx], rax
	ret	0
??$_Construct_in_place@PEADAEBQEAD@std@@YAXAEAPEADAEBQEAD@Z ENDP ; std::_Construct_in_place<char *,char * const &>
_TEXT	ENDS
; Function compile flags: /Ogtpy
;	COMDAT ??$construct_at@D$$V@std@@YAPEADQEAD@Z
_TEXT	SEGMENT
_Location$ = 8
??$construct_at@D$$V@std@@YAPEADQEAD@Z PROC		; std::construct_at<char>, COMDAT
; File C:\Program Files\Microsoft Visual Studio\18\Community\VC\Tools\MSVC\14.50.35717\include\xutility
; Line 509
	xor	eax, eax
	mov	BYTE PTR [rcx], al
	mov	rax, rcx
; Line 510
	ret	0
??$construct_at@D$$V@std@@YAPEADQEAD@Z ENDP		; std::construct_at<char>
_TEXT	ENDS
; Function compile flags: /Ogtpy
;	COMDAT ??$_Allocate_at_least_helper@V?$allocator@D@std@@@std@@YAPEADAEAV?$allocator@D@0@AEA_K@Z
_TEXT	SEGMENT
_Al$ = 48
_Count$ = 56
??$_Allocate_at_least_helper@V?$allocator@D@std@@@std@@YAPEADAEAV?$allocator@D@0@AEA_K@Z PROC ; std::_Allocate_at_least_helper<std::allocator<char> >, COMDAT
; File C:\Program Files\Microsoft Visual Studio\18\Community\VC\Tools\MSVC\14.50.35717\include\xmemory
; Line 2314
$LN26:
	sub	rsp, 40					; 00000028H
; Line 2323
	mov	rcx, QWORD PTR [rdx]
; Line 231
	test	rcx, rcx
	jne	SHORT $LN6@Allocate_a
; Line 232
	xor	eax, eax
; Line 2325
	add	rsp, 40					; 00000028H
	ret	0
$LN6@Allocate_a:
; Line 255
	cmp	rcx, 4096				; 00001000H
	jb	SHORT $LN8@Allocate_a
; Line 188
	lea	rax, QWORD PTR [rcx+39]
; Line 189
	cmp	rax, rcx
	jbe	SHORT $LN25@Allocate_a
; Line 140
	mov	rcx, rax
	call	??2@YAPEAX_K@Z				; operator new
	mov	rcx, rax
; Line 194
	test	rax, rax
	jne	SHORT $LN14@Allocate_a
	mov	ecx, 5
	int	41					; 00000029H
$LN14@Allocate_a:
; Line 195
	add	rax, 39					; 00000027H
	and	rax, -32				; ffffffffffffffe0H
; Line 196
	mov	QWORD PTR [rax-8], rcx
; Line 2325
	add	rsp, 40					; 00000028H
	ret	0
$LN8@Allocate_a:
	add	rsp, 40					; 00000028H
; Line 140
	jmp	??2@YAPEAX_K@Z				; operator new
$LN25@Allocate_a:
; Line 190
	call	?_Throw_bad_array_new_length@std@@YAXXZ	; std::_Throw_bad_array_new_length
	int	3
$LN23@Allocate_a:
??$_Allocate_at_least_helper@V?$allocator@D@std@@@std@@YAPEADAEAV?$allocator@D@0@AEA_K@Z ENDP ; std::_Allocate_at_least_helper<std::allocator<char> >
_TEXT	ENDS
; Function compile flags: /Ogtpy
;	COMDAT ??$_Allocate_for_capacity@$0A@@?$basic_string@DU?$char_traits@D@std@@V?$allocator@D@2@@std@@CAPEADAEAV?$allocator@D@1@AEA_K@Z
_TEXT	SEGMENT
_Al$ = 48
_Capacity$ = 56
??$_Allocate_for_capacity@$0A@@?$basic_string@DU?$char_traits@D@std@@V?$allocator@D@2@@std@@CAPEADAEAV?$allocator@D@1@AEA_K@Z PROC ; std::basic_string<char,std::char_traits<char>,std::allocator<char> >::_Allocate_for_capacity<0>, COMDAT
; File C:\Program Files\Microsoft Visual Studio\18\Community\VC\Tools\MSVC\14.50.35717\include\xstring
; Line 873
$LN46:
	push	rbx
	sub	rsp, 32					; 00000020H
; Line 875
	add	QWORD PTR [rdx], 1
	mov	rbx, rdx
	mov	rcx, QWORD PTR [rdx]
; File C:\Program Files\Microsoft Visual Studio\18\Community\VC\Tools\MSVC\14.50.35717\include\xmemory
; Line 231
	jne	SHORT $LN12@Allocate_f
; Line 232
	xor	eax, eax
; File C:\Program Files\Microsoft Visual Studio\18\Community\VC\Tools\MSVC\14.50.35717\include\xstring
; Line 895
	dec	QWORD PTR [rdx]
; Line 897
	add	rsp, 32					; 00000020H
	pop	rbx
	ret	0
$LN12@Allocate_f:
; File C:\Program Files\Microsoft Visual Studio\18\Community\VC\Tools\MSVC\14.50.35717\include\xmemory
; Line 255
	cmp	rcx, 4096				; 00001000H
	jb	SHORT $LN14@Allocate_f
; Line 188
	lea	rax, QWORD PTR [rcx+39]
; Line 189
	cmp	rax, rcx
	jbe	SHORT $LN44@Allocate_f
; Line 140
	mov	rcx, rax
	call	??2@YAPEAX_K@Z				; operator new
	mov	rcx, rax
; Line 194
	test	rax, rax
	jne	SHORT $LN20@Allocate_f
	mov	ecx, 5
	int	41					; 00000029H
$LN20@Allocate_f:
; Line 195
	add	rax, 39					; 00000027H
	and	rax, -32				; ffffffffffffffe0H
; Line 196
	mov	QWORD PTR [rax-8], rcx
; File C:\Program Files\Microsoft Visual Studio\18\Community\VC\Tools\MSVC\14.50.35717\include\xstring
; Line 895
	dec	QWORD PTR [rbx]
; Line 897
	add	rsp, 32					; 00000020H
	pop	rbx
	ret	0
$LN14@Allocate_f:
; File C:\Program Files\Microsoft Visual Studio\18\Community\VC\Tools\MSVC\14.50.35717\include\xmemory
; Line 140
	call	??2@YAPEAX_K@Z				; operator new
; File C:\Program Files\Microsoft Visual Studio\18\Community\VC\Tools\MSVC\14.50.35717\include\xstring
; Line 895
	dec	QWORD PTR [rbx]
; Line 897
	add	rsp, 32					; 00000020H
	pop	rbx
	ret	0
$LN44@Allocate_f:
; File C:\Program Files\Microsoft Visual Studio\18\Community\VC\Tools\MSVC\14.50.35717\include\xmemory
; Line 190
	call	?_Throw_bad_array_new_length@std@@YAXXZ	; std::_Throw_bad_array_new_length
	int	3
$LN42@Allocate_f:
??$_Allocate_for_capacity@$0A@@?$basic_string@DU?$char_traits@D@std@@V?$allocator@D@2@@std@@CAPEADAEAV?$allocator@D@1@AEA_K@Z ENDP ; std::basic_string<char,std::char_traits<char>,std::allocator<char> >::_Allocate_for_capacity<0>
_TEXT	ENDS
; Function compile flags: /Ogtpy
;	COMDAT ??$_Construct@$00PEBD@?$basic_string@DU?$char_traits@D@std@@V?$allocator@D@2@@std@@AEAAXQEBD_K@Z
_TEXT	SEGMENT
this$ = 80
_Arg$ = 88
_Count$ = 96
??$_Construct@$00PEBD@?$basic_string@DU?$char_traits@D@std@@V?$allocator@D@2@@std@@AEAAXQEBD_K@Z PROC ; std::basic_string<char,std::char_traits<char>,std::allocator<char> >::_Construct<1,char const *>, COMDAT
; File C:\Program Files\Microsoft Visual Studio\18\Community\VC\Tools\MSVC\14.50.35717\include\xstring
; Line 921
$LN108:
	push	rbx
	push	rbp
	push	rsi
	push	r14
	sub	rsp, 40					; 00000028H
; Line 931
	mov	rsi, 9223372036854775807		; 7fffffffffffffffH
	mov	rbx, r8
	mov	rbp, rdx
	mov	r14, rcx
	cmp	r8, rsi
	ja	$LN105@Construct
; Line 939
	cmp	rbx, 15
	ja	SHORT $LN3@Construct
; Line 940
	mov	QWORD PTR [rcx+16], rbx
; Line 941
	mov	QWORD PTR [rcx+24], 15
; File C:\Program Files\Microsoft Visual Studio\18\Community\VC\Tools\MSVC\14.50.35717\include\__msvc_string_view.hpp
; Line 200
	call	memcpy
; File C:\Program Files\Microsoft Visual Studio\18\Community\VC\Tools\MSVC\14.50.35717\include\xstring
; Line 948
	mov	BYTE PTR [rbx+r14], 0
; Line 979
	add	rsp, 40					; 00000028H
	pop	r14
	pop	rsi
	pop	rbp
	pop	rbx
	ret	0
$LN3@Construct:
; Line 2885
	mov	rax, rbx
	mov	QWORD PTR [rsp+80], rdi
	or	rax, 15
; Line 2886
	cmp	rax, rsi
	jbe	SHORT $LN19@Construct
; Line 2887
	mov	rax, -9223372036854775769		; 8000000000000027H
$LN44@Construct:
; File C:\Program Files\Microsoft Visual Studio\18\Community\VC\Tools\MSVC\14.50.35717\include\xmemory
; Line 140
	mov	rcx, rax
	call	??2@YAPEAX_K@Z				; operator new
; Line 194
	test	rax, rax
	jne	SHORT $LN45@Construct
	mov	ecx, 5
	int	41					; 00000029H
$LN19@Construct:
; File C:\Program Files\Microsoft Visual Studio\18\Community\VC\Tools\MSVC\14.50.35717\include\utility
; Line 77
	mov	ecx, 22
	mov	rsi, rax
	cmp	rax, rcx
	cmovb	rsi, rcx
; File C:\Program Files\Microsoft Visual Studio\18\Community\VC\Tools\MSVC\14.50.35717\include\xstring
; Line 875
	lea	rcx, QWORD PTR [rsi+1]
; File C:\Program Files\Microsoft Visual Studio\18\Community\VC\Tools\MSVC\14.50.35717\include\xmemory
; Line 231
	test	rcx, rcx
	jne	SHORT $LN37@Construct
; Line 232
	xor	edi, edi
	jmp	SHORT $LN36@Construct
$LN37@Construct:
; Line 255
	cmp	rcx, 4096				; 00001000H
	jb	SHORT $LN39@Construct
; Line 188
	lea	rax, QWORD PTR [rcx+39]
; Line 189
	cmp	rax, rcx
	jbe	SHORT $LN106@Construct
	jmp	SHORT $LN44@Construct
$LN45@Construct:
; Line 195
	lea	rdi, QWORD PTR [rax+39]
	and	rdi, -32				; ffffffffffffffe0H
; Line 196
	mov	QWORD PTR [rdi-8], rax
; Line 257
	jmp	SHORT $LN36@Construct
$LN39@Construct:
; Line 140
	call	??2@YAPEAX_K@Z				; operator new
	mov	rdi, rax
$LN36@Construct:
; File C:\Program Files\Microsoft Visual Studio\18\Community\VC\Tools\MSVC\14.50.35717\include\__msvc_string_view.hpp
; Line 200
	mov	r8, rbx
; File C:\Program Files\Microsoft Visual Studio\18\Community\VC\Tools\MSVC\14.50.35717\include\xstring
; Line 963
	mov	QWORD PTR [r14], rdi
; File C:\Program Files\Microsoft Visual Studio\18\Community\VC\Tools\MSVC\14.50.35717\include\__msvc_string_view.hpp
; Line 200
	mov	rdx, rbp
; File C:\Program Files\Microsoft Visual Studio\18\Community\VC\Tools\MSVC\14.50.35717\include\xstring
; Line 965
	mov	QWORD PTR [r14+16], rbx
; File C:\Program Files\Microsoft Visual Studio\18\Community\VC\Tools\MSVC\14.50.35717\include\__msvc_string_view.hpp
; Line 200
	mov	rcx, rdi
; File C:\Program Files\Microsoft Visual Studio\18\Community\VC\Tools\MSVC\14.50.35717\include\xstring
; Line 966
	mov	QWORD PTR [r14+24], rsi
; File C:\Program Files\Microsoft Visual Studio\18\Community\VC\Tools\MSVC\14.50.35717\include\__msvc_string_view.hpp
; Line 200
	call	memcpy
; File C:\Program Files\Microsoft Visual Studio\18\Community\VC\Tools\MSVC\14.50.35717\include\xstring
; Line 972
	mov	BYTE PTR [rdi+rbx], 0
	mov	rdi, QWORD PTR [rsp+80]
; Line 979
	add	rsp, 40					; 00000028H
	pop	r14
	pop	rsi
	pop	rbp
	pop	rbx
	ret	0
$LN105@Construct:
; Line 932
	call	?_Xlen_string@std@@YAXXZ		; std::_Xlen_string
	int	3
$LN106@Construct:
; File C:\Program Files\Microsoft Visual Studio\18\Community\VC\Tools\MSVC\14.50.35717\include\xmemory
; Line 190
	call	?_Throw_bad_array_new_length@std@@YAXXZ	; std::_Throw_bad_array_new_length
	int	3
$LN103@Construct:
??$_Construct@$00PEBD@?$basic_string@DU?$char_traits@D@std@@V?$allocator@D@2@@std@@AEAAXQEBD_K@Z ENDP ; std::basic_string<char,std::char_traits<char>,std::allocator<char> >::_Construct<1,char const *>
_TEXT	ENDS
; Function compile flags: /Ogtpy
;	COMDAT ??$?0$$V@?$_Compressed_pair@V?$allocator@D@std@@V?$_String_val@U?$_Simple_types@D@std@@@2@$00@std@@QEAA@U_Zero_then_variadic_args_t@1@@Z
_TEXT	SEGMENT
this$ = 8
__formal$ = 16
??$?0$$V@?$_Compressed_pair@V?$allocator@D@std@@V?$_String_val@U?$_Simple_types@D@std@@@2@$00@std@@QEAA@U_Zero_then_variadic_args_t@1@@Z PROC ; std::_Compressed_pair<std::allocator<char>,std::_String_val<std::_Simple_types<char> >,1>::_Compressed_pair<std::allocator<char>,std::_String_val<std::_Simple_types<char> >,1><>, COMDAT
; File C:\Program Files\Microsoft Visual Studio\18\Community\VC\Tools\MSVC\14.50.35717\include\xmemory
; File C:\Program Files\Microsoft Visual Studio\18\Community\VC\Tools\MSVC\14.50.35717\include\xstring
; Line 517
	xor	eax, eax
	xorps	xmm0, xmm0
; Line 493
	movups	XMMWORD PTR [rcx], xmm0
; Line 517
	mov	QWORD PTR [rcx+16], rax
; Line 518
	mov	QWORD PTR [rcx+24], rax
; File C:\Program Files\Microsoft Visual Studio\18\Community\VC\Tools\MSVC\14.50.35717\include\xmemory
; Line 1551
	mov	rax, rcx
	ret	0
??$?0$$V@?$_Compressed_pair@V?$allocator@D@std@@V?$_String_val@U?$_Simple_types@D@std@@@2@$00@std@@QEAA@U_Zero_then_variadic_args_t@1@@Z ENDP ; std::_Compressed_pair<std::allocator<char>,std::_String_val<std::_Simple_types<char> >,1>::_Compressed_pair<std::allocator<char>,std::_String_val<std::_Simple_types<char> >,1><>
_TEXT	ENDS
; Function compile flags: /Ogtpy
;	COMDAT ??$_Get_proxy_allocator@V?$allocator@D@std@@@std@@YA?AU_Fake_allocator@0@AEBV?$allocator@D@0@@Z
_TEXT	SEGMENT
__formal$ = 8
??$_Get_proxy_allocator@V?$allocator@D@std@@@std@@YA?AU_Fake_allocator@0@AEBV?$allocator@D@0@@Z PROC ; std::_Get_proxy_allocator<std::allocator<char> >, COMDAT
; File C:\Program Files\Microsoft Visual Studio\18\Community\VC\Tools\MSVC\14.50.35717\include\xmemory
; Line 1517
	xor	al, al
; Line 1518
	ret	0
??$_Get_proxy_allocator@V?$allocator@D@std@@@std@@YA?AU_Fake_allocator@0@AEBV?$allocator@D@0@@Z ENDP ; std::_Get_proxy_allocator<std::allocator<char> >
_TEXT	ENDS
; Function compile flags: /Ogtpy
;	COMDAT ??$_Convert_size@_K_K@std@@YA_K_K@Z
_TEXT	SEGMENT
_Len$ = 8
??$_Convert_size@_K_K@std@@YA_K_K@Z PROC		; std::_Convert_size<unsigned __int64,unsigned __int64>, COMDAT
; File C:\Program Files\Microsoft Visual Studio\18\Community\VC\Tools\MSVC\14.50.35717\include\xmemory
; Line 1143
	mov	rax, rcx
; Line 1144
	ret	0
??$_Convert_size@_K_K@std@@YA_K_K@Z ENDP		; std::_Convert_size<unsigned __int64,unsigned __int64>
_TEXT	ENDS
; Function compile flags: /Ogtpy
;	COMDAT ??$_Unfancy@D@std@@YAPEADPEAD@Z
_TEXT	SEGMENT
_Ptr$ = 8
??$_Unfancy@D@std@@YAPEADPEAD@Z PROC			; std::_Unfancy<char>, COMDAT
; File C:\Program Files\Microsoft Visual Studio\18\Community\VC\Tools\MSVC\14.50.35717\include\xmemory
; Line 73
	mov	rax, rcx
; Line 74
	ret	0
??$_Unfancy@D@std@@YAPEADPEAD@Z ENDP			; std::_Unfancy<char>
_TEXT	ENDS
; Function compile flags: /Ogtpy
;	COMDAT ??$_Get_proxy_allocator@V?$allocator@PEAVBaseCube@@@std@@@std@@YA?AU_Fake_allocator@0@AEBV?$allocator@PEAVBaseCube@@@0@@Z
_TEXT	SEGMENT
__formal$ = 8
??$_Get_proxy_allocator@V?$allocator@PEAVBaseCube@@@std@@@std@@YA?AU_Fake_allocator@0@AEBV?$allocator@PEAVBaseCube@@@0@@Z PROC ; std::_Get_proxy_allocator<std::allocator<BaseCube *> >, COMDAT
; File C:\Program Files\Microsoft Visual Studio\18\Community\VC\Tools\MSVC\14.50.35717\include\xmemory
; Line 1517
	xor	al, al
; Line 1518
	ret	0
??$_Get_proxy_allocator@V?$allocator@PEAVBaseCube@@@std@@@std@@YA?AU_Fake_allocator@0@AEBV?$allocator@PEAVBaseCube@@@0@@Z ENDP ; std::_Get_proxy_allocator<std::allocator<BaseCube *> >
_TEXT	ENDS
; Function compile flags: /Ogtpy
;	COMDAT ??$?0$$V@?$_Compressed_pair@V?$allocator@PEAVBaseCube@@@std@@V?$_Vector_val@U?$_Simple_types@PEAVBaseCube@@@std@@@2@$00@std@@QEAA@U_Zero_then_variadic_args_t@1@@Z
_TEXT	SEGMENT
this$ = 8
__formal$ = 16
??$?0$$V@?$_Compressed_pair@V?$allocator@PEAVBaseCube@@@std@@V?$_Vector_val@U?$_Simple_types@PEAVBaseCube@@@std@@@2@$00@std@@QEAA@U_Zero_then_variadic_args_t@1@@Z PROC ; std::_Compressed_pair<std::allocator<BaseCube *>,std::_Vector_val<std::_Simple_types<BaseCube *> >,1>::_Compressed_pair<std::allocator<BaseCube *>,std::_Vector_val<std::_Simple_types<BaseCube *> >,1><>, COMDAT
; File C:\Program Files\Microsoft Visual Studio\18\Community\VC\Tools\MSVC\14.50.35717\include\xmemory
; File C:\Program Files\Microsoft Visual Studio\18\Community\VC\Tools\MSVC\14.50.35717\include\vector
; Line 400
	xor	eax, eax
	mov	QWORD PTR [rcx], rax
	mov	QWORD PTR [rcx+8], rax
	mov	QWORD PTR [rcx+16], rax
; File C:\Program Files\Microsoft Visual Studio\18\Community\VC\Tools\MSVC\14.50.35717\include\xmemory
; Line 1551
	mov	rax, rcx
	ret	0
??$?0$$V@?$_Compressed_pair@V?$allocator@PEAVBaseCube@@@std@@V?$_Vector_val@U?$_Simple_types@PEAVBaseCube@@@std@@@2@$00@std@@QEAA@U_Zero_then_variadic_args_t@1@@Z ENDP ; std::_Compressed_pair<std::allocator<BaseCube *>,std::_Vector_val<std::_Simple_types<BaseCube *> >,1>::_Compressed_pair<std::allocator<BaseCube *>,std::_Vector_val<std::_Simple_types<BaseCube *> >,1><>
_TEXT	ENDS
; Function compile flags: /Ogtpy
;	COMDAT ??$_Get_proxy_allocator@V?$allocator@I@std@@@std@@YA?AU_Fake_allocator@0@AEBV?$allocator@I@0@@Z
_TEXT	SEGMENT
__formal$ = 8
??$_Get_proxy_allocator@V?$allocator@I@std@@@std@@YA?AU_Fake_allocator@0@AEBV?$allocator@I@0@@Z PROC ; std::_Get_proxy_allocator<std::allocator<unsigned int> >, COMDAT
; File C:\Program Files\Microsoft Visual Studio\18\Community\VC\Tools\MSVC\14.50.35717\include\xmemory
; Line 1517
	xor	al, al
; Line 1518
	ret	0
??$_Get_proxy_allocator@V?$allocator@I@std@@@std@@YA?AU_Fake_allocator@0@AEBV?$allocator@I@0@@Z ENDP ; std::_Get_proxy_allocator<std::allocator<unsigned int> >
_TEXT	ENDS
; Function compile flags: /Ogtpy
;	COMDAT ??$?0$$V@?$_Compressed_pair@V?$allocator@I@std@@V?$_Vector_val@U?$_Simple_types@I@std@@@2@$00@std@@QEAA@U_Zero_then_variadic_args_t@1@@Z
_TEXT	SEGMENT
this$ = 8
__formal$ = 16
??$?0$$V@?$_Compressed_pair@V?$allocator@I@std@@V?$_Vector_val@U?$_Simple_types@I@std@@@2@$00@std@@QEAA@U_Zero_then_variadic_args_t@1@@Z PROC ; std::_Compressed_pair<std::allocator<unsigned int>,std::_Vector_val<std::_Simple_types<unsigned int> >,1>::_Compressed_pair<std::allocator<unsigned int>,std::_Vector_val<std::_Simple_types<unsigned int> >,1><>, COMDAT
; File C:\Program Files\Microsoft Visual Studio\18\Community\VC\Tools\MSVC\14.50.35717\include\xmemory
; File C:\Program Files\Microsoft Visual Studio\18\Community\VC\Tools\MSVC\14.50.35717\include\vector
; Line 400
	xor	eax, eax
	mov	QWORD PTR [rcx], rax
	mov	QWORD PTR [rcx+8], rax
	mov	QWORD PTR [rcx+16], rax
; File C:\Program Files\Microsoft Visual Studio\18\Community\VC\Tools\MSVC\14.50.35717\include\xmemory
; Line 1551
	mov	rax, rcx
	ret	0
??$?0$$V@?$_Compressed_pair@V?$allocator@I@std@@V?$_Vector_val@U?$_Simple_types@I@std@@@2@$00@std@@QEAA@U_Zero_then_variadic_args_t@1@@Z ENDP ; std::_Compressed_pair<std::allocator<unsigned int>,std::_Vector_val<std::_Simple_types<unsigned int> >,1>::_Compressed_pair<std::allocator<unsigned int>,std::_Vector_val<std::_Simple_types<unsigned int> >,1><>
_TEXT	ENDS
; Function compile flags: /Ogtpy
;	COMDAT ??$endl@DU?$char_traits@D@std@@@std@@YAAEAV?$basic_ostream@DU?$char_traits@D@std@@@0@AEAV10@@Z
_TEXT	SEGMENT
_Ostr$ = 48
??$endl@DU?$char_traits@D@std@@@std@@YAAEAV?$basic_ostream@DU?$char_traits@D@std@@@0@AEAV10@@Z PROC ; std::endl<char,std::char_traits<char> >, COMDAT
; File C:\Program Files\Microsoft Visual Studio\18\Community\VC\Tools\MSVC\14.50.35717\include\__msvc_ostream.hpp
; Line 1012
$LN4:
	push	rbx
	sub	rsp, 32					; 00000020H
; Line 1013
	mov	rax, QWORD PTR [rcx]
	mov	rbx, rcx
	mov	dl, 10
	movsxd	rcx, DWORD PTR [rax+4]
	add	rcx, rbx
	call	QWORD PTR __imp_?widen@?$basic_ios@DU?$char_traits@D@std@@@std@@QEBADD@Z
	movzx	edx, al
	mov	rcx, rbx
	call	QWORD PTR __imp_?put@?$basic_ostream@DU?$char_traits@D@std@@@std@@QEAAAEAV12@D@Z
; Line 1014
	mov	rcx, rbx
	call	QWORD PTR __imp_?flush@?$basic_ostream@DU?$char_traits@D@std@@@std@@QEAAAEAV12@XZ
; Line 1015
	mov	rax, rbx
; Line 1016
	add	rsp, 32					; 00000020H
	pop	rbx
	ret	0
??$endl@DU?$char_traits@D@std@@@std@@YAAEAV?$basic_ostream@DU?$char_traits@D@std@@@0@AEAV10@@Z ENDP ; std::endl<char,std::char_traits<char> >
_TEXT	ENDS
; Function compile flags: /Ogtpy
;	COMDAT main
_TEXT	SEGMENT
$T16 = 48
$T17 = 48
$T18 = 48
$T19 = 48
$T20 = 48
$T21 = 64
$T22 = 64
$T23 = 64
$T24 = 64
$T25 = 64
$T26 = 80
$T27 = 80
$T28 = 80
$T29 = 80
$T30 = 80
$T31 = 80
luauEngine$ = 88
limabis$1$ = 104
renderer$ = 112
physicsEngine$ = 160
user$ = 240
$T32 = 352
$T33 = 352
workspace$ = 384
__$ArrayPad$ = 560
main	PROC						; COMDAT
; File C:\Users\RedDragon\Documents\Recubin\src\main.cpp
; Line 54
$LN507:
	mov	rax, rsp
	push	rbp
	push	rbx
	push	rsi
	push	rdi
	push	r12
	push	r13
	push	r14
	push	r15
	lea	rbp, QWORD PTR [rax-440]
	sub	rsp, 632				; 00000278H
	movaps	XMMWORD PTR [rax-88], xmm6
	movaps	XMMWORD PTR [rax-104], xmm7
	movaps	XMMWORD PTR [rax-120], xmm8
	mov	rax, QWORD PTR __security_cookie
	xor	rax, rsp
	mov	QWORD PTR __$ArrayPad$[rbp-256], rax
; Line 55
	lea	rdx, OFFSET FLAT:??_C@_0O@CMJEMIJA@Hello?5world?$CB?6@
	mov	rcx, QWORD PTR __imp_?cout@std@@3V?$basic_ostream@DU?$char_traits@D@std@@@1@A
	call	??$?6U?$char_traits@D@std@@@std@@YAAEAV?$basic_ostream@DU?$char_traits@D@std@@@0@AEAV10@PEBD@Z ; std::operator<<<std::char_traits<char> >
	mov	rcx, rax
	lea	rdx, OFFSET FLAT:??_C@_0O@JMNGOOAA@Version?50?466?6@
	call	??$?6U?$char_traits@D@std@@@std@@YAAEAV?$basic_ostream@DU?$char_traits@D@std@@@0@AEAV10@PEBD@Z ; std::operator<<<std::char_traits<char> >
; Line 26
	lea	rdx, OFFSET FLAT:??_C@_0BB@IAAJCMMM@initing?5GLFW?4?4?4?6@
	mov	rcx, QWORD PTR __imp_?cout@std@@3V?$basic_ostream@DU?$char_traits@D@std@@@1@A
	call	??$?6U?$char_traits@D@std@@@std@@YAAEAV?$basic_ostream@DU?$char_traits@D@std@@@0@AEAV10@PEBD@Z ; std::operator<<<std::char_traits<char> >
; Line 27
	call	glfwInit
	mov	rcx, QWORD PTR __imp_?cout@std@@3V?$basic_ostream@DU?$char_traits@D@std@@@1@A
	test	eax, eax
	jne	SHORT $LN32@main
; Line 28
	lea	rdx, OFFSET FLAT:??_C@_0BC@EBHAINFF@GLFW?5init?5failed?6@
; Line 29
	jmp	$LN504@main
$LN32@main:
; Line 32
	lea	rdx, OFFSET FLAT:??_C@_0BE@DPHBGMBN@creating?5window?4?4?4?6@
	call	??$?6U?$char_traits@D@std@@@std@@YAAEAV?$basic_ostream@DU?$char_traits@D@std@@@0@AEAV10@PEBD@Z ; std::operator<<<std::char_traits<char> >
; Line 33
	xor	ebx, ebx
	mov	QWORD PTR [rsp+32], rbx
	xor	r9d, r9d
	lea	r8, OFFSET FLAT:??_C@_0BD@FCNEPOEO@Welcome?5to?5Recubin@
	mov	edx, 600				; 00000258H
	mov	ecx, 800				; 00000320H
	call	glfwCreateWindow
	mov	rdi, rax
; Line 34
	test	rax, rax
	jne	SHORT $LN33@main
; Line 35
	lea	rdx, OFFSET FLAT:??_C@_0BI@MEMILFDL@Window?5creation?5failed?6@
	mov	rcx, QWORD PTR __imp_?cout@std@@3V?$basic_ostream@DU?$char_traits@D@std@@@1@A
	call	??$?6U?$char_traits@D@std@@@std@@YAAEAV?$basic_ostream@DU?$char_traits@D@std@@@0@AEAV10@PEBD@Z ; std::operator<<<std::char_traits<char> >
; Line 36
	call	glfwTerminate
; Line 37
	jmp	SHORT $LN498@main
$LN33@main:
; Line 41
	mov	edx, 800				; 00000320H
	mov	r8d, 600				; 00000258H
	mov	rcx, rdi
	call	glfwSetWindowAspectRatio
; Line 43
	lea	rdx, OFFSET FLAT:??_C@_0BD@HJCBHOLF@making?5context?4?4?4?6@
	mov	rcx, QWORD PTR __imp_?cout@std@@3V?$basic_ostream@DU?$char_traits@D@std@@@1@A
	call	??$?6U?$char_traits@D@std@@@std@@YAAEAV?$basic_ostream@DU?$char_traits@D@std@@@0@AEAV10@PEBD@Z ; std::operator<<<std::char_traits<char> >
; Line 44
	mov	rcx, rdi
	call	glfwMakeContextCurrent
; Line 46
	lea	rdx, OFFSET FLAT:??_C@_0BB@LBOBDGFB@initing?5GLEW?4?4?4?6@
	mov	rcx, QWORD PTR __imp_?cout@std@@3V?$basic_ostream@DU?$char_traits@D@std@@@1@A
	call	??$?6U?$char_traits@D@std@@@std@@YAAEAV?$basic_ostream@DU?$char_traits@D@std@@@0@AEAV10@PEBD@Z ; std::operator<<<std::char_traits<char> >
; Line 47
	call	glewInit
	test	eax, eax
	je	SHORT $LN4@main
; Line 48
	lea	rdx, OFFSET FLAT:??_C@_0BC@GILIDJKH@GLEW?5init?5failed?6@
	mov	rcx, QWORD PTR __imp_?cout@std@@3V?$basic_ostream@DU?$char_traits@D@std@@@1@A
$LN504@main:
; Line 59
	call	??$?6U?$char_traits@D@std@@@std@@YAAEAV?$basic_ostream@DU?$char_traits@D@std@@@0@AEAV10@PEBD@Z ; std::operator<<<std::char_traits<char> >
$LN498@main:
	lea	rdx, OFFSET FLAT:??_C@_0BK@HFNBFIKJ@?$FLERROR?$FN?5Failed?5to?5setup?4?6@
	mov	rcx, QWORD PTR __imp_?cout@std@@3V?$basic_ostream@DU?$char_traits@D@std@@@1@A
	call	??$?6U?$char_traits@D@std@@@std@@YAAEAV?$basic_ostream@DU?$char_traits@D@std@@@0@AEAV10@PEBD@Z ; std::operator<<<std::char_traits<char> >
; Line 60
	mov	eax, -1
	jmp	$LN1@main
$LN4@main:
; Line 63
	mov	rdx, rdi
	lea	rcx, QWORD PTR user$[rbp-256]
	call	??0User@@QEAA@PEAUGLFWwindow@@@Z	; User::User
	xorps	xmm0, xmm0
; File C:\Program Files\Microsoft Visual Studio\18\Community\VC\Tools\MSVC\14.50.35717\include\vector
; Line 400
	movdqu	XMMWORD PTR renderer$[rbp-240], xmm0
	mov	QWORD PTR renderer$[rbp-224], rbx
	movdqa	XMMWORD PTR physicsEngine$[rbp-256], xmm0
	xorps	xmm1, xmm1
	movdqa	XMMWORD PTR physicsEngine$[rbp-240], xmm1
	lea	rax, OFFSET FLAT:??_7PxDefaultAllocator@physx@@6B@
	mov	QWORD PTR physicsEngine$[rbp-224], rax
	lea	rcx, QWORD PTR physicsEngine$[rbp-216]
	call	??0PxDefaultErrorCallback@physx@@QEAA@XZ ; physx::PxDefaultErrorCallback::PxDefaultErrorCallback
	xorps	xmm0, xmm0
	movdqa	XMMWORD PTR physicsEngine$[rbp-208], xmm0
	mov	QWORD PTR physicsEngine$[rbp-192], rbx
; File C:\Users\RedDragon\Documents\Recubin\src\main.cpp
; Line 66
	lea	rcx, QWORD PTR luauEngine$[rsp]
	call	??0LuauEngine@@QEAA@XZ			; LuauEngine::LuauEngine
	npad	1
; Line 68
	lea	rcx, QWORD PTR physicsEngine$[rbp-256]
	call	?init@Physics@@QEAAXXZ			; Physics::init
; Line 69
	lea	rcx, QWORD PTR renderer$[rsp]
	call	?init@Renderer@@QEAAXXZ			; Renderer::init
; Line 71
	lea	rdx, OFFSET FLAT:??_C@_0BM@PAPOLKLO@assets?1image?1floppa2048?4jpg@
	lea	rcx, QWORD PTR renderer$[rsp]
	call	?loadTexture@Renderer@@QEAAIPEBD@Z	; Renderer::loadTexture
	mov	esi, eax
; Line 72
	lea	rdx, OFFSET FLAT:??_C@_0BJ@LKJAONFL@assets?1image?1the?9cat?4png@
	lea	rcx, QWORD PTR renderer$[rsp]
	call	?loadTexture@Renderer@@QEAAIPEBD@Z	; Renderer::loadTexture
	mov	r14d, eax
; Line 73
	lea	rdx, OFFSET FLAT:??_C@_0BL@HFFFDACB@assets?1image?1salad?9cat?4jpg@
	lea	rcx, QWORD PTR renderer$[rsp]
	call	?loadTexture@Renderer@@QEAAIPEBD@Z	; Renderer::loadTexture
	mov	r15d, eax
; Line 74
	lea	rdx, OFFSET FLAT:??_C@_0BH@EFEGFJOC@assets?1image?1smile?4png@
	lea	rcx, QWORD PTR renderer$[rsp]
	call	?loadTexture@Renderer@@QEAAIPEBD@Z	; Renderer::loadTexture
	mov	r12d, eax
; Line 75
	lea	rdx, OFFSET FLAT:??_C@_0BH@PHFEJDFH@assets?1image?1bliss?4jpg@
	lea	rcx, QWORD PTR renderer$[rsp]
	call	?loadTexture@Renderer@@QEAAIPEBD@Z	; Renderer::loadTexture
	mov	r13d, eax
; Line 76
	lea	rdx, OFFSET FLAT:??_C@_0BO@LEENDELH@assets?1image?1Limabis_logo?4png@
	lea	rcx, QWORD PTR renderer$[rsp]
	call	?loadTexture@Renderer@@QEAAIPEBD@Z	; Renderer::loadTexture
	mov	DWORD PTR limabis$1$[rsp], eax
; Line 78
	lea	rcx, QWORD PTR workspace$[rbp-256]
	call	??0Workspace@@QEAA@XZ			; Workspace::Workspace
	npad	1
; Line 81
	lea	rax, QWORD PTR physicsEngine$[rbp-256]
	mov	QWORD PTR workspace$[rbp-144], rax
; Line 84
	mov	ecx, 216				; 000000d8H
	call	??2@YAPEAX_K@Z				; operator new
	mov	QWORD PTR $T26[rsp], rax
	test	rax, rax
	je	SHORT $LN7@main
	mov	DWORD PTR $T16[rsp], 1065353216		; 3f800000H
	mov	DWORD PTR $T16[rsp+4], 1082130432	; 40800000H
	mov	DWORD PTR $T16[rsp+8], 1065353216	; 3f800000H
	mov	QWORD PTR $T21[rsp], 0
	mov	DWORD PTR $T21[rsp+8], -1073741824	; c0000000H
	mov	r9d, DWORD PTR renderer$[rbp-216]
	lea	r8, QWORD PTR $T16[rsp]
	lea	rdx, QWORD PTR $T21[rsp]
	mov	rcx, rax
	call	??0Cube@@QEAA@UVector3@@0I@Z		; Cube::Cube
	mov	rbx, rax
$LN7@main:
; Line 85
	lea	rcx, QWORD PTR [rbx+8]
; File C:\Program Files\Microsoft Visual Studio\18\Community\VC\Tools\MSVC\14.50.35717\include\xstring
; Line 1654
	mov	r8d, 4
	lea	rdx, OFFSET FLAT:??_C@_04CAKOHOCJ@Blue@
	call	??$_Assign@D@?$basic_string@DU?$char_traits@D@std@@V?$allocator@D@2@@std@@AEAAAEAV01@QEBD_K@Z ; std::basic_string<char,std::char_traits<char>,std::allocator<char> >::_Assign<char>
; File C:\Users\RedDragon\Documents\Recubin\src\main.cpp
; Line 86
	xor	eax, eax
	mov	QWORD PTR [rbx+156], rax
	mov	DWORD PTR [rbx+164], 1065353216		; 3f800000H
	mov	DWORD PTR [rbx+168], 1065353216		; 3f800000H
; Line 87
	mov	rdx, rbx
	lea	rcx, QWORD PTR workspace$[rbp-256]
	call	?addChild@Instance@@UEAAXPEAV1@@Z	; Instance::addChild
; Line 90
	mov	ecx, 216				; 000000d8H
	call	??2@YAPEAX_K@Z				; operator new
	mov	QWORD PTR $T27[rsp], rax
	test	rax, rax
	je	SHORT $LN9@main
	mov	DWORD PTR $T22[rsp], 1065353216		; 3f800000H
	mov	DWORD PTR $T22[rsp+4], 1065353216	; 3f800000H
	mov	DWORD PTR $T22[rsp+8], 1065353216	; 3f800000H
	mov	QWORD PTR $T17[rsp], 1073741824		; 40000000H
	mov	DWORD PTR $T17[rsp+8], -1065353216	; c0800000H
	mov	r9d, DWORD PTR renderer$[rbp-216]
	lea	r8, QWORD PTR $T22[rsp]
	lea	rdx, QWORD PTR $T17[rsp]
	mov	rcx, rax
	call	??0Cube@@QEAA@UVector3@@0I@Z		; Cube::Cube
	mov	rbx, rax
	jmp	SHORT $LN10@main
$LN9@main:
	xor	ebx, ebx
$LN10@main:
; Line 91
	lea	rcx, QWORD PTR [rbx+8]
; File C:\Program Files\Microsoft Visual Studio\18\Community\VC\Tools\MSVC\14.50.35717\include\xstring
; Line 1654
	mov	r8d, 3
	lea	rdx, OFFSET FLAT:??_C@_03PADCEAKC@Red@
	call	??$_Assign@D@?$basic_string@DU?$char_traits@D@std@@V?$allocator@D@2@@std@@AEAAAEAV01@QEBD_K@Z ; std::basic_string<char,std::char_traits<char>,std::allocator<char> >::_Assign<char>
; File C:\Users\RedDragon\Documents\Recubin\src\main.cpp
; Line 92
	mov	QWORD PTR [rbx+156], 1065353216		; 3f800000H
	xor	eax, eax
	mov	DWORD PTR [rbx+164], eax
	mov	DWORD PTR [rbx+168], 1065353216		; 3f800000H
; Line 93
	mov	rdx, rbx
	lea	rcx, QWORD PTR workspace$[rbp-256]
	call	?addChild@Instance@@UEAAXPEAV1@@Z	; Instance::addChild
; Line 96
	mov	ecx, 216				; 000000d8H
	call	??2@YAPEAX_K@Z				; operator new
	mov	QWORD PTR $T28[rsp], rax
	test	rax, rax
	je	SHORT $LN11@main
	mov	DWORD PTR $T23[rsp], 1073741824		; 40000000H
	mov	DWORD PTR $T23[rsp+4], 1065353216	; 3f800000H
	mov	DWORD PTR $T23[rsp+8], 1065353216	; 3f800000H
	mov	DWORD PTR $T18[rsp], -1073741824	; c0000000H
	mov	DWORD PTR $T18[rsp+4], 0
	mov	DWORD PTR $T18[rsp+8], -1065353216	; c0800000H
	mov	r9d, DWORD PTR renderer$[rbp-216]
	lea	r8, QWORD PTR $T23[rsp]
	lea	rdx, QWORD PTR $T18[rsp]
	mov	rcx, rax
	call	??0Cube@@QEAA@UVector3@@0I@Z		; Cube::Cube
	mov	rbx, rax
	jmp	SHORT $LN12@main
$LN11@main:
	xor	ebx, ebx
$LN12@main:
; Line 97
	lea	rcx, QWORD PTR [rbx+8]
; File C:\Program Files\Microsoft Visual Studio\18\Community\VC\Tools\MSVC\14.50.35717\include\xstring
; Line 1654
	mov	r8d, 5
	lea	rdx, OFFSET FLAT:??_C@_05GGOIJPPE@Green@
	call	??$_Assign@D@?$basic_string@DU?$char_traits@D@std@@V?$allocator@D@2@@std@@AEAAAEAV01@QEBD_K@Z ; std::basic_string<char,std::char_traits<char>,std::allocator<char> >::_Assign<char>
; File C:\Users\RedDragon\Documents\Recubin\src\main.cpp
; Line 98
	xor	eax, eax
	mov	DWORD PTR [rbx+156], eax
	mov	QWORD PTR [rbx+160], 1065353216		; 3f800000H
	mov	DWORD PTR [rbx+168], 1065353216		; 3f800000H
; Line 99
	mov	rdx, rbx
	lea	rcx, QWORD PTR workspace$[rbp-256]
	call	?addChild@Instance@@UEAAXPEAV1@@Z	; Instance::addChild
; Line 102
	mov	ecx, 216				; 000000d8H
	call	??2@YAPEAX_K@Z				; operator new
	mov	QWORD PTR $T29[rsp], rax
	test	rax, rax
	je	SHORT $LN13@main
	mov	DWORD PTR $T24[rsp], 1073741824		; 40000000H
	mov	DWORD PTR $T24[rsp+4], 1073741824	; 40000000H
	mov	DWORD PTR $T24[rsp+8], 1073741824	; 40000000H
	mov	QWORD PTR $T19[rsp], 0
	mov	DWORD PTR $T19[rsp+8], -1056964608	; c1000000H
	mov	r9d, DWORD PTR renderer$[rbp-216]
	lea	r8, QWORD PTR $T24[rsp]
	lea	rdx, QWORD PTR $T19[rsp]
	mov	rcx, rax
	call	??0Cube@@QEAA@UVector3@@0I@Z		; Cube::Cube
	mov	rbx, rax
	jmp	SHORT $LN14@main
$LN13@main:
	xor	ebx, ebx
$LN14@main:
; Line 103
	lea	rcx, QWORD PTR [rbx+8]
; File C:\Program Files\Microsoft Visual Studio\18\Community\VC\Tools\MSVC\14.50.35717\include\xstring
; Line 1654
	mov	r8d, 6
	lea	rdx, OFFSET FLAT:??_C@_06GCDENNFF@Floppa@
	call	??$_Assign@D@?$basic_string@DU?$char_traits@D@std@@V?$allocator@D@2@@std@@AEAAAEAV01@QEBD_K@Z ; std::basic_string<char,std::char_traits<char>,std::allocator<char> >::_Assign<char>
; File C:\Users\RedDragon\Documents\Recubin\src\main.cpp
; Line 104
	mov	DWORD PTR [rbx+156], 1065353216		; 3f800000H
	mov	DWORD PTR [rbx+160], 1065353216		; 3f800000H
	mov	DWORD PTR [rbx+164], 1065353216		; 3f800000H
	mov	DWORD PTR [rbx+168], 1065353216		; 3f800000H
; Line 107
	mov	r8d, esi
	xor	edx, edx
	mov	rcx, rbx
	call	?setFaceTexture@Cube@@QEAAXHI@Z		; Cube::setFaceTexture
; Line 108
	mov	r8d, r14d
	mov	edx, 1
	mov	rcx, rbx
	call	?setFaceTexture@Cube@@QEAAXHI@Z		; Cube::setFaceTexture
; Line 109
	mov	r8d, r15d
	mov	edx, 2
	mov	rcx, rbx
	call	?setFaceTexture@Cube@@QEAAXHI@Z		; Cube::setFaceTexture
; Line 110
	mov	r8d, r12d
	mov	edx, 3
	mov	rcx, rbx
	call	?setFaceTexture@Cube@@QEAAXHI@Z		; Cube::setFaceTexture
; Line 111
	mov	r8d, r13d
	mov	edx, 4
	mov	rcx, rbx
	call	?setFaceTexture@Cube@@QEAAXHI@Z		; Cube::setFaceTexture
; Line 112
	mov	r8d, DWORD PTR limabis$1$[rsp]
	mov	edx, 5
	mov	rcx, rbx
	call	?setFaceTexture@Cube@@QEAAXHI@Z		; Cube::setFaceTexture
; Line 114
	mov	rdx, rbx
	lea	rcx, QWORD PTR workspace$[rbp-256]
	call	?addChild@Instance@@UEAAXPEAV1@@Z	; Instance::addChild
; Line 116
	lea	r8, QWORD PTR workspace$[rbp-256]
	lea	rdx, QWORD PTR workspace$[rbp-248]
	lea	rcx, QWORD PTR luauEngine$[rsp]
	call	?setGlobalInstance@LuauEngine@@QEAAXAEBV?$basic_string@DU?$char_traits@D@std@@V?$allocator@D@2@@std@@PEAVInstance@@@Z ; LuauEngine::setGlobalInstance
	xorps	xmm0, xmm0
; File C:\Program Files\Microsoft Visual Studio\18\Community\VC\Tools\MSVC\14.50.35717\include\xstring
; Line 493
	movups	XMMWORD PTR $T32[rbp-256], xmm0
; Line 940
	mov	QWORD PTR $T32[rbp-240], 9
; Line 941
	mov	QWORD PTR $T32[rbp-232], 15
; File C:\Program Files\Microsoft Visual Studio\18\Community\VC\Tools\MSVC\14.50.35717\include\__msvc_string_view.hpp
; Line 200
	movsd	xmm0, QWORD PTR ??_C@_09EJBLCMLC@workspace@
	movsd	QWORD PTR $T32[rbp-256], xmm0
	movzx	eax, BYTE PTR ??_C@_09EJBLCMLC@workspace@+8
	mov	BYTE PTR $T32[rbp-248], al
; File C:\Program Files\Microsoft Visual Studio\18\Community\VC\Tools\MSVC\14.50.35717\include\xstring
; Line 948
	mov	BYTE PTR $T32[rbp-247], 0
; File C:\Users\RedDragon\Documents\Recubin\src\main.cpp
; Line 117
	lea	r8, QWORD PTR workspace$[rbp-256]
	lea	rdx, QWORD PTR $T32[rbp-256]
	lea	rcx, QWORD PTR luauEngine$[rsp]
	call	?setGlobalInstance@LuauEngine@@QEAAXAEBV?$basic_string@DU?$char_traits@D@std@@V?$allocator@D@2@@std@@PEAVInstance@@@Z ; LuauEngine::setGlobalInstance
	npad	1
; File C:\Program Files\Microsoft Visual Studio\18\Community\VC\Tools\MSVC\14.50.35717\include\xstring
; Line 453
	mov	rdx, QWORD PTR $T32[rbp-232]
	cmp	rdx, 15
; Line 3169
	jbe	SHORT $LN220@main
; Line 3172
	mov	rax, QWORD PTR $T32[rbp-256]
; Line 902
	inc	rdx
; File C:\Program Files\Microsoft Visual Studio\18\Community\VC\Tools\MSVC\14.50.35717\include\xmemory
; Line 288
	cmp	rdx, 4096				; 00001000H
	jb	SHORT $LN499@main
; Line 209
	mov	rcx, QWORD PTR [rax-8]
; Line 223
	sub	rax, rcx
	sub	rax, 8
	cmp	rax, 31
	ja	SHORT $LN227@main
; Line 206
	add	rdx, 39					; 00000027H
; Line 224
	jmp	SHORT $LN228@main
$LN227@main:
; Line 223
	mov	ecx, 5
	int	41					; 00000029H
$LN499@main:
; Line 989
	mov	rcx, rax
$LN228@main:
; Line 293
	call	??3@YAXPEAX_K@Z				; operator delete
$LN220@main:
; File C:\Users\RedDragon\Documents\Recubin\src\main.cpp
; Line 119
	lea	rdx, QWORD PTR workspace$[rbp-256]
	lea	rcx, QWORD PTR luauEngine$[rsp]
	call	?setWorkspace@LuauEngine@@QEAAXPEAVWorkspace@@@Z ; LuauEngine::setWorkspace
; Line 122
	mov	ecx, 208				; 000000d0H
	call	??2@YAPEAX_K@Z				; operator new
	mov	rbx, rax
	mov	QWORD PTR $T30[rsp], rax
	xor	esi, esi
	test	rax, rax
	je	SHORT $LN15@main
	xorps	xmm0, xmm0
; File C:\Program Files\Microsoft Visual Studio\18\Community\VC\Tools\MSVC\14.50.35717\include\xstring
; Line 493
	movups	XMMWORD PTR $T33[rbp-256], xmm0
; Line 517
	mov	QWORD PTR $T33[rbp-240], rsi
; Line 518
	mov	QWORD PTR $T33[rbp-232], rsi
; File C:\Program Files\Microsoft Visual Studio\18\Community\VC\Tools\MSVC\14.50.35717\include\xmemory
; Line 140
	mov	ecx, 32					; 00000020H
	call	??2@YAPEAX_K@Z				; operator new
; File C:\Program Files\Microsoft Visual Studio\18\Community\VC\Tools\MSVC\14.50.35717\include\xstring
; Line 963
	mov	QWORD PTR $T33[rbp-256], rax
; Line 965
	mov	QWORD PTR $T33[rbp-240], 17
; Line 966
	mov	QWORD PTR $T33[rbp-232], 31
; File C:\Program Files\Microsoft Visual Studio\18\Community\VC\Tools\MSVC\14.50.35717\include\__msvc_string_view.hpp
; Line 200
	movups	xmm0, XMMWORD PTR ??_C@_0BC@NEBLDNOE@scripts?1test?4luau@
	movups	XMMWORD PTR [rax], xmm0
	movzx	ecx, BYTE PTR ??_C@_0BC@NEBLDNOE@scripts?1test?4luau@+16
	mov	BYTE PTR [rax+16], cl
; File C:\Program Files\Microsoft Visual Studio\18\Community\VC\Tools\MSVC\14.50.35717\include\xstring
; Line 972
	mov	BYTE PTR [rax+17], sil
; File C:\Users\RedDragon\Documents\Recubin\src\main.cpp
; Line 122
	lea	rdx, QWORD PTR $T33[rbp-256]
	mov	rcx, rbx
	call	??0Script@@QEAA@V?$basic_string@DU?$char_traits@D@std@@V?$allocator@D@2@@std@@@Z ; Script::Script
	mov	rbx, rax
	jmp	SHORT $LN16@main
$LN15@main:
	mov	rbx, rsi
$LN16@main:
; Line 123
	lea	rcx, QWORD PTR [rbx+8]
; File C:\Program Files\Microsoft Visual Studio\18\Community\VC\Tools\MSVC\14.50.35717\include\xstring
; Line 1654
	mov	r8d, 10
	lea	rdx, OFFSET FLAT:??_C@_0L@MMCGBOKB@TestScript@
	call	??$_Assign@D@?$basic_string@DU?$char_traits@D@std@@V?$allocator@D@2@@std@@AEAAAEAV01@QEBD_K@Z ; std::basic_string<char,std::char_traits<char>,std::allocator<char> >::_Assign<char>
; File C:\Users\RedDragon\Documents\Recubin\src\main.cpp
; Line 125
	mov	rdx, rbx
	lea	rcx, QWORD PTR workspace$[rbp-256]
	call	?addChild@Instance@@UEAAXPEAV1@@Z	; Instance::addChild
; Line 127
	mov	ecx, 216				; 000000d8H
	call	??2@YAPEAX_K@Z				; operator new
	mov	QWORD PTR $T31[rsp], rax
	test	rax, rax
	je	SHORT $LN17@main
	mov	DWORD PTR $T25[rsp], 1107296256		; 42000000H
	mov	DWORD PTR $T25[rsp+4], 1065353216	; 3f800000H
	mov	DWORD PTR $T25[rsp+8], 1107296256	; 42000000H
	mov	DWORD PTR $T20[rsp], 0
	mov	DWORD PTR $T20[rsp+4], -1054867456	; c1200000H
	mov	DWORD PTR $T20[rsp+8], 0
	mov	r9d, DWORD PTR renderer$[rbp-216]
	lea	r8, QWORD PTR $T25[rsp]
	lea	rdx, QWORD PTR $T20[rsp]
	mov	rcx, rax
	call	??0Cube@@QEAA@UVector3@@0I@Z		; Cube::Cube
	mov	rbx, rax
	jmp	SHORT $LN18@main
$LN17@main:
	mov	rbx, rsi
$LN18@main:
; Line 128
	lea	rcx, QWORD PTR [rbx+8]
; File C:\Program Files\Microsoft Visual Studio\18\Community\VC\Tools\MSVC\14.50.35717\include\xstring
; Line 1654
	mov	r8d, 9
	lea	rdx, OFFSET FLAT:??_C@_09KJHLHIEH@Baseplate@
	call	??$_Assign@D@?$basic_string@DU?$char_traits@D@std@@V?$allocator@D@2@@std@@AEAAAEAV01@QEBD_K@Z ; std::basic_string<char,std::char_traits<char>,std::allocator<char> >::_Assign<char>
; File C:\Users\RedDragon\Documents\Recubin\src\main.cpp
; Line 129
	mov	DWORD PTR [rbx+156], esi
	mov	DWORD PTR [rbx+160], 1065353216		; 3f800000H
	mov	DWORD PTR [rbx+164], 1056964608		; 3f000000H
	mov	DWORD PTR [rbx+168], 1065353216		; 3f800000H
; Line 130
	mov	BYTE PTR [rbx+152], 1
; Line 131
	mov	rdx, rbx
	lea	rcx, QWORD PTR workspace$[rbp-256]
	call	?addChild@Instance@@UEAAXPEAV1@@Z	; Instance::addChild
; Line 133
	call	glfwGetTime
	xorps	xmm8, xmm8
	cvtsd2ss xmm8, xmm0
; Line 134
	mov	rcx, rdi
	call	glfwWindowShouldClose
	test	eax, eax
	jne	$LN432@main
	npad	4
$LL2@main:
; Line 135
	call	glfwGetTime
	xorps	xmm7, xmm7
	cvtsd2ss xmm7, xmm0
; Line 136
	movaps	xmm6, xmm7
	subss	xmm6, xmm8
; Line 139
	movaps	xmm2, xmm6
	lea	rdx, QWORD PTR workspace$[rbp-256]
	lea	rcx, QWORD PTR physicsEngine$[rbp-256]
	call	?update@Physics@@QEAAXAEAVWorkspace@@M@Z ; Physics::update
; Line 140
	movaps	xmm1, xmm6
	lea	rcx, QWORD PTR luauEngine$[rsp]
	call	?update@LuauEngine@@QEAAXM@Z		; LuauEngine::update
; Line 143
	lea	rcx, QWORD PTR luauEngine$[rsp]
	call	?executeWorkspaceScripts@LuauEngine@@QEAAXXZ ; LuauEngine::executeWorkspaceScripts
; Line 145
	mov	ecx, 16640				; 00004100H
	call	QWORD PTR __imp_glClear
; Line 148
	lea	rcx, QWORD PTR user$[rbp-256]
	call	?processInput@User@@QEAAXXZ		; User::processInput
; Line 149
	cmp	BYTE PTR user$[rbp-156], 0
	jne	SHORT $LN432@main
; Line 137
	movaps	xmm8, xmm7
; Line 153
	lea	r9, QWORD PTR workspace$[rbp-256]
	mov	r8, rdi
	lea	rdx, QWORD PTR user$[rbp-256]
	lea	rcx, QWORD PTR renderer$[rsp]
	call	?render@Renderer@@QEAAXAEAVUser@@PEAUGLFWwindow@@AEAVWorkspace@@@Z ; Renderer::render
; Line 134
	mov	rcx, rdi
	call	glfwWindowShouldClose
	test	eax, eax
	je	SHORT $LL2@main
$LN432@main:
; Line 157
	call	glfwTerminate
; Line 158
	lea	rdx, OFFSET FLAT:??_C@_0CE@DBCKMAIM@?$FLDEBUG?$FN?5Main?5loop?5ended?4?5wannaE@
	mov	rcx, QWORD PTR __imp_?cout@std@@3V?$basic_ostream@DU?$char_traits@D@std@@@1@A
	call	??$?6U?$char_traits@D@std@@@std@@YAAEAV?$basic_ostream@DU?$char_traits@D@std@@@0@AEAV10@PEBD@Z ; std::operator<<<std::char_traits<char> >
	movzx	edx, BYTE PTR user$[rbp-156]
	mov	rcx, rax
	call	QWORD PTR __imp_??6?$basic_ostream@DU?$char_traits@D@std@@@std@@QEAAAEAV01@_N@Z
	mov	rcx, rax
	lea	rdx, OFFSET FLAT:??_C@_0BE@GKCGIABO@?5windowShouldClose?$DN@
	call	??$?6U?$char_traits@D@std@@@std@@YAAEAV?$basic_ostream@DU?$char_traits@D@std@@@0@AEAV10@PEBD@Z ; std::operator<<<std::char_traits<char> >
	mov	rbx, rax
	mov	rcx, rdi
	call	glfwWindowShouldClose
	mov	edx, eax
	mov	rcx, rbx
	call	QWORD PTR __imp_??6?$basic_ostream@DU?$char_traits@D@std@@@std@@QEAAAEAV01@H@Z
	lea	rdx, OFFSET FLAT:??$endl@DU?$char_traits@D@std@@@std@@YAAEAV?$basic_ostream@DU?$char_traits@D@std@@@0@AEAV10@@Z ; std::endl<char,std::char_traits<char> >
	mov	rcx, rax
	call	QWORD PTR __imp_??6?$basic_ostream@DU?$char_traits@D@std@@@std@@QEAAAEAV01@P6AAEAV01@AEAV01@@Z@Z
	npad	1
	lea	rcx, QWORD PTR workspace$[rbp-112]
	call	??1?$vector@PEAVInstance@@V?$allocator@PEAVInstance@@@std@@@std@@QEAA@XZ ; std::vector<Instance *,std::allocator<Instance *> >::~vector<Instance *,std::allocator<Instance *> >
	lea	rcx, QWORD PTR workspace$[rbp-136]
	call	??1?$vector@PEAVInstance@@V?$allocator@PEAVInstance@@@std@@@std@@QEAA@XZ ; std::vector<Instance *,std::allocator<Instance *> >::~vector<Instance *,std::allocator<Instance *> >
	lea	rcx, QWORD PTR workspace$[rbp-256]
	call	??1Instance@@UEAA@XZ			; Instance::~Instance
	npad	1
; Line 159
	lea	rcx, QWORD PTR luauEngine$[rsp]
	call	??1LuauEngine@@QEAA@XZ			; LuauEngine::~LuauEngine
	npad	1
; File C:\Program Files\Microsoft Visual Studio\18\Community\VC\Tools\MSVC\14.50.35717\include\vector
; Line 2090
	mov	rcx, QWORD PTR physicsEngine$[rbp-208]
	test	rcx, rcx
	je	SHORT $LN264@main
; Line 2093
	mov	rax, QWORD PTR physicsEngine$[rbp-192]
	sub	rax, rcx
	sar	rax, 3
; File C:\Program Files\Microsoft Visual Studio\18\Community\VC\Tools\MSVC\14.50.35717\include\xmemory
; Line 989
	lea	rdx, QWORD PTR [rax*8]
; Line 288
	cmp	rdx, 4096				; 00001000H
	jb	SHORT $LN500@main
; Line 209
	mov	rax, QWORD PTR [rcx-8]
; Line 223
	sub	rcx, rax
	sub	rcx, 8
	cmp	rcx, 31
	ja	SHORT $LN277@main
; Line 206
	add	rdx, 39					; 00000027H
; Line 224
	jmp	SHORT $LN278@main
$LN277@main:
; Line 223
	mov	ecx, 5
	int	41					; 00000029H
$LN500@main:
; Line 989
	mov	rax, rcx
$LN278@main:
; Line 293
	mov	rcx, rax
	call	??3@YAXPEAX_K@Z				; operator delete
	xorps	xmm0, xmm0
; File C:\Program Files\Microsoft Visual Studio\18\Community\VC\Tools\MSVC\14.50.35717\include\vector
; Line 2095
	movdqa	XMMWORD PTR physicsEngine$[rbp-208], xmm0
; Line 2097
	mov	QWORD PTR physicsEngine$[rbp-192], rsi
$LN264@main:
	lea	rcx, QWORD PTR physicsEngine$[rbp-216]
	call	??1PxDefaultErrorCallback@physx@@UEAA@XZ ; physx::PxDefaultErrorCallback::~PxDefaultErrorCallback
	lea	rax, OFFSET FLAT:??_7PxAllocatorCallback@physx@@6B@
	mov	QWORD PTR physicsEngine$[rbp-224], rax
; Line 2090
	mov	rcx, QWORD PTR renderer$[rbp-240]
	test	rcx, rcx
	je	SHORT $LN304@main
; Line 2093
	mov	rax, QWORD PTR renderer$[rbp-224]
	sub	rax, rcx
	sar	rax, 2
; File C:\Program Files\Microsoft Visual Studio\18\Community\VC\Tools\MSVC\14.50.35717\include\xmemory
; Line 989
	lea	rdx, QWORD PTR [rax*4]
; Line 288
	cmp	rdx, 4096				; 00001000H
	jb	SHORT $LN501@main
; Line 209
	mov	rax, QWORD PTR [rcx-8]
; Line 223
	sub	rcx, rax
	sub	rcx, 8
	cmp	rcx, 31
	ja	SHORT $LN311@main
; Line 206
	add	rdx, 39					; 00000027H
; Line 224
	jmp	SHORT $LN312@main
$LN311@main:
; Line 223
	mov	ecx, 5
	int	41					; 00000029H
$LN501@main:
; Line 989
	mov	rax, rcx
$LN312@main:
; Line 293
	mov	rcx, rax
	call	??3@YAXPEAX_K@Z				; operator delete
$LN304@main:
; File C:\Users\RedDragon\Documents\Recubin\src\main.cpp
; Line 159
	xor	eax, eax
$LN1@main:
; Line 160
	mov	rcx, QWORD PTR __$ArrayPad$[rbp-256]
	xor	rcx, rsp
	call	__security_check_cookie
	lea	r11, QWORD PTR [rsp+632]
	movaps	xmm6, XMMWORD PTR [r11-24]
	movaps	xmm7, XMMWORD PTR [r11-40]
	movaps	xmm8, XMMWORD PTR [r11-56]
	mov	rsp, r11
	pop	r15
	pop	r14
	pop	r13
	pop	r12
	pop	rdi
	pop	rsi
	pop	rbx
	pop	rbp
	ret	0
$LN503@main:
main	ENDP
_TEXT	ENDS
; Function compile flags: /Ogtpy
;	COMDAT text$x
text$x	SEGMENT
$T16 = 48
$T17 = 48
$T18 = 48
$T19 = 48
$T20 = 48
$T21 = 64
$T22 = 64
$T23 = 64
$T24 = 64
$T25 = 64
$T26 = 80
$T27 = 80
$T28 = 80
$T29 = 80
$T30 = 80
$T31 = 80
luauEngine$ = 88
limabis$1$ = 104
renderer$ = 112
physicsEngine$ = 160
user$ = 240
$T32 = 352
$T33 = 352
workspace$ = 384
__$ArrayPad$ = 560
main$dtor$0 PROC
	lea	rcx, QWORD PTR renderer$[rdx]
	jmp	??1Renderer@@QEAA@XZ
main$dtor$0 ENDP
text$x	ENDS
; Function compile flags: /Ogtpy
;	COMDAT text$x
text$x	SEGMENT
$T16 = 48
$T17 = 48
$T18 = 48
$T19 = 48
$T20 = 48
$T21 = 64
$T22 = 64
$T23 = 64
$T24 = 64
$T25 = 64
$T26 = 80
$T27 = 80
$T28 = 80
$T29 = 80
$T30 = 80
$T31 = 80
luauEngine$ = 88
limabis$1$ = 104
renderer$ = 112
physicsEngine$ = 160
user$ = 240
$T32 = 352
$T33 = 352
workspace$ = 384
__$ArrayPad$ = 560
main$dtor$13 PROC
	lea	rcx, QWORD PTR physicsEngine$[rdx]
	add	rcx, 32					; 00000020H
	jmp	??1PxDefaultAllocator@physx@@UEAA@XZ
main$dtor$13 ENDP
text$x	ENDS
; Function compile flags: /Ogtpy
;	COMDAT text$x
text$x	SEGMENT
$T16 = 48
$T17 = 48
$T18 = 48
$T19 = 48
$T20 = 48
$T21 = 64
$T22 = 64
$T23 = 64
$T24 = 64
$T25 = 64
$T26 = 80
$T27 = 80
$T28 = 80
$T29 = 80
$T30 = 80
$T31 = 80
luauEngine$ = 88
limabis$1$ = 104
renderer$ = 112
physicsEngine$ = 160
user$ = 240
$T32 = 352
$T33 = 352
workspace$ = 384
__$ArrayPad$ = 560
main$dtor$1 PROC
	lea	rcx, QWORD PTR physicsEngine$[rdx]
	jmp	??1Physics@@QEAA@XZ
main$dtor$1 ENDP
text$x	ENDS
; Function compile flags: /Ogtpy
;	COMDAT text$x
text$x	SEGMENT
$T16 = 48
$T17 = 48
$T18 = 48
$T19 = 48
$T20 = 48
$T21 = 64
$T22 = 64
$T23 = 64
$T24 = 64
$T25 = 64
$T26 = 80
$T27 = 80
$T28 = 80
$T29 = 80
$T30 = 80
$T31 = 80
luauEngine$ = 88
limabis$1$ = 104
renderer$ = 112
physicsEngine$ = 160
user$ = 240
$T32 = 352
$T33 = 352
workspace$ = 384
__$ArrayPad$ = 560
main$dtor$2 PROC
	lea	rcx, QWORD PTR luauEngine$[rdx]
	jmp	??1LuauEngine@@QEAA@XZ			; LuauEngine::~LuauEngine
main$dtor$2 ENDP
text$x	ENDS
; Function compile flags: /Ogtpy
;	COMDAT text$x
text$x	SEGMENT
$T16 = 48
$T17 = 48
$T18 = 48
$T19 = 48
$T20 = 48
$T21 = 64
$T22 = 64
$T23 = 64
$T24 = 64
$T25 = 64
$T26 = 80
$T27 = 80
$T28 = 80
$T29 = 80
$T30 = 80
$T31 = 80
luauEngine$ = 88
limabis$1$ = 104
renderer$ = 112
physicsEngine$ = 160
user$ = 240
$T32 = 352
$T33 = 352
workspace$ = 384
__$ArrayPad$ = 560
main$dtor$3 PROC
	lea	rcx, QWORD PTR workspace$[rdx]
	jmp	??1Workspace@@UEAA@XZ
main$dtor$3 ENDP
text$x	ENDS
; Function compile flags: /Ogtpy
;	COMDAT text$x
text$x	SEGMENT
$T16 = 48
$T17 = 48
$T18 = 48
$T19 = 48
$T20 = 48
$T21 = 64
$T22 = 64
$T23 = 64
$T24 = 64
$T25 = 64
$T26 = 80
$T27 = 80
$T28 = 80
$T29 = 80
$T30 = 80
$T31 = 80
luauEngine$ = 88
limabis$1$ = 104
renderer$ = 112
physicsEngine$ = 160
user$ = 240
$T32 = 352
$T33 = 352
workspace$ = 384
__$ArrayPad$ = 560
main$dtor$4 PROC
	push	rbp
	sub	rsp, 32					; 00000020H
	mov	rbp, rdx
	mov	edx, 216				; 000000d8H
	mov	rcx, QWORD PTR $T26[rbp]
	call	??3@YAXPEAX_K@Z				; operator delete
	add	rsp, 32					; 00000020H
	pop	rbp
	ret	0
main$dtor$4 ENDP
text$x	ENDS
; Function compile flags: /Ogtpy
;	COMDAT text$x
text$x	SEGMENT
$T16 = 48
$T17 = 48
$T18 = 48
$T19 = 48
$T20 = 48
$T21 = 64
$T22 = 64
$T23 = 64
$T24 = 64
$T25 = 64
$T26 = 80
$T27 = 80
$T28 = 80
$T29 = 80
$T30 = 80
$T31 = 80
luauEngine$ = 88
limabis$1$ = 104
renderer$ = 112
physicsEngine$ = 160
user$ = 240
$T32 = 352
$T33 = 352
workspace$ = 384
__$ArrayPad$ = 560
main$dtor$5 PROC
	push	rbp
	sub	rsp, 32					; 00000020H
	mov	rbp, rdx
	mov	edx, 216				; 000000d8H
	mov	rcx, QWORD PTR $T27[rbp]
	call	??3@YAXPEAX_K@Z				; operator delete
	add	rsp, 32					; 00000020H
	pop	rbp
	ret	0
main$dtor$5 ENDP
text$x	ENDS
; Function compile flags: /Ogtpy
;	COMDAT text$x
text$x	SEGMENT
$T16 = 48
$T17 = 48
$T18 = 48
$T19 = 48
$T20 = 48
$T21 = 64
$T22 = 64
$T23 = 64
$T24 = 64
$T25 = 64
$T26 = 80
$T27 = 80
$T28 = 80
$T29 = 80
$T30 = 80
$T31 = 80
luauEngine$ = 88
limabis$1$ = 104
renderer$ = 112
physicsEngine$ = 160
user$ = 240
$T32 = 352
$T33 = 352
workspace$ = 384
__$ArrayPad$ = 560
main$dtor$6 PROC
	push	rbp
	sub	rsp, 32					; 00000020H
	mov	rbp, rdx
	mov	edx, 216				; 000000d8H
	mov	rcx, QWORD PTR $T28[rbp]
	call	??3@YAXPEAX_K@Z				; operator delete
	add	rsp, 32					; 00000020H
	pop	rbp
	ret	0
main$dtor$6 ENDP
text$x	ENDS
; Function compile flags: /Ogtpy
;	COMDAT text$x
text$x	SEGMENT
$T16 = 48
$T17 = 48
$T18 = 48
$T19 = 48
$T20 = 48
$T21 = 64
$T22 = 64
$T23 = 64
$T24 = 64
$T25 = 64
$T26 = 80
$T27 = 80
$T28 = 80
$T29 = 80
$T30 = 80
$T31 = 80
luauEngine$ = 88
limabis$1$ = 104
renderer$ = 112
physicsEngine$ = 160
user$ = 240
$T32 = 352
$T33 = 352
workspace$ = 384
__$ArrayPad$ = 560
main$dtor$7 PROC
	push	rbp
	sub	rsp, 32					; 00000020H
	mov	rbp, rdx
	mov	edx, 216				; 000000d8H
	mov	rcx, QWORD PTR $T29[rbp]
	call	??3@YAXPEAX_K@Z				; operator delete
	add	rsp, 32					; 00000020H
	pop	rbp
	ret	0
main$dtor$7 ENDP
text$x	ENDS
; Function compile flags: /Ogtpy
;	COMDAT text$x
text$x	SEGMENT
$T16 = 48
$T17 = 48
$T18 = 48
$T19 = 48
$T20 = 48
$T21 = 64
$T22 = 64
$T23 = 64
$T24 = 64
$T25 = 64
$T26 = 80
$T27 = 80
$T28 = 80
$T29 = 80
$T30 = 80
$T31 = 80
luauEngine$ = 88
limabis$1$ = 104
renderer$ = 112
physicsEngine$ = 160
user$ = 240
$T32 = 352
$T33 = 352
workspace$ = 384
__$ArrayPad$ = 560
main$dtor$8 PROC
	lea	rcx, QWORD PTR $T32[rdx]
	jmp	??1?$basic_string@DU?$char_traits@D@std@@V?$allocator@D@2@@std@@QEAA@XZ ; std::basic_string<char,std::char_traits<char>,std::allocator<char> >::~basic_string<char,std::char_traits<char>,std::allocator<char> >
main$dtor$8 ENDP
text$x	ENDS
; Function compile flags: /Ogtpy
;	COMDAT text$x
text$x	SEGMENT
$T16 = 48
$T17 = 48
$T18 = 48
$T19 = 48
$T20 = 48
$T21 = 64
$T22 = 64
$T23 = 64
$T24 = 64
$T25 = 64
$T26 = 80
$T27 = 80
$T28 = 80
$T29 = 80
$T30 = 80
$T31 = 80
luauEngine$ = 88
limabis$1$ = 104
renderer$ = 112
physicsEngine$ = 160
user$ = 240
$T32 = 352
$T33 = 352
workspace$ = 384
__$ArrayPad$ = 560
main$dtor$9 PROC
	push	rbp
	sub	rsp, 32					; 00000020H
	mov	rbp, rdx
	mov	edx, 208				; 000000d0H
	mov	rcx, QWORD PTR $T30[rbp]
	call	??3@YAXPEAX_K@Z				; operator delete
	add	rsp, 32					; 00000020H
	pop	rbp
	ret	0
main$dtor$9 ENDP
text$x	ENDS
; Function compile flags: /Ogtpy
;	COMDAT text$x
text$x	SEGMENT
$T16 = 48
$T17 = 48
$T18 = 48
$T19 = 48
$T20 = 48
$T21 = 64
$T22 = 64
$T23 = 64
$T24 = 64
$T25 = 64
$T26 = 80
$T27 = 80
$T28 = 80
$T29 = 80
$T30 = 80
$T31 = 80
luauEngine$ = 88
limabis$1$ = 104
renderer$ = 112
physicsEngine$ = 160
user$ = 240
$T32 = 352
$T33 = 352
workspace$ = 384
__$ArrayPad$ = 560
main$dtor$11 PROC
	push	rbp
	sub	rsp, 32					; 00000020H
	mov	rbp, rdx
	mov	edx, 216				; 000000d8H
	mov	rcx, QWORD PTR $T31[rbp]
	call	??3@YAXPEAX_K@Z				; operator delete
	add	rsp, 32					; 00000020H
	pop	rbp
	ret	0
main$dtor$11 ENDP
text$x	ENDS
; Function compile flags: /Ogtpy
;	COMDAT ??$?6U?$char_traits@D@std@@@std@@YAAEAV?$basic_ostream@DU?$char_traits@D@std@@@0@AEAV10@PEBD@Z
_TEXT	SEGMENT
_Ok$ = 32
_Ostr$ = 96
_Val$ = 104
_State$ = 112
??$?6U?$char_traits@D@std@@@std@@YAAEAV?$basic_ostream@DU?$char_traits@D@std@@@0@AEAV10@PEBD@Z PROC ; std::operator<<<std::char_traits<char> >, COMDAT
; File C:\Program Files\Microsoft Visual Studio\18\Community\VC\Tools\MSVC\14.50.35717\include\__msvc_ostream.hpp
; Line 768
$LN74:
	mov	QWORD PTR [rsp+16], rbx
	mov	QWORD PTR [rsp+32], rsi
	mov	QWORD PTR [rsp+8], rcx
	push	rdi
	push	r12
	push	r13
	push	r14
	push	r15
	sub	rsp, 48					; 00000030H
	mov	r13, rdx
	mov	rsi, rcx
; Line 773
	xor	ebx, ebx
	mov	DWORD PTR _State$[rsp], ebx
; File C:\Program Files\Microsoft Visual Studio\18\Community\VC\Tools\MSVC\14.50.35717\include\__msvc_string_view.hpp
; Line 530
	mov	rcx, rdx
	call	strlen
	mov	r12, rax
; File C:\Program Files\Microsoft Visual Studio\18\Community\VC\Tools\MSVC\14.50.35717\include\__msvc_ostream.hpp
; Line 775
	mov	r8, QWORD PTR [rsi]
	movsxd	rcx, DWORD PTR [r8+4]
	add	rcx, rsi
	call	QWORD PTR __imp_?width@ios_base@std@@QEBA_JXZ
	test	rax, rax
	jle	SHORT $LN17@operator
	mov	rcx, QWORD PTR [rsi]
	movsxd	rcx, DWORD PTR [rcx+4]
	add	rcx, rsi
	call	QWORD PTR __imp_?width@ios_base@std@@QEBA_JXZ
	cmp	rax, r12
	jle	SHORT $LN17@operator
	mov	rax, QWORD PTR [rsi]
	movsxd	rcx, DWORD PTR [rax+4]
	add	rcx, rsi
	call	QWORD PTR __imp_?width@ios_base@std@@QEBA_JXZ
	mov	r14, rax
	sub	r14, r12
	jmp	SHORT $LN18@operator
$LN17@operator:
	xor	r14d, r14d
$LN18@operator:
; Line 69
	mov	r15, rsi
	mov	QWORD PTR _Ok$[rsp], rsi
; Line 70
	mov	rax, QWORD PTR [rsi]
	movsxd	rcx, DWORD PTR [rax+4]
	add	rcx, rsi
	call	QWORD PTR __imp_?rdbuf@?$basic_ios@DU?$char_traits@D@std@@@std@@QEBAPEAV?$basic_streambuf@DU?$char_traits@D@std@@@2@XZ
; Line 71
	test	rax, rax
	je	SHORT $LN34@operator
; Line 72
	mov	rdx, QWORD PTR [rax]
	mov	rcx, rax
	call	QWORD PTR [rdx+8]
	npad	1
$LN34@operator:
; Line 91
	mov	rax, QWORD PTR [rsi]
	movsxd	rcx, DWORD PTR [rax+4]
	add	rcx, rsi
	call	QWORD PTR __imp_?good@ios_base@std@@QEBA_NXZ
	test	al, al
	jne	SHORT $LN28@operator
; Line 92
	mov	BYTE PTR _Ok$[rsp+8], al
; Line 93
	jmp	SHORT $LN27@operator
$LN28@operator:
; Line 96
	mov	rax, QWORD PTR [rsi]
	movsxd	rcx, DWORD PTR [rax+4]
	add	rcx, rsi
	call	QWORD PTR __imp_?tie@?$basic_ios@DU?$char_traits@D@std@@@std@@QEBAPEAV?$basic_ostream@DU?$char_traits@D@std@@@2@XZ
; Line 97
	test	rax, rax
	je	SHORT $LN30@operator
	cmp	rax, rsi
	je	SHORT $LN30@operator
; Line 102
	mov	rcx, rax
	call	QWORD PTR __imp_?flush@?$basic_ostream@DU?$char_traits@D@std@@@std@@QEAAAEAV12@XZ
; Line 103
	mov	rax, QWORD PTR [rsi]
	movsxd	rcx, DWORD PTR [rax+4]
	add	rcx, rsi
	call	QWORD PTR __imp_?good@ios_base@std@@QEBA_NXZ
	mov	BYTE PTR _Ok$[rsp+8], al
	jmp	SHORT $LN27@operator
$LN30@operator:
; Line 98
	mov	BYTE PTR _Ok$[rsp+8], 1
	mov	al, 1
$LN27@operator:
; Line 778
	test	al, al
	jne	SHORT $LN8@operator
; Line 779
	mov	ebx, 4
; Line 780
	jmp	$LN22@operator
$LN8@operator:
; Line 782
	mov	rax, QWORD PTR [rsi]
	movsxd	rcx, DWORD PTR [rax+4]
	add	rcx, rsi
	call	QWORD PTR __imp_?flags@ios_base@std@@QEBAHXZ
	and	eax, 448				; 000001c0H
	cmp	eax, 64					; 00000040H
	je	SHORT $LN64@operator
$LL4@operator:
; Line 783
	test	r14, r14
	jle	SHORT $LN64@operator
; Line 784
	mov	rax, QWORD PTR [rsi]
	movsxd	rcx, DWORD PTR [rax+4]
	add	rcx, rsi
	call	QWORD PTR __imp_?rdbuf@?$basic_ios@DU?$char_traits@D@std@@@std@@QEBAPEAV?$basic_streambuf@DU?$char_traits@D@std@@@2@XZ
	mov	rdi, rax
	mov	rcx, QWORD PTR [rsi]
	movsxd	rcx, DWORD PTR [rcx+4]
	add	rcx, rsi
	call	QWORD PTR __imp_?fill@?$basic_ios@DU?$char_traits@D@std@@@std@@QEBADXZ
	movzx	edx, al
	mov	rcx, rdi
	call	QWORD PTR __imp_?sputc@?$basic_streambuf@DU?$char_traits@D@std@@@std@@QEAAHD@Z
	cmp	eax, -1
	je	SHORT $LN71@operator
; Line 783
	dec	r14
	jmp	SHORT $LL4@operator
$LN64@operator:
; Line 791
	mov	rax, QWORD PTR [rsi]
	movsxd	rcx, DWORD PTR [rax+4]
	add	rcx, rsi
	call	QWORD PTR __imp_?rdbuf@?$basic_ios@DU?$char_traits@D@std@@@std@@QEBAPEAV?$basic_streambuf@DU?$char_traits@D@std@@@2@XZ
	mov	r8, r12
	mov	rdx, r13
	mov	rcx, rax
	call	QWORD PTR __imp_?sputn@?$basic_streambuf@DU?$char_traits@D@std@@@std@@QEAA_JPEBD_J@Z
	cmp	rax, r12
	jne	SHORT $LN71@operator
$LL7@operator:
; Line 796
	test	r14, r14
	jle	SHORT $LN6@operator
; Line 797
	mov	rax, QWORD PTR [rsi]
	movsxd	rcx, DWORD PTR [rax+4]
	add	rcx, rsi
	call	QWORD PTR __imp_?rdbuf@?$basic_ios@DU?$char_traits@D@std@@@std@@QEBAPEAV?$basic_streambuf@DU?$char_traits@D@std@@@2@XZ
	mov	rdi, rax
	mov	rcx, QWORD PTR [rsi]
	movsxd	rcx, DWORD PTR [rcx+4]
	add	rcx, rsi
	call	QWORD PTR __imp_?fill@?$basic_ios@DU?$char_traits@D@std@@@std@@QEBADXZ
	movzx	edx, al
	mov	rcx, rdi
	call	QWORD PTR __imp_?sputc@?$basic_streambuf@DU?$char_traits@D@std@@@std@@QEAAHD@Z
	cmp	eax, -1
	je	SHORT $LN71@operator
; Line 796
	dec	r14
	jmp	SHORT $LL7@operator
$LN71@operator:
; Line 804
	mov	ebx, 4
	mov	DWORD PTR _State$[rsp], ebx
$LN6@operator:
	mov	rax, QWORD PTR [rsi]
	movsxd	rcx, DWORD PTR [rax+4]
	add	rcx, rsi
	xor	edx, edx
	call	QWORD PTR __imp_?width@ios_base@std@@QEAA_J_J@Z
	npad	1
	jmp	SHORT $LN22@operator
$LN23@operator:
	mov	rsi, QWORD PTR _Ostr$[rsp]
	mov	ebx, DWORD PTR _State$[rsp]
	mov	r15, QWORD PTR _Ok$[rsp]
$LN22@operator:
; Line 808
	mov	rax, QWORD PTR [rsi]
	movsxd	rcx, DWORD PTR [rax+4]
	add	rcx, rsi
	xor	r8d, r8d
	mov	edx, ebx
	call	QWORD PTR __imp_?setstate@?$basic_ios@DU?$char_traits@D@std@@@std@@QEAAXH_N@Z
	npad	1
; Line 113
	call	?uncaught_exceptions@std@@YAHXZ		; std::uncaught_exceptions
; Line 116
	test	eax, eax
	jne	SHORT $LN43@operator
; Line 117
	mov	rcx, r15
	call	QWORD PTR __imp_?_Osfx@?$basic_ostream@DU?$char_traits@D@std@@@std@@QEAAXXZ
	npad	1
$LN43@operator:
; Line 77
	mov	rax, QWORD PTR [r15]
	movsxd	rcx, DWORD PTR [rax+4]
	add	rcx, r15
	call	QWORD PTR __imp_?rdbuf@?$basic_ios@DU?$char_traits@D@std@@@std@@QEBAPEAV?$basic_streambuf@DU?$char_traits@D@std@@@2@XZ
; Line 78
	test	rax, rax
	je	SHORT $LN69@operator
; Line 79
	mov	rdx, QWORD PTR [rax]
	mov	rcx, rax
	call	QWORD PTR [rdx+16]
	npad	1
$LN69@operator:
; Line 810
	mov	rax, rsi
	mov	rbx, QWORD PTR [rsp+104]
	mov	rsi, QWORD PTR [rsp+120]
	add	rsp, 48					; 00000030H
	pop	r15
	pop	r14
	pop	r13
	pop	r12
	pop	rdi
	ret	0
??$?6U?$char_traits@D@std@@@std@@YAAEAV?$basic_ostream@DU?$char_traits@D@std@@@0@AEAV10@PEBD@Z ENDP ; std::operator<<<std::char_traits<char> >
_TEXT	ENDS
; Function compile flags: /Ogtpy
;	COMDAT text$x
text$x	SEGMENT
_Ok$ = 32
_Ostr$ = 96
_Val$ = 104
_State$ = 112
?dtor$1@?0???$?6U?$char_traits@D@std@@@std@@YAAEAV?$basic_ostream@DU?$char_traits@D@std@@@0@AEAV10@PEBD@Z@4HA PROC ; `std::operator<<<std::char_traits<char> >'::`1'::dtor$1
	lea	rcx, QWORD PTR _Ok$[rdx]
	jmp	??1_Sentry_base@?$basic_ostream@DU?$char_traits@D@std@@@std@@QEAA@XZ ; std::basic_ostream<char,std::char_traits<char> >::_Sentry_base::~_Sentry_base
?dtor$1@?0???$?6U?$char_traits@D@std@@@std@@YAAEAV?$basic_ostream@DU?$char_traits@D@std@@@0@AEAV10@PEBD@Z@4HA ENDP ; `std::operator<<<std::char_traits<char> >'::`1'::dtor$1
text$x	ENDS
; Function compile flags: /Ogtpy
;	COMDAT text$x
text$x	SEGMENT
_Ok$ = 32
_Ostr$ = 96
_Val$ = 104
_State$ = 112
?dtor$0@?0???$?6U?$char_traits@D@std@@@std@@YAAEAV?$basic_ostream@DU?$char_traits@D@std@@@0@AEAV10@PEBD@Z@4HA PROC ; `std::operator<<<std::char_traits<char> >'::`1'::dtor$0
	lea	rcx, QWORD PTR _Ok$[rdx]
	jmp	??1sentry@?$basic_ostream@DU?$char_traits@D@std@@@std@@QEAA@XZ ; std::basic_ostream<char,std::char_traits<char> >::sentry::~sentry
?dtor$0@?0???$?6U?$char_traits@D@std@@@std@@YAAEAV?$basic_ostream@DU?$char_traits@D@std@@@0@AEAV10@PEBD@Z@4HA ENDP ; `std::operator<<<std::char_traits<char> >'::`1'::dtor$0
text$x	ENDS
; Function compile flags: /Ogtpy
;	COMDAT text$x
text$x	SEGMENT
_Ok$ = 32
_Ostr$ = 96
_Val$ = 104
_State$ = 112
?catch$4@?0???$?6U?$char_traits@D@std@@@std@@YAAEAV?$basic_ostream@DU?$char_traits@D@std@@@0@AEAV10@PEBD@Z@4HA PROC ; `std::operator<<<std::char_traits<char> >'::`1'::catch$4
; Line 805
	mov	QWORD PTR [rsp+16], rdx
	push	rbp
	sub	rsp, 32					; 00000020H
	mov	rbp, rdx
__catch$??$?6U?$char_traits@D@std@@@std@@YAAEAV?$basic_ostream@DU?$char_traits@D@std@@@0@AEAV10@PEBD@Z$0:
	mov	rdx, QWORD PTR _Ostr$[rbp]
	mov	rax, QWORD PTR [rdx]
	movsxd	rcx, DWORD PTR [rax+4]
	add	rcx, rdx
	mov	r8b, 1
	mov	edx, 4
	call	QWORD PTR __imp_?setstate@?$basic_ios@DU?$char_traits@D@std@@@std@@QEAAXH_N@Z
	npad	1
	mov	rax, 0
	add	rsp, 32					; 00000020H
	pop	rbp
	ret	0
	int	3
?catch$4@?0???$?6U?$char_traits@D@std@@@std@@YAAEAV?$basic_ostream@DU?$char_traits@D@std@@@0@AEAV10@PEBD@Z@4HA ENDP ; `std::operator<<<std::char_traits<char> >'::`1'::catch$4
text$x	ENDS
; Function compile flags: /Ogtpy
;	COMDAT ?setupWindow@@YAPEAUGLFWwindow@@XZ
_TEXT	SEGMENT
?setupWindow@@YAPEAUGLFWwindow@@XZ PROC			; setupWindow, COMDAT
; File C:\Users\RedDragon\Documents\Recubin\src\main.cpp
; Line 25
$LN11:
	sub	rsp, 56					; 00000038H
; Line 26
	mov	rcx, QWORD PTR __imp_?cout@std@@3V?$basic_ostream@DU?$char_traits@D@std@@@1@A
	lea	rdx, OFFSET FLAT:??_C@_0BB@IAAJCMMM@initing?5GLFW?4?4?4?6@
	call	??$?6U?$char_traits@D@std@@@std@@YAAEAV?$basic_ostream@DU?$char_traits@D@std@@@0@AEAV10@PEBD@Z ; std::operator<<<std::char_traits<char> >
; Line 27
	call	glfwInit
	mov	rcx, QWORD PTR __imp_?cout@std@@3V?$basic_ostream@DU?$char_traits@D@std@@@1@A
	test	eax, eax
	jne	SHORT $LN2@setupWindo
; Line 28
	lea	rdx, OFFSET FLAT:??_C@_0BC@EBHAINFF@GLFW?5init?5failed?6@
	call	??$?6U?$char_traits@D@std@@@std@@YAAEAV?$basic_ostream@DU?$char_traits@D@std@@@0@AEAV10@PEBD@Z ; std::operator<<<std::char_traits<char> >
; Line 29
	xor	eax, eax
; Line 52
	add	rsp, 56					; 00000038H
	ret	0
$LN2@setupWindo:
; Line 32
	lea	rdx, OFFSET FLAT:??_C@_0BE@DPHBGMBN@creating?5window?4?4?4?6@
	mov	QWORD PTR [rsp+48], rbx
	call	??$?6U?$char_traits@D@std@@@std@@YAAEAV?$basic_ostream@DU?$char_traits@D@std@@@0@AEAV10@PEBD@Z ; std::operator<<<std::char_traits<char> >
; Line 33
	xor	r9d, r9d
	mov	QWORD PTR [rsp+32], 0
	lea	r8, OFFSET FLAT:??_C@_0BD@FCNEPOEO@Welcome?5to?5Recubin@
	mov	edx, 600				; 00000258H
	mov	ecx, 800				; 00000320H
	call	glfwCreateWindow
	mov	rbx, rax
; Line 34
	test	rax, rax
	jne	SHORT $LN3@setupWindo
; Line 35
	mov	rcx, QWORD PTR __imp_?cout@std@@3V?$basic_ostream@DU?$char_traits@D@std@@@1@A
	lea	rdx, OFFSET FLAT:??_C@_0BI@MEMILFDL@Window?5creation?5failed?6@
	call	??$?6U?$char_traits@D@std@@@std@@YAAEAV?$basic_ostream@DU?$char_traits@D@std@@@0@AEAV10@PEBD@Z ; std::operator<<<std::char_traits<char> >
; Line 36
	call	glfwTerminate
	mov	rbx, QWORD PTR [rsp+48]
; Line 37
	xor	eax, eax
; Line 52
	add	rsp, 56					; 00000038H
	ret	0
$LN3@setupWindo:
; Line 41
	mov	edx, 800				; 00000320H
	mov	r8d, 600				; 00000258H
	mov	rcx, rbx
	call	glfwSetWindowAspectRatio
; Line 43
	mov	rcx, QWORD PTR __imp_?cout@std@@3V?$basic_ostream@DU?$char_traits@D@std@@@1@A
	lea	rdx, OFFSET FLAT:??_C@_0BD@HJCBHOLF@making?5context?4?4?4?6@
	call	??$?6U?$char_traits@D@std@@@std@@YAAEAV?$basic_ostream@DU?$char_traits@D@std@@@0@AEAV10@PEBD@Z ; std::operator<<<std::char_traits<char> >
; Line 44
	mov	rcx, rbx
	call	glfwMakeContextCurrent
; Line 46
	mov	rcx, QWORD PTR __imp_?cout@std@@3V?$basic_ostream@DU?$char_traits@D@std@@@1@A
	lea	rdx, OFFSET FLAT:??_C@_0BB@LBOBDGFB@initing?5GLEW?4?4?4?6@
	call	??$?6U?$char_traits@D@std@@@std@@YAAEAV?$basic_ostream@DU?$char_traits@D@std@@@0@AEAV10@PEBD@Z ; std::operator<<<std::char_traits<char> >
; Line 47
	call	glewInit
	test	eax, eax
	je	SHORT $LN4@setupWindo
; Line 48
	mov	rcx, QWORD PTR __imp_?cout@std@@3V?$basic_ostream@DU?$char_traits@D@std@@@1@A
	lea	rdx, OFFSET FLAT:??_C@_0BC@GILIDJKH@GLEW?5init?5failed?6@
	call	??$?6U?$char_traits@D@std@@@std@@YAAEAV?$basic_ostream@DU?$char_traits@D@std@@@0@AEAV10@PEBD@Z ; std::operator<<<std::char_traits<char> >
	mov	rbx, QWORD PTR [rsp+48]
; Line 49
	xor	eax, eax
; Line 52
	add	rsp, 56					; 00000038H
	ret	0
$LN4@setupWindo:
; Line 51
	mov	rax, rbx
	mov	rbx, QWORD PTR [rsp+48]
; Line 52
	add	rsp, 56					; 00000038H
	ret	0
?setupWindow@@YAPEAUGLFWwindow@@XZ ENDP			; setupWindow
_TEXT	ENDS
; Function compile flags: /Ogtpy
;	COMDAT ??1Renderer@@QEAA@XZ
_TEXT	SEGMENT
this$ = 8
??1Renderer@@QEAA@XZ PROC				; Renderer::~Renderer, COMDAT
	add	rcx, 16
	jmp	??1?$vector@IV?$allocator@I@std@@@std@@QEAA@XZ ; std::vector<unsigned int,std::allocator<unsigned int> >::~vector<unsigned int,std::allocator<unsigned int> >
??1Renderer@@QEAA@XZ ENDP				; Renderer::~Renderer
_TEXT	ENDS
; Function compile flags: /Ogtpy
;	COMDAT ??0Renderer@@QEAA@XZ
_TEXT	SEGMENT
this$ = 8
??0Renderer@@QEAA@XZ PROC				; Renderer::Renderer, COMDAT
; File C:\Program Files\Microsoft Visual Studio\18\Community\VC\Tools\MSVC\14.50.35717\include\vector
; Line 400
	xor	eax, eax
	mov	QWORD PTR [rcx+16], rax
	mov	QWORD PTR [rcx+24], rax
	mov	QWORD PTR [rcx+32], rax
	mov	rax, rcx
	ret	0
??0Renderer@@QEAA@XZ ENDP				; Renderer::Renderer
_TEXT	ENDS
; Function compile flags: /Ogtpy
;	COMDAT ?_Get_first@?$_Compressed_pair@V?$allocator@I@std@@V?$_Vector_val@U?$_Simple_types@I@std@@@2@$00@std@@QEAAAEAV?$allocator@I@2@XZ
_TEXT	SEGMENT
this$ = 8
?_Get_first@?$_Compressed_pair@V?$allocator@I@std@@V?$_Vector_val@U?$_Simple_types@I@std@@@2@$00@std@@QEAAAEAV?$allocator@I@2@XZ PROC ; std::_Compressed_pair<std::allocator<unsigned int>,std::_Vector_val<std::_Simple_types<unsigned int> >,1>::_Get_first, COMDAT
; File C:\Program Files\Microsoft Visual Studio\18\Community\VC\Tools\MSVC\14.50.35717\include\xmemory
; Line 1559
	mov	rax, rcx
; Line 1560
	ret	0
?_Get_first@?$_Compressed_pair@V?$allocator@I@std@@V?$_Vector_val@U?$_Simple_types@I@std@@@2@$00@std@@QEAAAEAV?$allocator@I@2@XZ ENDP ; std::_Compressed_pair<std::allocator<unsigned int>,std::_Vector_val<std::_Simple_types<unsigned int> >,1>::_Get_first
_TEXT	ENDS
; Function compile flags: /Ogtpy
;	COMDAT ??0?$_Vector_val@U?$_Simple_types@I@std@@@std@@QEAA@XZ
_TEXT	SEGMENT
this$ = 8
??0?$_Vector_val@U?$_Simple_types@I@std@@@std@@QEAA@XZ PROC ; std::_Vector_val<std::_Simple_types<unsigned int> >::_Vector_val<std::_Simple_types<unsigned int> >, COMDAT
; File C:\Program Files\Microsoft Visual Studio\18\Community\VC\Tools\MSVC\14.50.35717\include\vector
; Line 400
	xor	eax, eax
	mov	QWORD PTR [rcx], rax
	mov	QWORD PTR [rcx+8], rax
	mov	QWORD PTR [rcx+16], rax
	mov	rax, rcx
	ret	0
??0?$_Vector_val@U?$_Simple_types@I@std@@@std@@QEAA@XZ ENDP ; std::_Vector_val<std::_Simple_types<unsigned int> >::_Vector_val<std::_Simple_types<unsigned int> >
_TEXT	ENDS
; Function compile flags: /Ogtpy
;	COMDAT ?_Getal@?$vector@IV?$allocator@I@std@@@std@@AEAAAEAV?$allocator@I@2@XZ
_TEXT	SEGMENT
this$ = 8
?_Getal@?$vector@IV?$allocator@I@std@@@std@@AEAAAEAV?$allocator@I@2@XZ PROC ; std::vector<unsigned int,std::allocator<unsigned int> >::_Getal, COMDAT
; File C:\Program Files\Microsoft Visual Studio\18\Community\VC\Tools\MSVC\14.50.35717\include\vector
; Line 2227
	mov	rax, rcx
; Line 2228
	ret	0
?_Getal@?$vector@IV?$allocator@I@std@@@std@@AEAAAEAV?$allocator@I@2@XZ ENDP ; std::vector<unsigned int,std::allocator<unsigned int> >::_Getal
_TEXT	ENDS
; Function compile flags: /Ogtpy
;	COMDAT ?_Tidy@?$vector@IV?$allocator@I@std@@@std@@AEAAXXZ
_TEXT	SEGMENT
this$ = 48
?_Tidy@?$vector@IV?$allocator@I@std@@@std@@AEAAXXZ PROC	; std::vector<unsigned int,std::allocator<unsigned int> >::_Tidy, COMDAT
; File C:\Program Files\Microsoft Visual Studio\18\Community\VC\Tools\MSVC\14.50.35717\include\vector
; Line 2081
$LN27:
	push	rbx
	sub	rsp, 32					; 00000020H
; Line 2090
	mov	rdx, QWORD PTR [rcx]
	mov	rbx, rcx
	test	rdx, rdx
	je	SHORT $LN2@Tidy
; Line 2093
	mov	rax, QWORD PTR [rcx+16]
	sub	rax, rdx
	sar	rax, 2
; File C:\Program Files\Microsoft Visual Studio\18\Community\VC\Tools\MSVC\14.50.35717\include\xmemory
; Line 989
	lea	rax, QWORD PTR [rax*4]
; Line 288
	cmp	rax, 4096				; 00001000H
	jb	SHORT $LN20@Tidy
; Line 209
	mov	rcx, QWORD PTR [rdx-8]
; Line 223
	sub	rdx, rcx
	sub	rdx, 8
	cmp	rdx, 31
	ja	SHORT $LN15@Tidy
; Line 224
	add	rax, 39					; 00000027H
	jmp	SHORT $LN16@Tidy
$LN15@Tidy:
; Line 223
	mov	ecx, 5
	int	41					; 00000029H
$LN20@Tidy:
; Line 989
	mov	rcx, rdx
$LN16@Tidy:
; Line 293
	mov	rdx, rax
	call	??3@YAXPEAX_K@Z				; operator delete
; File C:\Program Files\Microsoft Visual Studio\18\Community\VC\Tools\MSVC\14.50.35717\include\vector
; Line 2095
	xor	eax, eax
	mov	QWORD PTR [rbx], rax
; Line 2096
	mov	QWORD PTR [rbx+8], rax
; Line 2097
	mov	QWORD PTR [rbx+16], rax
$LN2@Tidy:
; Line 2099
	add	rsp, 32					; 00000020H
	pop	rbx
	ret	0
$LN24@Tidy:
?_Tidy@?$vector@IV?$allocator@I@std@@@std@@AEAAXXZ ENDP	; std::vector<unsigned int,std::allocator<unsigned int> >::_Tidy
_TEXT	ENDS
; Function compile flags: /Ogtpy
;	COMDAT ??1?$vector@IV?$allocator@I@std@@@std@@QEAA@XZ
_TEXT	SEGMENT
this$ = 48
??1?$vector@IV?$allocator@I@std@@@std@@QEAA@XZ PROC	; std::vector<unsigned int,std::allocator<unsigned int> >::~vector<unsigned int,std::allocator<unsigned int> >, COMDAT
; File C:\Program Files\Microsoft Visual Studio\18\Community\VC\Tools\MSVC\14.50.35717\include\vector
; Line 829
$LN31:
	push	rbx
	sub	rsp, 32					; 00000020H
; Line 2090
	mov	rdx, QWORD PTR [rcx]
; Line 829
	mov	rbx, rcx
; Line 2090
	test	rdx, rdx
	je	SHORT $LN5@vector
; Line 2093
	mov	rax, QWORD PTR [rcx+16]
	sub	rax, rdx
	sar	rax, 2
; File C:\Program Files\Microsoft Visual Studio\18\Community\VC\Tools\MSVC\14.50.35717\include\xmemory
; Line 989
	lea	rax, QWORD PTR [rax*4]
; Line 288
	cmp	rax, 4096				; 00001000H
	jb	SHORT $LN24@vector
; Line 209
	mov	rcx, QWORD PTR [rdx-8]
; Line 223
	sub	rdx, rcx
	sub	rdx, 8
	cmp	rdx, 31
	ja	SHORT $LN18@vector
; Line 224
	add	rax, 39					; 00000027H
	jmp	SHORT $LN19@vector
$LN18@vector:
; Line 223
	mov	ecx, 5
	int	41					; 00000029H
$LN24@vector:
; Line 989
	mov	rcx, rdx
$LN19@vector:
; Line 293
	mov	rdx, rax
	call	??3@YAXPEAX_K@Z				; operator delete
; File C:\Program Files\Microsoft Visual Studio\18\Community\VC\Tools\MSVC\14.50.35717\include\vector
; Line 2095
	xor	eax, eax
	mov	QWORD PTR [rbx], rax
; Line 2096
	mov	QWORD PTR [rbx+8], rax
; Line 2097
	mov	QWORD PTR [rbx+16], rax
$LN5@vector:
; Line 835
	add	rsp, 32					; 00000020H
	pop	rbx
	ret	0
$LN28@vector:
??1?$vector@IV?$allocator@I@std@@@std@@QEAA@XZ ENDP	; std::vector<unsigned int,std::allocator<unsigned int> >::~vector<unsigned int,std::allocator<unsigned int> >
_TEXT	ENDS
; Function compile flags: /Ogtpy
;	COMDAT ??0?$vector@IV?$allocator@I@std@@@std@@QEAA@XZ
_TEXT	SEGMENT
this$ = 8
??0?$vector@IV?$allocator@I@std@@@std@@QEAA@XZ PROC	; std::vector<unsigned int,std::allocator<unsigned int> >::vector<unsigned int,std::allocator<unsigned int> >, COMDAT
; File C:\Program Files\Microsoft Visual Studio\18\Community\VC\Tools\MSVC\14.50.35717\include\vector
; Line 400
	xor	eax, eax
	mov	QWORD PTR [rcx], rax
	mov	QWORD PTR [rcx+8], rax
	mov	QWORD PTR [rcx+16], rax
; Line 672
	mov	rax, rcx
	ret	0
??0?$vector@IV?$allocator@I@std@@@std@@QEAA@XZ ENDP	; std::vector<unsigned int,std::allocator<unsigned int> >::vector<unsigned int,std::allocator<unsigned int> >
_TEXT	ENDS
; Function compile flags: /Ogtpy
;	COMDAT ?deallocate@?$allocator@I@std@@QEAAXQEAI_K@Z
_TEXT	SEGMENT
this$ = 8
_Ptr$ = 16
_Count$ = 24
?deallocate@?$allocator@I@std@@QEAAXQEAI_K@Z PROC	; std::allocator<unsigned int>::deallocate, COMDAT
; File C:\Program Files\Microsoft Visual Studio\18\Community\VC\Tools\MSVC\14.50.35717\include\xmemory
; Line 989
	lea	r8, QWORD PTR [r8*4]
; Line 288
	cmp	r8, 4096				; 00001000H
	jb	SHORT $LN15@deallocate
; Line 209
	mov	rcx, QWORD PTR [rdx-8]
; Line 223
	sub	rdx, rcx
	sub	rdx, 8
	cmp	rdx, 31
	ja	SHORT $LN11@deallocate
; Line 206
	add	r8, 39					; 00000027H
; Line 293
	mov	rdx, r8
	jmp	??3@YAXPEAX_K@Z				; operator delete
$LN11@deallocate:
; Line 223
	mov	ecx, 5
	int	41					; 00000029H
$LN15@deallocate:
; Line 989
	mov	rcx, rdx
; Line 293
	mov	rdx, r8
	jmp	??3@YAXPEAX_K@Z				; operator delete
$LN16@deallocate:
?deallocate@?$allocator@I@std@@QEAAXQEAI_K@Z ENDP	; std::allocator<unsigned int>::deallocate
_TEXT	ENDS
; Function compile flags: /Ogtpy
;	COMDAT ??0?$allocator@I@std@@QEAA@XZ
_TEXT	SEGMENT
this$ = 8
??0?$allocator@I@std@@QEAA@XZ PROC			; std::allocator<unsigned int>::allocator<unsigned int>, COMDAT
; File C:\Program Files\Microsoft Visual Studio\18\Community\VC\Tools\MSVC\14.50.35717\include\xmemory
; Line 978
	mov	rax, rcx
	ret	0
??0?$allocator@I@std@@QEAA@XZ ENDP			; std::allocator<unsigned int>::allocator<unsigned int>
_TEXT	ENDS
; Function compile flags: /Ogtpy
;	COMDAT ??1Physics@@QEAA@XZ
_TEXT	SEGMENT
this$ = 48
??1Physics@@QEAA@XZ PROC				; Physics::~Physics, COMDAT
$LN11:
	push	rbx
	sub	rsp, 32					; 00000020H
	mov	rbx, rcx
	add	rcx, 48					; 00000030H
	call	??1?$vector@PEAVBaseCube@@V?$allocator@PEAVBaseCube@@@std@@@std@@QEAA@XZ ; std::vector<BaseCube *,std::allocator<BaseCube *> >::~vector<BaseCube *,std::allocator<BaseCube *> >
	lea	rcx, QWORD PTR [rbx+40]
	call	??1PxDefaultErrorCallback@physx@@UEAA@XZ ; physx::PxDefaultErrorCallback::~PxDefaultErrorCallback
	lea	rax, OFFSET FLAT:??_7PxAllocatorCallback@physx@@6B@
	mov	QWORD PTR [rbx+32], rax
	add	rsp, 32					; 00000020H
	pop	rbx
	ret	0
??1Physics@@QEAA@XZ ENDP				; Physics::~Physics
_TEXT	ENDS
; Function compile flags: /Ogtpy
;	COMDAT ??0Physics@@QEAA@XZ
_TEXT	SEGMENT
this$ = 48
??0Physics@@QEAA@XZ PROC				; Physics::Physics, COMDAT
$LN28:
	mov	QWORD PTR [rsp+16], rbx
	mov	QWORD PTR [rsp+8], rcx
	push	rdi
	sub	rsp, 32					; 00000020H
	mov	rbx, rcx
; File C:\Program Files\Microsoft Visual Studio\18\Community\VC\Tools\MSVC\14.50.35717\include\vector
; Line 400
	xor	edi, edi
	mov	QWORD PTR [rcx], rdi
	mov	QWORD PTR [rcx+8], rdi
	mov	QWORD PTR [rcx+16], rdi
	mov	QWORD PTR [rcx+24], rdi
	lea	rax, OFFSET FLAT:??_7PxDefaultAllocator@physx@@6B@
	mov	QWORD PTR [rcx+32], rax
	add	rcx, 40					; 00000028H
	call	??0PxDefaultErrorCallback@physx@@QEAA@XZ ; physx::PxDefaultErrorCallback::PxDefaultErrorCallback
	mov	QWORD PTR [rbx+48], rdi
	mov	QWORD PTR [rbx+56], rdi
	mov	QWORD PTR [rbx+64], rdi
	mov	rax, rbx
	mov	rbx, QWORD PTR [rsp+56]
	add	rsp, 32					; 00000020H
	pop	rdi
	ret	0
??0Physics@@QEAA@XZ ENDP				; Physics::Physics
_TEXT	ENDS
; Function compile flags: /Ogtpy
;	COMDAT text$x
text$x	SEGMENT
this$ = 48
?dtor$0@?0???0Physics@@QEAA@XZ@4HA PROC			; `Physics::Physics'::`1'::dtor$0
	mov	rcx, QWORD PTR this$[rdx]
	add	rcx, 32					; 00000020H
	jmp	??1PxDefaultAllocator@physx@@UEAA@XZ
?dtor$0@?0???0Physics@@QEAA@XZ@4HA ENDP			; `Physics::Physics'::`1'::dtor$0
text$x	ENDS
; Function compile flags: /Ogtpy
;	COMDAT ?_Get_first@?$_Compressed_pair@V?$allocator@PEAVBaseCube@@@std@@V?$_Vector_val@U?$_Simple_types@PEAVBaseCube@@@std@@@2@$00@std@@QEAAAEAV?$allocator@PEAVBaseCube@@@2@XZ
_TEXT	SEGMENT
this$ = 8
?_Get_first@?$_Compressed_pair@V?$allocator@PEAVBaseCube@@@std@@V?$_Vector_val@U?$_Simple_types@PEAVBaseCube@@@std@@@2@$00@std@@QEAAAEAV?$allocator@PEAVBaseCube@@@2@XZ PROC ; std::_Compressed_pair<std::allocator<BaseCube *>,std::_Vector_val<std::_Simple_types<BaseCube *> >,1>::_Get_first, COMDAT
; File C:\Program Files\Microsoft Visual Studio\18\Community\VC\Tools\MSVC\14.50.35717\include\xmemory
; Line 1559
	mov	rax, rcx
; Line 1560
	ret	0
?_Get_first@?$_Compressed_pair@V?$allocator@PEAVBaseCube@@@std@@V?$_Vector_val@U?$_Simple_types@PEAVBaseCube@@@std@@@2@$00@std@@QEAAAEAV?$allocator@PEAVBaseCube@@@2@XZ ENDP ; std::_Compressed_pair<std::allocator<BaseCube *>,std::_Vector_val<std::_Simple_types<BaseCube *> >,1>::_Get_first
_TEXT	ENDS
; Function compile flags: /Ogtpy
;	COMDAT ??0?$_Vector_val@U?$_Simple_types@PEAVBaseCube@@@std@@@std@@QEAA@XZ
_TEXT	SEGMENT
this$ = 8
??0?$_Vector_val@U?$_Simple_types@PEAVBaseCube@@@std@@@std@@QEAA@XZ PROC ; std::_Vector_val<std::_Simple_types<BaseCube *> >::_Vector_val<std::_Simple_types<BaseCube *> >, COMDAT
; File C:\Program Files\Microsoft Visual Studio\18\Community\VC\Tools\MSVC\14.50.35717\include\vector
; Line 400
	xor	eax, eax
	mov	QWORD PTR [rcx], rax
	mov	QWORD PTR [rcx+8], rax
	mov	QWORD PTR [rcx+16], rax
	mov	rax, rcx
	ret	0
??0?$_Vector_val@U?$_Simple_types@PEAVBaseCube@@@std@@@std@@QEAA@XZ ENDP ; std::_Vector_val<std::_Simple_types<BaseCube *> >::_Vector_val<std::_Simple_types<BaseCube *> >
_TEXT	ENDS
; Function compile flags: /Ogtpy
;	COMDAT ?_Getal@?$vector@PEAVBaseCube@@V?$allocator@PEAVBaseCube@@@std@@@std@@AEAAAEAV?$allocator@PEAVBaseCube@@@2@XZ
_TEXT	SEGMENT
this$ = 8
?_Getal@?$vector@PEAVBaseCube@@V?$allocator@PEAVBaseCube@@@std@@@std@@AEAAAEAV?$allocator@PEAVBaseCube@@@2@XZ PROC ; std::vector<BaseCube *,std::allocator<BaseCube *> >::_Getal, COMDAT
; File C:\Program Files\Microsoft Visual Studio\18\Community\VC\Tools\MSVC\14.50.35717\include\vector
; Line 2227
	mov	rax, rcx
; Line 2228
	ret	0
?_Getal@?$vector@PEAVBaseCube@@V?$allocator@PEAVBaseCube@@@std@@@std@@AEAAAEAV?$allocator@PEAVBaseCube@@@2@XZ ENDP ; std::vector<BaseCube *,std::allocator<BaseCube *> >::_Getal
_TEXT	ENDS
; Function compile flags: /Ogtpy
;	COMDAT ?_Tidy@?$vector@PEAVBaseCube@@V?$allocator@PEAVBaseCube@@@std@@@std@@AEAAXXZ
_TEXT	SEGMENT
this$ = 48
?_Tidy@?$vector@PEAVBaseCube@@V?$allocator@PEAVBaseCube@@@std@@@std@@AEAAXXZ PROC ; std::vector<BaseCube *,std::allocator<BaseCube *> >::_Tidy, COMDAT
; File C:\Program Files\Microsoft Visual Studio\18\Community\VC\Tools\MSVC\14.50.35717\include\vector
; Line 2081
$LN27:
	push	rbx
	sub	rsp, 32					; 00000020H
; Line 2090
	mov	rdx, QWORD PTR [rcx]
	mov	rbx, rcx
	test	rdx, rdx
	je	SHORT $LN2@Tidy
; Line 2093
	mov	rax, QWORD PTR [rcx+16]
	sub	rax, rdx
	sar	rax, 3
; File C:\Program Files\Microsoft Visual Studio\18\Community\VC\Tools\MSVC\14.50.35717\include\xmemory
; Line 989
	lea	rax, QWORD PTR [rax*8]
; Line 288
	cmp	rax, 4096				; 00001000H
	jb	SHORT $LN20@Tidy
; Line 209
	mov	rcx, QWORD PTR [rdx-8]
; Line 223
	sub	rdx, rcx
	sub	rdx, 8
	cmp	rdx, 31
	ja	SHORT $LN15@Tidy
; Line 224
	add	rax, 39					; 00000027H
	jmp	SHORT $LN16@Tidy
$LN15@Tidy:
; Line 223
	mov	ecx, 5
	int	41					; 00000029H
$LN20@Tidy:
; Line 989
	mov	rcx, rdx
$LN16@Tidy:
; Line 293
	mov	rdx, rax
	call	??3@YAXPEAX_K@Z				; operator delete
; File C:\Program Files\Microsoft Visual Studio\18\Community\VC\Tools\MSVC\14.50.35717\include\vector
; Line 2095
	xor	eax, eax
	mov	QWORD PTR [rbx], rax
; Line 2096
	mov	QWORD PTR [rbx+8], rax
; Line 2097
	mov	QWORD PTR [rbx+16], rax
$LN2@Tidy:
; Line 2099
	add	rsp, 32					; 00000020H
	pop	rbx
	ret	0
$LN24@Tidy:
?_Tidy@?$vector@PEAVBaseCube@@V?$allocator@PEAVBaseCube@@@std@@@std@@AEAAXXZ ENDP ; std::vector<BaseCube *,std::allocator<BaseCube *> >::_Tidy
_TEXT	ENDS
; Function compile flags: /Ogtpy
;	COMDAT ??1?$vector@PEAVBaseCube@@V?$allocator@PEAVBaseCube@@@std@@@std@@QEAA@XZ
_TEXT	SEGMENT
this$ = 48
??1?$vector@PEAVBaseCube@@V?$allocator@PEAVBaseCube@@@std@@@std@@QEAA@XZ PROC ; std::vector<BaseCube *,std::allocator<BaseCube *> >::~vector<BaseCube *,std::allocator<BaseCube *> >, COMDAT
; File C:\Program Files\Microsoft Visual Studio\18\Community\VC\Tools\MSVC\14.50.35717\include\vector
; Line 829
$LN31:
	push	rbx
	sub	rsp, 32					; 00000020H
; Line 2090
	mov	rdx, QWORD PTR [rcx]
; Line 829
	mov	rbx, rcx
; Line 2090
	test	rdx, rdx
	je	SHORT $LN5@vector
; Line 2093
	mov	rax, QWORD PTR [rcx+16]
	sub	rax, rdx
	sar	rax, 3
; File C:\Program Files\Microsoft Visual Studio\18\Community\VC\Tools\MSVC\14.50.35717\include\xmemory
; Line 989
	lea	rax, QWORD PTR [rax*8]
; Line 288
	cmp	rax, 4096				; 00001000H
	jb	SHORT $LN24@vector
; Line 209
	mov	rcx, QWORD PTR [rdx-8]
; Line 223
	sub	rdx, rcx
	sub	rdx, 8
	cmp	rdx, 31
	ja	SHORT $LN18@vector
; Line 224
	add	rax, 39					; 00000027H
	jmp	SHORT $LN19@vector
$LN18@vector:
; Line 223
	mov	ecx, 5
	int	41					; 00000029H
$LN24@vector:
; Line 989
	mov	rcx, rdx
$LN19@vector:
; Line 293
	mov	rdx, rax
	call	??3@YAXPEAX_K@Z				; operator delete
; File C:\Program Files\Microsoft Visual Studio\18\Community\VC\Tools\MSVC\14.50.35717\include\vector
; Line 2095
	xor	eax, eax
	mov	QWORD PTR [rbx], rax
; Line 2096
	mov	QWORD PTR [rbx+8], rax
; Line 2097
	mov	QWORD PTR [rbx+16], rax
$LN5@vector:
; Line 835
	add	rsp, 32					; 00000020H
	pop	rbx
	ret	0
$LN28@vector:
??1?$vector@PEAVBaseCube@@V?$allocator@PEAVBaseCube@@@std@@@std@@QEAA@XZ ENDP ; std::vector<BaseCube *,std::allocator<BaseCube *> >::~vector<BaseCube *,std::allocator<BaseCube *> >
_TEXT	ENDS
; Function compile flags: /Ogtpy
;	COMDAT ??0?$vector@PEAVBaseCube@@V?$allocator@PEAVBaseCube@@@std@@@std@@QEAA@XZ
_TEXT	SEGMENT
this$ = 8
??0?$vector@PEAVBaseCube@@V?$allocator@PEAVBaseCube@@@std@@@std@@QEAA@XZ PROC ; std::vector<BaseCube *,std::allocator<BaseCube *> >::vector<BaseCube *,std::allocator<BaseCube *> >, COMDAT
; File C:\Program Files\Microsoft Visual Studio\18\Community\VC\Tools\MSVC\14.50.35717\include\vector
; Line 400
	xor	eax, eax
	mov	QWORD PTR [rcx], rax
	mov	QWORD PTR [rcx+8], rax
	mov	QWORD PTR [rcx+16], rax
; Line 672
	mov	rax, rcx
	ret	0
??0?$vector@PEAVBaseCube@@V?$allocator@PEAVBaseCube@@@std@@@std@@QEAA@XZ ENDP ; std::vector<BaseCube *,std::allocator<BaseCube *> >::vector<BaseCube *,std::allocator<BaseCube *> >
_TEXT	ENDS
; Function compile flags: /Ogtpy
;	COMDAT ?deallocate@?$allocator@PEAVBaseCube@@@std@@QEAAXQEAPEAVBaseCube@@_K@Z
_TEXT	SEGMENT
this$ = 8
_Ptr$ = 16
_Count$ = 24
?deallocate@?$allocator@PEAVBaseCube@@@std@@QEAAXQEAPEAVBaseCube@@_K@Z PROC ; std::allocator<BaseCube *>::deallocate, COMDAT
; File C:\Program Files\Microsoft Visual Studio\18\Community\VC\Tools\MSVC\14.50.35717\include\xmemory
; Line 989
	lea	r8, QWORD PTR [r8*8]
; Line 288
	cmp	r8, 4096				; 00001000H
	jb	SHORT $LN15@deallocate
; Line 209
	mov	rcx, QWORD PTR [rdx-8]
; Line 223
	sub	rdx, rcx
	sub	rdx, 8
	cmp	rdx, 31
	ja	SHORT $LN11@deallocate
; Line 206
	add	r8, 39					; 00000027H
; Line 293
	mov	rdx, r8
	jmp	??3@YAXPEAX_K@Z				; operator delete
$LN11@deallocate:
; Line 223
	mov	ecx, 5
	int	41					; 00000029H
$LN15@deallocate:
; Line 989
	mov	rcx, rdx
; Line 293
	mov	rdx, r8
	jmp	??3@YAXPEAX_K@Z				; operator delete
$LN16@deallocate:
?deallocate@?$allocator@PEAVBaseCube@@@std@@QEAAXQEAPEAVBaseCube@@_K@Z ENDP ; std::allocator<BaseCube *>::deallocate
_TEXT	ENDS
; Function compile flags: /Ogtpy
;	COMDAT ??0?$allocator@PEAVBaseCube@@@std@@QEAA@XZ
_TEXT	SEGMENT
this$ = 8
??0?$allocator@PEAVBaseCube@@@std@@QEAA@XZ PROC		; std::allocator<BaseCube *>::allocator<BaseCube *>, COMDAT
; File C:\Program Files\Microsoft Visual Studio\18\Community\VC\Tools\MSVC\14.50.35717\include\xmemory
; Line 978
	mov	rax, rcx
	ret	0
??0?$allocator@PEAVBaseCube@@@std@@QEAA@XZ ENDP		; std::allocator<BaseCube *>::allocator<BaseCube *>
_TEXT	ENDS
; Function compile flags: /Ogtpy
;	COMDAT ??_GPxDefaultAllocator@physx@@UEAAPEAXI@Z
_TEXT	SEGMENT
this$ = 48
__flags$ = 56
??_GPxDefaultAllocator@physx@@UEAAPEAXI@Z PROC		; physx::PxDefaultAllocator::`scalar deleting destructor', COMDAT
$LN9:
	push	rbx
	sub	rsp, 32					; 00000020H
	lea	rax, OFFSET FLAT:??_7PxAllocatorCallback@physx@@6B@
	mov	rbx, rcx
	mov	QWORD PTR [rcx], rax
	test	dl, 1
	je	SHORT $LN5@scalar
	mov	edx, 8
	call	??3@YAXPEAX_K@Z				; operator delete
$LN5@scalar:
	mov	rax, rbx
	add	rsp, 32					; 00000020H
	pop	rbx
	ret	0
??_GPxDefaultAllocator@physx@@UEAAPEAXI@Z ENDP		; physx::PxDefaultAllocator::`scalar deleting destructor'
_TEXT	ENDS
; Function compile flags: /Ogtpy
;	COMDAT ??1PxDefaultAllocator@physx@@UEAA@XZ
_TEXT	SEGMENT
this$ = 8
??1PxDefaultAllocator@physx@@UEAA@XZ PROC		; physx::PxDefaultAllocator::~PxDefaultAllocator, COMDAT
	lea	rax, OFFSET FLAT:??_7PxAllocatorCallback@physx@@6B@
	mov	QWORD PTR [rcx], rax
	ret	0
??1PxDefaultAllocator@physx@@UEAA@XZ ENDP		; physx::PxDefaultAllocator::~PxDefaultAllocator
_TEXT	ENDS
; Function compile flags: /Ogtpy
;	COMDAT ??0PxDefaultAllocator@physx@@QEAA@XZ
_TEXT	SEGMENT
this$ = 8
??0PxDefaultAllocator@physx@@QEAA@XZ PROC		; physx::PxDefaultAllocator::PxDefaultAllocator, COMDAT
	lea	rax, OFFSET FLAT:??_7PxDefaultAllocator@physx@@6B@
	mov	QWORD PTR [rcx], rax
	mov	rax, rcx
	ret	0
??0PxDefaultAllocator@physx@@QEAA@XZ ENDP		; physx::PxDefaultAllocator::PxDefaultAllocator
_TEXT	ENDS
; Function compile flags: /Ogtpy
;	COMDAT ?deallocate@PxDefaultAllocator@physx@@UEAAXPEAX@Z
_TEXT	SEGMENT
this$ = 8
ptr$ = 16
?deallocate@PxDefaultAllocator@physx@@UEAAXPEAX@Z PROC	; physx::PxDefaultAllocator::deallocate, COMDAT
; File C:\Users\RedDragon\Documents\Recubin\include\PhysX\extensions\PxDefaultAllocator.h
; Line 57
	mov	rcx, rdx
	rex_jmp	QWORD PTR __imp__aligned_free
?deallocate@PxDefaultAllocator@physx@@UEAAXPEAX@Z ENDP	; physx::PxDefaultAllocator::deallocate
_TEXT	ENDS
; Function compile flags: /Ogtpy
;	COMDAT ?allocate@PxDefaultAllocator@physx@@UEAAPEAX_KPEBD1H@Z
_TEXT	SEGMENT
this$ = 8
size$ = 16
__formal$ = 24
__formal$ = 32
__formal$ = 40
?allocate@PxDefaultAllocator@physx@@UEAAPEAX_KPEBD1H@Z PROC ; physx::PxDefaultAllocator::allocate, COMDAT
; File C:\Users\RedDragon\Documents\Recubin\include\PhysX\extensions\PxDefaultAllocator.h
; Line 89
	mov	rcx, rdx
; Line 52
	mov	edx, 16
	rex_jmp	QWORD PTR __imp__aligned_malloc
?allocate@PxDefaultAllocator@physx@@UEAAPEAX_KPEBD1H@Z ENDP ; physx::PxDefaultAllocator::allocate
_TEXT	ENDS
; Function compile flags: /Ogtpy
;	COMDAT ?platformAlignedFree@physx@@YAXPEAX@Z
_TEXT	SEGMENT
ptr$ = 8
?platformAlignedFree@physx@@YAXPEAX@Z PROC		; physx::platformAlignedFree, COMDAT
; File C:\Users\RedDragon\Documents\Recubin\include\PhysX\extensions\PxDefaultAllocator.h
; Line 57
	rex_jmp	QWORD PTR __imp__aligned_free
?platformAlignedFree@physx@@YAXPEAX@Z ENDP		; physx::platformAlignedFree
_TEXT	ENDS
; Function compile flags: /Ogtpy
;	COMDAT ?platformAlignedAlloc@physx@@YAPEAX_K@Z
_TEXT	SEGMENT
size$ = 8
?platformAlignedAlloc@physx@@YAPEAX_K@Z PROC		; physx::platformAlignedAlloc, COMDAT
; File C:\Users\RedDragon\Documents\Recubin\include\PhysX\extensions\PxDefaultAllocator.h
; Line 52
	mov	edx, 16
	rex_jmp	QWORD PTR __imp__aligned_malloc
?platformAlignedAlloc@physx@@YAPEAX_K@Z ENDP		; physx::platformAlignedAlloc
_TEXT	ENDS
; Function compile flags: /Ogtpy
;	COMDAT ??__EmaxV4Error@vecMathTests@aos@physx@@YAXXZ
text$di	SEGMENT
??__EmaxV4Error@vecMathTests@aos@physx@@YAXXZ PROC	; physx::aos::vecMathTests::`dynamic initializer for 'maxV4Error'', COMDAT
; File C:\Users\RedDragon\Documents\Recubin\include\PhysX\foundation\windows\PxWindowsInlineAoS.h
; File C:\Users\RedDragon\Documents\Recubin\include\PhysX\foundation\PxVecMathSSE.h
; Line 238
	movdqa	xmm0, XMMWORD PTR __xmm@3a83126f3a83126f3a83126f3a83126f
; File C:\Users\RedDragon\Documents\Recubin\include\PhysX\foundation\windows\PxWindowsInlineAoS.h
; Line 112
	movaps	XMMWORD PTR ?maxV4Error@vecMathTests@aos@physx@@3T__m128@@B, xmm0
	ret	0
??__EmaxV4Error@vecMathTests@aos@physx@@YAXXZ ENDP	; physx::aos::vecMathTests::`dynamic initializer for 'maxV4Error''
text$di	ENDS
; Function compile flags: /Ogtpy
;	COMDAT ??__EminV4Error@vecMathTests@aos@physx@@YAXXZ
text$di	SEGMENT
??__EminV4Error@vecMathTests@aos@physx@@YAXXZ PROC	; physx::aos::vecMathTests::`dynamic initializer for 'minV4Error'', COMDAT
; File C:\Users\RedDragon\Documents\Recubin\include\PhysX\foundation\windows\PxWindowsInlineAoS.h
; File C:\Users\RedDragon\Documents\Recubin\include\PhysX\foundation\PxVecMathSSE.h
; Line 238
	movdqa	xmm0, XMMWORD PTR __xmm@ba83126fba83126fba83126fba83126f
; File C:\Users\RedDragon\Documents\Recubin\include\PhysX\foundation\windows\PxWindowsInlineAoS.h
; Line 111
	movaps	XMMWORD PTR ?minV4Error@vecMathTests@aos@physx@@3T__m128@@B, xmm0
	ret	0
??__EminV4Error@vecMathTests@aos@physx@@YAXXZ ENDP	; physx::aos::vecMathTests::`dynamic initializer for 'minV4Error''
text$di	ENDS
; Function compile flags: /Ogtpy
;	COMDAT ??__EmaxV3Error@vecMathTests@aos@physx@@YAXXZ
text$di	SEGMENT
??__EmaxV3Error@vecMathTests@aos@physx@@YAXXZ PROC	; physx::aos::vecMathTests::`dynamic initializer for 'maxV3Error'', COMDAT
; File C:\Users\RedDragon\Documents\Recubin\include\PhysX\foundation\windows\PxWindowsInlineAoS.h
; File C:\Users\RedDragon\Documents\Recubin\include\PhysX\foundation\PxVecMathSSE.h
; Line 233
	movdqa	xmm0, XMMWORD PTR __xmm@000000003a83126f3a83126f3a83126f
; File C:\Users\RedDragon\Documents\Recubin\include\PhysX\foundation\windows\PxWindowsInlineAoS.h
; Line 110
	movaps	XMMWORD PTR ?maxV3Error@vecMathTests@aos@physx@@3T__m128@@B, xmm0
	ret	0
??__EmaxV3Error@vecMathTests@aos@physx@@YAXXZ ENDP	; physx::aos::vecMathTests::`dynamic initializer for 'maxV3Error''
text$di	ENDS
; Function compile flags: /Ogtpy
;	COMDAT ??__EminV3Error@vecMathTests@aos@physx@@YAXXZ
text$di	SEGMENT
??__EminV3Error@vecMathTests@aos@physx@@YAXXZ PROC	; physx::aos::vecMathTests::`dynamic initializer for 'minV3Error'', COMDAT
; File C:\Users\RedDragon\Documents\Recubin\include\PhysX\foundation\windows\PxWindowsInlineAoS.h
; File C:\Users\RedDragon\Documents\Recubin\include\PhysX\foundation\PxVecMathSSE.h
; Line 233
	movdqa	xmm0, XMMWORD PTR __xmm@00000000ba83126fba83126fba83126f
; File C:\Users\RedDragon\Documents\Recubin\include\PhysX\foundation\windows\PxWindowsInlineAoS.h
; Line 109
	movaps	XMMWORD PTR ?minV3Error@vecMathTests@aos@physx@@3T__m128@@B, xmm0
	ret	0
??__EminV3Error@vecMathTests@aos@physx@@YAXXZ ENDP	; physx::aos::vecMathTests::`dynamic initializer for 'minV3Error''
text$di	ENDS
; Function compile flags: /Ogtpy
;	COMDAT ??__EmaxFError@vecMathTests@aos@physx@@YAXXZ
text$di	SEGMENT
??__EmaxFError@vecMathTests@aos@physx@@YAXXZ PROC	; physx::aos::vecMathTests::`dynamic initializer for 'maxFError'', COMDAT
; File C:\Users\RedDragon\Documents\Recubin\include\PhysX\foundation\windows\PxWindowsInlineAoS.h
; File C:\Users\RedDragon\Documents\Recubin\include\PhysX\foundation\PxVecMathSSE.h
; Line 228
	movdqa	xmm0, XMMWORD PTR __xmm@3a83126f3a83126f3a83126f3a83126f
; File C:\Users\RedDragon\Documents\Recubin\include\PhysX\foundation\windows\PxWindowsInlineAoS.h
; Line 108
	movaps	XMMWORD PTR ?maxFError@vecMathTests@aos@physx@@3T__m128@@B, xmm0
	ret	0
??__EmaxFError@vecMathTests@aos@physx@@YAXXZ ENDP	; physx::aos::vecMathTests::`dynamic initializer for 'maxFError''
text$di	ENDS
; Function compile flags: /Ogtpy
;	COMDAT ??__EminFError@vecMathTests@aos@physx@@YAXXZ
text$di	SEGMENT
??__EminFError@vecMathTests@aos@physx@@YAXXZ PROC	; physx::aos::vecMathTests::`dynamic initializer for 'minFError'', COMDAT
; File C:\Users\RedDragon\Documents\Recubin\include\PhysX\foundation\windows\PxWindowsInlineAoS.h
; File C:\Users\RedDragon\Documents\Recubin\include\PhysX\foundation\PxVecMathSSE.h
; Line 228
	movdqa	xmm0, XMMWORD PTR __xmm@ba83126fba83126fba83126fba83126f
; File C:\Users\RedDragon\Documents\Recubin\include\PhysX\foundation\windows\PxWindowsInlineAoS.h
; Line 107
	movaps	XMMWORD PTR ?minFError@vecMathTests@aos@physx@@3T__m128@@B, xmm0
	ret	0
??__EminFError@vecMathTests@aos@physx@@YAXXZ ENDP	; physx::aos::vecMathTests::`dynamic initializer for 'minFError''
text$di	ENDS
; Function compile flags: /Ogtpy
;	COMDAT ?V4Load@aos@physx@@YA?AT__m128@@M@Z
_TEXT	SEGMENT
f$ = 8
?V4Load@aos@physx@@YA?AT__m128@@M@Z PROC		; physx::aos::V4Load, COMDAT
; File C:\Users\RedDragon\Documents\Recubin\include\PhysX\foundation\PxVecMathSSE.h
; Line 238
	shufps	xmm0, xmm0, 0
; Line 239
	ret	0
?V4Load@aos@physx@@YA?AT__m128@@M@Z ENDP		; physx::aos::V4Load
_TEXT	ENDS
; Function compile flags: /Ogtpy
;	COMDAT ?V3Load@aos@physx@@YA?AT__m128@@M@Z
_TEXT	SEGMENT
f$ = 8
?V3Load@aos@physx@@YA?AT__m128@@M@Z PROC		; physx::aos::V3Load, COMDAT
; File C:\Users\RedDragon\Documents\Recubin\include\PhysX\foundation\PxVecMathSSE.h
; Line 233
	movaps	xmm3, xmm0
	xorps	xmm2, xmm2
	unpcklps xmm3, xmm2
	unpcklps xmm0, xmm0
	movlhps	xmm0, xmm3
; Line 234
	ret	0
?V3Load@aos@physx@@YA?AT__m128@@M@Z ENDP		; physx::aos::V3Load
_TEXT	ENDS
; Function compile flags: /Ogtpy
;	COMDAT ?FLoad@aos@physx@@YA?AT__m128@@M@Z
_TEXT	SEGMENT
f$ = 8
?FLoad@aos@physx@@YA?AT__m128@@M@Z PROC			; physx::aos::FLoad, COMDAT
; File C:\Users\RedDragon\Documents\Recubin\include\PhysX\foundation\PxVecMathSSE.h
; Line 228
	shufps	xmm0, xmm0, 0
; Line 229
	ret	0
?FLoad@aos@physx@@YA?AT__m128@@M@Z ENDP			; physx::aos::FLoad
_TEXT	ENDS
; Function compile flags: /Ogtpy
;	COMDAT ??_GPxAllocatorCallback@physx@@UEAAPEAXI@Z
_TEXT	SEGMENT
this$ = 48
__flags$ = 56
??_GPxAllocatorCallback@physx@@UEAAPEAXI@Z PROC		; physx::PxAllocatorCallback::`scalar deleting destructor', COMDAT
$LN9:
	push	rbx
	sub	rsp, 32					; 00000020H
	lea	rax, OFFSET FLAT:??_7PxAllocatorCallback@physx@@6B@
	mov	rbx, rcx
	mov	QWORD PTR [rcx], rax
	test	dl, 1
	je	SHORT $LN5@scalar
	mov	edx, 8
	call	??3@YAXPEAX_K@Z				; operator delete
$LN5@scalar:
	mov	rax, rbx
	add	rsp, 32					; 00000020H
	pop	rbx
	ret	0
??_GPxAllocatorCallback@physx@@UEAAPEAXI@Z ENDP		; physx::PxAllocatorCallback::`scalar deleting destructor'
_TEXT	ENDS
; Function compile flags: /Ogtpy
;	COMDAT ??0PxAllocatorCallback@physx@@QEAA@XZ
_TEXT	SEGMENT
this$ = 8
??0PxAllocatorCallback@physx@@QEAA@XZ PROC		; physx::PxAllocatorCallback::PxAllocatorCallback, COMDAT
	lea	rax, OFFSET FLAT:??_7PxAllocatorCallback@physx@@6B@
	mov	QWORD PTR [rcx], rax
	mov	rax, rcx
	ret	0
??0PxAllocatorCallback@physx@@QEAA@XZ ENDP		; physx::PxAllocatorCallback::PxAllocatorCallback
_TEXT	ENDS
; Function compile flags: /Ogtpy
;	COMDAT ??1PxAllocatorCallback@physx@@UEAA@XZ
_TEXT	SEGMENT
this$ = 8
??1PxAllocatorCallback@physx@@UEAA@XZ PROC		; physx::PxAllocatorCallback::~PxAllocatorCallback, COMDAT
; File C:\Users\RedDragon\Documents\Recubin\include\PhysX\foundation\PxAllocatorCallback.h
; Line 54
	lea	rax, OFFSET FLAT:??_7PxAllocatorCallback@physx@@6B@
	mov	QWORD PTR [rcx], rax
; Line 55
	ret	0
??1PxAllocatorCallback@physx@@UEAA@XZ ENDP		; physx::PxAllocatorCallback::~PxAllocatorCallback
_TEXT	ENDS
; Function compile flags: /Ogtpy
;	COMDAT ??0Color4@@QEAA@MMMM@Z
_TEXT	SEGMENT
this$ = 8
r$ = 16
g$ = 24
b$ = 32
a$ = 40
??0Color4@@QEAA@MMMM@Z PROC				; Color4::Color4, COMDAT
; File C:\Users\RedDragon\Documents\Recubin\include\Util\Color4.hpp
; Line 9
	movss	xmm0, DWORD PTR a$[rsp]
	mov	rax, rcx
	movss	DWORD PTR [rcx+12], xmm0
	movss	DWORD PTR [rcx], xmm1
	movss	DWORD PTR [rcx+4], xmm2
	movss	DWORD PTR [rcx+8], xmm3
	ret	0
??0Color4@@QEAA@MMMM@Z ENDP				; Color4::Color4
_TEXT	ENDS
; Function compile flags: /Ogtpy
;	COMDAT ??1Workspace@@UEAA@XZ
_TEXT	SEGMENT
this$ = 48
??1Workspace@@UEAA@XZ PROC				; Workspace::~Workspace, COMDAT
$LN6:
	push	rbx
	sub	rsp, 32					; 00000020H
	mov	rbx, rcx
	add	rcx, 144				; 00000090H
	call	??1?$vector@PEAVInstance@@V?$allocator@PEAVInstance@@@std@@@std@@QEAA@XZ ; std::vector<Instance *,std::allocator<Instance *> >::~vector<Instance *,std::allocator<Instance *> >
	lea	rcx, QWORD PTR [rbx+120]
	call	??1?$vector@PEAVInstance@@V?$allocator@PEAVInstance@@@std@@@std@@QEAA@XZ ; std::vector<Instance *,std::allocator<Instance *> >::~vector<Instance *,std::allocator<Instance *> >
	mov	rcx, rbx
	add	rsp, 32					; 00000020H
	pop	rbx
	jmp	??1Instance@@UEAA@XZ			; Instance::~Instance
??1Workspace@@UEAA@XZ ENDP				; Workspace::~Workspace
_TEXT	ENDS
; Function compile flags: /Ogtpy
;	COMDAT ?setPhysicsEngine@Workspace@@QEAAXPEAVPhysics@@@Z
_TEXT	SEGMENT
this$ = 8
engine$ = 16
?setPhysicsEngine@Workspace@@QEAAXPEAVPhysics@@@Z PROC	; Workspace::setPhysicsEngine, COMDAT
; File C:\Users\RedDragon\Documents\Recubin\include\Instances\Workspace.hpp
; Line 40
	mov	QWORD PTR [rcx+112], rdx
	ret	0
?setPhysicsEngine@Workspace@@QEAAXPEAVPhysics@@@Z ENDP	; Workspace::setPhysicsEngine
_TEXT	ENDS
; Function compile flags: /Ogtpy
;	COMDAT ?_Get_first@?$_Compressed_pair@V?$allocator@PEAVInstance@@@std@@V?$_Vector_val@U?$_Simple_types@PEAVInstance@@@std@@@2@$00@std@@QEAAAEAV?$allocator@PEAVInstance@@@2@XZ
_TEXT	SEGMENT
this$ = 8
?_Get_first@?$_Compressed_pair@V?$allocator@PEAVInstance@@@std@@V?$_Vector_val@U?$_Simple_types@PEAVInstance@@@std@@@2@$00@std@@QEAAAEAV?$allocator@PEAVInstance@@@2@XZ PROC ; std::_Compressed_pair<std::allocator<Instance *>,std::_Vector_val<std::_Simple_types<Instance *> >,1>::_Get_first, COMDAT
; File C:\Program Files\Microsoft Visual Studio\18\Community\VC\Tools\MSVC\14.50.35717\include\xmemory
; Line 1559
	mov	rax, rcx
; Line 1560
	ret	0
?_Get_first@?$_Compressed_pair@V?$allocator@PEAVInstance@@@std@@V?$_Vector_val@U?$_Simple_types@PEAVInstance@@@std@@@2@$00@std@@QEAAAEAV?$allocator@PEAVInstance@@@2@XZ ENDP ; std::_Compressed_pair<std::allocator<Instance *>,std::_Vector_val<std::_Simple_types<Instance *> >,1>::_Get_first
_TEXT	ENDS
; Function compile flags: /Ogtpy
;	COMDAT ?_Getal@?$vector@PEAVInstance@@V?$allocator@PEAVInstance@@@std@@@std@@AEAAAEAV?$allocator@PEAVInstance@@@2@XZ
_TEXT	SEGMENT
this$ = 8
?_Getal@?$vector@PEAVInstance@@V?$allocator@PEAVInstance@@@std@@@std@@AEAAAEAV?$allocator@PEAVInstance@@@2@XZ PROC ; std::vector<Instance *,std::allocator<Instance *> >::_Getal, COMDAT
; File C:\Program Files\Microsoft Visual Studio\18\Community\VC\Tools\MSVC\14.50.35717\include\vector
; Line 2227
	mov	rax, rcx
; Line 2228
	ret	0
?_Getal@?$vector@PEAVInstance@@V?$allocator@PEAVInstance@@@std@@@std@@AEAAAEAV?$allocator@PEAVInstance@@@2@XZ ENDP ; std::vector<Instance *,std::allocator<Instance *> >::_Getal
_TEXT	ENDS
; Function compile flags: /Ogtpy
;	COMDAT ?_Tidy@?$vector@PEAVInstance@@V?$allocator@PEAVInstance@@@std@@@std@@AEAAXXZ
_TEXT	SEGMENT
this$ = 48
?_Tidy@?$vector@PEAVInstance@@V?$allocator@PEAVInstance@@@std@@@std@@AEAAXXZ PROC ; std::vector<Instance *,std::allocator<Instance *> >::_Tidy, COMDAT
; File C:\Program Files\Microsoft Visual Studio\18\Community\VC\Tools\MSVC\14.50.35717\include\vector
; Line 2081
$LN27:
	push	rbx
	sub	rsp, 32					; 00000020H
; Line 2090
	mov	rdx, QWORD PTR [rcx]
	mov	rbx, rcx
	test	rdx, rdx
	je	SHORT $LN2@Tidy
; Line 2093
	mov	rax, QWORD PTR [rcx+16]
	sub	rax, rdx
	sar	rax, 3
; File C:\Program Files\Microsoft Visual Studio\18\Community\VC\Tools\MSVC\14.50.35717\include\xmemory
; Line 989
	lea	rax, QWORD PTR [rax*8]
; Line 288
	cmp	rax, 4096				; 00001000H
	jb	SHORT $LN20@Tidy
; Line 209
	mov	rcx, QWORD PTR [rdx-8]
; Line 223
	sub	rdx, rcx
	sub	rdx, 8
	cmp	rdx, 31
	ja	SHORT $LN15@Tidy
; Line 224
	add	rax, 39					; 00000027H
	jmp	SHORT $LN16@Tidy
$LN15@Tidy:
; Line 223
	mov	ecx, 5
	int	41					; 00000029H
$LN20@Tidy:
; Line 989
	mov	rcx, rdx
$LN16@Tidy:
; Line 293
	mov	rdx, rax
	call	??3@YAXPEAX_K@Z				; operator delete
; File C:\Program Files\Microsoft Visual Studio\18\Community\VC\Tools\MSVC\14.50.35717\include\vector
; Line 2095
	xor	eax, eax
	mov	QWORD PTR [rbx], rax
; Line 2096
	mov	QWORD PTR [rbx+8], rax
; Line 2097
	mov	QWORD PTR [rbx+16], rax
$LN2@Tidy:
; Line 2099
	add	rsp, 32					; 00000020H
	pop	rbx
	ret	0
$LN24@Tidy:
?_Tidy@?$vector@PEAVInstance@@V?$allocator@PEAVInstance@@@std@@@std@@AEAAXXZ ENDP ; std::vector<Instance *,std::allocator<Instance *> >::_Tidy
_TEXT	ENDS
; Function compile flags: /Ogtpy
;	COMDAT ??1?$vector@PEAVInstance@@V?$allocator@PEAVInstance@@@std@@@std@@QEAA@XZ
_TEXT	SEGMENT
this$ = 48
??1?$vector@PEAVInstance@@V?$allocator@PEAVInstance@@@std@@@std@@QEAA@XZ PROC ; std::vector<Instance *,std::allocator<Instance *> >::~vector<Instance *,std::allocator<Instance *> >, COMDAT
; File C:\Program Files\Microsoft Visual Studio\18\Community\VC\Tools\MSVC\14.50.35717\include\vector
; Line 829
$LN31:
	push	rbx
	sub	rsp, 32					; 00000020H
; Line 2090
	mov	rdx, QWORD PTR [rcx]
; Line 829
	mov	rbx, rcx
; Line 2090
	test	rdx, rdx
	je	SHORT $LN5@vector
; Line 2093
	mov	rax, QWORD PTR [rcx+16]
	sub	rax, rdx
	sar	rax, 3
; File C:\Program Files\Microsoft Visual Studio\18\Community\VC\Tools\MSVC\14.50.35717\include\xmemory
; Line 989
	lea	rax, QWORD PTR [rax*8]
; Line 288
	cmp	rax, 4096				; 00001000H
	jb	SHORT $LN24@vector
; Line 209
	mov	rcx, QWORD PTR [rdx-8]
; Line 223
	sub	rdx, rcx
	sub	rdx, 8
	cmp	rdx, 31
	ja	SHORT $LN18@vector
; Line 224
	add	rax, 39					; 00000027H
	jmp	SHORT $LN19@vector
$LN18@vector:
; Line 223
	mov	ecx, 5
	int	41					; 00000029H
$LN24@vector:
; Line 989
	mov	rcx, rdx
$LN19@vector:
; Line 293
	mov	rdx, rax
	call	??3@YAXPEAX_K@Z				; operator delete
; File C:\Program Files\Microsoft Visual Studio\18\Community\VC\Tools\MSVC\14.50.35717\include\vector
; Line 2095
	xor	eax, eax
	mov	QWORD PTR [rbx], rax
; Line 2096
	mov	QWORD PTR [rbx+8], rax
; Line 2097
	mov	QWORD PTR [rbx+16], rax
$LN5@vector:
; Line 835
	add	rsp, 32					; 00000020H
	pop	rbx
	ret	0
$LN28@vector:
??1?$vector@PEAVInstance@@V?$allocator@PEAVInstance@@@std@@@std@@QEAA@XZ ENDP ; std::vector<Instance *,std::allocator<Instance *> >::~vector<Instance *,std::allocator<Instance *> >
_TEXT	ENDS
; Function compile flags: /Ogtpy
;	COMDAT ?deallocate@?$allocator@PEAVInstance@@@std@@QEAAXQEAPEAVInstance@@_K@Z
_TEXT	SEGMENT
this$ = 8
_Ptr$ = 16
_Count$ = 24
?deallocate@?$allocator@PEAVInstance@@@std@@QEAAXQEAPEAVInstance@@_K@Z PROC ; std::allocator<Instance *>::deallocate, COMDAT
; File C:\Program Files\Microsoft Visual Studio\18\Community\VC\Tools\MSVC\14.50.35717\include\xmemory
; Line 989
	lea	r8, QWORD PTR [r8*8]
; Line 288
	cmp	r8, 4096				; 00001000H
	jb	SHORT $LN15@deallocate
; Line 209
	mov	rcx, QWORD PTR [rdx-8]
; Line 223
	sub	rdx, rcx
	sub	rdx, 8
	cmp	rdx, 31
	ja	SHORT $LN11@deallocate
; Line 206
	add	r8, 39					; 00000027H
; Line 293
	mov	rdx, r8
	jmp	??3@YAXPEAX_K@Z				; operator delete
$LN11@deallocate:
; Line 223
	mov	ecx, 5
	int	41					; 00000029H
$LN15@deallocate:
; Line 989
	mov	rcx, rdx
; Line 293
	mov	rdx, r8
	jmp	??3@YAXPEAX_K@Z				; operator delete
$LN16@deallocate:
?deallocate@?$allocator@PEAVInstance@@@std@@QEAAXQEAPEAVInstance@@_K@Z ENDP ; std::allocator<Instance *>::deallocate
_TEXT	ENDS
; Function compile flags: /Ogtpy
;	COMDAT ??Bsentry@?$basic_ostream@DU?$char_traits@D@std@@@std@@QEBA_NXZ
_TEXT	SEGMENT
this$ = 8
??Bsentry@?$basic_ostream@DU?$char_traits@D@std@@@std@@QEBA_NXZ PROC ; std::basic_ostream<char,std::char_traits<char> >::sentry::operator bool, COMDAT
; File C:\Program Files\Microsoft Visual Studio\18\Community\VC\Tools\MSVC\14.50.35717\include\__msvc_ostream.hpp
; Line 123
	movzx	eax, BYTE PTR [rcx+8]
; Line 124
	ret	0
??Bsentry@?$basic_ostream@DU?$char_traits@D@std@@@std@@QEBA_NXZ ENDP ; std::basic_ostream<char,std::char_traits<char> >::sentry::operator bool
_TEXT	ENDS
; Function compile flags: /Ogtpy
;	COMDAT ??1sentry@?$basic_ostream@DU?$char_traits@D@std@@@std@@QEAA@XZ
_TEXT	SEGMENT
this$ = 48
??1sentry@?$basic_ostream@DU?$char_traits@D@std@@@std@@QEAA@XZ PROC ; std::basic_ostream<char,std::char_traits<char> >::sentry::~sentry, COMDAT
; File C:\Program Files\Microsoft Visual Studio\18\Community\VC\Tools\MSVC\14.50.35717\include\__msvc_ostream.hpp
; Line 107
$LN14:
	push	rbx
	sub	rsp, 32					; 00000020H
	mov	rbx, rcx
; Line 113
	call	?uncaught_exceptions@std@@YAHXZ		; std::uncaught_exceptions
; Line 116
	test	eax, eax
	jne	SHORT $LN2@sentry
; Line 117
	mov	rcx, QWORD PTR [rbx]
	call	QWORD PTR __imp_?_Osfx@?$basic_ostream@DU?$char_traits@D@std@@@std@@QEAAXXZ
	npad	1
$LN2@sentry:
; Line 77
	mov	rdx, QWORD PTR [rbx]
	mov	rax, QWORD PTR [rdx]
	movsxd	rcx, DWORD PTR [rax+4]
	add	rcx, rdx
	call	QWORD PTR __imp_?rdbuf@?$basic_ios@DU?$char_traits@D@std@@@std@@QEBAPEAV?$basic_streambuf@DU?$char_traits@D@std@@@2@XZ
; Line 78
	test	rax, rax
	je	SHORT $LN11@sentry
; Line 79
	mov	rdx, QWORD PTR [rax]
	mov	rcx, rax
	call	QWORD PTR [rdx+16]
	npad	1
$LN11@sentry:
; Line 119
	add	rsp, 32					; 00000020H
	pop	rbx
	ret	0
??1sentry@?$basic_ostream@DU?$char_traits@D@std@@@std@@QEAA@XZ ENDP ; std::basic_ostream<char,std::char_traits<char> >::sentry::~sentry
_TEXT	ENDS
; Function compile flags: /Ogtpy
;	COMDAT ??0sentry@?$basic_ostream@DU?$char_traits@D@std@@@std@@QEAA@AEAV12@@Z
_TEXT	SEGMENT
this$ = 48
_Ostr$ = 56
??0sentry@?$basic_ostream@DU?$char_traits@D@std@@@std@@QEAA@AEAV12@@Z PROC ; std::basic_ostream<char,std::char_traits<char> >::sentry::sentry, COMDAT
; File C:\Program Files\Microsoft Visual Studio\18\Community\VC\Tools\MSVC\14.50.35717\include\__msvc_ostream.hpp
; Line 90
$LN12:
	mov	QWORD PTR [rsp+16], rbx
	mov	QWORD PTR [rsp+8], rcx
	push	rdi
	sub	rsp, 32					; 00000020H
	mov	rbx, rdx
	mov	rdi, rcx
; Line 69
	mov	QWORD PTR [rcx], rdx
; Line 70
	mov	rax, QWORD PTR [rdx]
	movsxd	rcx, DWORD PTR [rax+4]
	add	rcx, rdx
	call	QWORD PTR __imp_?rdbuf@?$basic_ios@DU?$char_traits@D@std@@@std@@QEBAPEAV?$basic_streambuf@DU?$char_traits@D@std@@@2@XZ
; Line 71
	test	rax, rax
	je	SHORT $LN8@sentry
; Line 72
	mov	r8, QWORD PTR [rax]
	mov	rcx, rax
	call	QWORD PTR [r8+8]
	npad	1
$LN8@sentry:
; Line 91
	mov	rax, QWORD PTR [rbx]
	movsxd	rcx, DWORD PTR [rax+4]
	add	rcx, rbx
	call	QWORD PTR __imp_?good@ios_base@std@@QEBA_NXZ
	test	al, al
	je	SHORT $LN1@sentry
; Line 96
	mov	rax, QWORD PTR [rbx]
	movsxd	rcx, DWORD PTR [rax+4]
	add	rcx, rbx
	call	QWORD PTR __imp_?tie@?$basic_ios@DU?$char_traits@D@std@@@std@@QEBAPEAV?$basic_ostream@DU?$char_traits@D@std@@@2@XZ
; Line 97
	test	rax, rax
	je	SHORT $LN4@sentry
	cmp	rax, rbx
	je	SHORT $LN4@sentry
; Line 102
	mov	rcx, rax
	call	QWORD PTR __imp_?flush@?$basic_ostream@DU?$char_traits@D@std@@@std@@QEAAAEAV12@XZ
; Line 103
	mov	rax, QWORD PTR [rbx]
	movsxd	rcx, DWORD PTR [rax+4]
	add	rcx, rbx
	call	QWORD PTR __imp_?good@ios_base@std@@QEBA_NXZ
	jmp	SHORT $LN1@sentry
$LN4@sentry:
; Line 98
	mov	al, 1
$LN1@sentry:
; Line 104
	mov	BYTE PTR [rdi+8], al
	mov	rax, rdi
	mov	rbx, QWORD PTR [rsp+56]
	add	rsp, 32					; 00000020H
	pop	rdi
	ret	0
??0sentry@?$basic_ostream@DU?$char_traits@D@std@@@std@@QEAA@AEAV12@@Z ENDP ; std::basic_ostream<char,std::char_traits<char> >::sentry::sentry
_TEXT	ENDS
; Function compile flags: /Ogtpy
;	COMDAT text$x
text$x	SEGMENT
this$ = 48
_Ostr$ = 56
?dtor$0@?0???0sentry@?$basic_ostream@DU?$char_traits@D@std@@@std@@QEAA@AEAV12@@Z@4HA PROC ; `std::basic_ostream<char,std::char_traits<char> >::sentry::sentry'::`1'::dtor$0
	mov	rcx, QWORD PTR this$[rdx]
	jmp	??1_Sentry_base@?$basic_ostream@DU?$char_traits@D@std@@@std@@QEAA@XZ ; std::basic_ostream<char,std::char_traits<char> >::_Sentry_base::~_Sentry_base
?dtor$0@?0???0sentry@?$basic_ostream@DU?$char_traits@D@std@@@std@@QEAA@AEAV12@@Z@4HA ENDP ; `std::basic_ostream<char,std::char_traits<char> >::sentry::sentry'::`1'::dtor$0
text$x	ENDS
; Function compile flags: /Ogtpy
;	COMDAT ??1_Sentry_base@?$basic_ostream@DU?$char_traits@D@std@@@std@@QEAA@XZ
_TEXT	SEGMENT
this$ = 48
??1_Sentry_base@?$basic_ostream@DU?$char_traits@D@std@@@std@@QEAA@XZ PROC ; std::basic_ostream<char,std::char_traits<char> >::_Sentry_base::~_Sentry_base, COMDAT
; File C:\Program Files\Microsoft Visual Studio\18\Community\VC\Tools\MSVC\14.50.35717\include\__msvc_ostream.hpp
; Line 76
$LN7:
	sub	rsp, 40					; 00000028H
; Line 77
	mov	rdx, QWORD PTR [rcx]
	mov	rax, QWORD PTR [rdx]
	movsxd	rcx, DWORD PTR [rax+4]
	add	rcx, rdx
	call	QWORD PTR __imp_?rdbuf@?$basic_ios@DU?$char_traits@D@std@@@std@@QEBAPEAV?$basic_streambuf@DU?$char_traits@D@std@@@2@XZ
; Line 78
	test	rax, rax
	je	SHORT $LN2@Sentry_bas
; Line 79
	mov	rdx, QWORD PTR [rax]
	mov	rcx, rax
	call	QWORD PTR [rdx+16]
	npad	1
$LN2@Sentry_bas:
; Line 81
	add	rsp, 40					; 00000028H
	ret	0
??1_Sentry_base@?$basic_ostream@DU?$char_traits@D@std@@@std@@QEAA@XZ ENDP ; std::basic_ostream<char,std::char_traits<char> >::_Sentry_base::~_Sentry_base
_TEXT	ENDS
; Function compile flags: /Ogtpy
;	COMDAT ??0_Sentry_base@?$basic_ostream@DU?$char_traits@D@std@@@std@@QEAA@AEAV12@@Z
_TEXT	SEGMENT
this$ = 48
_Ostr$ = 56
??0_Sentry_base@?$basic_ostream@DU?$char_traits@D@std@@@std@@QEAA@AEAV12@@Z PROC ; std::basic_ostream<char,std::char_traits<char> >::_Sentry_base::_Sentry_base, COMDAT
; File C:\Program Files\Microsoft Visual Studio\18\Community\VC\Tools\MSVC\14.50.35717\include\__msvc_ostream.hpp
; Line 69
$LN7:
	push	rbx
	sub	rsp, 32					; 00000020H
	mov	QWORD PTR [rcx], rdx
	mov	rbx, rcx
; Line 70
	mov	rax, QWORD PTR [rdx]
	movsxd	rcx, DWORD PTR [rax+4]
	add	rcx, rdx
	call	QWORD PTR __imp_?rdbuf@?$basic_ios@DU?$char_traits@D@std@@@std@@QEBAPEAV?$basic_streambuf@DU?$char_traits@D@std@@@2@XZ
; Line 71
	test	rax, rax
	je	SHORT $LN4@Sentry_bas
; Line 72
	mov	rdx, QWORD PTR [rax]
	mov	rcx, rax
	call	QWORD PTR [rdx+8]
$LN4@Sentry_bas:
; Line 74
	mov	rax, rbx
	add	rsp, 32					; 00000020H
	pop	rbx
	ret	0
??0_Sentry_base@?$basic_ostream@DU?$char_traits@D@std@@@std@@QEAA@AEAV12@@Z ENDP ; std::basic_ostream<char,std::char_traits<char> >::_Sentry_base::_Sentry_base
_TEXT	ENDS
; Function compile flags: /Ogtpy
;	COMDAT ??$_Getvals@_W@?$time_get@_WV?$istreambuf_iterator@_WU?$char_traits@_W@std@@@std@@@std@@IEAAX_WAEBV_Locinfo@1@@Z
_TEXT	SEGMENT
$T1 = 32
__$ArrayPad$ = 80
this$ = 128
__formal$ = 136
_Lobj$ = 144
??$_Getvals@_W@?$time_get@_WV?$istreambuf_iterator@_WU?$char_traits@_W@std@@@std@@@std@@IEAAX_WAEBV_Locinfo@1@@Z PROC ; std::time_get<wchar_t,std::istreambuf_iterator<wchar_t,std::char_traits<wchar_t> > >::_Getvals<wchar_t>, COMDAT
; File C:\Program Files\Microsoft Visual Studio\18\Community\VC\Tools\MSVC\14.50.35717\include\xloctime
; Line 238
$LN27:
	mov	QWORD PTR [rsp+16], rbx
	mov	QWORD PTR [rsp+32], rbp
	push	rsi
	push	rdi
	push	r14
	sub	rsp, 96					; 00000060H
	mov	rax, QWORD PTR __security_cookie
	xor	rax, rsp
	mov	QWORD PTR __$ArrayPad$[rsp], rax
	mov	rbx, rcx
; Line 239
	lea	rdx, QWORD PTR $T1[rsp]
	mov	rcx, r8
	mov	rsi, r8
	call	QWORD PTR __imp_?_Getcvt@_Locinfo@std@@QEBA?AU_Cvtvec@@XZ
; Line 242
	mov	rcx, rsi
	movups	xmm0, XMMWORD PTR [rax]
	movups	XMMWORD PTR [rbx+44], xmm0
	movups	xmm1, XMMWORD PTR [rax+16]
	movups	XMMWORD PTR [rbx+60], xmm1
	movups	xmm0, XMMWORD PTR [rax+28]
	movups	XMMWORD PTR [rbx+72], xmm0
	call	QWORD PTR __imp_?_W_Getdays@_Locinfo@std@@QEBAPEBGXZ
; File C:\Program Files\Microsoft Visual Studio\18\Community\VC\Tools\MSVC\14.50.35717\include\xlocnum
; Line 74
	mov	rcx, rax
; File C:\Program Files\Microsoft Visual Studio\18\Community\VC\Tools\MSVC\14.50.35717\include\xloctime
; Line 242
	mov	rbp, rax
; File C:\Program Files\Microsoft Visual Studio\18\Community\VC\Tools\MSVC\14.50.35717\include\xlocnum
; Line 74
	call	wcslen
; Line 76
	mov	edx, 2
	lea	r14, QWORD PTR [rax+1]
	mov	rcx, r14
	call	QWORD PTR __imp_calloc
	mov	rdi, rax
; Line 78
	test	rax, rax
	je	$LN24@Getvals
; File C:\Program Files (x86)\Windows Kits\10\Include\10.0.26100.0\ucrt\wchar.h
; Line 494
	lea	r8, QWORD PTR [r14+r14]
	mov	rdx, rbp
	mov	rcx, rax
	call	memcpy
; File C:\Program Files\Microsoft Visual Studio\18\Community\VC\Tools\MSVC\14.50.35717\include\xloctime
; Line 243
	mov	rcx, rsi
	mov	QWORD PTR [rbx+16], rdi
	call	QWORD PTR __imp_?_W_Getmonths@_Locinfo@std@@QEBAPEBGXZ
; File C:\Program Files\Microsoft Visual Studio\18\Community\VC\Tools\MSVC\14.50.35717\include\xlocnum
; Line 74
	mov	rcx, rax
; File C:\Program Files\Microsoft Visual Studio\18\Community\VC\Tools\MSVC\14.50.35717\include\xloctime
; Line 243
	mov	rsi, rax
; File C:\Program Files\Microsoft Visual Studio\18\Community\VC\Tools\MSVC\14.50.35717\include\xlocnum
; Line 74
	call	wcslen
; Line 76
	mov	edx, 2
	lea	r14, QWORD PTR [rax+1]
	mov	rcx, r14
	call	QWORD PTR __imp_calloc
	mov	rdi, rax
; Line 78
	test	rax, rax
	je	SHORT $LN25@Getvals
; File C:\Program Files (x86)\Windows Kits\10\Include\10.0.26100.0\ucrt\wchar.h
; Line 494
	lea	r8, QWORD PTR [r14+r14]
	mov	rdx, rsi
	mov	rcx, rax
	call	memcpy
; File C:\Program Files\Microsoft Visual Studio\18\Community\VC\Tools\MSVC\14.50.35717\include\xlocnum
; Line 76
	mov	edx, 2
; File C:\Program Files\Microsoft Visual Studio\18\Community\VC\Tools\MSVC\14.50.35717\include\xloctime
; Line 243
	mov	QWORD PTR [rbx+24], rdi
; File C:\Program Files\Microsoft Visual Studio\18\Community\VC\Tools\MSVC\14.50.35717\include\xlocnum
; Line 76
	mov	ecx, 13
	call	QWORD PTR __imp_calloc
; Line 78
	test	rax, rax
	je	SHORT $LN26@Getvals
; File C:\Program Files (x86)\Windows Kits\10\Include\10.0.26100.0\ucrt\wchar.h
; Line 494
	movups	xmm0, XMMWORD PTR ??_C@_1BK@MHIKGOKE@?$AA?3?$AAA?$AAM?$AA?3?$AAa?$AAm?$AA?3?$AAP?$AAM?$AA?3?$AAp?$AAm@
	movups	xmm1, XMMWORD PTR ??_C@_1BK@MHIKGOKE@?$AA?3?$AAA?$AAM?$AA?3?$AAa?$AAm?$AA?3?$AAP?$AAM?$AA?3?$AAp?$AAm@+10
; File C:\Program Files\Microsoft Visual Studio\18\Community\VC\Tools\MSVC\14.50.35717\include\xloctime
; Line 245
	mov	QWORD PTR [rbx+32], rax
; File C:\Program Files (x86)\Windows Kits\10\Include\10.0.26100.0\ucrt\wchar.h
; Line 494
	movups	XMMWORD PTR [rax], xmm0
	movups	XMMWORD PTR [rax+10], xmm1
; File C:\Program Files\Microsoft Visual Studio\18\Community\VC\Tools\MSVC\14.50.35717\include\xloctime
; Line 251
	mov	rcx, QWORD PTR __$ArrayPad$[rsp]
	xor	rcx, rsp
	call	__security_check_cookie
	lea	r11, QWORD PTR [rsp+96]
	mov	rbx, QWORD PTR [r11+40]
	mov	rbp, QWORD PTR [r11+56]
	mov	rsp, r11
	pop	r14
	pop	rdi
	pop	rsi
	ret	0
$LN24@Getvals:
; File C:\Program Files\Microsoft Visual Studio\18\Community\VC\Tools\MSVC\14.50.35717\include\xlocnum
; Line 79
	call	?_Xbad_alloc@std@@YAXXZ			; std::_Xbad_alloc
	int	3
$LN25@Getvals:
	call	?_Xbad_alloc@std@@YAXXZ			; std::_Xbad_alloc
	int	3
$LN26@Getvals:
	call	?_Xbad_alloc@std@@YAXXZ			; std::_Xbad_alloc
	int	3
$LN22@Getvals:
??$_Getvals@_W@?$time_get@_WV?$istreambuf_iterator@_WU?$char_traits@_W@std@@@std@@@std@@IEAAX_WAEBV_Locinfo@1@@Z ENDP ; std::time_get<wchar_t,std::istreambuf_iterator<wchar_t,std::char_traits<wchar_t> > >::_Getvals<wchar_t>
_TEXT	ENDS
; Function compile flags: /Ogtpy
;	COMDAT ??$_Getvals@_W@?$time_get@DV?$istreambuf_iterator@DU?$char_traits@D@std@@@std@@@std@@IEAAX_WAEBV_Locinfo@1@@Z
_TEXT	SEGMENT
$T1 = 32
__$ArrayPad$ = 80
this$ = 128
__formal$ = 136
_Lobj$ = 144
??$_Getvals@_W@?$time_get@DV?$istreambuf_iterator@DU?$char_traits@D@std@@@std@@@std@@IEAAX_WAEBV_Locinfo@1@@Z PROC ; std::time_get<char,std::istreambuf_iterator<char,std::char_traits<char> > >::_Getvals<wchar_t>, COMDAT
; File C:\Program Files\Microsoft Visual Studio\18\Community\VC\Tools\MSVC\14.50.35717\include\xloctime
; Line 238
$LN27:
	mov	QWORD PTR [rsp+16], rbx
	mov	QWORD PTR [rsp+32], rbp
	push	rsi
	push	rdi
	push	r14
	sub	rsp, 96					; 00000060H
	mov	rax, QWORD PTR __security_cookie
	xor	rax, rsp
	mov	QWORD PTR __$ArrayPad$[rsp], rax
	mov	rbx, rcx
; Line 239
	lea	rdx, QWORD PTR $T1[rsp]
	mov	rcx, r8
	mov	rsi, r8
	call	QWORD PTR __imp_?_Getcvt@_Locinfo@std@@QEBA?AU_Cvtvec@@XZ
; Line 242
	mov	rcx, rsi
	movups	xmm0, XMMWORD PTR [rax]
	movups	XMMWORD PTR [rbx+44], xmm0
	movups	xmm1, XMMWORD PTR [rax+16]
	movups	XMMWORD PTR [rbx+60], xmm1
	movups	xmm0, XMMWORD PTR [rax+28]
	movups	XMMWORD PTR [rbx+72], xmm0
	call	QWORD PTR __imp_?_W_Getdays@_Locinfo@std@@QEBAPEBGXZ
; File C:\Program Files\Microsoft Visual Studio\18\Community\VC\Tools\MSVC\14.50.35717\include\xlocnum
; Line 74
	mov	rcx, rax
; File C:\Program Files\Microsoft Visual Studio\18\Community\VC\Tools\MSVC\14.50.35717\include\xloctime
; Line 242
	mov	rbp, rax
; File C:\Program Files\Microsoft Visual Studio\18\Community\VC\Tools\MSVC\14.50.35717\include\xlocnum
; Line 74
	call	wcslen
; Line 76
	mov	edx, 2
	lea	r14, QWORD PTR [rax+1]
	mov	rcx, r14
	call	QWORD PTR __imp_calloc
	mov	rdi, rax
; Line 78
	test	rax, rax
	je	$LN24@Getvals
; File C:\Program Files (x86)\Windows Kits\10\Include\10.0.26100.0\ucrt\wchar.h
; Line 494
	lea	r8, QWORD PTR [r14+r14]
	mov	rdx, rbp
	mov	rcx, rax
	call	memcpy
; File C:\Program Files\Microsoft Visual Studio\18\Community\VC\Tools\MSVC\14.50.35717\include\xloctime
; Line 243
	mov	rcx, rsi
	mov	QWORD PTR [rbx+16], rdi
	call	QWORD PTR __imp_?_W_Getmonths@_Locinfo@std@@QEBAPEBGXZ
; File C:\Program Files\Microsoft Visual Studio\18\Community\VC\Tools\MSVC\14.50.35717\include\xlocnum
; Line 74
	mov	rcx, rax
; File C:\Program Files\Microsoft Visual Studio\18\Community\VC\Tools\MSVC\14.50.35717\include\xloctime
; Line 243
	mov	rsi, rax
; File C:\Program Files\Microsoft Visual Studio\18\Community\VC\Tools\MSVC\14.50.35717\include\xlocnum
; Line 74
	call	wcslen
; Line 76
	mov	edx, 2
	lea	r14, QWORD PTR [rax+1]
	mov	rcx, r14
	call	QWORD PTR __imp_calloc
	mov	rdi, rax
; Line 78
	test	rax, rax
	je	SHORT $LN25@Getvals
; File C:\Program Files (x86)\Windows Kits\10\Include\10.0.26100.0\ucrt\wchar.h
; Line 494
	lea	r8, QWORD PTR [r14+r14]
	mov	rdx, rsi
	mov	rcx, rax
	call	memcpy
; File C:\Program Files\Microsoft Visual Studio\18\Community\VC\Tools\MSVC\14.50.35717\include\xlocnum
; Line 76
	mov	edx, 2
; File C:\Program Files\Microsoft Visual Studio\18\Community\VC\Tools\MSVC\14.50.35717\include\xloctime
; Line 243
	mov	QWORD PTR [rbx+24], rdi
; File C:\Program Files\Microsoft Visual Studio\18\Community\VC\Tools\MSVC\14.50.35717\include\xlocnum
; Line 76
	mov	ecx, 13
	call	QWORD PTR __imp_calloc
; Line 78
	test	rax, rax
	je	SHORT $LN26@Getvals
; File C:\Program Files (x86)\Windows Kits\10\Include\10.0.26100.0\ucrt\wchar.h
; Line 494
	movups	xmm0, XMMWORD PTR ??_C@_1BK@MHIKGOKE@?$AA?3?$AAA?$AAM?$AA?3?$AAa?$AAm?$AA?3?$AAP?$AAM?$AA?3?$AAp?$AAm@
	movups	xmm1, XMMWORD PTR ??_C@_1BK@MHIKGOKE@?$AA?3?$AAA?$AAM?$AA?3?$AAa?$AAm?$AA?3?$AAP?$AAM?$AA?3?$AAp?$AAm@+10
; File C:\Program Files\Microsoft Visual Studio\18\Community\VC\Tools\MSVC\14.50.35717\include\xloctime
; Line 245
	mov	QWORD PTR [rbx+32], rax
; File C:\Program Files (x86)\Windows Kits\10\Include\10.0.26100.0\ucrt\wchar.h
; Line 494
	movups	XMMWORD PTR [rax], xmm0
	movups	XMMWORD PTR [rax+10], xmm1
; File C:\Program Files\Microsoft Visual Studio\18\Community\VC\Tools\MSVC\14.50.35717\include\xloctime
; Line 251
	mov	rcx, QWORD PTR __$ArrayPad$[rsp]
	xor	rcx, rsp
	call	__security_check_cookie
	lea	r11, QWORD PTR [rsp+96]
	mov	rbx, QWORD PTR [r11+40]
	mov	rbp, QWORD PTR [r11+56]
	mov	rsp, r11
	pop	r14
	pop	rdi
	pop	rsi
	ret	0
$LN24@Getvals:
; File C:\Program Files\Microsoft Visual Studio\18\Community\VC\Tools\MSVC\14.50.35717\include\xlocnum
; Line 79
	call	?_Xbad_alloc@std@@YAXXZ			; std::_Xbad_alloc
	int	3
$LN25@Getvals:
	call	?_Xbad_alloc@std@@YAXXZ			; std::_Xbad_alloc
	int	3
$LN26@Getvals:
	call	?_Xbad_alloc@std@@YAXXZ			; std::_Xbad_alloc
	int	3
$LN22@Getvals:
??$_Getvals@_W@?$time_get@DV?$istreambuf_iterator@DU?$char_traits@D@std@@@std@@@std@@IEAAX_WAEBV_Locinfo@1@@Z ENDP ; std::time_get<char,std::istreambuf_iterator<char,std::char_traits<char> > >::_Getvals<wchar_t>
_TEXT	ENDS
; Function compile flags: /Ogtpy
;	COMDAT ??$_Max_limit@_J@std@@YA_JXZ
_TEXT	SEGMENT
??$_Max_limit@_J@std@@YA_JXZ PROC			; std::_Max_limit<__int64>, COMDAT
; File C:\Program Files\Microsoft Visual Studio\18\Community\VC\Tools\MSVC\14.50.35717\include\utility
; Line 867
	mov	rax, 9223372036854775807		; 7fffffffffffffffH
; Line 871
	ret	0
??$_Max_limit@_J@std@@YA_JXZ ENDP			; std::_Max_limit<__int64>
_TEXT	ENDS
; Function compile flags: /Ogtpy
;	COMDAT ?_Maklocwcs@std@@YAPEA_WPEB_W@Z
_TEXT	SEGMENT
_Ptr$ = 48
?_Maklocwcs@std@@YAPEA_WPEB_W@Z PROC			; std::_Maklocwcs, COMDAT
; File C:\Program Files\Microsoft Visual Studio\18\Community\VC\Tools\MSVC\14.50.35717\include\xlocnum
; Line 73
$LN10:
	mov	QWORD PTR [rsp+8], rbx
	mov	QWORD PTR [rsp+16], rsi
	push	rdi
	sub	rsp, 32					; 00000020H
	mov	rdi, rcx
; Line 74
	call	wcslen
; Line 76
	mov	edx, 2
	lea	rsi, QWORD PTR [rax+1]
	mov	rcx, rsi
	call	QWORD PTR __imp_calloc
	mov	rbx, rax
; Line 78
	test	rax, rax
	je	SHORT $LN9@Maklocwcs
; File C:\Program Files (x86)\Windows Kits\10\Include\10.0.26100.0\ucrt\wchar.h
; Line 494
	lea	r8, QWORD PTR [rsi+rsi]
	mov	rdx, rdi
	mov	rcx, rax
	call	memcpy
; File C:\Program Files\Microsoft Visual Studio\18\Community\VC\Tools\MSVC\14.50.35717\include\xlocnum
; Line 84
	mov	rsi, QWORD PTR [rsp+56]
	mov	rax, rbx
	mov	rbx, QWORD PTR [rsp+48]
	add	rsp, 32					; 00000020H
	pop	rdi
	ret	0
$LN9@Maklocwcs:
; Line 79
	call	?_Xbad_alloc@std@@YAXXZ			; std::_Xbad_alloc
	int	3
$LN7@Maklocwcs:
?_Maklocwcs@std@@YAPEA_WPEB_W@Z ENDP			; std::_Maklocwcs
_TEXT	ENDS
; Function compile flags: /Ogtpy
;	COMDAT ??0Vector3@@QEAA@MMM@Z
_TEXT	SEGMENT
this$ = 8
x$ = 16
y$ = 24
z$ = 32
??0Vector3@@QEAA@MMM@Z PROC				; Vector3::Vector3, COMDAT
; File C:\Users\RedDragon\Documents\Recubin\include\Math\Vector3.hpp
; Line 37
	movss	DWORD PTR [rcx], xmm1
; Line 40
	mov	rax, rcx
	movss	DWORD PTR [rcx+4], xmm2
	movss	DWORD PTR [rcx+8], xmm3
	ret	0
??0Vector3@@QEAA@MMM@Z ENDP				; Vector3::Vector3
_TEXT	ENDS
; Function compile flags: /Ogtpy
;	COMDAT ??1?$_Compressed_pair@V?$allocator@D@std@@V?$_String_val@U?$_Simple_types@D@std@@@2@$00@std@@QEAA@XZ
_TEXT	SEGMENT
this$ = 8
??1?$_Compressed_pair@V?$allocator@D@std@@V?$_String_val@U?$_Simple_types@D@std@@@2@$00@std@@QEAA@XZ PROC ; std::_Compressed_pair<std::allocator<char>,std::_String_val<std::_Simple_types<char> >,1>::~_Compressed_pair<std::allocator<char>,std::_String_val<std::_Simple_types<char> >,1>, COMDAT
	ret	0
??1?$_Compressed_pair@V?$allocator@D@std@@V?$_String_val@U?$_Simple_types@D@std@@@2@$00@std@@QEAA@XZ ENDP ; std::_Compressed_pair<std::allocator<char>,std::_String_val<std::_Simple_types<char> >,1>::~_Compressed_pair<std::allocator<char>,std::_String_val<std::_Simple_types<char> >,1>
_TEXT	ENDS
; Function compile flags: /Ogtpy
;	COMDAT ?_Get_first@?$_Compressed_pair@V?$allocator@D@std@@V?$_String_val@U?$_Simple_types@D@std@@@2@$00@std@@QEBAAEBV?$allocator@D@2@XZ
_TEXT	SEGMENT
this$ = 8
?_Get_first@?$_Compressed_pair@V?$allocator@D@std@@V?$_String_val@U?$_Simple_types@D@std@@@2@$00@std@@QEBAAEBV?$allocator@D@2@XZ PROC ; std::_Compressed_pair<std::allocator<char>,std::_String_val<std::_Simple_types<char> >,1>::_Get_first, COMDAT
; File C:\Program Files\Microsoft Visual Studio\18\Community\VC\Tools\MSVC\14.50.35717\include\xmemory
; Line 1563
	mov	rax, rcx
; Line 1564
	ret	0
?_Get_first@?$_Compressed_pair@V?$allocator@D@std@@V?$_String_val@U?$_Simple_types@D@std@@@2@$00@std@@QEBAAEBV?$allocator@D@2@XZ ENDP ; std::_Compressed_pair<std::allocator<char>,std::_String_val<std::_Simple_types<char> >,1>::_Get_first
_TEXT	ENDS
; Function compile flags: /Ogtpy
;	COMDAT ?_Get_first@?$_Compressed_pair@V?$allocator@D@std@@V?$_String_val@U?$_Simple_types@D@std@@@2@$00@std@@QEAAAEAV?$allocator@D@2@XZ
_TEXT	SEGMENT
this$ = 8
?_Get_first@?$_Compressed_pair@V?$allocator@D@std@@V?$_String_val@U?$_Simple_types@D@std@@@2@$00@std@@QEAAAEAV?$allocator@D@2@XZ PROC ; std::_Compressed_pair<std::allocator<char>,std::_String_val<std::_Simple_types<char> >,1>::_Get_first, COMDAT
; File C:\Program Files\Microsoft Visual Studio\18\Community\VC\Tools\MSVC\14.50.35717\include\xmemory
; Line 1559
	mov	rax, rcx
; Line 1560
	ret	0
?_Get_first@?$_Compressed_pair@V?$allocator@D@std@@V?$_String_val@U?$_Simple_types@D@std@@@2@$00@std@@QEAAAEAV?$allocator@D@2@XZ ENDP ; std::_Compressed_pair<std::allocator<char>,std::_String_val<std::_Simple_types<char> >,1>::_Get_first
_TEXT	ENDS
; Function compile flags: /Ogtpy
;	COMDAT ?_Getal@?$basic_string@DU?$char_traits@D@std@@V?$allocator@D@2@@std@@AEBAAEBV?$allocator@D@2@XZ
_TEXT	SEGMENT
this$ = 8
?_Getal@?$basic_string@DU?$char_traits@D@std@@V?$allocator@D@2@@std@@AEBAAEBV?$allocator@D@2@XZ PROC ; std::basic_string<char,std::char_traits<char>,std::allocator<char> >::_Getal, COMDAT
; File C:\Program Files\Microsoft Visual Studio\18\Community\VC\Tools\MSVC\14.50.35717\include\xstring
; Line 3197
	mov	rax, rcx
; Line 3198
	ret	0
?_Getal@?$basic_string@DU?$char_traits@D@std@@V?$allocator@D@2@@std@@AEBAAEBV?$allocator@D@2@XZ ENDP ; std::basic_string<char,std::char_traits<char>,std::allocator<char> >::_Getal
_TEXT	ENDS
; Function compile flags: /Ogtpy
;	COMDAT ?_Getal@?$basic_string@DU?$char_traits@D@std@@V?$allocator@D@2@@std@@AEAAAEAV?$allocator@D@2@XZ
_TEXT	SEGMENT
this$ = 8
?_Getal@?$basic_string@DU?$char_traits@D@std@@V?$allocator@D@2@@std@@AEAAAEAV?$allocator@D@2@XZ PROC ; std::basic_string<char,std::char_traits<char>,std::allocator<char> >::_Getal, COMDAT
; File C:\Program Files\Microsoft Visual Studio\18\Community\VC\Tools\MSVC\14.50.35717\include\xstring
; Line 3193
	mov	rax, rcx
; Line 3194
	ret	0
?_Getal@?$basic_string@DU?$char_traits@D@std@@V?$allocator@D@2@@std@@AEAAAEAV?$allocator@D@2@XZ ENDP ; std::basic_string<char,std::char_traits<char>,std::allocator<char> >::_Getal
_TEXT	ENDS
; Function compile flags: /Ogtpy
;	COMDAT ?_Tidy_deallocate@?$basic_string@DU?$char_traits@D@std@@V?$allocator@D@2@@std@@AEAAXXZ
_TEXT	SEGMENT
this$ = 48
?_Tidy_deallocate@?$basic_string@DU?$char_traits@D@std@@V?$allocator@D@2@@std@@AEAAXXZ PROC ; std::basic_string<char,std::char_traits<char>,std::allocator<char> >::_Tidy_deallocate, COMDAT
; File C:\Program Files\Microsoft Visual Studio\18\Community\VC\Tools\MSVC\14.50.35717\include\xstring
; Line 3166
$LN34:
	push	rbx
	sub	rsp, 32					; 00000020H
; Line 453
	mov	rdx, QWORD PTR [rcx+24]
; Line 3166
	mov	rbx, rcx
; Line 453
	cmp	rdx, 15
; Line 3169
	jbe	SHORT $LN14@Tidy_deall
; Line 3172
	mov	rax, QWORD PTR [rcx]
; Line 902
	inc	rdx
; File C:\Program Files\Microsoft Visual Studio\18\Community\VC\Tools\MSVC\14.50.35717\include\xmemory
; Line 288
	cmp	rdx, 4096				; 00001000H
	jb	SHORT $LN27@Tidy_deall
; Line 209
	mov	rcx, QWORD PTR [rax-8]
; Line 223
	sub	rax, rcx
	sub	rax, 8
	cmp	rax, 31
	ja	SHORT $LN21@Tidy_deall
; Line 224
	add	rdx, 39					; 00000027H
	jmp	SHORT $LN22@Tidy_deall
$LN21@Tidy_deall:
; Line 223
	mov	ecx, 5
	int	41					; 00000029H
$LN27@Tidy_deall:
; Line 989
	mov	rcx, rax
$LN22@Tidy_deall:
; Line 293
	call	??3@YAXPEAX_K@Z				; operator delete
$LN14@Tidy_deall:
; File C:\Program Files\Microsoft Visual Studio\18\Community\VC\Tools\MSVC\14.50.35717\include\xstring
; Line 3176
	mov	QWORD PTR [rbx+16], 0
; Line 3177
	mov	QWORD PTR [rbx+24], 15
; Line 3179
	mov	BYTE PTR [rbx], 0
; Line 3180
	add	rsp, 32					; 00000020H
	pop	rbx
	ret	0
$LN31@Tidy_deall:
?_Tidy_deallocate@?$basic_string@DU?$char_traits@D@std@@V?$allocator@D@2@@std@@AEAAXXZ ENDP ; std::basic_string<char,std::char_traits<char>,std::allocator<char> >::_Tidy_deallocate
_TEXT	ENDS
; Function compile flags: /Ogtpy
;	COMDAT ?_Calculate_growth@?$basic_string@DU?$char_traits@D@std@@V?$allocator@D@2@@std@@AEBA_K_K@Z
_TEXT	SEGMENT
this$ = 8
_Requested$ = 16
?_Calculate_growth@?$basic_string@DU?$char_traits@D@std@@V?$allocator@D@2@@std@@AEBA_K_K@Z PROC ; std::basic_string<char,std::char_traits<char>,std::allocator<char> >::_Calculate_growth, COMDAT
; File C:\Program Files\Microsoft Visual Studio\18\Community\VC\Tools\MSVC\14.50.35717\include\xstring
; Line 2885
	or	rdx, 15
	mov	rax, 9223372036854775807		; 7fffffffffffffffH
	cmp	rdx, rax
; Line 2886
	ja	SHORT $LN4@Calculate_
; Line 2898
	mov	r9, QWORD PTR [rcx+24]
; Line 2890
	mov	rcx, rax
	mov	r8, r9
	shr	r8, 1
	sub	rcx, r8
	cmp	r9, rcx
	ja	SHORT $LN4@Calculate_
; Line 2894
	lea	rcx, QWORD PTR [r8+r9]
	cmp	rdx, rcx
	cmovb	rdx, rcx
; Line 2898
	mov	rax, rdx
$LN4@Calculate_:
; Line 2899
	ret	0
?_Calculate_growth@?$basic_string@DU?$char_traits@D@std@@V?$allocator@D@2@@std@@AEBA_K_K@Z ENDP ; std::basic_string<char,std::char_traits<char>,std::allocator<char> >::_Calculate_growth
_TEXT	ENDS
; Function compile flags: /Ogtpy
;	COMDAT ?_Calculate_growth@?$basic_string@DU?$char_traits@D@std@@V?$allocator@D@2@@std@@CA_K_K00@Z
_TEXT	SEGMENT
_Requested$ = 8
_Old$ = 16
_Max$ = 24
?_Calculate_growth@?$basic_string@DU?$char_traits@D@std@@V?$allocator@D@2@@std@@CA_K_K00@Z PROC ; std::basic_string<char,std::char_traits<char>,std::allocator<char> >::_Calculate_growth, COMDAT
; File C:\Program Files\Microsoft Visual Studio\18\Community\VC\Tools\MSVC\14.50.35717\include\xstring
; Line 2885
	or	rcx, 15
	cmp	rcx, r8
; Line 2886
	ja	SHORT $LN9@Calculate_
; Line 2890
	mov	r9, rdx
	mov	rax, r8
	shr	r9, 1
	sub	rax, r9
	cmp	rdx, rax
	ja	SHORT $LN9@Calculate_
; Line 2894
	lea	rax, QWORD PTR [r9+rdx]
	cmp	rcx, rax
	cmovb	rcx, rax
	mov	rax, rcx
; Line 2895
	ret	0
$LN9@Calculate_:
; Line 2891
	mov	rax, r8
; Line 2895
	ret	0
?_Calculate_growth@?$basic_string@DU?$char_traits@D@std@@V?$allocator@D@2@@std@@CA_K_K00@Z ENDP ; std::basic_string<char,std::char_traits<char>,std::allocator<char> >::_Calculate_growth
_TEXT	ENDS
; Function compile flags: /Ogtpy
;	COMDAT ?max_size@?$basic_string@DU?$char_traits@D@std@@V?$allocator@D@2@@std@@QEBA_KXZ
_TEXT	SEGMENT
this$ = 8
?max_size@?$basic_string@DU?$char_traits@D@std@@V?$allocator@D@2@@std@@QEBA_KXZ PROC ; std::basic_string<char,std::char_traits<char>,std::allocator<char> >::max_size, COMDAT
; File C:\Program Files\Microsoft Visual Studio\18\Community\VC\Tools\MSVC\14.50.35717\include\xstring
; Line 2288
	mov	rax, 9223372036854775807		; 7fffffffffffffffH
; Line 2291
	ret	0
?max_size@?$basic_string@DU?$char_traits@D@std@@V?$allocator@D@2@@std@@QEBA_KXZ ENDP ; std::basic_string<char,std::char_traits<char>,std::allocator<char> >::max_size
_TEXT	ENDS
; Function compile flags: /Ogtpy
;	COMDAT ?assign@?$basic_string@DU?$char_traits@D@std@@V?$allocator@D@2@@std@@QEAAAEAV12@QEBD@Z
_TEXT	SEGMENT
this$ = 48
_Ptr$ = 56
?assign@?$basic_string@DU?$char_traits@D@std@@V?$allocator@D@2@@std@@QEAAAEAV12@QEBD@Z PROC ; std::basic_string<char,std::char_traits<char>,std::allocator<char> >::assign, COMDAT
; File C:\Program Files\Microsoft Visual Studio\18\Community\VC\Tools\MSVC\14.50.35717\include\xstring
; Line 1653
$LN8:
	mov	QWORD PTR [rsp+8], rbx
	push	rdi
	sub	rsp, 32					; 00000020H
	mov	rdi, rcx
	mov	rbx, rdx
; File C:\Program Files\Microsoft Visual Studio\18\Community\VC\Tools\MSVC\14.50.35717\include\__msvc_string_view.hpp
; Line 530
	mov	rcx, rdx
	call	strlen
; File C:\Program Files\Microsoft Visual Studio\18\Community\VC\Tools\MSVC\14.50.35717\include\xstring
; Line 1654
	mov	r8, rax
	mov	rdx, rbx
	mov	rcx, rdi
; Line 1655
	mov	rbx, QWORD PTR [rsp+48]
	add	rsp, 32					; 00000020H
	pop	rdi
; Line 1654
	jmp	??$_Assign@D@?$basic_string@DU?$char_traits@D@std@@V?$allocator@D@2@@std@@AEAAAEAV01@QEBD_K@Z ; std::basic_string<char,std::char_traits<char>,std::allocator<char> >::_Assign<char>
?assign@?$basic_string@DU?$char_traits@D@std@@V?$allocator@D@2@@std@@QEAAAEAV12@QEBD@Z ENDP ; std::basic_string<char,std::char_traits<char>,std::allocator<char> >::assign
_TEXT	ENDS
; Function compile flags: /Ogtpy
;	COMDAT ??4?$basic_string@DU?$char_traits@D@std@@V?$allocator@D@2@@std@@QEAAAEAV01@QEBD@Z
_TEXT	SEGMENT
this$ = 48
_Ptr$ = 56
??4?$basic_string@DU?$char_traits@D@std@@V?$allocator@D@2@@std@@QEAAAEAV01@QEBD@Z PROC ; std::basic_string<char,std::char_traits<char>,std::allocator<char> >::operator=, COMDAT
; File C:\Program Files\Microsoft Visual Studio\18\Community\VC\Tools\MSVC\14.50.35717\include\xstring
; Line 1495
$LN10:
	mov	QWORD PTR [rsp+8], rbx
	push	rdi
	sub	rsp, 32					; 00000020H
	mov	rdi, rcx
	mov	rbx, rdx
; File C:\Program Files\Microsoft Visual Studio\18\Community\VC\Tools\MSVC\14.50.35717\include\__msvc_string_view.hpp
; Line 530
	mov	rcx, rdx
	call	strlen
; File C:\Program Files\Microsoft Visual Studio\18\Community\VC\Tools\MSVC\14.50.35717\include\xstring
; Line 1654
	mov	r8, rax
	mov	rdx, rbx
	mov	rcx, rdi
; Line 1497
	mov	rbx, QWORD PTR [rsp+48]
	add	rsp, 32					; 00000020H
	pop	rdi
; Line 1654
	jmp	??$_Assign@D@?$basic_string@DU?$char_traits@D@std@@V?$allocator@D@2@@std@@AEAAAEAV01@QEBD_K@Z ; std::basic_string<char,std::char_traits<char>,std::allocator<char> >::_Assign<char>
??4?$basic_string@DU?$char_traits@D@std@@V?$allocator@D@2@@std@@QEAAAEAV01@QEBD@Z ENDP ; std::basic_string<char,std::char_traits<char>,std::allocator<char> >::operator=
_TEXT	ENDS
; Function compile flags: /Ogtpy
;	COMDAT ??1?$basic_string@DU?$char_traits@D@std@@V?$allocator@D@2@@std@@QEAA@XZ
_TEXT	SEGMENT
this$ = 8
??1?$basic_string@DU?$char_traits@D@std@@V?$allocator@D@2@@std@@QEAA@XZ PROC ; std::basic_string<char,std::char_traits<char>,std::allocator<char> >::~basic_string<char,std::char_traits<char>,std::allocator<char> >, COMDAT
; File C:\Program Files\Microsoft Visual Studio\18\Community\VC\Tools\MSVC\14.50.35717\include\xstring
; Line 1433
	jmp	?_Tidy_deallocate@?$basic_string@DU?$char_traits@D@std@@V?$allocator@D@2@@std@@AEAAXXZ ; std::basic_string<char,std::char_traits<char>,std::allocator<char> >::_Tidy_deallocate
??1?$basic_string@DU?$char_traits@D@std@@V?$allocator@D@2@@std@@QEAA@XZ ENDP ; std::basic_string<char,std::char_traits<char>,std::allocator<char> >::~basic_string<char,std::char_traits<char>,std::allocator<char> >
_TEXT	ENDS
; Function compile flags: /Ogtpy
;	COMDAT ?_Deallocate_for_capacity@?$basic_string@DU?$char_traits@D@std@@V?$allocator@D@2@@std@@CAXAEAV?$allocator@D@2@QEAD_K@Z
_TEXT	SEGMENT
_Al$ = 8
_Old_ptr$ = 16
_Capacity$ = 24
?_Deallocate_for_capacity@?$basic_string@DU?$char_traits@D@std@@V?$allocator@D@2@@std@@CAXAEAV?$allocator@D@2@QEAD_K@Z PROC ; std::basic_string<char,std::char_traits<char>,std::allocator<char> >::_Deallocate_for_capacity, COMDAT
; File C:\Program Files\Microsoft Visual Studio\18\Community\VC\Tools\MSVC\14.50.35717\include\xstring
; Line 902
	inc	r8
; File C:\Program Files\Microsoft Visual Studio\18\Community\VC\Tools\MSVC\14.50.35717\include\xmemory
; Line 288
	cmp	r8, 4096				; 00001000H
	jb	SHORT $LN19@Deallocate
; Line 209
	mov	rcx, QWORD PTR [rdx-8]
; Line 223
	sub	rdx, rcx
	sub	rdx, 8
	cmp	rdx, 31
	ja	SHORT $LN14@Deallocate
; Line 206
	add	r8, 39					; 00000027H
; Line 293
	mov	rdx, r8
	jmp	??3@YAXPEAX_K@Z				; operator delete
$LN14@Deallocate:
; Line 223
	mov	ecx, 5
	int	41					; 00000029H
$LN19@Deallocate:
; Line 989
	mov	rcx, rdx
; Line 293
	mov	rdx, r8
	jmp	??3@YAXPEAX_K@Z				; operator delete
$LN20@Deallocate:
?_Deallocate_for_capacity@?$basic_string@DU?$char_traits@D@std@@V?$allocator@D@2@@std@@CAXAEAV?$allocator@D@2@QEAD_K@Z ENDP ; std::basic_string<char,std::char_traits<char>,std::allocator<char> >::_Deallocate_for_capacity
_TEXT	ENDS
; Function compile flags: /Ogtpy
;	COMDAT ??0?$basic_string@DU?$char_traits@D@std@@V?$allocator@D@2@@std@@QEAA@QEBD@Z
_TEXT	SEGMENT
this$ = 48
_Ptr$ = 56
??0?$basic_string@DU?$char_traits@D@std@@V?$allocator@D@2@@std@@QEAA@QEBD@Z PROC ; std::basic_string<char,std::char_traits<char>,std::allocator<char> >::basic_string<char,std::char_traits<char>,std::allocator<char> >, COMDAT
; File C:\Program Files\Microsoft Visual Studio\18\Community\VC\Tools\MSVC\14.50.35717\include\xstring
; Line 818
$LN21:
	mov	QWORD PTR [rsp+8], rbx
	push	rdi
	sub	rsp, 32					; 00000020H
; Line 517
	xor	eax, eax
	xorps	xmm0, xmm0
; Line 493
	movups	XMMWORD PTR [rcx], xmm0
; Line 517
	mov	QWORD PTR [rcx+16], rax
; Line 818
	mov	rdi, rcx
; Line 518
	mov	QWORD PTR [rcx+24], rax
; Line 818
	mov	rbx, rdx
; File C:\Program Files\Microsoft Visual Studio\18\Community\VC\Tools\MSVC\14.50.35717\include\__msvc_string_view.hpp
; Line 530
	mov	rcx, rdx
	call	strlen
; File C:\Program Files\Microsoft Visual Studio\18\Community\VC\Tools\MSVC\14.50.35717\include\xstring
; Line 819
	mov	r8, rax
	mov	rdx, rbx
	mov	rcx, rdi
	call	??$_Construct@$00PEBD@?$basic_string@DU?$char_traits@D@std@@V?$allocator@D@2@@std@@AEAAXQEBD_K@Z ; std::basic_string<char,std::char_traits<char>,std::allocator<char> >::_Construct<1,char const *>
; Line 820
	mov	rbx, QWORD PTR [rsp+48]
	mov	rax, rdi
	add	rsp, 32					; 00000020H
	pop	rdi
	ret	0
??0?$basic_string@DU?$char_traits@D@std@@V?$allocator@D@2@@std@@QEAA@QEBD@Z ENDP ; std::basic_string<char,std::char_traits<char>,std::allocator<char> >::basic_string<char,std::char_traits<char>,std::allocator<char> >
_TEXT	ENDS
; Function compile flags: /Ogtpy
;	COMDAT ??1?$_String_val@U?$_Simple_types@D@std@@@std@@QEAA@XZ
_TEXT	SEGMENT
this$ = 8
??1?$_String_val@U?$_Simple_types@D@std@@@std@@QEAA@XZ PROC ; std::_String_val<std::_Simple_types<char> >::~_String_val<std::_Simple_types<char> >, COMDAT
	ret	0
??1?$_String_val@U?$_Simple_types@D@std@@@std@@QEAA@XZ ENDP ; std::_String_val<std::_Simple_types<char> >::~_String_val<std::_Simple_types<char> >
_TEXT	ENDS
; Function compile flags: /Ogtpy
;	COMDAT ?_Switch_to_buf@_Bxty@?$_String_val@U?$_Simple_types@D@std@@@std@@QEAAXXZ
_TEXT	SEGMENT
this$ = 8
?_Switch_to_buf@_Bxty@?$_String_val@U?$_Simple_types@D@std@@@std@@QEAAXXZ PROC ; std::_String_val<std::_Simple_types<char> >::_Bxty::_Switch_to_buf, COMDAT
; File C:\Program Files\Microsoft Visual Studio\18\Community\VC\Tools\MSVC\14.50.35717\include\xstring
; Line 511
	ret	0
?_Switch_to_buf@_Bxty@?$_String_val@U?$_Simple_types@D@std@@@std@@QEAAXXZ ENDP ; std::_String_val<std::_Simple_types<char> >::_Bxty::_Switch_to_buf
_TEXT	ENDS
; Function compile flags: /Ogtpy
;	COMDAT ??1_Bxty@?$_String_val@U?$_Simple_types@D@std@@@std@@QEAA@XZ
_TEXT	SEGMENT
this$ = 8
??1_Bxty@?$_String_val@U?$_Simple_types@D@std@@@std@@QEAA@XZ PROC ; std::_String_val<std::_Simple_types<char> >::_Bxty::~_Bxty, COMDAT
; File C:\Program Files\Microsoft Visual Studio\18\Community\VC\Tools\MSVC\14.50.35717\include\xstring
; Line 494
	ret	0
??1_Bxty@?$_String_val@U?$_Simple_types@D@std@@@std@@QEAA@XZ ENDP ; std::_String_val<std::_Simple_types<char> >::_Bxty::~_Bxty
_TEXT	ENDS
; Function compile flags: /Ogtpy
;	COMDAT ??0_Bxty@?$_String_val@U?$_Simple_types@D@std@@@std@@QEAA@XZ
_TEXT	SEGMENT
this$ = 8
??0_Bxty@?$_String_val@U?$_Simple_types@D@std@@@std@@QEAA@XZ PROC ; std::_String_val<std::_Simple_types<char> >::_Bxty::_Bxty, COMDAT
; File C:\Program Files\Microsoft Visual Studio\18\Community\VC\Tools\MSVC\14.50.35717\include\xstring
; Line 493
	xorps	xmm0, xmm0
	mov	rax, rcx
	movups	XMMWORD PTR [rcx], xmm0
	ret	0
??0_Bxty@?$_String_val@U?$_Simple_types@D@std@@@std@@QEAA@XZ ENDP ; std::_String_val<std::_Simple_types<char> >::_Bxty::_Bxty
_TEXT	ENDS
; Function compile flags: /Ogtpy
;	COMDAT ?_Large_mode_engaged@?$_String_val@U?$_Simple_types@D@std@@@std@@QEBA_NXZ
_TEXT	SEGMENT
this$ = 8
?_Large_mode_engaged@?$_String_val@U?$_Simple_types@D@std@@@std@@QEBA_NXZ PROC ; std::_String_val<std::_Simple_types<char> >::_Large_mode_engaged, COMDAT
; File C:\Program Files\Microsoft Visual Studio\18\Community\VC\Tools\MSVC\14.50.35717\include\xstring
; Line 453
	cmp	QWORD PTR [rcx+24], 15
	seta	al
; Line 454
	ret	0
?_Large_mode_engaged@?$_String_val@U?$_Simple_types@D@std@@@std@@QEBA_NXZ ENDP ; std::_String_val<std::_Simple_types<char> >::_Large_mode_engaged
_TEXT	ENDS
; Function compile flags: /Ogtpy
;	COMDAT ?_Myptr@?$_String_val@U?$_Simple_types@D@std@@@std@@QEAAPEADXZ
_TEXT	SEGMENT
this$ = 8
?_Myptr@?$_String_val@U?$_Simple_types@D@std@@@std@@QEAAPEADXZ PROC ; std::_String_val<std::_Simple_types<char> >::_Myptr, COMDAT
; File C:\Program Files\Microsoft Visual Studio\18\Community\VC\Tools\MSVC\14.50.35717\include\xstring
; Line 436
	cmp	QWORD PTR [rcx+24], 15
	jbe	SHORT $LN8@Myptr
; Line 440
	mov	rax, QWORD PTR [rcx]
; Line 441
	ret	0
$LN8@Myptr:
; Line 440
	mov	rax, rcx
; Line 441
	ret	0
?_Myptr@?$_String_val@U?$_Simple_types@D@std@@@std@@QEAAPEADXZ ENDP ; std::_String_val<std::_Simple_types<char> >::_Myptr
_TEXT	ENDS
; Function compile flags: /Ogtpy
;	COMDAT ??0?$_String_val@U?$_Simple_types@D@std@@@std@@QEAA@XZ
_TEXT	SEGMENT
this$ = 8
??0?$_String_val@U?$_Simple_types@D@std@@@std@@QEAA@XZ PROC ; std::_String_val<std::_Simple_types<char> >::_String_val<std::_Simple_types<char> >, COMDAT
; File C:\Program Files\Microsoft Visual Studio\18\Community\VC\Tools\MSVC\14.50.35717\include\xstring
; Line 517
	xor	eax, eax
	xorps	xmm0, xmm0
; Line 493
	movups	XMMWORD PTR [rcx], xmm0
; Line 517
	mov	QWORD PTR [rcx+16], rax
; Line 518
	mov	QWORD PTR [rcx+24], rax
	mov	rax, rcx
	ret	0
??0?$_String_val@U?$_Simple_types@D@std@@@std@@QEAA@XZ ENDP ; std::_String_val<std::_Simple_types<char> >::_String_val<std::_Simple_types<char> >
_TEXT	ENDS
