; Listing generated by Microsoft (R) Optimizing Compiler Version 19.50.35727.0 

include listing.inc

INCLUDELIB MSVCRT
INCLUDELIB OLDNAMES

PUBLIC	_Avx2WmemEnabledWeakValue
PUBLIC	?g_PXSinCoefficients0@aos@physx@@3UPX_VECTORF32@12@B ; physx::aos::g_PXSinCoefficients0
PUBLIC	?g_PXSinCoefficients1@aos@physx@@3UPX_VECTORF32@12@B ; physx::aos::g_PXSinCoefficients1
PUBLIC	?g_PXSinCoefficients2@aos@physx@@3UPX_VECTORF32@12@B ; physx::aos::g_PXSinCoefficients2
PUBLIC	?g_PXCosCoefficients0@aos@physx@@3UPX_VECTORF32@12@B ; physx::aos::g_PXCosCoefficients0
PUBLIC	?g_PXCosCoefficients1@aos@physx@@3UPX_VECTORF32@12@B ; physx::aos::g_PXCosCoefficients1
PUBLIC	?g_PXCosCoefficients2@aos@physx@@3UPX_VECTORF32@12@B ; physx::aos::g_PXCosCoefficients2
PUBLIC	?g_PXReciprocalTwoPi@aos@physx@@3UPX_VECTORF32@12@B ; physx::aos::g_PXReciprocalTwoPi
PUBLIC	?g_PXTwoPi@aos@physx@@3UPX_VECTORF32@12@B	; physx::aos::g_PXTwoPi
;	COMDAT _Avx2WmemEnabledWeakValue
_BSS	SEGMENT
_Avx2WmemEnabledWeakValue DD 01H DUP (?)
_BSS	ENDS
;	COMDAT ?g_PXTwoPi@aos@physx@@3UPX_VECTORF32@12@B
CONST	SEGMENT
?g_PXTwoPi@aos@physx@@3UPX_VECTORF32@12@B DD 040c90fdbr ; 6.28319 ; physx::aos::g_PXTwoPi
	DD	040c90fdbr			; 6.28319
	DD	040c90fdbr			; 6.28319
	DD	040c90fdbr			; 6.28319
CONST	ENDS
;	COMDAT ?g_PXReciprocalTwoPi@aos@physx@@3UPX_VECTORF32@12@B
CONST	SEGMENT
?g_PXReciprocalTwoPi@aos@physx@@3UPX_VECTORF32@12@B DD 03e22f983r ; 0.159155 ; physx::aos::g_PXReciprocalTwoPi
	DD	03e22f983r			; 0.159155
	DD	03e22f983r			; 0.159155
	DD	03e22f983r			; 0.159155
CONST	ENDS
;	COMDAT ?g_PXCosCoefficients2@aos@physx@@3UPX_VECTORF32@12@B
CONST	SEGMENT
?g_PXCosCoefficients2@aos@physx@@3UPX_VECTORF32@12@B DD 029573f9fr ; 4.77948e-14 ; physx::aos::g_PXCosCoefficients2
	DD	0a53413c3r			; -1.56192e-16
	DD	020f2a15dr			; 4.11032e-19
	DD	09c8671cbr			; -8.89679e-22
CONST	ENDS
;	COMDAT ?g_PXCosCoefficients1@aos@physx@@3UPX_VECTORF32@12@B
CONST	SEGMENT
?g_PXCosCoefficients1@aos@physx@@3UPX_VECTORF32@12@B DD 037d00d01r ; 2.48016e-05 ; physx::aos::g_PXCosCoefficients1
	DD	0b493f27er			; -2.75573e-07
	DD	0310f76c8r			; 2.08768e-09
	DD	0ad49cba5r			; -1.14707e-11
CONST	ENDS
;	COMDAT ?g_PXCosCoefficients0@aos@physx@@3UPX_VECTORF32@12@B
CONST	SEGMENT
?g_PXCosCoefficients0@aos@physx@@3UPX_VECTORF32@12@B DD 03f800000r ; 1 ; physx::aos::g_PXCosCoefficients0
	DD	0bf000000r			; -0.5
	DD	03d2aaaabr			; 0.0416667
	DD	0bab60b61r			; -0.00138889
CONST	ENDS
;	COMDAT ?g_PXSinCoefficients2@aos@physx@@3UPX_VECTORF32@12@B
CONST	SEGMENT
?g_PXSinCoefficients2@aos@physx@@3UPX_VECTORF32@12@B DD 0274a963cr ; 2.81146e-15 ; physx::aos::g_PXSinCoefficients2
	DD	0a317a4dar			; -8.22064e-18
	DD	01eb8dc78r			; 1.95729e-20
	DD	09a3b0da1r			; -3.86817e-23
CONST	ENDS
;	COMDAT ?g_PXSinCoefficients1@aos@physx@@3UPX_VECTORF32@12@B
CONST	SEGMENT
?g_PXSinCoefficients1@aos@physx@@3UPX_VECTORF32@12@B DD 03638ef1dr ; 2.75573e-06 ; physx::aos::g_PXSinCoefficients1
	DD	0b2d7322br			; -2.50521e-08
	DD	02f309231r			; 1.6059e-10
	DD	0ab573f9fr			; -7.64716e-13
CONST	ENDS
;	COMDAT ?g_PXSinCoefficients0@aos@physx@@3UPX_VECTORF32@12@B
CONST	SEGMENT
?g_PXSinCoefficients0@aos@physx@@3UPX_VECTORF32@12@B DD 03f800000r ; 1 ; physx::aos::g_PXSinCoefficients0
	DD	0be2aaaabr			; -0.166667
	DD	03c088889r			; 0.00833333
	DD	0b9500d01r			; -0.000198413
CONST	ENDS
CONST	SEGMENT
?gMaskXYZ@internalSimd@aos@physx@@3QBIB DD 0ffffffffH	; physx::aos::internalSimd::gMaskXYZ
	DD	0ffffffffH
	DD	0ffffffffH
	DD	00H
?stbi__bmask@@3QBIB DD 00H				; stbi__bmask
	DD	01H
	DD	03H
	DD	07H
	DD	0fH
	DD	01fH
	DD	03fH
	DD	07fH
	DD	0ffH
	DD	01ffH
	DD	03ffH
	DD	07ffH
	DD	0fffH
	DD	01fffH
	DD	03fffH
	DD	07fffH
	DD	0ffffH
	ORG $+12
?stbi__jbias@@3QBHB DD 00H				; stbi__jbias
	DD	0ffffffffH
	DD	0fffffffdH
	DD	0fffffff9H
	DD	0fffffff1H
	DD	0ffffffe1H
	DD	0ffffffc1H
	DD	0ffffff81H
	DD	0ffffff01H
	DD	0fffffe01H
	DD	0fffffc01H
	DD	0fffff801H
	DD	0fffff001H
	DD	0ffffe001H
	DD	0ffffc001H
	DD	0ffff8001H
?stbi__jpeg_dezigzag@@3QBEB DB 00H			; stbi__jpeg_dezigzag
	DB	01H
	DB	08H
	DB	010H
	DB	09H
	DB	02H
	DB	03H
	DB	0aH
	DB	011H
	DB	018H
	DB	020H
	DB	019H
	DB	012H
	DB	0bH
	DB	04H
	DB	05H
	DB	0cH
	DB	013H
	DB	01aH
	DB	021H
	DB	028H
	DB	030H
	DB	029H
	DB	022H
	DB	01bH
	DB	014H
	DB	0dH
	DB	06H
	DB	07H
	DB	0eH
	DB	015H
	DB	01cH
	DB	023H
	DB	02aH
	DB	031H
	DB	038H
	DB	039H
	DB	032H
	DB	02bH
	DB	024H
	DB	01dH
	DB	016H
	DB	0fH
	DB	017H
	DB	01eH
	DB	025H
	DB	02cH
	DB	033H
	DB	03aH
	DB	03bH
	DB	034H
	DB	02dH
	DB	026H
	DB	01fH
	DB	027H
	DB	02eH
	DB	035H
	DB	03cH
	DB	03dH
	DB	036H
	DB	02fH
	DB	037H
	DB	03eH
	DB	03fH
	DB	03fH
	DB	03fH
	DB	03fH
	DB	03fH
	DB	03fH
	DB	03fH
	DB	03fH
	DB	03fH
	DB	03fH
	DB	03fH
	DB	03fH
	DB	03fH
	DB	03fH
	DB	03fH
	DB	03fH
	ORG $+1
?stbi__zlength_base@@3QBHB DD 03H			; stbi__zlength_base
	DD	04H
	DD	05H
	DD	06H
	DD	07H
	DD	08H
	DD	09H
	DD	0aH
	DD	0bH
	DD	0dH
	DD	0fH
	DD	011H
	DD	013H
	DD	017H
	DD	01bH
	DD	01fH
	DD	023H
	DD	02bH
	DD	033H
	DD	03bH
	DD	043H
	DD	053H
	DD	063H
	DD	073H
	DD	083H
	DD	0a3H
	DD	0c3H
	DD	0e3H
	DD	0102H
	DD	00H
	DD	00H
	ORG $+4
?stbi__zlength_extra@@3QBHB DD 00H			; stbi__zlength_extra
	DD	00H
	DD	00H
	DD	00H
	DD	00H
	DD	00H
	DD	00H
	DD	00H
	DD	01H
	DD	01H
	DD	01H
	DD	01H
	DD	02H
	DD	02H
	DD	02H
	DD	02H
	DD	03H
	DD	03H
	DD	03H
	DD	03H
	DD	04H
	DD	04H
	DD	04H
	DD	04H
	DD	05H
	DD	05H
	DD	05H
	DD	05H
	DD	00H
	DD	00H
	DD	00H
	ORG $+4
?stbi__zdist_base@@3QBHB DD 01H				; stbi__zdist_base
	DD	02H
	DD	03H
	DD	04H
	DD	05H
	DD	07H
	DD	09H
	DD	0dH
	DD	011H
	DD	019H
	DD	021H
	DD	031H
	DD	041H
	DD	061H
	DD	081H
	DD	0c1H
	DD	0101H
	DD	0181H
	DD	0201H
	DD	0301H
	DD	0401H
	DD	0601H
	DD	0801H
	DD	0c01H
	DD	01001H
	DD	01801H
	DD	02001H
	DD	03001H
	DD	04001H
	DD	06001H
	DD	00H
	DD	00H
?stbi__zdist_extra@@3QBHB DD 00H			; stbi__zdist_extra
	DD	00H
	DD	00H
	DD	00H
	DD	01H
	DD	01H
	DD	02H
	DD	02H
	DD	03H
	DD	03H
	DD	04H
	DD	04H
	DD	05H
	DD	05H
	DD	06H
	DD	06H
	DD	07H
	DD	07H
	DD	08H
	DD	08H
	DD	09H
	DD	09H
	DD	0aH
	DD	0aH
	DD	0bH
	DD	0bH
	DD	0cH
	DD	0cH
	DD	0dH
	DD	0dH
	ORG $+8
?minus1w@?A0x1aba212e@aos@physx@@3QBMB DD 000000000r ; 0 ; physx::aos::`anonymous namespace'::minus1w
	DD	000000000r			; 0
	DD	000000000r			; 0
	DD	0bf800000r			; -1
?stbi__zdefault_length@@3QBEB DB 08H			; stbi__zdefault_length
	DB	08H
	DB	08H
	DB	08H
	DB	08H
	DB	08H
	DB	08H
	DB	08H
	DB	08H
	DB	08H
	DB	08H
	DB	08H
	DB	08H
	DB	08H
	DB	08H
	DB	08H
	DB	08H
	DB	08H
	DB	08H
	DB	08H
	DB	08H
	DB	08H
	DB	08H
	DB	08H
	DB	08H
	DB	08H
	DB	08H
	DB	08H
	DB	08H
	DB	08H
	DB	08H
	DB	08H
	DB	08H
	DB	08H
	DB	08H
	DB	08H
	DB	08H
	DB	08H
	DB	08H
	DB	08H
	DB	08H
	DB	08H
	DB	08H
	DB	08H
	DB	08H
	DB	08H
	DB	08H
	DB	08H
	DB	08H
	DB	08H
	DB	08H
	DB	08H
	DB	08H
	DB	08H
	DB	08H
	DB	08H
	DB	08H
	DB	08H
	DB	08H
	DB	08H
	DB	08H
	DB	08H
	DB	08H
	DB	08H
	DB	08H
	DB	08H
	DB	08H
	DB	08H
	DB	08H
	DB	08H
	DB	08H
	DB	08H
	DB	08H
	DB	08H
	DB	08H
	DB	08H
	DB	08H
	DB	08H
	DB	08H
	DB	08H
	DB	08H
	DB	08H
	DB	08H
	DB	08H
	DB	08H
	DB	08H
	DB	08H
	DB	08H
	DB	08H
	DB	08H
	DB	08H
	DB	08H
	DB	08H
	DB	08H
	DB	08H
	DB	08H
	DB	08H
	DB	08H
	DB	08H
	DB	08H
	DB	08H
	DB	08H
	DB	08H
	DB	08H
	DB	08H
	DB	08H
	DB	08H
	DB	08H
	DB	08H
	DB	08H
	DB	08H
	DB	08H
	DB	08H
	DB	08H
	DB	08H
	DB	08H
	DB	08H
	DB	08H
	DB	08H
	DB	08H
	DB	08H
	DB	08H
	DB	08H
	DB	08H
	DB	08H
	DB	08H
	DB	08H
	DB	08H
	DB	08H
	DB	08H
	DB	08H
	DB	08H
	DB	08H
	DB	08H
	DB	08H
	DB	08H
	DB	08H
	DB	08H
	DB	08H
	DB	08H
	DB	08H
	DB	08H
	DB	08H
	DB	08H
	DB	09H
	DB	09H
	DB	09H
	DB	09H
	DB	09H
	DB	09H
	DB	09H
	DB	09H
	DB	09H
	DB	09H
	DB	09H
	DB	09H
	DB	09H
	DB	09H
	DB	09H
	DB	09H
	DB	09H
	DB	09H
	DB	09H
	DB	09H
	DB	09H
	DB	09H
	DB	09H
	DB	09H
	DB	09H
	DB	09H
	DB	09H
	DB	09H
	DB	09H
	DB	09H
	DB	09H
	DB	09H
	DB	09H
	DB	09H
	DB	09H
	DB	09H
	DB	09H
	DB	09H
	DB	09H
	DB	09H
	DB	09H
	DB	09H
	DB	09H
	DB	09H
	DB	09H
	DB	09H
	DB	09H
	DB	09H
	DB	09H
	DB	09H
	DB	09H
	DB	09H
	DB	09H
	DB	09H
	DB	09H
	DB	09H
	DB	09H
	DB	09H
	DB	09H
	DB	09H
	DB	09H
	DB	09H
	DB	09H
	DB	09H
	DB	09H
	DB	09H
	DB	09H
	DB	09H
	DB	09H
	DB	09H
	DB	09H
	DB	09H
	DB	09H
	DB	09H
	DB	09H
	DB	09H
	DB	09H
	DB	09H
	DB	09H
	DB	09H
	DB	09H
	DB	09H
	DB	09H
	DB	09H
	DB	09H
	DB	09H
	DB	09H
	DB	09H
	DB	09H
	DB	09H
	DB	09H
	DB	09H
	DB	09H
	DB	09H
	DB	09H
	DB	09H
	DB	09H
	DB	09H
	DB	09H
	DB	09H
	DB	09H
	DB	09H
	DB	09H
	DB	09H
	DB	09H
	DB	09H
	DB	09H
	DB	09H
	DB	09H
	DB	09H
	DB	09H
	DB	09H
	DB	07H
	DB	07H
	DB	07H
	DB	07H
	DB	07H
	DB	07H
	DB	07H
	DB	07H
	DB	07H
	DB	07H
	DB	07H
	DB	07H
	DB	07H
	DB	07H
	DB	07H
	DB	07H
	DB	07H
	DB	07H
	DB	07H
	DB	07H
	DB	07H
	DB	07H
	DB	07H
	DB	07H
	DB	08H
	DB	08H
	DB	08H
	DB	08H
	DB	08H
	DB	08H
	DB	08H
	DB	08H
?stbi__zdefault_distance@@3QBEB DB 05H			; stbi__zdefault_distance
	DB	05H
	DB	05H
	DB	05H
	DB	05H
	DB	05H
	DB	05H
	DB	05H
	DB	05H
	DB	05H
	DB	05H
	DB	05H
	DB	05H
	DB	05H
	DB	05H
	DB	05H
	DB	05H
	DB	05H
	DB	05H
	DB	05H
	DB	05H
	DB	05H
	DB	05H
	DB	05H
	DB	05H
	DB	05H
	DB	05H
	DB	05H
	DB	05H
	DB	05H
	DB	05H
	DB	05H
?stbi__depth_scale_table@@3QBEB DB 00H			; stbi__depth_scale_table
	DB	0ffH
	DB	055H
	DB	00H
	DB	011H
	DB	00H
	DB	00H
	DB	00H
	DB	01H
CONST	ENDS
PUBLIC	??_H@YAXPEAX_K1P6APEAX0@Z@Z			; `vector constructor iterator'
PUBLIC	?__empty_global_delete@@YAXPEAX@Z		; __empty_global_delete
PUBLIC	?__empty_global_delete@@YAXPEAX_K@Z		; __empty_global_delete
PUBLIC	?__empty_global_delete@@YAXPEAXW4align_val_t@std@@@Z ; __empty_global_delete
PUBLIC	?__empty_global_delete@@YAXPEAX_KW4align_val_t@std@@@Z ; __empty_global_delete
PUBLIC	??2@YAPEAX_KPEAX@Z				; operator new
PUBLIC	ldexpf
PUBLIC	?is_constant_evaluated@std@@YA_NXZ		; std::is_constant_evaluated
PUBLIC	?ldexp@@YAMMH@Z					; ldexp
PUBLIC	?pow@@YAMMM@Z					; pow
PUBLIC	?sqrt@@YAMM@Z					; sqrt
PUBLIC	?tan@@YAMM@Z					; tan
PUBLIC	wmemcpy
PUBLIC	?copy@?$_Char_traits@DH@std@@SAPEADQEADQEBD_K@Z	; std::_Char_traits<char,int>::copy
PUBLIC	?move@?$_Char_traits@DH@std@@SAPEADQEADQEBD_K@Z	; std::_Char_traits<char,int>::move
PUBLIC	?length@?$_Narrow_char_traits@DH@std@@SA_KQEBD@Z ; std::_Narrow_char_traits<char,int>::length
PUBLIC	?assign@?$_Narrow_char_traits@DH@std@@SAXAEADAEBD@Z ; std::_Narrow_char_traits<char,int>::assign
PUBLIC	?eq@?$_Narrow_char_traits@DH@std@@SA_NDD@Z	; std::_Narrow_char_traits<char,int>::eq
PUBLIC	?to_char_type@?$_Narrow_char_traits@DH@std@@SADH@Z ; std::_Narrow_char_traits<char,int>::to_char_type
PUBLIC	?to_int_type@?$_Narrow_char_traits@DH@std@@SAHD@Z ; std::_Narrow_char_traits<char,int>::to_int_type
PUBLIC	?eq_int_type@?$_Narrow_char_traits@DH@std@@SA_NHH@Z ; std::_Narrow_char_traits<char,int>::eq_int_type
PUBLIC	?not_eof@?$_Narrow_char_traits@DH@std@@SAHH@Z	; std::_Narrow_char_traits<char,int>::not_eof
PUBLIC	?eof@?$_Narrow_char_traits@DH@std@@SAHXZ	; std::_Narrow_char_traits<char,int>::eof
PUBLIC	??$min@_K@std@@YAAEB_KAEB_K0@Z			; std::min<unsigned __int64>
PUBLIC	??0exception@std@@QEAA@QEBDH@Z			; std::exception::exception
PUBLIC	??0exception@std@@QEAA@AEBV01@@Z		; std::exception::exception
PUBLIC	??1exception@std@@UEAA@XZ			; std::exception::~exception
PUBLIC	?what@exception@std@@UEBAPEBDXZ			; std::exception::what
PUBLIC	??_Gexception@std@@UEAAPEAXI@Z			; std::exception::`scalar deleting destructor'
PUBLIC	??0bad_alloc@std@@AEAA@QEBD@Z			; std::bad_alloc::bad_alloc
PUBLIC	??1bad_alloc@std@@UEAA@XZ			; std::bad_alloc::~bad_alloc
PUBLIC	??0bad_alloc@std@@QEAA@AEBV01@@Z		; std::bad_alloc::bad_alloc
PUBLIC	??_Gbad_alloc@std@@UEAAPEAXI@Z			; std::bad_alloc::`scalar deleting destructor'
PUBLIC	??0bad_array_new_length@std@@QEAA@XZ		; std::bad_array_new_length::bad_array_new_length
PUBLIC	??1bad_array_new_length@std@@UEAA@XZ		; std::bad_array_new_length::~bad_array_new_length
PUBLIC	??0bad_array_new_length@std@@QEAA@AEBV01@@Z	; std::bad_array_new_length::bad_array_new_length
PUBLIC	??_Gbad_array_new_length@std@@UEAAPEAXI@Z	; std::bad_array_new_length::`scalar deleting destructor'
PUBLIC	?_Throw_bad_array_new_length@std@@YAXXZ		; std::_Throw_bad_array_new_length
PUBLIC	?_Allocate@_Default_allocate_traits@std@@SAPEAX_K@Z ; std::_Default_allocate_traits::_Allocate
PUBLIC	?_Adjust_manually_vector_aligned@std@@YAXAEAPEAXAEA_K@Z ; std::_Adjust_manually_vector_aligned
PUBLIC	?_Orphan_all@_Container_base0@std@@QEAAXXZ	; std::_Container_base0::_Orphan_all
PUBLIC	?_Swap_proxy_and_iterators@_Container_base0@std@@QEAAXAEAU12@@Z ; std::_Container_base0::_Swap_proxy_and_iterators
PUBLIC	?_Alloc_proxy@_Container_base0@std@@QEAAXAEBU_Fake_allocator@2@@Z ; std::_Container_base0::_Alloc_proxy
PUBLIC	?_Adopt@_Iterator_base0@std@@QEAAXPEBX@Z	; std::_Iterator_base0::_Adopt
PUBLIC	??0_Fake_proxy_ptr_impl@std@@QEAA@AEBU_Fake_allocator@1@AEBU_Container_base0@1@@Z ; std::_Fake_proxy_ptr_impl::_Fake_proxy_ptr_impl
PUBLIC	?_Release@_Fake_proxy_ptr_impl@std@@QEAAXXZ	; std::_Fake_proxy_ptr_impl::_Release
PUBLIC	?_Xlen_string@std@@YAXXZ			; std::_Xlen_string
PUBLIC	??0?$allocator@D@std@@QEAA@XZ			; std::allocator<char>::allocator<char>
PUBLIC	?deallocate@?$allocator@D@std@@QEAAXQEAD_K@Z	; std::allocator<char>::deallocate
PUBLIC	?allocate@?$allocator@D@std@@QEAAPEAD_K@Z	; std::allocator<char>::allocate
PUBLIC	?max_size@?$_Default_allocator_traits@V?$allocator@D@std@@@std@@SA_KAEBV?$allocator@D@2@@Z ; std::_Default_allocator_traits<std::allocator<char> >::max_size
PUBLIC	??0?$_String_val@U?$_Simple_types@D@std@@@std@@QEAA@XZ ; std::_String_val<std::_Simple_types<char> >::_String_val<std::_Simple_types<char> >
PUBLIC	?_Myptr@?$_String_val@U?$_Simple_types@D@std@@@std@@QEAAPEADXZ ; std::_String_val<std::_Simple_types<char> >::_Myptr
PUBLIC	?_Myptr@?$_String_val@U?$_Simple_types@D@std@@@std@@QEBAPEBDXZ ; std::_String_val<std::_Simple_types<char> >::_Myptr
PUBLIC	?_Large_mode_engaged@?$_String_val@U?$_Simple_types@D@std@@@std@@QEBA_NXZ ; std::_String_val<std::_Simple_types<char> >::_Large_mode_engaged
PUBLIC	?_Activate_SSO_buffer@?$_String_val@U?$_Simple_types@D@std@@@std@@QEAAXXZ ; std::_String_val<std::_Simple_types<char> >::_Activate_SSO_buffer
PUBLIC	?_Check_offset@?$_String_val@U?$_Simple_types@D@std@@@std@@QEBAX_K@Z ; std::_String_val<std::_Simple_types<char> >::_Check_offset
PUBLIC	?_Xran@?$_String_val@U?$_Simple_types@D@std@@@std@@SAXXZ ; std::_String_val<std::_Simple_types<char> >::_Xran
PUBLIC	?_Clamp_suffix_size@?$_String_val@U?$_Simple_types@D@std@@@std@@QEBA_K_K0@Z ; std::_String_val<std::_Simple_types<char> >::_Clamp_suffix_size
PUBLIC	??0_Bxty@?$_String_val@U?$_Simple_types@D@std@@@std@@QEAA@XZ ; std::_String_val<std::_Simple_types<char> >::_Bxty::_Bxty
PUBLIC	??1_Bxty@?$_String_val@U?$_Simple_types@D@std@@@std@@QEAA@XZ ; std::_String_val<std::_Simple_types<char> >::_Bxty::~_Bxty
PUBLIC	?_Switch_to_buf@_Bxty@?$_String_val@U?$_Simple_types@D@std@@@std@@QEAAXXZ ; std::_String_val<std::_Simple_types<char> >::_Bxty::_Switch_to_buf
PUBLIC	??1?$_String_val@U?$_Simple_types@D@std@@@std@@QEAA@XZ ; std::_String_val<std::_Simple_types<char> >::~_String_val<std::_Simple_types<char> >
PUBLIC	??0?$basic_string@DU?$char_traits@D@std@@V?$allocator@D@2@@std@@QEAA@XZ ; std::basic_string<char,std::char_traits<char>,std::allocator<char> >::basic_string<char,std::char_traits<char>,std::allocator<char> >
PUBLIC	??0?$basic_string@DU?$char_traits@D@std@@V?$allocator@D@2@@std@@QEAA@AEBV?$allocator@D@1@@Z ; std::basic_string<char,std::char_traits<char>,std::allocator<char> >::basic_string<char,std::char_traits<char>,std::allocator<char> >
PUBLIC	??0?$basic_string@DU?$char_traits@D@std@@V?$allocator@D@2@@std@@QEAA@QEBD@Z ; std::basic_string<char,std::char_traits<char>,std::allocator<char> >::basic_string<char,std::char_traits<char>,std::allocator<char> >
PUBLIC	?_Deallocate_for_capacity@?$basic_string@DU?$char_traits@D@std@@V?$allocator@D@2@@std@@CAXAEAV?$allocator@D@2@QEAD_K@Z ; std::basic_string<char,std::char_traits<char>,std::allocator<char> >::_Deallocate_for_capacity
PUBLIC	?_Construct_empty@?$basic_string@DU?$char_traits@D@std@@V?$allocator@D@2@@std@@AEAAXXZ ; std::basic_string<char,std::char_traits<char>,std::allocator<char> >::_Construct_empty
PUBLIC	??0?$basic_string@DU?$char_traits@D@std@@V?$allocator@D@2@@std@@QEAA@$$QEAV01@@Z ; std::basic_string<char,std::char_traits<char>,std::allocator<char> >::basic_string<char,std::char_traits<char>,std::allocator<char> >
PUBLIC	??4?$basic_string@DU?$char_traits@D@std@@V?$allocator@D@2@@std@@QEAAAEAV01@$$QEAV01@@Z ; std::basic_string<char,std::char_traits<char>,std::allocator<char> >::operator=
PUBLIC	?_Take_contents@?$basic_string@DU?$char_traits@D@std@@V?$allocator@D@2@@std@@AEAAXAEAV12@@Z ; std::basic_string<char,std::char_traits<char>,std::allocator<char> >::_Take_contents
PUBLIC	??1?$basic_string@DU?$char_traits@D@std@@V?$allocator@D@2@@std@@QEAA@XZ ; std::basic_string<char,std::char_traits<char>,std::allocator<char> >::~basic_string<char,std::char_traits<char>,std::allocator<char> >
PUBLIC	?assign@?$basic_string@DU?$char_traits@D@std@@V?$allocator@D@2@@std@@QEAAAEAV12@QEBD_K@Z ; std::basic_string<char,std::char_traits<char>,std::allocator<char> >::assign
PUBLIC	?_Erase_noexcept@?$basic_string@DU?$char_traits@D@std@@V?$allocator@D@2@@std@@AEAAAEAV12@_K_K@Z ; std::basic_string<char,std::char_traits<char>,std::allocator<char> >::_Erase_noexcept
PUBLIC	?erase@?$basic_string@DU?$char_traits@D@std@@V?$allocator@D@2@@std@@QEAAAEAV12@_K0@Z ; std::basic_string<char,std::char_traits<char>,std::allocator<char> >::erase
PUBLIC	?push_back@?$basic_string@DU?$char_traits@D@std@@V?$allocator@D@2@@std@@QEAAXD@Z ; std::basic_string<char,std::char_traits<char>,std::allocator<char> >::push_back
PUBLIC	?front@?$basic_string@DU?$char_traits@D@std@@V?$allocator@D@2@@std@@QEAAAEADXZ ; std::basic_string<char,std::char_traits<char>,std::allocator<char> >::front
PUBLIC	?c_str@?$basic_string@DU?$char_traits@D@std@@V?$allocator@D@2@@std@@QEBAPEBDXZ ; std::basic_string<char,std::char_traits<char>,std::allocator<char> >::c_str
PUBLIC	?data@?$basic_string@DU?$char_traits@D@std@@V?$allocator@D@2@@std@@QEAAPEADXZ ; std::basic_string<char,std::char_traits<char>,std::allocator<char> >::data
PUBLIC	?size@?$basic_string@DU?$char_traits@D@std@@V?$allocator@D@2@@std@@QEBA_KXZ ; std::basic_string<char,std::char_traits<char>,std::allocator<char> >::size
PUBLIC	?max_size@?$basic_string@DU?$char_traits@D@std@@V?$allocator@D@2@@std@@QEBA_KXZ ; std::basic_string<char,std::char_traits<char>,std::allocator<char> >::max_size
PUBLIC	?_Calculate_growth@?$basic_string@DU?$char_traits@D@std@@V?$allocator@D@2@@std@@CA_K_K00@Z ; std::basic_string<char,std::char_traits<char>,std::allocator<char> >::_Calculate_growth
PUBLIC	?_Calculate_growth@?$basic_string@DU?$char_traits@D@std@@V?$allocator@D@2@@std@@AEBA_K_K@Z ; std::basic_string<char,std::char_traits<char>,std::allocator<char> >::_Calculate_growth
PUBLIC	?_Tidy_deallocate@?$basic_string@DU?$char_traits@D@std@@V?$allocator@D@2@@std@@AEAAXXZ ; std::basic_string<char,std::char_traits<char>,std::allocator<char> >::_Tidy_deallocate
PUBLIC	?_Swap_proxy_and_iterators@?$basic_string@DU?$char_traits@D@std@@V?$allocator@D@2@@std@@AEAAXAEAV12@@Z ; std::basic_string<char,std::char_traits<char>,std::allocator<char> >::_Swap_proxy_and_iterators
PUBLIC	?_Getal@?$basic_string@DU?$char_traits@D@std@@V?$allocator@D@2@@std@@AEAAAEAV?$allocator@D@2@XZ ; std::basic_string<char,std::char_traits<char>,std::allocator<char> >::_Getal
PUBLIC	?_Getal@?$basic_string@DU?$char_traits@D@std@@V?$allocator@D@2@@std@@AEBAAEBV?$allocator@D@2@XZ ; std::basic_string<char,std::char_traits<char>,std::allocator<char> >::_Getal
PUBLIC	?_Get_first@?$_Compressed_pair@V?$allocator@D@std@@V?$_String_val@U?$_Simple_types@D@std@@@2@$00@std@@QEAAAEAV?$allocator@D@2@XZ ; std::_Compressed_pair<std::allocator<char>,std::_String_val<std::_Simple_types<char> >,1>::_Get_first
PUBLIC	?_Get_first@?$_Compressed_pair@V?$allocator@D@std@@V?$_String_val@U?$_Simple_types@D@std@@@2@$00@std@@QEBAAEBV?$allocator@D@2@XZ ; std::_Compressed_pair<std::allocator<char>,std::_String_val<std::_Simple_types<char> >,1>::_Get_first
PUBLIC	??1?$_Compressed_pair@V?$allocator@D@std@@V?$_String_val@U?$_Simple_types@D@std@@@2@$00@std@@QEAA@XZ ; std::_Compressed_pair<std::allocator<char>,std::_String_val<std::_Simple_types<char> >,1>::~_Compressed_pair<std::allocator<char>,std::_String_val<std::_Simple_types<char> >,1>
PUBLIC	??HVector3@@QEBA?AU0@AEBU0@@Z			; Vector3::operator+
PUBLIC	??GVector3@@QEBA?AU0@AEBU0@@Z			; Vector3::operator-
PUBLIC	??DVector3@@QEBA?AU0@M@Z			; Vector3::operator*
PUBLIC	?length@Vector3@@QEBAMXZ			; Vector3::length
PUBLIC	?normalize@Vector3@@QEBA?AU1@XZ			; Vector3::normalize
PUBLIC	?Cross@Vector3@@SA?AU1@AEBU1@0@Z		; Vector3::Cross
PUBLIC	?Dot@Vector3@@SAMAEBU1@0@Z			; Vector3::Dot
PUBLIC	??0Vector3@@QEAA@MMM@Z				; Vector3::Vector3
PUBLIC	??0Matrix4@@QEAA@XZ				; Matrix4::Matrix4
PUBLIC	??DMatrix4@@QEBA?AU0@AEBU0@@Z			; Matrix4::operator*
PUBLIC	?Translate@Matrix4@@SA?AU1@MMM@Z		; Matrix4::Translate
PUBLIC	?Scale@Matrix4@@SA?AU1@MMM@Z			; Matrix4::Scale
PUBLIC	?Perspective@Matrix4@@SA?AU1@MMMM@Z		; Matrix4::Perspective
PUBLIC	?LookAt@Matrix4@@SA?AU1@UVector3@@00@Z		; Matrix4::LookAt
PUBLIC	?FromQuaternion@Matrix4@@SA?AU1@AEBUQuaternion@@@Z ; Matrix4::FromQuaternion
PUBLIC	??0bad_cast@std@@QEAA@XZ			; std::bad_cast::bad_cast
PUBLIC	??1bad_cast@std@@UEAA@XZ			; std::bad_cast::~bad_cast
PUBLIC	??0bad_cast@std@@QEAA@AEBV01@@Z			; std::bad_cast::bad_cast
PUBLIC	??_Gbad_cast@std@@UEAAPEAXI@Z			; std::bad_cast::`scalar deleting destructor'
PUBLIC	?_Throw_bad_cast@std@@YAXXZ			; std::_Throw_bad_cast
PUBLIC	??1locale@std@@QEAA@XZ				; std::locale::~locale
PUBLIC	?_Getfacet@locale@std@@QEBAPEBVfacet@12@_K@Z	; std::locale::_Getfacet
PUBLIC	?_Maklocwcs@std@@YAPEA_WPEB_W@Z			; std::_Maklocwcs
PUBLIC	??$_Max_limit@_J@std@@YA_JXZ			; std::_Max_limit<__int64>
PUBLIC	??$_Fgetc@D@std@@YA_NAEADPEAU_iobuf@@@Z		; std::_Fgetc<char>
PUBLIC	??$_Fputc@D@std@@YA_NDPEAU_iobuf@@@Z		; std::_Fputc<char>
PUBLIC	??$_Ungetc@D@std@@YA_NAEBDPEAU_iobuf@@@Z	; std::_Ungetc<char>
PUBLIC	??$_Getvals@_W@?$time_get@DV?$istreambuf_iterator@DU?$char_traits@D@std@@@std@@@std@@IEAAX_WAEBV_Locinfo@1@@Z ; std::time_get<char,std::istreambuf_iterator<char,std::char_traits<char> > >::_Getvals<wchar_t>
PUBLIC	??$_Getvals@_W@?$time_get@_WV?$istreambuf_iterator@_WU?$char_traits@_W@std@@@std@@@std@@IEAAX_WAEBV_Locinfo@1@@Z ; std::time_get<wchar_t,std::istreambuf_iterator<wchar_t,std::char_traits<wchar_t> > >::_Getvals<wchar_t>
PUBLIC	??0_Sentry_base@?$basic_ostream@DU?$char_traits@D@std@@@std@@QEAA@AEAV12@@Z ; std::basic_ostream<char,std::char_traits<char> >::_Sentry_base::_Sentry_base
PUBLIC	??1_Sentry_base@?$basic_ostream@DU?$char_traits@D@std@@@std@@QEAA@XZ ; std::basic_ostream<char,std::char_traits<char> >::_Sentry_base::~_Sentry_base
PUBLIC	??0sentry@?$basic_ostream@DU?$char_traits@D@std@@@std@@QEAA@AEAV12@@Z ; std::basic_ostream<char,std::char_traits<char> >::sentry::sentry
PUBLIC	??1sentry@?$basic_ostream@DU?$char_traits@D@std@@@std@@QEAA@XZ ; std::basic_ostream<char,std::char_traits<char> >::sentry::~sentry
PUBLIC	??Bsentry@?$basic_ostream@DU?$char_traits@D@std@@@std@@QEBA_NXZ ; std::basic_ostream<char,std::char_traits<char> >::sentry::operator bool
PUBLIC	?_Unchecked_begin@?$list@U?$pair@$$CBV?$basic_string@DU?$char_traits@D@std@@V?$allocator@D@2@@std@@PEAVInstance@@@std@@V?$allocator@U?$pair@$$CBV?$basic_string@DU?$char_traits@D@std@@V?$allocator@D@2@@std@@PEAVInstance@@@std@@@2@@std@@QEBA?AV?$_List_unchecked_const_iterator@V?$_List_val@U?$_List_simple_types@U?$pair@$$CBV?$basic_string@DU?$char_traits@D@std@@V?$allocator@D@2@@std@@PEAVInstance@@@std@@@std@@@std@@U_Iterator_base0@2@@2@XZ ; std::list<std::pair<std::basic_string<char,std::char_traits<char>,std::allocator<char> > const ,Instance *>,std::allocator<std::pair<std::basic_string<char,std::char_traits<char>,std::allocator<char> > const ,Instance *> > >::_Unchecked_begin
PUBLIC	?_Unchecked_end@?$list@U?$pair@$$CBV?$basic_string@DU?$char_traits@D@std@@V?$allocator@D@2@@std@@PEAVInstance@@@std@@V?$allocator@U?$pair@$$CBV?$basic_string@DU?$char_traits@D@std@@V?$allocator@D@2@@std@@PEAVInstance@@@std@@@2@@std@@QEBA?AV?$_List_unchecked_const_iterator@V?$_List_val@U?$_List_simple_types@U?$pair@$$CBV?$basic_string@DU?$char_traits@D@std@@V?$allocator@D@2@@std@@PEAVInstance@@@std@@@std@@@std@@U_Iterator_base0@2@@2@XZ ; std::list<std::pair<std::basic_string<char,std::char_traits<char>,std::allocator<char> > const ,Instance *>,std::allocator<std::pair<std::basic_string<char,std::char_traits<char>,std::allocator<char> > const ,Instance *> > >::_Unchecked_end
PUBLIC	?_Unchecked_begin@?$_Hash@V?$_Umap_traits@V?$basic_string@DU?$char_traits@D@std@@V?$allocator@D@2@@std@@PEAVInstance@@V?$_Uhash_compare@V?$basic_string@DU?$char_traits@D@std@@V?$allocator@D@2@@std@@U?$hash@V?$basic_string@DU?$char_traits@D@std@@V?$allocator@D@2@@std@@@2@U?$equal_to@V?$basic_string@DU?$char_traits@D@std@@V?$allocator@D@2@@std@@@2@@2@V?$allocator@U?$pair@$$CBV?$basic_string@DU?$char_traits@D@std@@V?$allocator@D@2@@std@@PEAVInstance@@@std@@@2@$0A@@std@@@std@@QEBA?AV?$_List_unchecked_const_iterator@V?$_List_val@U?$_List_simple_types@U?$pair@$$CBV?$basic_string@DU?$char_traits@D@std@@V?$allocator@D@2@@std@@PEAVInstance@@@std@@@std@@@std@@U_Iterator_base0@2@@2@XZ ; std::_Hash<std::_Umap_traits<std::basic_string<char,std::char_traits<char>,std::allocator<char> >,Instance *,std::_Uhash_compare<std::basic_string<char,std::char_traits<char>,std::allocator<char> >,std::hash<std::basic_string<char,std::char_traits<char>,std::allocator<char> > >,std::equal_to<std::basic_string<char,std::char_traits<char>,std::allocator<char> > > >,std::allocator<std::pair<std::basic_string<char,std::char_traits<char>,std::allocator<char> > const ,Instance *> >,0> >::_Unchecked_begin
PUBLIC	?_Unchecked_end@?$_Hash@V?$_Umap_traits@V?$basic_string@DU?$char_traits@D@std@@V?$allocator@D@2@@std@@PEAVInstance@@V?$_Uhash_compare@V?$basic_string@DU?$char_traits@D@std@@V?$allocator@D@2@@std@@U?$hash@V?$basic_string@DU?$char_traits@D@std@@V?$allocator@D@2@@std@@@2@U?$equal_to@V?$basic_string@DU?$char_traits@D@std@@V?$allocator@D@2@@std@@@2@@2@V?$allocator@U?$pair@$$CBV?$basic_string@DU?$char_traits@D@std@@V?$allocator@D@2@@std@@PEAVInstance@@@std@@@2@$0A@@std@@@std@@QEBA?AV?$_List_unchecked_const_iterator@V?$_List_val@U?$_List_simple_types@U?$pair@$$CBV?$basic_string@DU?$char_traits@D@std@@V?$allocator@D@2@@std@@PEAVInstance@@@std@@@std@@@std@@U_Iterator_base0@2@@2@XZ ; std::_Hash<std::_Umap_traits<std::basic_string<char,std::char_traits<char>,std::allocator<char> >,Instance *,std::_Uhash_compare<std::basic_string<char,std::char_traits<char>,std::allocator<char> >,std::hash<std::basic_string<char,std::char_traits<char>,std::allocator<char> > >,std::equal_to<std::basic_string<char,std::char_traits<char>,std::allocator<char> > > >,std::allocator<std::pair<std::basic_string<char,std::char_traits<char>,std::allocator<char> > const ,Instance *> >,0> >::_Unchecked_end
PUBLIC	?FLoad@aos@physx@@YA?AT__m128@@M@Z		; physx::aos::FLoad
PUBLIC	?V3Load@aos@physx@@YA?AT__m128@@M@Z		; physx::aos::V3Load
PUBLIC	?V4Load@aos@physx@@YA?AT__m128@@M@Z		; physx::aos::V4Load
PUBLIC	??1Cube@@UEAA@XZ				; Cube::~Cube
PUBLIC	?deallocate@?$allocator@I@std@@QEAAXQEAI_K@Z	; std::allocator<unsigned int>::deallocate
PUBLIC	?allocate@?$allocator@I@std@@QEAAPEAI_K@Z	; std::allocator<unsigned int>::allocate
PUBLIC	?max_size@?$_Default_allocator_traits@V?$allocator@I@std@@@std@@SA_KAEBV?$allocator@I@2@@Z ; std::_Default_allocator_traits<std::allocator<unsigned int> >::max_size
PUBLIC	?push_back@?$vector@IV?$allocator@I@std@@@std@@QEAAX$$QEAI@Z ; std::vector<unsigned int,std::allocator<unsigned int> >::push_back
PUBLIC	?data@?$vector@IV?$allocator@I@std@@@std@@QEAAPEAIXZ ; std::vector<unsigned int,std::allocator<unsigned int> >::data
PUBLIC	?size@?$vector@IV?$allocator@I@std@@@std@@QEBA_KXZ ; std::vector<unsigned int,std::allocator<unsigned int> >::size
PUBLIC	?max_size@?$vector@IV?$allocator@I@std@@@std@@QEBA_KXZ ; std::vector<unsigned int,std::allocator<unsigned int> >::max_size
PUBLIC	?capacity@?$vector@IV?$allocator@I@std@@@std@@QEBA_KXZ ; std::vector<unsigned int,std::allocator<unsigned int> >::capacity
PUBLIC	?_Calculate_growth@?$vector@IV?$allocator@I@std@@@std@@AEBA_K_K@Z ; std::vector<unsigned int,std::allocator<unsigned int> >::_Calculate_growth
PUBLIC	?_Change_array@?$vector@IV?$allocator@I@std@@@std@@AEAAXQEAI_K1@Z ; std::vector<unsigned int,std::allocator<unsigned int> >::_Change_array
PUBLIC	?_Xlength@?$vector@IV?$allocator@I@std@@@std@@CAXXZ ; std::vector<unsigned int,std::allocator<unsigned int> >::_Xlength
PUBLIC	?_Orphan_range@?$vector@IV?$allocator@I@std@@@std@@AEBAXPEAI0@Z ; std::vector<unsigned int,std::allocator<unsigned int> >::_Orphan_range
PUBLIC	?_Getal@?$vector@IV?$allocator@I@std@@@std@@AEAAAEAV?$allocator@I@2@XZ ; std::vector<unsigned int,std::allocator<unsigned int> >::_Getal
PUBLIC	?_Getal@?$vector@IV?$allocator@I@std@@@std@@AEBAAEBV?$allocator@I@2@XZ ; std::vector<unsigned int,std::allocator<unsigned int> >::_Getal
PUBLIC	?_Get_first@?$_Compressed_pair@V?$allocator@I@std@@V?$_Vector_val@U?$_Simple_types@I@std@@@2@$00@std@@QEAAAEAV?$allocator@I@2@XZ ; std::_Compressed_pair<std::allocator<unsigned int>,std::_Vector_val<std::_Simple_types<unsigned int> >,1>::_Get_first
PUBLIC	?_Get_first@?$_Compressed_pair@V?$allocator@I@std@@V?$_Vector_val@U?$_Simple_types@I@std@@@2@$00@std@@QEBAAEBV?$allocator@I@2@XZ ; std::_Compressed_pair<std::allocator<unsigned int>,std::_Vector_val<std::_Simple_types<unsigned int> >,1>::_Get_first
PUBLIC	?createWhiteTexture@Renderer@@QEAAXXZ		; Renderer::createWhiteTexture
PUBLIC	?loadShaderSource@Renderer@@QEAA?AV?$basic_string@DU?$char_traits@D@std@@V?$allocator@D@2@@std@@PEBD@Z ; Renderer::loadShaderSource
PUBLIC	?init@Renderer@@QEAAXXZ				; Renderer::init
PUBLIC	?render@Renderer@@QEAAXAEAVUser@@PEAUGLFWwindow@@AEAVWorkspace@@@Z ; Renderer::render
PUBLIC	?loadTexture@Renderer@@QEAAIPEBD@Z		; Renderer::loadTexture
PUBLIC	stbi_load_from_memory
PUBLIC	stbi_load_from_callbacks
PUBLIC	stbi_load
PUBLIC	stbi_load_from_file
PUBLIC	stbi_load_gif_from_memory
PUBLIC	stbi_load_16_from_memory
PUBLIC	stbi_load_16_from_callbacks
PUBLIC	stbi_load_16
PUBLIC	stbi_load_from_file_16
PUBLIC	stbi_loadf_from_memory
PUBLIC	stbi_loadf_from_callbacks
PUBLIC	stbi_loadf
PUBLIC	stbi_loadf_from_file
PUBLIC	stbi_hdr_to_ldr_gamma
PUBLIC	stbi_hdr_to_ldr_scale
PUBLIC	stbi_ldr_to_hdr_gamma
PUBLIC	stbi_ldr_to_hdr_scale
PUBLIC	stbi_is_hdr_from_callbacks
PUBLIC	stbi_is_hdr_from_memory
PUBLIC	stbi_is_hdr
PUBLIC	stbi_is_hdr_from_file
PUBLIC	stbi_failure_reason
PUBLIC	stbi_image_free
PUBLIC	stbi_info_from_memory
PUBLIC	stbi_info_from_callbacks
PUBLIC	stbi_is_16_bit_from_memory
PUBLIC	stbi_is_16_bit_from_callbacks
PUBLIC	stbi_info
PUBLIC	stbi_info_from_file
PUBLIC	stbi_is_16_bit
PUBLIC	stbi_is_16_bit_from_file
PUBLIC	stbi_set_unpremultiply_on_load
PUBLIC	stbi_convert_iphone_png_to_rgb
PUBLIC	stbi_set_flip_vertically_on_load
PUBLIC	stbi_set_unpremultiply_on_load_thread
PUBLIC	stbi_convert_iphone_png_to_rgb_thread
PUBLIC	stbi_set_flip_vertically_on_load_thread
PUBLIC	stbi_zlib_decode_malloc_guesssize
PUBLIC	stbi_zlib_decode_malloc_guesssize_headerflag
PUBLIC	stbi_zlib_decode_malloc
PUBLIC	stbi_zlib_decode_buffer
PUBLIC	stbi_zlib_decode_noheader_malloc
PUBLIC	stbi_zlib_decode_noheader_buffer
PUBLIC	??0?$basic_ifstream@DU?$char_traits@D@std@@@std@@QEAA@PEBDHH@Z ; std::basic_ifstream<char,std::char_traits<char> >::basic_ifstream<char,std::char_traits<char> >
PUBLIC	??1?$basic_ifstream@DU?$char_traits@D@std@@@std@@UEAA@XZ ; std::basic_ifstream<char,std::char_traits<char> >::~basic_ifstream<char,std::char_traits<char> >
PUBLIC	?rdbuf@?$basic_ifstream@DU?$char_traits@D@std@@@std@@QEBAPEAV?$basic_filebuf@DU?$char_traits@D@std@@@2@XZ ; std::basic_ifstream<char,std::char_traits<char> >::rdbuf
PUBLIC	?is_open@?$basic_ifstream@DU?$char_traits@D@std@@@std@@QEBA_NXZ ; std::basic_ifstream<char,std::char_traits<char> >::is_open
PUBLIC	?close@?$basic_ifstream@DU?$char_traits@D@std@@@std@@QEAAXXZ ; std::basic_ifstream<char,std::char_traits<char> >::close
PUBLIC	??0?$basic_filebuf@DU?$char_traits@D@std@@@std@@QEAA@XZ ; std::basic_filebuf<char,std::char_traits<char> >::basic_filebuf<char,std::char_traits<char> >
PUBLIC	??1?$basic_filebuf@DU?$char_traits@D@std@@@std@@UEAA@XZ ; std::basic_filebuf<char,std::char_traits<char> >::~basic_filebuf<char,std::char_traits<char> >
PUBLIC	?is_open@?$basic_filebuf@DU?$char_traits@D@std@@@std@@QEBA_NXZ ; std::basic_filebuf<char,std::char_traits<char> >::is_open
PUBLIC	?open@?$basic_filebuf@DU?$char_traits@D@std@@@std@@QEAAPEAV12@PEBDHH@Z ; std::basic_filebuf<char,std::char_traits<char> >::open
PUBLIC	?close@?$basic_filebuf@DU?$char_traits@D@std@@@std@@QEAAPEAV12@XZ ; std::basic_filebuf<char,std::char_traits<char> >::close
PUBLIC	?_Lock@?$basic_filebuf@DU?$char_traits@D@std@@@std@@UEAAXXZ ; std::basic_filebuf<char,std::char_traits<char> >::_Lock
PUBLIC	?_Unlock@?$basic_filebuf@DU?$char_traits@D@std@@@std@@UEAAXXZ ; std::basic_filebuf<char,std::char_traits<char> >::_Unlock
PUBLIC	?overflow@?$basic_filebuf@DU?$char_traits@D@std@@@std@@MEAAHH@Z ; std::basic_filebuf<char,std::char_traits<char> >::overflow
PUBLIC	?pbackfail@?$basic_filebuf@DU?$char_traits@D@std@@@std@@MEAAHH@Z ; std::basic_filebuf<char,std::char_traits<char> >::pbackfail
PUBLIC	?underflow@?$basic_filebuf@DU?$char_traits@D@std@@@std@@MEAAHXZ ; std::basic_filebuf<char,std::char_traits<char> >::underflow
PUBLIC	?uflow@?$basic_filebuf@DU?$char_traits@D@std@@@std@@MEAAHXZ ; std::basic_filebuf<char,std::char_traits<char> >::uflow
PUBLIC	?xsgetn@?$basic_filebuf@DU?$char_traits@D@std@@@std@@MEAA_JPEAD_J@Z ; std::basic_filebuf<char,std::char_traits<char> >::xsgetn
PUBLIC	?xsputn@?$basic_filebuf@DU?$char_traits@D@std@@@std@@MEAA_JPEBD_J@Z ; std::basic_filebuf<char,std::char_traits<char> >::xsputn
PUBLIC	?seekoff@?$basic_filebuf@DU?$char_traits@D@std@@@std@@MEAA?AV?$fpos@U_Mbstatet@@@2@_JHH@Z ; std::basic_filebuf<char,std::char_traits<char> >::seekoff
PUBLIC	?seekpos@?$basic_filebuf@DU?$char_traits@D@std@@@std@@MEAA?AV?$fpos@U_Mbstatet@@@2@V32@H@Z ; std::basic_filebuf<char,std::char_traits<char> >::seekpos
PUBLIC	?setbuf@?$basic_filebuf@DU?$char_traits@D@std@@@std@@MEAAPEAV?$basic_streambuf@DU?$char_traits@D@std@@@2@PEAD_J@Z ; std::basic_filebuf<char,std::char_traits<char> >::setbuf
PUBLIC	?sync@?$basic_filebuf@DU?$char_traits@D@std@@@std@@MEAAHXZ ; std::basic_filebuf<char,std::char_traits<char> >::sync
PUBLIC	?imbue@?$basic_filebuf@DU?$char_traits@D@std@@@std@@MEAAXAEBVlocale@2@@Z ; std::basic_filebuf<char,std::char_traits<char> >::imbue
PUBLIC	?_Init@?$basic_filebuf@DU?$char_traits@D@std@@@std@@IEAAXPEAU_iobuf@@W4_Initfl@12@@Z ; std::basic_filebuf<char,std::char_traits<char> >::_Init
PUBLIC	?_Endwrite@?$basic_filebuf@DU?$char_traits@D@std@@@std@@IEAA_NXZ ; std::basic_filebuf<char,std::char_traits<char> >::_Endwrite
PUBLIC	?_Initcvt@?$basic_filebuf@DU?$char_traits@D@std@@@std@@IEAAXAEBV?$codecvt@DDU_Mbstatet@@@2@@Z ; std::basic_filebuf<char,std::char_traits<char> >::_Initcvt
PUBLIC	?_Reset_back@?$basic_filebuf@DU?$char_traits@D@std@@@std@@AEAAXXZ ; std::basic_filebuf<char,std::char_traits<char> >::_Reset_back
PUBLIC	?_Set_back@?$basic_filebuf@DU?$char_traits@D@std@@@std@@AEAAXXZ ; std::basic_filebuf<char,std::char_traits<char> >::_Set_back
PUBLIC	??_G?$basic_filebuf@DU?$char_traits@D@std@@@std@@UEAAPEAXI@Z ; std::basic_filebuf<char,std::char_traits<char> >::`scalar deleting destructor'
PUBLIC	??_G?$basic_ifstream@DU?$char_traits@D@std@@@std@@UEAAPEAXI@Z ; std::basic_ifstream<char,std::char_traits<char> >::`scalar deleting destructor'
PUBLIC	??_D?$basic_ifstream@DU?$char_traits@D@std@@@std@@QEAAXXZ ; std::basic_ifstream<char,std::char_traits<char> >::`vbase destructor'
PUBLIC	??$?6U?$char_traits@D@std@@@std@@YAAEAV?$basic_ostream@DU?$char_traits@D@std@@@0@AEAV10@PEBD@Z ; std::operator<<<std::char_traits<char> >
PUBLIC	??$endl@DU?$char_traits@D@std@@@std@@YAAEAV?$basic_ostream@DU?$char_traits@D@std@@@0@AEAV10@@Z ; std::endl<char,std::char_traits<char> >
PUBLIC	??0?$basic_stringstream@DU?$char_traits@D@std@@V?$allocator@D@2@@std@@QEAA@XZ ; std::basic_stringstream<char,std::char_traits<char>,std::allocator<char> >::basic_stringstream<char,std::char_traits<char>,std::allocator<char> >
PUBLIC	??1?$basic_stringstream@DU?$char_traits@D@std@@V?$allocator@D@2@@std@@UEAA@XZ ; std::basic_stringstream<char,std::char_traits<char>,std::allocator<char> >::~basic_stringstream<char,std::char_traits<char>,std::allocator<char> >
PUBLIC	?str@?$basic_stringstream@DU?$char_traits@D@std@@V?$allocator@D@2@@std@@QEGBA?AV?$basic_string@DU?$char_traits@D@std@@V?$allocator@D@2@@2@XZ ; std::basic_stringstream<char,std::char_traits<char>,std::allocator<char> >::str
PUBLIC	??0?$basic_stringbuf@DU?$char_traits@D@std@@V?$allocator@D@2@@std@@QEAA@H@Z ; std::basic_stringbuf<char,std::char_traits<char>,std::allocator<char> >::basic_stringbuf<char,std::char_traits<char>,std::allocator<char> >
PUBLIC	??1?$basic_stringbuf@DU?$char_traits@D@std@@V?$allocator@D@2@@std@@UEAA@XZ ; std::basic_stringbuf<char,std::char_traits<char>,std::allocator<char> >::~basic_stringbuf<char,std::char_traits<char>,std::allocator<char> >
PUBLIC	?_Get_buffer_view@?$basic_stringbuf@DU?$char_traits@D@std@@V?$allocator@D@2@@std@@QEBA?AU_Buffer_view@12@XZ ; std::basic_stringbuf<char,std::char_traits<char>,std::allocator<char> >::_Get_buffer_view
PUBLIC	?str@?$basic_stringbuf@DU?$char_traits@D@std@@V?$allocator@D@2@@std@@QEGBA?AV?$basic_string@DU?$char_traits@D@std@@V?$allocator@D@2@@2@XZ ; std::basic_stringbuf<char,std::char_traits<char>,std::allocator<char> >::str
PUBLIC	?overflow@?$basic_stringbuf@DU?$char_traits@D@std@@V?$allocator@D@2@@std@@MEAAHH@Z ; std::basic_stringbuf<char,std::char_traits<char>,std::allocator<char> >::overflow
PUBLIC	?pbackfail@?$basic_stringbuf@DU?$char_traits@D@std@@V?$allocator@D@2@@std@@MEAAHH@Z ; std::basic_stringbuf<char,std::char_traits<char>,std::allocator<char> >::pbackfail
PUBLIC	?underflow@?$basic_stringbuf@DU?$char_traits@D@std@@V?$allocator@D@2@@std@@MEAAHXZ ; std::basic_stringbuf<char,std::char_traits<char>,std::allocator<char> >::underflow
PUBLIC	?seekoff@?$basic_stringbuf@DU?$char_traits@D@std@@V?$allocator@D@2@@std@@MEAA?AV?$fpos@U_Mbstatet@@@2@_JHH@Z ; std::basic_stringbuf<char,std::char_traits<char>,std::allocator<char> >::seekoff
PUBLIC	?seekpos@?$basic_stringbuf@DU?$char_traits@D@std@@V?$allocator@D@2@@std@@MEAA?AV?$fpos@U_Mbstatet@@@2@V32@H@Z ; std::basic_stringbuf<char,std::char_traits<char>,std::allocator<char> >::seekpos
PUBLIC	?_Tidy@?$basic_stringbuf@DU?$char_traits@D@std@@V?$allocator@D@2@@std@@IEAAXXZ ; std::basic_stringbuf<char,std::char_traits<char>,std::allocator<char> >::_Tidy
PUBLIC	?_Getstate@?$basic_stringbuf@DU?$char_traits@D@std@@V?$allocator@D@2@@std@@CAHH@Z ; std::basic_stringbuf<char,std::char_traits<char>,std::allocator<char> >::_Getstate
PUBLIC	??_G?$basic_stringbuf@DU?$char_traits@D@std@@V?$allocator@D@2@@std@@UEAAPEAXI@Z ; std::basic_stringbuf<char,std::char_traits<char>,std::allocator<char> >::`scalar deleting destructor'
PUBLIC	??_G?$basic_stringstream@DU?$char_traits@D@std@@V?$allocator@D@2@@std@@UEAAPEAXI@Z ; std::basic_stringstream<char,std::char_traits<char>,std::allocator<char> >::`scalar deleting destructor'
PUBLIC	??_D?$basic_stringstream@DU?$char_traits@D@std@@V?$allocator@D@2@@std@@QEAAXXZ ; std::basic_stringstream<char,std::char_traits<char>,std::allocator<char> >::`vbase destructor'
PUBLIC	?deallocate@?$allocator@UVertex@@@std@@QEAAXQEAUVertex@@_K@Z ; std::allocator<Vertex>::deallocate
PUBLIC	??1?$vector@UVertex@@V?$allocator@UVertex@@@std@@@std@@QEAA@XZ ; std::vector<Vertex,std::allocator<Vertex> >::~vector<Vertex,std::allocator<Vertex> >
PUBLIC	?data@?$vector@UVertex@@V?$allocator@UVertex@@@std@@@std@@QEAAPEAUVertex@@XZ ; std::vector<Vertex,std::allocator<Vertex> >::data
PUBLIC	?size@?$vector@UVertex@@V?$allocator@UVertex@@@std@@@std@@QEBA_KXZ ; std::vector<Vertex,std::allocator<Vertex> >::size
PUBLIC	?_Tidy@?$vector@UVertex@@V?$allocator@UVertex@@@std@@@std@@AEAAXXZ ; std::vector<Vertex,std::allocator<Vertex> >::_Tidy
PUBLIC	?_Getal@?$vector@UVertex@@V?$allocator@UVertex@@@std@@@std@@AEAAAEAV?$allocator@UVertex@@@2@XZ ; std::vector<Vertex,std::allocator<Vertex> >::_Getal
PUBLIC	?_Get_first@?$_Compressed_pair@V?$allocator@UVertex@@@std@@V?$_Vector_val@U?$_Simple_types@UVertex@@@std@@@2@$00@std@@QEAAAEAV?$allocator@UVertex@@@2@XZ ; std::_Compressed_pair<std::allocator<Vertex>,std::_Vector_val<std::_Simple_types<Vertex> >,1>::_Get_first
PUBLIC	??0?$_List_unchecked_const_iterator@V?$_List_val@U?$_List_simple_types@U?$pair@$$CBV?$basic_string@DU?$char_traits@D@std@@V?$allocator@D@2@@std@@PEAVInstance@@@std@@@std@@@std@@U_Iterator_base0@2@@std@@QEAA@PEAU?$_List_node@U?$pair@$$CBV?$basic_string@DU?$char_traits@D@std@@V?$allocator@D@2@@std@@PEAVInstance@@@std@@PEAX@1@PEBV?$_List_val@U?$_List_simple_types@U?$pair@$$CBV?$basic_string@DU?$char_traits@D@std@@V?$allocator@D@2@@std@@PEAVInstance@@@std@@@std@@@1@@Z ; std::_List_unchecked_const_iterator<std::_List_val<std::_List_simple_types<std::pair<std::basic_string<char,std::char_traits<char>,std::allocator<char> > const ,Instance *> > >,std::_Iterator_base0>::_List_unchecked_const_iterator<std::_List_val<std::_List_simple_types<std::pair<std::basic_string<char,std::char_traits<char>,std::allocator<char> > const ,Instance *> > >,std::_Iterator_base0>
PUBLIC	??D?$_List_unchecked_const_iterator@V?$_List_val@U?$_List_simple_types@U?$pair@$$CBV?$basic_string@DU?$char_traits@D@std@@V?$allocator@D@2@@std@@PEAVInstance@@@std@@@std@@@std@@U_Iterator_base0@2@@std@@QEBAAEBU?$pair@$$CBV?$basic_string@DU?$char_traits@D@std@@V?$allocator@D@2@@std@@PEAVInstance@@@1@XZ ; std::_List_unchecked_const_iterator<std::_List_val<std::_List_simple_types<std::pair<std::basic_string<char,std::char_traits<char>,std::allocator<char> > const ,Instance *> > >,std::_Iterator_base0>::operator*
PUBLIC	??E?$_List_unchecked_const_iterator@V?$_List_val@U?$_List_simple_types@U?$pair@$$CBV?$basic_string@DU?$char_traits@D@std@@V?$allocator@D@2@@std@@PEAVInstance@@@std@@@std@@@std@@U_Iterator_base0@2@@std@@QEAAAEAV01@XZ ; std::_List_unchecked_const_iterator<std::_List_val<std::_List_simple_types<std::pair<std::basic_string<char,std::char_traits<char>,std::allocator<char> > const ,Instance *> > >,std::_Iterator_base0>::operator++
PUBLIC	??8?$_List_unchecked_const_iterator@V?$_List_val@U?$_List_simple_types@U?$pair@$$CBV?$basic_string@DU?$char_traits@D@std@@V?$allocator@D@2@@std@@PEAVInstance@@@std@@@std@@@std@@U_Iterator_base0@2@@std@@QEBA_NAEBV01@@Z ; std::_List_unchecked_const_iterator<std::_List_val<std::_List_simple_types<std::pair<std::basic_string<char,std::char_traits<char>,std::allocator<char> > const ,Instance *> > >,std::_Iterator_base0>::operator==
PUBLIC	??$get@$0A@$$CBV?$basic_string@DU?$char_traits@D@std@@V?$allocator@D@2@@std@@PEAVInstance@@@std@@YAAEBV?$basic_string@DU?$char_traits@D@std@@V?$allocator@D@2@@0@AEBU?$pair@$$CBV?$basic_string@DU?$char_traits@D@std@@V?$allocator@D@2@@std@@PEAVInstance@@@0@@Z ; std::get<0,std::basic_string<char,std::char_traits<char>,std::allocator<char> > const ,Instance *>
PUBLIC	??$get@$00$$CBV?$basic_string@DU?$char_traits@D@std@@V?$allocator@D@2@@std@@PEAVInstance@@@std@@YAAEBQEAVInstance@@AEBU?$pair@$$CBV?$basic_string@DU?$char_traits@D@std@@V?$allocator@D@2@@std@@PEAVInstance@@@0@@Z ; std::get<1,std::basic_string<char,std::char_traits<char>,std::allocator<char> > const ,Instance *>
PUBLIC	??$_Get_index@$0A@@id@locale@std@@QEAA_KXZ	; std::locale::id::_Get_index<0>
PUBLIC	??R?$default_delete@V_Facet_base@std@@@std@@QEBAXPEAV_Facet_base@1@@Z ; std::default_delete<std::_Facet_base>::operator()
PUBLIC	??1?$unique_ptr@V_Facet_base@std@@U?$default_delete@V_Facet_base@std@@@2@@std@@QEAA@XZ ; std::unique_ptr<std::_Facet_base,std::default_delete<std::_Facet_base> >::~unique_ptr<std::_Facet_base,std::default_delete<std::_Facet_base> >
PUBLIC	?release@?$unique_ptr@V_Facet_base@std@@U?$default_delete@V_Facet_base@std@@@2@@std@@QEAAPEAV_Facet_base@2@XZ ; std::unique_ptr<std::_Facet_base,std::default_delete<std::_Facet_base> >::release
PUBLIC	?_Get_first@?$_Compressed_pair@U?$default_delete@V_Facet_base@std@@@std@@PEAV_Facet_base@2@$00@std@@QEAAAEAU?$default_delete@V_Facet_base@std@@@2@XZ ; std::_Compressed_pair<std::default_delete<std::_Facet_base>,std::_Facet_base *,1>::_Get_first
PUBLIC	??$?0U?$default_delete@V_Facet_base@std@@@std@@$0A@@?$unique_ptr@V_Facet_base@std@@U?$default_delete@V_Facet_base@std@@@2@@std@@QEAA@PEAV_Facet_base@1@@Z ; std::unique_ptr<std::_Facet_base,std::default_delete<std::_Facet_base> >::unique_ptr<std::_Facet_base,std::default_delete<std::_Facet_base> ><std::default_delete<std::_Facet_base>,0>
PUBLIC	??$_Unfancy_maybe_null@I@std@@YAPEAIPEAI@Z	; std::_Unfancy_maybe_null<unsigned int>
PUBLIC	??$move@AEAI@std@@YA$$QEAIAEAI@Z		; std::move<unsigned int &>
PUBLIC	??$_Emplace_one_at_back@I@?$vector@IV?$allocator@I@std@@@std@@AEAAAEAI$$QEAI@Z ; std::vector<unsigned int,std::allocator<unsigned int> >::_Emplace_one_at_back<unsigned int>
PUBLIC	??$_Unfancy_maybe_null@UVertex@@@std@@YAPEAUVertex@@PEAU1@@Z ; std::_Unfancy_maybe_null<Vertex>
PUBLIC	??$_Unfancy@D@std@@YAPEADPEAD@Z			; std::_Unfancy<char>
PUBLIC	??R<lambda_1>@?1??push_back@?$basic_string@DU?$char_traits@D@std@@V?$allocator@D@2@@std@@QEAAXD@Z@SA@QEADQEBD_KD@Z ; `std::basic_string<char,std::char_traits<char>,std::allocator<char> >::push_back'::`2'::<lambda_1>::operator()
PUBLIC	??$_Reallocate_grow_by@V<lambda_1>@?1??push_back@?$basic_string@DU?$char_traits@D@std@@V?$allocator@D@2@@std@@QEAAXD@Z@D@?$basic_string@DU?$char_traits@D@std@@V?$allocator@D@2@@std@@AEAAAEAV01@_KV<lambda_1>@?1??push_back@01@QEAAXD@Z@D@Z ; std::basic_string<char,std::char_traits<char>,std::allocator<char> >::_Reallocate_grow_by<`std::basic_string<char,std::char_traits<char>,std::allocator<char> >::push_back'::`2'::<lambda_1>,char>
PUBLIC	??$_Convert_size@_K_K@std@@YA_K_K@Z		; std::_Convert_size<unsigned __int64,unsigned __int64>
PUBLIC	??$addressof@V?$basic_string@DU?$char_traits@D@std@@V?$allocator@D@2@@std@@@std@@YAPEAV?$basic_string@DU?$char_traits@D@std@@V?$allocator@D@2@@0@AEAV10@@Z ; std::addressof<std::basic_string<char,std::char_traits<char>,std::allocator<char> > >
PUBLIC	??$_Pocma@V?$allocator@D@std@@@std@@YAXAEAV?$allocator@D@0@0@Z ; std::_Pocma<std::allocator<char> >
PUBLIC	??$move@AEAV?$allocator@D@std@@@std@@YA$$QEAV?$allocator@D@0@AEAV10@@Z ; std::move<std::allocator<char> &>
PUBLIC	??$?0V?$allocator@D@std@@$$V@?$_Compressed_pair@V?$allocator@D@std@@V?$_String_val@U?$_Simple_types@D@std@@@2@$00@std@@QEAA@U_One_then_variadic_args_t@1@$$QEAV?$allocator@D@1@@Z ; std::_Compressed_pair<std::allocator<char>,std::_String_val<std::_Simple_types<char> >,1>::_Compressed_pair<std::allocator<char>,std::_String_val<std::_Simple_types<char> >,1><std::allocator<char> >
PUBLIC	??$_Get_proxy_allocator@V?$allocator@D@std@@@std@@YA?AU_Fake_allocator@0@AEBV?$allocator@D@0@@Z ; std::_Get_proxy_allocator<std::allocator<char> >
PUBLIC	??$?0$$V@?$_Compressed_pair@V?$allocator@D@std@@V?$_String_val@U?$_Simple_types@D@std@@@2@$00@std@@QEAA@U_Zero_then_variadic_args_t@1@@Z ; std::_Compressed_pair<std::allocator<char>,std::_String_val<std::_Simple_types<char> >,1>::_Compressed_pair<std::allocator<char>,std::_String_val<std::_Simple_types<char> >,1><>
PUBLIC	??$_Construct@$00PEBD@?$basic_string@DU?$char_traits@D@std@@V?$allocator@D@2@@std@@AEAAXQEBD_K@Z ; std::basic_string<char,std::char_traits<char>,std::allocator<char> >::_Construct<1,char const *>
PUBLIC	??0?$fpos@U_Mbstatet@@@std@@QEAA@_J@Z		; std::fpos<_Mbstatet>::fpos<_Mbstatet>
PUBLIC	??0?$fpos@U_Mbstatet@@@std@@QEAA@U_Mbstatet@@_J@Z ; std::fpos<_Mbstatet>::fpos<_Mbstatet>
PUBLIC	?state@?$fpos@U_Mbstatet@@@std@@QEBA?AU_Mbstatet@@XZ ; std::fpos<_Mbstatet>::state
PUBLIC	??B?$fpos@U_Mbstatet@@@std@@QEBA_JXZ		; std::fpos<_Mbstatet>::operator __int64
PUBLIC	??$addressof@$$CBV?$basic_filebuf@DU?$char_traits@D@std@@@std@@@std@@YAPEBV?$basic_filebuf@DU?$char_traits@D@std@@@0@AEBV10@@Z ; std::addressof<std::basic_filebuf<char,std::char_traits<char> > const >
PUBLIC	??$addressof@V?$basic_filebuf@DU?$char_traits@D@std@@@std@@@std@@YAPEAV?$basic_filebuf@DU?$char_traits@D@std@@@0@AEAV10@@Z ; std::addressof<std::basic_filebuf<char,std::char_traits<char> > >
PUBLIC	??$use_facet@V?$codecvt@DDU_Mbstatet@@@std@@@std@@YAAEBV?$codecvt@DDU_Mbstatet@@@0@AEBVlocale@0@@Z ; std::use_facet<std::codecvt<char,char,_Mbstatet> >
PUBLIC	??$addressof@V?$basic_stringbuf@DU?$char_traits@D@std@@V?$allocator@D@2@@std@@@std@@YAPEAV?$basic_stringbuf@DU?$char_traits@D@std@@V?$allocator@D@2@@0@AEAV10@@Z ; std::addressof<std::basic_stringbuf<char,std::char_traits<char>,std::allocator<char> > >
PUBLIC	??$max@PEAD@std@@YAAEBQEADAEBQEAD0@Z		; std::max<char *>
PUBLIC	??$_Allocate_at_least_helper@V?$allocator@D@std@@@std@@YAPEADAEAV?$allocator@D@0@AEA_K@Z ; std::_Allocate_at_least_helper<std::allocator<char> >
PUBLIC	?pointer_to@?$pointer_traits@PEAD@std@@SAPEADAEAD@Z ; std::pointer_traits<char *>::pointer_to
PUBLIC	??$?0AEBV?$allocator@D@std@@$$V@?$_Compressed_pair@V?$allocator@D@std@@V?$_String_val@U?$_Simple_types@D@std@@@2@$00@std@@QEAA@U_One_then_variadic_args_t@1@AEBV?$allocator@D@1@@Z ; std::_Compressed_pair<std::allocator<char>,std::_String_val<std::_Simple_types<char> >,1>::_Compressed_pair<std::allocator<char>,std::_String_val<std::_Simple_types<char> >,1><std::allocator<char> const &>
PUBLIC	??$?0AEAPEAV_Facet_base@std@@@?$_Compressed_pair@U?$default_delete@V_Facet_base@std@@@std@@PEAV_Facet_base@2@$00@std@@QEAA@U_Zero_then_variadic_args_t@1@AEAPEAV_Facet_base@1@@Z ; std::_Compressed_pair<std::default_delete<std::_Facet_base>,std::_Facet_base *,1>::_Compressed_pair<std::default_delete<std::_Facet_base>,std::_Facet_base *,1><std::_Facet_base * &>
PUBLIC	??$_Allocate_for_capacity@$0A@@?$basic_string@DU?$char_traits@D@std@@V?$allocator@D@2@@std@@CAPEADAEAV?$allocator@D@1@AEA_K@Z ; std::basic_string<char,std::char_traits<char>,std::allocator<char> >::_Allocate_for_capacity<0>
PUBLIC	??$construct_at@D$$V@std@@YAPEADQEAD@Z		; std::construct_at<char>
PUBLIC	??$_Construct_in_place@PEADAEBQEAD@std@@YAXAEAPEADAEBQEAD@Z ; std::_Construct_in_place<char *,char * const &>
PUBLIC	??$max@_K@std@@YAAEB_KAEB_K0@Z			; std::max<unsigned __int64>
PUBLIC	??$forward@I@std@@YA$$QEAIAEAI@Z		; std::forward<unsigned int>
PUBLIC	??$_Emplace_back_with_unused_capacity@I@?$vector@IV?$allocator@I@std@@@std@@AEAAAEAI$$QEAI@Z ; std::vector<unsigned int,std::allocator<unsigned int> >::_Emplace_back_with_unused_capacity<unsigned int>
PUBLIC	??$_Emplace_reallocate@I@?$vector@IV?$allocator@I@std@@@std@@AEAAPEAIQEAI$$QEAI@Z ; std::vector<unsigned int,std::allocator<unsigned int> >::_Emplace_reallocate<unsigned int>
PUBLIC	??$_Traits_move_batch@U?$char_traits@D@std@@D@std@@YAXQEADQEBD_K@Z ; std::_Traits_move_batch<std::char_traits<char>,char>
PUBLIC	??$_Traits_copy_batch@U?$char_traits@D@std@@D@std@@YAXQEADQEBD_K@Z ; std::_Traits_copy_batch<std::char_traits<char>,char>
PUBLIC	??$forward@V?$allocator@D@std@@@std@@YA$$QEAV?$allocator@D@0@AEAV10@@Z ; std::forward<std::allocator<char> >
PUBLIC	??$addressof@D@std@@YAPEADAEAD@Z		; std::addressof<char>
PUBLIC	??$_Destroy_range@V?$allocator@UVertex@@@std@@@std@@YAXPEAUVertex@@QEAU1@AEAV?$allocator@UVertex@@@0@@Z ; std::_Destroy_range<std::allocator<Vertex> >
PUBLIC	??$addressof@V?$basic_ostream@DU?$char_traits@D@std@@@std@@@std@@YAPEAV?$basic_ostream@DU?$char_traits@D@std@@@0@AEAV10@@Z ; std::addressof<std::basic_ostream<char,std::char_traits<char> > >
PUBLIC	??$exchange@PEAV_Facet_base@std@@$$T@std@@YAPEAV_Facet_base@0@AEAPEAV10@$$QEA$$T@Z ; std::exchange<std::_Facet_base *,std::nullptr_t>
PUBLIC	??$addressof@V?$_String_val@U?$_Simple_types@D@std@@@std@@@std@@YAPEAV?$_String_val@U?$_Simple_types@D@std@@@0@AEAV10@@Z ; std::addressof<std::_String_val<std::_Simple_types<char> > >
PUBLIC	??$_Construct_in_place@PEADAEAPEAD@std@@YAXAEAPEAD0@Z ; std::_Construct_in_place<char *,char * &>
PUBLIC	??$addressof@$$CBV?$codecvt@DDU_Mbstatet@@@std@@@std@@YAPEBV?$codecvt@DDU_Mbstatet@@@0@AEBV10@@Z ; std::addressof<std::codecvt<char,char,_Mbstatet> const >
PUBLIC	??$_Get_size_of_n@$00@std@@YA_K_K@Z		; std::_Get_size_of_n<1>
PUBLIC	??$_Allocate@$0BA@U_Default_allocate_traits@std@@@std@@YAPEAX_K@Z ; std::_Allocate<16,std::_Default_allocate_traits>
PUBLIC	??$_Deallocate@$0BA@@std@@YAXPEAX_K@Z		; std::_Deallocate<16>
PUBLIC	??$forward@AEBV?$allocator@D@std@@@std@@YAAEBV?$allocator@D@0@AEBV10@@Z ; std::forward<std::allocator<char> const &>
PUBLIC	??$forward@AEAPEAV_Facet_base@std@@@std@@YAAEAPEAV_Facet_base@0@AEAPEAV10@@Z ; std::forward<std::_Facet_base * &>
PUBLIC	??$forward@AEAPEAD@std@@YAAEAPEADAEAPEAD@Z	; std::forward<char * &>
PUBLIC	??$addressof@PEAD@std@@YAPEAPEADAEAPEAD@Z	; std::addressof<char *>
PUBLIC	??$forward@AEBQEAD@std@@YAAEBQEADAEBQEAD@Z	; std::forward<char * const &>
PUBLIC	??$construct_at@PEADAEBQEAD@std@@YAPEAPEADQEAPEADAEBQEAD@Z ; std::construct_at<char *,char * const &>
PUBLIC	??$_Construct_in_place@II@std@@YAXAEAI$$QEAI@Z	; std::_Construct_in_place<unsigned int,unsigned int>
PUBLIC	??$_Allocate_at_least_helper@V?$allocator@I@std@@@std@@YAPEAIAEAV?$allocator@I@0@AEA_K@Z ; std::_Allocate_at_least_helper<std::allocator<unsigned int> >
PUBLIC	??1_Reallocation_guard@?$vector@IV?$allocator@I@std@@@std@@QEAA@XZ ; std::vector<unsigned int,std::allocator<unsigned int> >::_Reallocation_guard::~_Reallocation_guard
PUBLIC	??$_Unfancy@I@std@@YAPEAIPEAI@Z			; std::_Unfancy<unsigned int>
PUBLIC	??$construct@II@?$_Default_allocator_traits@V?$allocator@I@std@@@std@@SAXAEAV?$allocator@I@1@QEAI$$QEAI@Z ; std::_Default_allocator_traits<std::allocator<unsigned int> >::construct<unsigned int,unsigned int>
PUBLIC	??$_Uninitialized_move@PEAIV?$allocator@I@std@@@std@@YAPEAIQEAI0PEAIAEAV?$allocator@I@0@@Z ; std::_Uninitialized_move<unsigned int *,std::allocator<unsigned int> >
PUBLIC	??$construct_at@PEADAEAPEAD@std@@YAPEAPEADQEAPEADAEAPEAD@Z ; std::construct_at<char *,char * &>
PUBLIC	??$_Allocate_manually_vector_aligned@U_Default_allocate_traits@std@@@std@@YAPEAX_K@Z ; std::_Allocate_manually_vector_aligned<std::_Default_allocate_traits>
PUBLIC	??$_Destroy_in_place@PEAD@std@@YAXAEAPEAD@Z	; std::_Destroy_in_place<char *>
PUBLIC	??$_Assign@D@?$basic_string@DU?$char_traits@D@std@@V?$allocator@D@2@@std@@AEAAAEAV01@QEBD_K@Z ; std::basic_string<char,std::char_traits<char>,std::allocator<char> >::_Assign<char>
PUBLIC	??$addressof@I@std@@YAPEAIAEAI@Z		; std::addressof<unsigned int>
PUBLIC	??$construct_at@II@std@@YAPEAIQEAI$$QEAI@Z	; std::construct_at<unsigned int,unsigned int>
PUBLIC	??$_Get_unwrapped@AEBQEAI@std@@YA?A_TAEBQEAI@Z	; std::_Get_unwrapped<unsigned int * const &>
PUBLIC	??$_Copy_memmove@PEAIPEAI@std@@YAPEAIPEAI00@Z	; std::_Copy_memmove<unsigned int *,unsigned int *>
PUBLIC	??0?$_Uninitialized_backout_al@V?$allocator@I@std@@@std@@QEAA@PEAIAEAV?$allocator@I@1@@Z ; std::_Uninitialized_backout_al<std::allocator<unsigned int> >::_Uninitialized_backout_al<std::allocator<unsigned int> >
PUBLIC	??1?$_Uninitialized_backout_al@V?$allocator@I@std@@@std@@QEAA@XZ ; std::_Uninitialized_backout_al<std::allocator<unsigned int> >::~_Uninitialized_backout_al<std::allocator<unsigned int> >
PUBLIC	?_Release@?$_Uninitialized_backout_al@V?$allocator@I@std@@@std@@QEAAPEAIXZ ; std::_Uninitialized_backout_al<std::allocator<unsigned int> >::_Release
PUBLIC	??$_Emplace_back@I@?$_Uninitialized_backout_al@V?$allocator@I@std@@@std@@QEAAX$$QEAI@Z ; std::_Uninitialized_backout_al<std::allocator<unsigned int> >::_Emplace_back<unsigned int>
PUBLIC	??R<lambda_1>@?1???$_Assign@D@?$basic_string@DU?$char_traits@D@std@@V?$allocator@D@2@@std@@AEAAAEAV12@QEBD_K@Z@SA@QEAD10@Z ; `std::basic_string<char,std::char_traits<char>,std::allocator<char> >::_Assign<char>'::`2'::<lambda_1>::operator()
PUBLIC	??$_Reallocate_for@V<lambda_1>@?1???$_Assign@D@?$basic_string@DU?$char_traits@D@std@@V?$allocator@D@2@@std@@AEAAAEAV23@QEBD_K@Z@PEBD@?$basic_string@DU?$char_traits@D@std@@V?$allocator@D@2@@std@@AEAAAEAV01@_KV<lambda_1>@?1???$_Assign@D@01@AEAAAEAV01@QEBD0@Z@PEBD@Z ; std::basic_string<char,std::char_traits<char>,std::allocator<char> >::_Reallocate_for<`std::basic_string<char,std::char_traits<char>,std::allocator<char> >::_Assign<char>'::`2'::<lambda_1>,char const *>
PUBLIC	??$_Destroy_range@V?$allocator@I@std@@@std@@YAXPEAIQEAIAEAV?$allocator@I@0@@Z ; std::_Destroy_range<std::allocator<unsigned int> >
PUBLIC	??$_Get_size_of_n@$03@std@@YA_K_K@Z		; std::_Get_size_of_n<4>
PUBLIC	??$_To_address@PEAI@std@@YA?A_PAEBQEAI@Z	; std::_To_address<unsigned int *>
PUBLIC	??$to_address@I@std@@YAPEAIQEAI@Z		; std::to_address<unsigned int>
PUBLIC	??$move@AEAPEAI@std@@YA$$QEAPEAIAEAPEAI@Z	; std::move<unsigned int * &>
PUBLIC	??$_Copy_memmove_tail@PEAI@std@@YAPEAIQEBDQEAI_K2@Z ; std::_Copy_memmove_tail<unsigned int *>
PUBLIC	??_E?$basic_stringstream@DU?$char_traits@D@std@@V?$allocator@D@2@@std@@$4PPPPPPPM@A@EAAPEAXI@Z ; std::basic_stringstream<char,std::char_traits<char>,std::allocator<char> >::`vector deleting destructor'
PUBLIC	??_E?$basic_ifstream@DU?$char_traits@D@std@@@std@@$4PPPPPPPM@A@EAAPEAXI@Z ; std::basic_ifstream<char,std::char_traits<char> >::`vector deleting destructor'
PUBLIC	??_7exception@std@@6B@				; std::exception::`vftable'
PUBLIC	??_C@_0BC@EOODALEL@Unknown?5exception@		; `string'
PUBLIC	??_7bad_alloc@std@@6B@				; std::bad_alloc::`vftable'
PUBLIC	??_7bad_array_new_length@std@@6B@		; std::bad_array_new_length::`vftable'
PUBLIC	??_C@_0BF@KINCDENJ@bad?5array?5new?5length@	; `string'
PUBLIC	??_R0?AVexception@std@@@8			; std::exception `RTTI Type Descriptor'
PUBLIC	_CT??_R0?AVexception@std@@@8??0exception@std@@QEAA@AEBV01@@Z24
PUBLIC	_TI3?AVbad_array_new_length@std@@
PUBLIC	_CTA3?AVbad_array_new_length@std@@
PUBLIC	??_R0?AVbad_array_new_length@std@@@8		; std::bad_array_new_length `RTTI Type Descriptor'
PUBLIC	_CT??_R0?AVbad_array_new_length@std@@@8??0bad_array_new_length@std@@QEAA@AEBV01@@Z24
PUBLIC	??_R0?AVbad_alloc@std@@@8			; std::bad_alloc `RTTI Type Descriptor'
PUBLIC	_CT??_R0?AVbad_alloc@std@@@8??0bad_alloc@std@@QEAA@AEBV01@@Z24
PUBLIC	??_C@_0BA@JFNIOLAK@string?5too?5long@		; `string'
PUBLIC	??_7bad_cast@std@@6B@				; std::bad_cast::`vftable'
PUBLIC	??_C@_08EPJLHIJG@bad?5cast@			; `string'
PUBLIC	_TI2?AVbad_cast@std@@
PUBLIC	_CTA2?AVbad_cast@std@@
PUBLIC	??_R0?AVbad_cast@std@@@8			; std::bad_cast `RTTI Type Descriptor'
PUBLIC	_CT??_R0?AVbad_cast@std@@@8??0bad_cast@std@@QEAA@AEBV01@@Z24
PUBLIC	??_C@_00CNPNBAHC@@				; `string'
PUBLIC	??_C@_0BD@CBEDEJPH@unknown?5image?5type@	; `string'
PUBLIC	??_C@_08NOGIMCHF@outofmem@			; `string'
PUBLIC	??_C@_02JDPG@rb@				; `string'
PUBLIC	??_C@_0M@JPDHFAGK@can?8t?5fopen@		; `string'
PUBLIC	??_C@_0M@MHDBFHD@unsupported@			; `string'
PUBLIC	??_C@_0O@DEFOLMLB@bad?5size?5list@		; `string'
PUBLIC	??_C@_0BB@FOKGPEKG@bad?5code?5lengths@		; `string'
PUBLIC	??_C@_0BB@IIMLINA@bad?5huffman?5code@		; `string'
PUBLIC	??_C@_09IFDKCGFO@bad?5delta@			; `string'
PUBLIC	??_C@_0BG@PJBJDAGM@can?8t?5merge?5dc?5and?5ac@	; `string'
PUBLIC	??_C@_0BA@KLNDOKJD@expected?5marker@		; `string'
PUBLIC	??_C@_0M@LPHNODCG@bad?5DRI?5len@		; `string'
PUBLIC	??_C@_0N@BOFJCHAP@bad?5DQT?5type@		; `string'
PUBLIC	??_C@_0O@CNHKKDIM@bad?5DQT?5table@		; `string'
PUBLIC	??_C@_0P@JLGKOCGN@bad?5DHT?5header@		; `string'
PUBLIC	??_C@_0M@CICAFFCH@bad?5COM?5len@		; `string'
PUBLIC	??_C@_0M@EENLKPDI@bad?5APP?5len@		; `string'
PUBLIC	??_C@_0P@NNGPHMMK@unknown?5marker@		; `string'
PUBLIC	??_C@_0BI@DHFJCMBA@bad?5SOS?5component?5count@	; `string'
PUBLIC	??_C@_0M@GNEHAHOH@bad?5SOS?5len@		; `string'
PUBLIC	??_C@_0M@NOCCBFAC@bad?5DC?5huff@		; `string'
PUBLIC	??_C@_0M@JGMCBLGG@bad?5AC?5huff@		; `string'
PUBLIC	??_C@_07EEJOMGGP@bad?5SOS@			; `string'
PUBLIC	??_C@_0M@DOFMJEMP@bad?5SOF?5len@		; `string'
PUBLIC	??_C@_0L@BCINMEBJ@only?58?9bit@			; `string'
PUBLIC	??_C@_0BB@LNEGOMA@no?5header?5height@		; `string'
PUBLIC	??_C@_07BIDACDEF@0?5width@			; `string'
PUBLIC	??_C@_09OJDLMMBJ@too?5large@			; `string'
PUBLIC	??_C@_0BE@DAPHADHL@bad?5component?5count@	; `string'
PUBLIC	??_C@_05BLPKENEJ@bad?5H@			; `string'
PUBLIC	??_C@_05MPLLHCJG@bad?5V@			; `string'
PUBLIC	??_C@_06LJIHDFHI@bad?5TQ@			; `string'
PUBLIC	??_C@_06CLMBLEP@no?5SOI@			; `string'
PUBLIC	??_C@_06IFCEAHIA@no?5SOF@			; `string'
PUBLIC	??_C@_0M@EPMOIECP@bad?5DNL?5len@		; `string'
PUBLIC	??_C@_0P@PNCLKCLJ@bad?5DNL?5height@		; `string'
PUBLIC	??_C@_0N@KBPNPPBJ@bad?5req_comp@		; `string'
PUBLIC	??_C@_09EOHLEIKL@bad?5sizes@			; `string'
PUBLIC	??_C@_0BA@MDNKOBMC@bad?5codelengths@		; `string'
PUBLIC	??_C@_0BE@IBFIPFO@output?5buffer?5limit@	; `string'
PUBLIC	??_C@_0P@CLDJCNKP@unexpected?5end@		; `string'
PUBLIC	??_C@_08DIAPIMGJ@bad?5dist@			; `string'
PUBLIC	??_C@_0N@IECDHMDI@zlib?5corrupt@		; `string'
PUBLIC	??_C@_0BB@PIPBCKIA@read?5past?5buffer@		; `string'
PUBLIC	??_C@_0BA@OBKOPAFL@bad?5zlib?5header@		; `string'
PUBLIC	??_C@_0P@DOGMHEBI@no?5preset?5dict@		; `string'
PUBLIC	??_C@_0BA@MCNBDLPD@bad?5compression@		; `string'
PUBLIC	??_C@_0M@DMDNBACF@bad?5png?5sig@		; `string'
PUBLIC	??_C@_0BC@BHMPBBMG@not?5enough?5pixels@		; `string'
PUBLIC	??_C@_0P@FBBCPGMN@invalid?5filter@		; `string'
PUBLIC	??_C@_0O@KBHBNJOK@multiple?5IHDR@		; `string'
PUBLIC	??_C@_0N@POJLKMKK@bad?5IHDR?5len@		; `string'
PUBLIC	??_C@_0BE@EJHIPKNO@1?12?14?18?116?9bit?5only@	; `string'
PUBLIC	??_C@_09MBBNGCKB@bad?5ctype@			; `string'
PUBLIC	??_C@_0BA@MDMBDDFG@bad?5comp?5method@		; `string'
PUBLIC	??_C@_0BC@GHLIKKMD@bad?5filter?5method@		; `string'
PUBLIC	??_C@_0BF@JCGDPBAA@bad?5interlace?5method@	; `string'
PUBLIC	??_C@_0O@FNFBHCOO@0?9pixel?5image@		; `string'
PUBLIC	??_C@_0P@JEAFOMAF@first?5not?5IHDR@		; `string'
PUBLIC	??_C@_0N@JCPAJAKB@invalid?5PLTE@		; `string'
PUBLIC	??_C@_0BA@PCPJHDKJ@tRNS?5after?5IDAT@		; `string'
PUBLIC	??_C@_0BB@CEDNNLBG@tRNS?5before?5PLTE@		; `string'
PUBLIC	??_C@_0N@KDLCCKCH@bad?5tRNS?5len@		; `string'
PUBLIC	??_C@_0BA@ENDPGCHB@tRNS?5with?5alpha@		; `string'
PUBLIC	??_C@_07CKIELOEH@no?5PLTE@			; `string'
PUBLIC	??_C@_0BA@PLHGLONG@IDAT?5size?5limit@		; `string'
PUBLIC	??_C@_09MNNCNKEO@outofdata@			; `string'
PUBLIC	??_C@_07MLPECBNA@no?5IDAT@			; `string'
PUBLIC	??_C@_0BF@NOEEEFMF@bad?5bits_per_channel@	; `string'
PUBLIC	??_C@_07IANEBNLB@not?5BMP@			; `string'
PUBLIC	??_C@_07IEJCHBDI@bad?5BMP@			; `string'
PUBLIC	??_C@_0M@KHBIBJBG@unknown?5BMP@			; `string'
PUBLIC	??_C@_07IMHMNOIB@BMP?5RLE@			; `string'
PUBLIC	??_C@_0N@ODCBCBFN@BMP?5JPEG?1PNG@		; `string'
PUBLIC	??_C@_0L@PJHPAMCH@bad?5header@			; `string'
PUBLIC	??_C@_0L@JDPIFELH@bad?5offset@			; `string'
PUBLIC	??_C@_07MALOAKCI@invalid@			; `string'
PUBLIC	??_C@_07JNJHIMGH@bad?5bpp@			; `string'
PUBLIC	??_C@_09DAEBACAB@bad?5masks@			; `string'
PUBLIC	??_C@_0L@DMAPJJO@bad?5format@			; `string'
PUBLIC	??_C@_0M@ILLOCNCO@bad?5palette@			; `string'
PUBLIC	??_C@_07ECNCNLIK@not?5PSD@			; `string'
PUBLIC	??_C@_0O@CHBCDKKC@wrong?5version@		; `string'
PUBLIC	??_C@_0BE@PJBNGDBE@wrong?5channel?5count@	; `string'
PUBLIC	??_C@_0BG@NOLDLPP@unsupported?5bit?5depth@	; `string'
PUBLIC	??_C@_0BD@IOGGBMNK@wrong?5color?5format@	; `string'
PUBLIC	??_C@_07DPPMCAKL@corrupt@			; `string'
PUBLIC	??_C@_04KBFEPHFH@S?$IA?v4@			; `string'
PUBLIC	??_C@_04ELNJHLFH@PICT@				; `string'
PUBLIC	??_C@_08GGMBIFE@bad?5file@			; `string'
PUBLIC	??_C@_07KMJLPAII@not?5GIF@			; `string'
PUBLIC	??_C@_0O@MGDACKOJ@no?5clear?5code@		; `string'
PUBLIC	??_C@_0P@GJNJCPDJ@too?5many?5codes@		; `string'
PUBLIC	??_C@_0BH@LOKBIIOJ@illegal?5code?5in?5raster@	; `string'
PUBLIC	??_C@_0BF@GIAALCNJ@bad?5Image?5Descriptor@	; `string'
PUBLIC	??_C@_0BE@NAMJKDNF@missing?5color?5table@	; `string'
PUBLIC	??_C@_0N@DJABBOOH@unknown?5code@		; `string'
PUBLIC	??_C@_0M@HOIDFNFN@?$CD?$DPRADIANCE?6@		; `string'
PUBLIC	??_C@_07KFDJIKCK@?$CD?$DPRGBE?6@		; `string'
PUBLIC	??_C@_0L@NCPEAJBD@?$CD?$DPRADIANCE@		; `string'
PUBLIC	??_C@_06NDOKKIDJ@?$CD?$DPRGBE@			; `string'
PUBLIC	??_C@_07NCIOKENI@not?5HDR@			; `string'
PUBLIC	??_C@_0BH@JFGBLLKC@FORMAT?$DN32?9bit_rle_rgbe@	; `string'
PUBLIC	??_C@_0BD@NKJFFLKL@unsupported?5format@		; `string'
PUBLIC	??_C@_03HKAKGGJN@?9Y?5@				; `string'
PUBLIC	??_C@_0BI@DCNDPIOH@unsupported?5data?5layout@	; `string'
PUBLIC	??_C@_03FOKDFDHG@?$CLX?5@			; `string'
PUBLIC	??_C@_0CA@JBEOCDFN@invalid?5decoded?5scanline?5length@ ; `string'
PUBLIC	??_C@_07IDKIDMGJ@bad?5PNM@			; `string'
PUBLIC	??_C@_0BH@OBINMOBC@integer?5parse?5overflow@	; `string'
PUBLIC	??_C@_0O@MKGNGALN@invalid?5width@		; `string'
PUBLIC	??_C@_0BC@CNFMOKHC@max?5value?5?$DO?565535@	; `string'
PUBLIC	??_7?$basic_filebuf@DU?$char_traits@D@std@@@std@@6B@ ; std::basic_filebuf<char,std::char_traits<char> >::`vftable'
PUBLIC	??_7?$basic_ifstream@DU?$char_traits@D@std@@@std@@6B@ ; std::basic_ifstream<char,std::char_traits<char> >::`vftable'
PUBLIC	??_8?$basic_ifstream@DU?$char_traits@D@std@@@std@@7B@ ; std::basic_ifstream<char,std::char_traits<char> >::`vbtable'
PUBLIC	??_7?$basic_stringbuf@DU?$char_traits@D@std@@V?$allocator@D@2@@std@@6B@ ; std::basic_stringbuf<char,std::char_traits<char>,std::allocator<char> >::`vftable'
PUBLIC	??_7?$basic_stringstream@DU?$char_traits@D@std@@V?$allocator@D@2@@std@@6B@ ; std::basic_stringstream<char,std::char_traits<char>,std::allocator<char> >::`vftable'
PUBLIC	??_8?$basic_stringstream@DU?$char_traits@D@std@@V?$allocator@D@2@@std@@7B?$basic_istream@DU?$char_traits@D@std@@@1@@ ; std::basic_stringstream<char,std::char_traits<char>,std::allocator<char> >::`vbtable'
PUBLIC	??_8?$basic_stringstream@DU?$char_traits@D@std@@V?$allocator@D@2@@std@@7B?$basic_ostream@DU?$char_traits@D@std@@@1@@ ; std::basic_stringstream<char,std::char_traits<char>,std::allocator<char> >::`vbtable'
PUBLIC	??_C@_0BH@IIINHALA@?4?5File?5does?5not?5exist?4@ ; `string'
PUBLIC	??_C@_0BF@HOCAPCAG@Could?5not?5read?5file?5@	; `string'
PUBLIC	??_C@_0BD@KFJJKAHL@Max?5Texture?5Size?3?5@	; `string'
PUBLIC	??_C@_0BA@CFLCHAMN@src?1vertex?4glsl@		; `string'
PUBLIC	??_C@_0BC@LEPJDFEO@src?1fragment?4glsl@		; `string'
PUBLIC	??_C@_0CL@IMDOAFAK@ERROR?3?3SHADER?3?3VERTEX?3?3COMPILAT@ ; `string'
PUBLIC	??_C@_0CN@IFGDDMHF@ERROR?3?3SHADER?3?3FRAGMENT?3?3COMPIL@ ; `string'
PUBLIC	??_C@_0CF@PHFNPJFF@ERROR?3?3SHADER?3?3PROGRAM?3?3LINK_FA@ ; `string'
PUBLIC	??_C@_08EGHFDCKI@lightPos@			; `string'
PUBLIC	??_C@_0L@HNLDIBIB@lightColor@			; `string'
PUBLIC	??_C@_04CHADEDPO@view@				; `string'
PUBLIC	??_C@_0L@PPHAJBEH@projection@			; `string'
PUBLIC	??_C@_07HBJDLKAL@viewPos@			; `string'
PUBLIC	??_C@_05NCCFOPHA@model@				; `string'
PUBLIC	??_C@_08JAMJCLGD@Failed?3?5@			; `string'
PUBLIC	??_C@_03PFKKHNHN@ch?$CJ@			; `string'
PUBLIC	??_C@_02GFKOMOKH@?5?$CI@			; `string'
PUBLIC	??_C@_09DDOBJCBI@Success?3?5@			; `string'
PUBLIC	??_C@_1BK@MHIKGOKE@?$AA?3?$AAA?$AAM?$AA?3?$AAa?$AAm?$AA?3?$AAP?$AAM?$AA?3?$AAp?$AAm@ ; `string'
PUBLIC	??_C@_04CJLGPKHJ@Cube@				; `string'
PUBLIC	?_Psave@?$_Facetptr@V?$codecvt@DDU_Mbstatet@@@std@@@std@@2PEBVfacet@locale@2@EB ; std::_Facetptr<std::codecvt<char,char,_Mbstatet> >::_Psave
PUBLIC	?_Stinit@?1??_Init@?$basic_filebuf@DU?$char_traits@D@std@@@std@@IEAAXPEAU_iobuf@@W4_Initfl@23@@Z@4U_Mbstatet@@A ; `std::basic_filebuf<char,std::char_traits<char> >::_Init'::`2'::_Stinit
PUBLIC	??_C@_0BA@FOIKENOD@vector?5too?5long@		; `string'
PUBLIC	??_C@_0BI@CFPLBAOH@invalid?5string?5position@	; `string'
PUBLIC	??_R4?$basic_stringbuf@DU?$char_traits@D@std@@V?$allocator@D@2@@std@@6B@ ; std::basic_stringbuf<char,std::char_traits<char>,std::allocator<char> >::`RTTI Complete Object Locator'
PUBLIC	??_R0?AV?$basic_stringbuf@DU?$char_traits@D@std@@V?$allocator@D@2@@std@@@8 ; std::basic_stringbuf<char,std::char_traits<char>,std::allocator<char> > `RTTI Type Descriptor'
PUBLIC	??_R3?$basic_stringbuf@DU?$char_traits@D@std@@V?$allocator@D@2@@std@@8 ; std::basic_stringbuf<char,std::char_traits<char>,std::allocator<char> >::`RTTI Class Hierarchy Descriptor'
PUBLIC	??_R2?$basic_stringbuf@DU?$char_traits@D@std@@V?$allocator@D@2@@std@@8 ; std::basic_stringbuf<char,std::char_traits<char>,std::allocator<char> >::`RTTI Base Class Array'
PUBLIC	??_R1A@?0A@EA@?$basic_stringbuf@DU?$char_traits@D@std@@V?$allocator@D@2@@std@@8 ; std::basic_stringbuf<char,std::char_traits<char>,std::allocator<char> >::`RTTI Base Class Descriptor at (0,-1,0,64)'
PUBLIC	??_R1A@?0A@EA@?$basic_streambuf@DU?$char_traits@D@std@@@std@@8 ; std::basic_streambuf<char,std::char_traits<char> >::`RTTI Base Class Descriptor at (0,-1,0,64)'
PUBLIC	??_R0?AV?$basic_streambuf@DU?$char_traits@D@std@@@std@@@8 ; std::basic_streambuf<char,std::char_traits<char> > `RTTI Type Descriptor'
PUBLIC	??_R3?$basic_streambuf@DU?$char_traits@D@std@@@std@@8 ; std::basic_streambuf<char,std::char_traits<char> >::`RTTI Class Hierarchy Descriptor'
PUBLIC	??_R2?$basic_streambuf@DU?$char_traits@D@std@@@std@@8 ; std::basic_streambuf<char,std::char_traits<char> >::`RTTI Base Class Array'
PUBLIC	??_R4?$basic_stringstream@DU?$char_traits@D@std@@V?$allocator@D@2@@std@@6B@ ; std::basic_stringstream<char,std::char_traits<char>,std::allocator<char> >::`RTTI Complete Object Locator'
PUBLIC	??_R0?AV?$basic_stringstream@DU?$char_traits@D@std@@V?$allocator@D@2@@std@@@8 ; std::basic_stringstream<char,std::char_traits<char>,std::allocator<char> > `RTTI Type Descriptor'
PUBLIC	??_R3?$basic_stringstream@DU?$char_traits@D@std@@V?$allocator@D@2@@std@@8 ; std::basic_stringstream<char,std::char_traits<char>,std::allocator<char> >::`RTTI Class Hierarchy Descriptor'
PUBLIC	??_R2?$basic_stringstream@DU?$char_traits@D@std@@V?$allocator@D@2@@std@@8 ; std::basic_stringstream<char,std::char_traits<char>,std::allocator<char> >::`RTTI Base Class Array'
PUBLIC	??_R1A@?0A@EA@?$basic_stringstream@DU?$char_traits@D@std@@V?$allocator@D@2@@std@@8 ; std::basic_stringstream<char,std::char_traits<char>,std::allocator<char> >::`RTTI Base Class Descriptor at (0,-1,0,64)'
PUBLIC	??_R1A@?0A@EA@?$basic_iostream@DU?$char_traits@D@std@@@std@@8 ; std::basic_iostream<char,std::char_traits<char> >::`RTTI Base Class Descriptor at (0,-1,0,64)'
PUBLIC	??_R0?AV?$basic_iostream@DU?$char_traits@D@std@@@std@@@8 ; std::basic_iostream<char,std::char_traits<char> > `RTTI Type Descriptor'
PUBLIC	??_R3?$basic_iostream@DU?$char_traits@D@std@@@std@@8 ; std::basic_iostream<char,std::char_traits<char> >::`RTTI Class Hierarchy Descriptor'
PUBLIC	??_R2?$basic_iostream@DU?$char_traits@D@std@@@std@@8 ; std::basic_iostream<char,std::char_traits<char> >::`RTTI Base Class Array'
PUBLIC	??_R1A@?0A@EA@?$basic_istream@DU?$char_traits@D@std@@@std@@8 ; std::basic_istream<char,std::char_traits<char> >::`RTTI Base Class Descriptor at (0,-1,0,64)'
PUBLIC	??_R0?AV?$basic_istream@DU?$char_traits@D@std@@@std@@@8 ; std::basic_istream<char,std::char_traits<char> > `RTTI Type Descriptor'
PUBLIC	??_R3?$basic_istream@DU?$char_traits@D@std@@@std@@8 ; std::basic_istream<char,std::char_traits<char> >::`RTTI Class Hierarchy Descriptor'
PUBLIC	??_R2?$basic_istream@DU?$char_traits@D@std@@@std@@8 ; std::basic_istream<char,std::char_traits<char> >::`RTTI Base Class Array'
PUBLIC	??_R1A@A@3FA@?$basic_ios@DU?$char_traits@D@std@@@std@@8 ; std::basic_ios<char,std::char_traits<char> >::`RTTI Base Class Descriptor at (0,0,4,80)'
PUBLIC	??_R0?AV?$basic_ios@DU?$char_traits@D@std@@@std@@@8 ; std::basic_ios<char,std::char_traits<char> > `RTTI Type Descriptor'
PUBLIC	??_R3?$basic_ios@DU?$char_traits@D@std@@@std@@8	; std::basic_ios<char,std::char_traits<char> >::`RTTI Class Hierarchy Descriptor'
PUBLIC	??_R2?$basic_ios@DU?$char_traits@D@std@@@std@@8	; std::basic_ios<char,std::char_traits<char> >::`RTTI Base Class Array'
PUBLIC	??_R1A@?0A@EA@?$basic_ios@DU?$char_traits@D@std@@@std@@8 ; std::basic_ios<char,std::char_traits<char> >::`RTTI Base Class Descriptor at (0,-1,0,64)'
PUBLIC	??_R1A@?0A@EA@ios_base@std@@8			; std::ios_base::`RTTI Base Class Descriptor at (0,-1,0,64)'
PUBLIC	??_R0?AVios_base@std@@@8			; std::ios_base `RTTI Type Descriptor'
PUBLIC	??_R3ios_base@std@@8				; std::ios_base::`RTTI Class Hierarchy Descriptor'
PUBLIC	??_R2ios_base@std@@8				; std::ios_base::`RTTI Base Class Array'
PUBLIC	??_R17?0A@EA@?$_Iosb@H@std@@8			; std::_Iosb<int>::`RTTI Base Class Descriptor at (8,-1,0,64)'
PUBLIC	??_R0?AV?$_Iosb@H@std@@@8			; std::_Iosb<int> `RTTI Type Descriptor'
PUBLIC	??_R3?$_Iosb@H@std@@8				; std::_Iosb<int>::`RTTI Class Hierarchy Descriptor'
PUBLIC	??_R2?$_Iosb@H@std@@8				; std::_Iosb<int>::`RTTI Base Class Array'
PUBLIC	??_R1A@?0A@EA@?$_Iosb@H@std@@8			; std::_Iosb<int>::`RTTI Base Class Descriptor at (0,-1,0,64)'
PUBLIC	??_R1A@A@3EA@ios_base@std@@8			; std::ios_base::`RTTI Base Class Descriptor at (0,0,4,64)'
PUBLIC	??_R17A@3EA@?$_Iosb@H@std@@8			; std::_Iosb<int>::`RTTI Base Class Descriptor at (8,0,4,64)'
PUBLIC	??_R1BA@?0A@EA@?$basic_ostream@DU?$char_traits@D@std@@@std@@8 ; std::basic_ostream<char,std::char_traits<char> >::`RTTI Base Class Descriptor at (16,-1,0,64)'
PUBLIC	??_R0?AV?$basic_ostream@DU?$char_traits@D@std@@@std@@@8 ; std::basic_ostream<char,std::char_traits<char> > `RTTI Type Descriptor'
PUBLIC	??_R3?$basic_ostream@DU?$char_traits@D@std@@@std@@8 ; std::basic_ostream<char,std::char_traits<char> >::`RTTI Class Hierarchy Descriptor'
PUBLIC	??_R2?$basic_ostream@DU?$char_traits@D@std@@@std@@8 ; std::basic_ostream<char,std::char_traits<char> >::`RTTI Base Class Array'
PUBLIC	??_R1A@?0A@EA@?$basic_ostream@DU?$char_traits@D@std@@@std@@8 ; std::basic_ostream<char,std::char_traits<char> >::`RTTI Base Class Descriptor at (0,-1,0,64)'
PUBLIC	??_R4?$basic_filebuf@DU?$char_traits@D@std@@@std@@6B@ ; std::basic_filebuf<char,std::char_traits<char> >::`RTTI Complete Object Locator'
PUBLIC	??_R0?AV?$basic_filebuf@DU?$char_traits@D@std@@@std@@@8 ; std::basic_filebuf<char,std::char_traits<char> > `RTTI Type Descriptor'
PUBLIC	??_R3?$basic_filebuf@DU?$char_traits@D@std@@@std@@8 ; std::basic_filebuf<char,std::char_traits<char> >::`RTTI Class Hierarchy Descriptor'
PUBLIC	??_R2?$basic_filebuf@DU?$char_traits@D@std@@@std@@8 ; std::basic_filebuf<char,std::char_traits<char> >::`RTTI Base Class Array'
PUBLIC	??_R1A@?0A@EA@?$basic_filebuf@DU?$char_traits@D@std@@@std@@8 ; std::basic_filebuf<char,std::char_traits<char> >::`RTTI Base Class Descriptor at (0,-1,0,64)'
PUBLIC	??_R4?$basic_ifstream@DU?$char_traits@D@std@@@std@@6B@ ; std::basic_ifstream<char,std::char_traits<char> >::`RTTI Complete Object Locator'
PUBLIC	??_R0?AV?$basic_ifstream@DU?$char_traits@D@std@@@std@@@8 ; std::basic_ifstream<char,std::char_traits<char> > `RTTI Type Descriptor'
PUBLIC	??_R3?$basic_ifstream@DU?$char_traits@D@std@@@std@@8 ; std::basic_ifstream<char,std::char_traits<char> >::`RTTI Class Hierarchy Descriptor'
PUBLIC	??_R2?$basic_ifstream@DU?$char_traits@D@std@@@std@@8 ; std::basic_ifstream<char,std::char_traits<char> >::`RTTI Base Class Array'
PUBLIC	??_R1A@?0A@EA@?$basic_ifstream@DU?$char_traits@D@std@@@std@@8 ; std::basic_ifstream<char,std::char_traits<char> >::`RTTI Base Class Descriptor at (0,-1,0,64)'
PUBLIC	??_R4exception@std@@6B@				; std::exception::`RTTI Complete Object Locator'
PUBLIC	??_R3exception@std@@8				; std::exception::`RTTI Class Hierarchy Descriptor'
PUBLIC	??_R2exception@std@@8				; std::exception::`RTTI Base Class Array'
PUBLIC	??_R1A@?0A@EA@exception@std@@8			; std::exception::`RTTI Base Class Descriptor at (0,-1,0,64)'
PUBLIC	??_R4bad_array_new_length@std@@6B@		; std::bad_array_new_length::`RTTI Complete Object Locator'
PUBLIC	??_R3bad_array_new_length@std@@8		; std::bad_array_new_length::`RTTI Class Hierarchy Descriptor'
PUBLIC	??_R2bad_array_new_length@std@@8		; std::bad_array_new_length::`RTTI Base Class Array'
PUBLIC	??_R1A@?0A@EA@bad_array_new_length@std@@8	; std::bad_array_new_length::`RTTI Base Class Descriptor at (0,-1,0,64)'
PUBLIC	??_R1A@?0A@EA@bad_alloc@std@@8			; std::bad_alloc::`RTTI Base Class Descriptor at (0,-1,0,64)'
PUBLIC	??_R3bad_alloc@std@@8				; std::bad_alloc::`RTTI Class Hierarchy Descriptor'
PUBLIC	??_R2bad_alloc@std@@8				; std::bad_alloc::`RTTI Base Class Array'
PUBLIC	??_R4bad_alloc@std@@6B@				; std::bad_alloc::`RTTI Complete Object Locator'
PUBLIC	??_R4bad_cast@std@@6B@				; std::bad_cast::`RTTI Complete Object Locator'
PUBLIC	??_R3bad_cast@std@@8				; std::bad_cast::`RTTI Class Hierarchy Descriptor'
PUBLIC	??_R2bad_cast@std@@8				; std::bad_cast::`RTTI Base Class Array'
PUBLIC	??_R1A@?0A@EA@bad_cast@std@@8			; std::bad_cast::`RTTI Base Class Descriptor at (0,-1,0,64)'
PUBLIC	__isa_available_default
PUBLIC	__real@3ec90fdb
PUBLIC	__real@3f000000
PUBLIC	__real@3f400000
PUBLIC	__real@3f800000
PUBLIC	__real@3ff0000000000000
PUBLIC	__real@40400000
PUBLIC	__real@40490fdb
PUBLIC	__real@41200000
PUBLIC	__real@437f0000
PUBLIC	__real@43b40000
PUBLIC	__real@477fff00
PUBLIC	__xmm@00000000000000040000000000000000
PUBLIC	__xmm@000000003a83126f3a83126f3a83126f
PUBLIC	__xmm@00000000ba83126fba83126fba83126f
PUBLIC	__xmm@00000002000000000000000400000000
PUBLIC	__xmm@00000002000000020000000200000002
PUBLIC	__xmm@00000003000000030000000300000003
PUBLIC	__xmm@00000004000000040000000800000008
PUBLIC	__xmm@00000004000000080000000800000008
PUBLIC	__xmm@000000ff000000ff000000ff000000ff
PUBLIC	__xmm@00000200000002000000020000000200
PUBLIC	__xmm@00080008000800080008000800080008
PUBLIC	__xmm@00ff00ff00ff00ff00ff00ff00ff00ff
PUBLIC	__xmm@01010000010100000101000001010000
PUBLIC	__xmm@01010101010101010101010101010101
PUBLIC	__xmm@08a914e808a914e808a914e808a914e8
PUBLIC	__xmm@11c8e09e11c8e09e11c8e09e11c8e09e
PUBLIC	__xmm@11c8f9c311c8f9c311c8f9c311c8f9c3
PUBLIC	__xmm@12d0046b12d0046b12d0046b12d0046b
PUBLIC	__xmm@166f166f166f166f166f166f166f166f
PUBLIC	__xmm@1c5a1c5a1c5a1c5a1c5a1c5a1c5a1c5a
PUBLIC	__xmm@3a83126f3a83126f3a83126f3a83126f
PUBLIC	__xmm@3f8000003f8000003f8000003f800000
PUBLIC	__xmm@80000000800000008000000080000000
PUBLIC	__xmm@80808080808080808080808080808080
PUBLIC	__xmm@ba83126fba83126fba83126fba83126f
PUBLIC	__xmm@e09ee565e09ee565e09ee565e09ee565
PUBLIC	__xmm@e9cf12d0e9cf12d0e9cf12d0e9cf12d0
PUBLIC	__xmm@eb1a08a9eb1a08a9eb1a08a9eb1a08a9
PUBLIC	__xmm@f493f493f493f493f493f493f493f493
PUBLIC	__xmm@f9c31a9df9c31a9df9c31a9df9c31a9d
PUBLIC	__xmm@fa7efa7efa7efa7efa7efa7efa7efa7e
EXTRN	??2@YAPEAX_K@Z:PROC				; operator new
EXTRN	??3@YAXPEAX_K@Z:PROC				; operator delete
EXTRN	__std_terminate:PROC
EXTRN	__imp_glBindTexture:PROC
EXTRN	__imp_glBlendFunc:PROC
EXTRN	__imp_glClearColor:PROC
EXTRN	__imp_glEnable:PROC
EXTRN	__imp_glGenTextures:PROC
EXTRN	__imp_glGetIntegerv:PROC
EXTRN	__imp_glPixelStorei:PROC
EXTRN	__imp_glPolygonMode:PROC
EXTRN	__imp_glTexImage2D:PROC
EXTRN	__imp_glTexParameteri:PROC
EXTRN	__imp_glViewport:PROC
EXTRN	glfwGetFramebufferSize:PROC
EXTRN	glfwPollEvents:PROC
EXTRN	glfwSwapBuffers:PROC
EXTRN	__imp_??0_Lockit@std@@QEAA@H@Z:PROC
EXTRN	__imp_??1_Lockit@std@@QEAA@XZ:PROC
EXTRN	__imp_ldexp:PROC
EXTRN	__imp_calloc:PROC
EXTRN	__imp_free:PROC
EXTRN	__imp_malloc:PROC
EXTRN	__imp_realloc:PROC
EXTRN	__imp_strtol:PROC
EXTRN	__imp__get_stream_buffer_pointers:PROC
EXTRN	__imp_fopen_s:PROC
EXTRN	__imp_fclose:PROC
EXTRN	__imp_feof:PROC
EXTRN	__imp_ferror:PROC
EXTRN	__imp_fflush:PROC
EXTRN	__imp_fgetc:PROC
EXTRN	__imp_fgetpos:PROC
EXTRN	__imp_fputc:PROC
EXTRN	__imp_fread:PROC
EXTRN	__imp_fsetpos:PROC
EXTRN	__imp_fseek:PROC
EXTRN	__imp__fseeki64:PROC
EXTRN	__imp_ftell:PROC
EXTRN	__imp_fwrite:PROC
EXTRN	__imp_setvbuf:PROC
EXTRN	__imp_ungetc:PROC
EXTRN	__imp__lock_file:PROC
EXTRN	__imp__unlock_file:PROC
EXTRN	?_Xbad_alloc@std@@YAXXZ:PROC			; std::_Xbad_alloc
EXTRN	?_Xlength_error@std@@YAXPEBD@Z:PROC		; std::_Xlength_error
EXTRN	?_Xout_of_range@std@@YAXPEBD@Z:PROC		; std::_Xout_of_range
EXTRN	?uncaught_exceptions@std@@YAHXZ:PROC		; std::uncaught_exceptions
EXTRN	__std_exception_copy:PROC
EXTRN	__std_exception_destroy:PROC
EXTRN	??_Eexception@std@@UEAAPEAXI@Z:PROC		; std::exception::`vector deleting destructor'
EXTRN	??_Ebad_alloc@std@@UEAAPEAXI@Z:PROC		; std::bad_alloc::`vector deleting destructor'
EXTRN	??_Ebad_array_new_length@std@@UEAAPEAXI@Z:PROC	; std::bad_array_new_length::`vector deleting destructor'
EXTRN	??_Ebad_cast@std@@UEAAPEAXI@Z:PROC		; std::bad_cast::`vector deleting destructor'
EXTRN	?_Facet_Register@std@@YAXPEAV_Facet_base@1@@Z:PROC ; std::_Facet_Register
EXTRN	__imp_?_Getcvt@_Locinfo@std@@QEBA?AU_Cvtvec@@XZ:PROC
EXTRN	__imp_?_W_Getdays@_Locinfo@std@@QEBAPEBGXZ:PROC
EXTRN	__imp_?_W_Getmonths@_Locinfo@std@@QEBAPEBGXZ:PROC
EXTRN	?_Getgloballocale@locale@std@@CAPEAV_Locimp@12@XZ:PROC ; std::locale::_Getgloballocale
EXTRN	__imp_?always_noconv@codecvt_base@std@@QEBA_NXZ:PROC
EXTRN	__imp_?in@?$codecvt@DDU_Mbstatet@@@std@@QEBAHAEAU_Mbstatet@@PEBD1AEAPEBDPEAD3AEAPEAD@Z:PROC
EXTRN	__imp_?out@?$codecvt@DDU_Mbstatet@@@std@@QEBAHAEAU_Mbstatet@@PEBD1AEAPEBDPEAD3AEAPEAD@Z:PROC
EXTRN	__imp_?unshift@?$codecvt@DDU_Mbstatet@@@std@@QEBAHAEAU_Mbstatet@@PEAD1AEAPEAD@Z:PROC
EXTRN	__imp_?_Getcat@?$codecvt@DDU_Mbstatet@@@std@@SA_KPEAPEBVfacet@locale@2@PEBV42@@Z:PROC
EXTRN	__imp_?good@ios_base@std@@QEBA_NXZ:PROC
EXTRN	__imp_?flags@ios_base@std@@QEBAHXZ:PROC
EXTRN	__imp_?width@ios_base@std@@QEBA_JXZ:PROC
EXTRN	__imp_?width@ios_base@std@@QEAA_J_J@Z:PROC
EXTRN	__imp_??0?$basic_streambuf@DU?$char_traits@D@std@@@std@@IEAA@XZ:PROC
EXTRN	__imp_??1?$basic_streambuf@DU?$char_traits@D@std@@@std@@UEAA@XZ:PROC
EXTRN	__imp_?getloc@?$basic_streambuf@DU?$char_traits@D@std@@@std@@QEBA?AVlocale@2@XZ:PROC
EXTRN	__imp_?sputc@?$basic_streambuf@DU?$char_traits@D@std@@@std@@QEAAHD@Z:PROC
EXTRN	__imp_?sputn@?$basic_streambuf@DU?$char_traits@D@std@@@std@@QEAA_JPEBD_J@Z:PROC
EXTRN	__imp_?eback@?$basic_streambuf@DU?$char_traits@D@std@@@std@@IEBAPEADXZ:PROC
EXTRN	__imp_?gptr@?$basic_streambuf@DU?$char_traits@D@std@@@std@@IEBAPEADXZ:PROC
EXTRN	__imp_?pbase@?$basic_streambuf@DU?$char_traits@D@std@@@std@@IEBAPEADXZ:PROC
EXTRN	__imp_?pptr@?$basic_streambuf@DU?$char_traits@D@std@@@std@@IEBAPEADXZ:PROC
EXTRN	__imp_?egptr@?$basic_streambuf@DU?$char_traits@D@std@@@std@@IEBAPEADXZ:PROC
EXTRN	__imp_?gbump@?$basic_streambuf@DU?$char_traits@D@std@@@std@@IEAAXH@Z:PROC
EXTRN	__imp_?setg@?$basic_streambuf@DU?$char_traits@D@std@@@std@@IEAAXPEAD00@Z:PROC
EXTRN	__imp_?epptr@?$basic_streambuf@DU?$char_traits@D@std@@@std@@IEBAPEADXZ:PROC
EXTRN	__imp_?_Gndec@?$basic_streambuf@DU?$char_traits@D@std@@@std@@IEAAPEADXZ:PROC
EXTRN	__imp_?_Gninc@?$basic_streambuf@DU?$char_traits@D@std@@@std@@IEAAPEADXZ:PROC
EXTRN	__imp_?_Gnavail@?$basic_streambuf@DU?$char_traits@D@std@@@std@@IEBA_JXZ:PROC
EXTRN	__imp_?pbump@?$basic_streambuf@DU?$char_traits@D@std@@@std@@IEAAXH@Z:PROC
EXTRN	__imp_?setp@?$basic_streambuf@DU?$char_traits@D@std@@@std@@IEAAXPEAD0@Z:PROC
EXTRN	__imp_?setp@?$basic_streambuf@DU?$char_traits@D@std@@@std@@IEAAXPEAD00@Z:PROC
EXTRN	__imp_?_Pninc@?$basic_streambuf@DU?$char_traits@D@std@@@std@@IEAAPEADXZ:PROC
EXTRN	__imp_?_Pnavail@?$basic_streambuf@DU?$char_traits@D@std@@@std@@IEBA_JXZ:PROC
EXTRN	__imp_?_Init@?$basic_streambuf@DU?$char_traits@D@std@@@std@@IEAAXXZ:PROC
EXTRN	__imp_?_Init@?$basic_streambuf@DU?$char_traits@D@std@@@std@@IEAAXPEAPEAD0PEAH001@Z:PROC
EXTRN	__imp_?xsgetn@?$basic_streambuf@DU?$char_traits@D@std@@@std@@MEAA_JPEAD_J@Z:PROC
EXTRN	__imp_?xsputn@?$basic_streambuf@DU?$char_traits@D@std@@@std@@MEAA_JPEBD_J@Z:PROC
EXTRN	__imp_??1?$basic_ios@DU?$char_traits@D@std@@@std@@UEAA@XZ:PROC
EXTRN	__imp_?setstate@?$basic_ios@DU?$char_traits@D@std@@@std@@QEAAXH_N@Z:PROC
EXTRN	__imp_?tie@?$basic_ios@DU?$char_traits@D@std@@@std@@QEBAPEAV?$basic_ostream@DU?$char_traits@D@std@@@2@XZ:PROC
EXTRN	__imp_?rdbuf@?$basic_ios@DU?$char_traits@D@std@@@std@@QEBAPEAV?$basic_streambuf@DU?$char_traits@D@std@@@2@XZ:PROC
EXTRN	__imp_?fill@?$basic_ios@DU?$char_traits@D@std@@@std@@QEBADXZ:PROC
EXTRN	__imp_?widen@?$basic_ios@DU?$char_traits@D@std@@@std@@QEBADD@Z:PROC
EXTRN	__imp_??0?$basic_ios@DU?$char_traits@D@std@@@std@@IEAA@XZ:PROC
EXTRN	__imp_?_Osfx@?$basic_ostream@DU?$char_traits@D@std@@@std@@QEAAXXZ:PROC
EXTRN	__imp_??6?$basic_ostream@DU?$char_traits@D@std@@@std@@QEAAAEAV01@P6AAEAV01@AEAV01@@Z@Z:PROC
EXTRN	__imp_??6?$basic_ostream@DU?$char_traits@D@std@@@std@@QEAAAEAV01@H@Z:PROC
EXTRN	__imp_??6?$basic_ostream@DU?$char_traits@D@std@@@std@@QEAAAEAV01@PEAV?$basic_streambuf@DU?$char_traits@D@std@@@1@@Z:PROC
EXTRN	__imp_?put@?$basic_ostream@DU?$char_traits@D@std@@@std@@QEAAAEAV12@D@Z:PROC
EXTRN	__imp_?flush@?$basic_ostream@DU?$char_traits@D@std@@@std@@QEAAAEAV12@XZ:PROC
EXTRN	__imp_??0?$basic_istream@DU?$char_traits@D@std@@@std@@QEAA@PEAV?$basic_streambuf@DU?$char_traits@D@std@@@1@_N@Z:PROC
EXTRN	__imp_??1?$basic_istream@DU?$char_traits@D@std@@@std@@UEAA@XZ:PROC
EXTRN	__imp_??0?$basic_iostream@DU?$char_traits@D@std@@@std@@QEAA@PEAV?$basic_streambuf@DU?$char_traits@D@std@@@1@@Z:PROC
EXTRN	__imp_??1?$basic_iostream@DU?$char_traits@D@std@@@std@@UEAA@XZ:PROC
EXTRN	?_Fiopen@std@@YAPEAU_iobuf@@PEBDHH@Z:PROC	; std::_Fiopen
EXTRN	?getChildren@Instance@@QEAAAEBV?$unordered_map@V?$basic_string@DU?$char_traits@D@std@@V?$allocator@D@2@@std@@PEAVInstance@@U?$hash@V?$basic_string@DU?$char_traits@D@std@@V?$allocator@D@2@@std@@@2@U?$equal_to@V?$basic_string@DU?$char_traits@D@std@@V?$allocator@D@2@@std@@@2@V?$allocator@U?$pair@$$CBV?$basic_string@DU?$char_traits@D@std@@V?$allocator@D@2@@std@@PEAVInstance@@@std@@@2@@std@@XZ:PROC ; Instance::getChildren
EXTRN	??1BaseCube@@UEAA@XZ:PROC			; BaseCube::~BaseCube
EXTRN	?createCubeVertices@@YA?AV?$vector@UVertex@@V?$allocator@UVertex@@@std@@@std@@M@Z:PROC ; createCubeVertices
EXTRN	??0Cube@@QEAA@UVector3@@0I@Z:PROC		; Cube::Cube
EXTRN	?draw@Cube@@QEAAXHH@Z:PROC			; Cube::draw
EXTRN	??_E?$basic_filebuf@DU?$char_traits@D@std@@@std@@UEAAPEAXI@Z:PROC ; std::basic_filebuf<char,std::char_traits<char> >::`vector deleting destructor'
EXTRN	??_E?$basic_ifstream@DU?$char_traits@D@std@@@std@@UEAAPEAXI@Z:PROC ; std::basic_ifstream<char,std::char_traits<char> >::`vector deleting destructor'
EXTRN	??_E?$basic_stringbuf@DU?$char_traits@D@std@@V?$allocator@D@2@@std@@UEAAPEAXI@Z:PROC ; std::basic_stringbuf<char,std::char_traits<char>,std::allocator<char> >::`vector deleting destructor'
EXTRN	??_E?$basic_stringstream@DU?$char_traits@D@std@@V?$allocator@D@2@@std@@UEAAPEAXI@Z:PROC ; std::basic_stringstream<char,std::char_traits<char>,std::allocator<char> >::`vector deleting destructor'
EXTRN	?imbue@?$basic_streambuf@DU?$char_traits@D@std@@@std@@MEAAXAEBVlocale@2@@Z:PROC ; std::basic_streambuf<char,std::char_traits<char> >::imbue
EXTRN	?sync@?$basic_streambuf@DU?$char_traits@D@std@@@std@@MEAAHXZ:PROC ; std::basic_streambuf<char,std::char_traits<char> >::sync
EXTRN	?setbuf@?$basic_streambuf@DU?$char_traits@D@std@@@std@@MEAAPEAV12@PEAD_J@Z:PROC ; std::basic_streambuf<char,std::char_traits<char> >::setbuf
EXTRN	?xsputn@?$basic_streambuf@DU?$char_traits@D@std@@@std@@MEAA_JPEBD_J@Z:PROC ; std::basic_streambuf<char,std::char_traits<char> >::xsputn
EXTRN	?xsgetn@?$basic_streambuf@DU?$char_traits@D@std@@@std@@MEAA_JPEAD_J@Z:PROC ; std::basic_streambuf<char,std::char_traits<char> >::xsgetn
EXTRN	?uflow@?$basic_streambuf@DU?$char_traits@D@std@@@std@@MEAAHXZ:PROC ; std::basic_streambuf<char,std::char_traits<char> >::uflow
EXTRN	?showmanyc@?$basic_streambuf@DU?$char_traits@D@std@@@std@@MEAA_JXZ:PROC ; std::basic_streambuf<char,std::char_traits<char> >::showmanyc
EXTRN	?_Unlock@?$basic_streambuf@DU?$char_traits@D@std@@@std@@UEAAXXZ:PROC ; std::basic_streambuf<char,std::char_traits<char> >::_Unlock
EXTRN	?_Lock@?$basic_streambuf@DU?$char_traits@D@std@@@std@@UEAAXXZ:PROC ; std::basic_streambuf<char,std::char_traits<char> >::_Lock
EXTRN	??1_Lockit@std@@QEAA@XZ:PROC			; std::_Lockit::~_Lockit
EXTRN	_CxxThrowException:PROC
EXTRN	__CxxFrameHandler4:PROC
EXTRN	__GSHandlerCheck:PROC
EXTRN	__GSHandlerCheck_EH4:PROC
EXTRN	__chkstk:PROC
EXTRN	__security_check_cookie:PROC
EXTRN	memcpy:PROC
EXTRN	memmove:PROC
EXTRN	memset:PROC
EXTRN	powf:PROC
EXTRN	sqrtf:PROC
EXTRN	strcmp:PROC
EXTRN	strlen:PROC
EXTRN	strncmp:PROC
EXTRN	tanf:PROC
EXTRN	wcslen:PROC
EXTRN	__glewBindBuffer:QWORD
EXTRN	__glewBufferData:QWORD
EXTRN	__glewGenBuffers:QWORD
EXTRN	__glewAttachShader:QWORD
EXTRN	__glewCompileShader:QWORD
EXTRN	__glewCreateProgram:QWORD
EXTRN	__glewCreateShader:QWORD
EXTRN	__glewDeleteShader:QWORD
EXTRN	__glewEnableVertexAttribArray:QWORD
EXTRN	__glewGetProgramInfoLog:QWORD
EXTRN	__glewGetProgramiv:QWORD
EXTRN	__glewGetShaderInfoLog:QWORD
EXTRN	__glewGetShaderiv:QWORD
EXTRN	__glewGetUniformLocation:QWORD
EXTRN	__glewLinkProgram:QWORD
EXTRN	__glewShaderSource:QWORD
EXTRN	__glewUniform3f:QWORD
EXTRN	__glewUniformMatrix4fv:QWORD
EXTRN	__glewUseProgram:QWORD
EXTRN	__glewVertexAttribPointer:QWORD
EXTRN	__glewGenerateMipmap:QWORD
EXTRN	__glewBindVertexArray:QWORD
EXTRN	__glewGenVertexArrays:QWORD
EXTRN	??_7type_info@@6B@:BYTE				; type_info::`vftable'
EXTRN	__imp_?_Id_cnt@id@locale@std@@0HA:DWORD
EXTRN	__imp_?id@?$codecvt@DDU_Mbstatet@@@std@@2V0locale@2@A:QWORD
EXTRN	__imp_?cout@std@@3V?$basic_ostream@DU?$char_traits@D@std@@@1@A:BYTE
EXTRN	__imp_?cerr@std@@3V?$basic_ostream@DU?$char_traits@D@std@@@1@A:BYTE
EXTRN	?defaultTextureID@Cube@@2IA:DWORD		; Cube::defaultTextureID
EXTRN	__ImageBase:BYTE
EXTRN	__isa_available:DWORD
EXTRN	__security_cookie:QWORD
EXTRN	_fltused:DWORD
EXTRN	_tls_index:DWORD
_BSS	SEGMENT
?minFError@vecMathTests@aos@physx@@3T__m128@@B DB 010H DUP (?) ; physx::aos::vecMathTests::minFError
?maxFError@vecMathTests@aos@physx@@3T__m128@@B DB 010H DUP (?) ; physx::aos::vecMathTests::maxFError
?minV3Error@vecMathTests@aos@physx@@3T__m128@@B DB 010H DUP (?) ; physx::aos::vecMathTests::minV3Error
?maxV3Error@vecMathTests@aos@physx@@3T__m128@@B DB 010H DUP (?) ; physx::aos::vecMathTests::maxV3Error
?minV4Error@vecMathTests@aos@physx@@3T__m128@@B DB 010H DUP (?) ; physx::aos::vecMathTests::minV4Error
?maxV4Error@vecMathTests@aos@physx@@3T__m128@@B DB 010H DUP (?) ; physx::aos::vecMathTests::maxV4Error
_BSS	ENDS
_TLS	SEGMENT
?stbi__g_failure_reason@@3PEBDEB DQ 01H DUP (?)		; stbi__g_failure_reason
_TLS	ENDS
_BSS	SEGMENT
?stbi__vertically_flip_on_load_global@@3HA DD 01H DUP (?) ; stbi__vertically_flip_on_load_global
_BSS	ENDS
_TLS	SEGMENT
?stbi__vertically_flip_on_load_local@@3HA DD 01H DUP (?) ; stbi__vertically_flip_on_load_local
?stbi__vertically_flip_on_load_set@@3HA DD 01H DUP (?)	; stbi__vertically_flip_on_load_set
_TLS	ENDS
_BSS	SEGMENT
?stbi__unpremultiply_on_load_global@@3HA DD 01H DUP (?)	; stbi__unpremultiply_on_load_global
?stbi__de_iphone_flag_global@@3HA DD 01H DUP (?)	; stbi__de_iphone_flag_global
_BSS	ENDS
_TLS	SEGMENT
?stbi__unpremultiply_on_load_local@@3HA DD 01H DUP (?)	; stbi__unpremultiply_on_load_local
?stbi__unpremultiply_on_load_set@@3HA DD 01H DUP (?)	; stbi__unpremultiply_on_load_set
?stbi__de_iphone_flag_local@@3HA DD 01H DUP (?)		; stbi__de_iphone_flag_local
?stbi__de_iphone_flag_set@@3HA DD 01H DUP (?)		; stbi__de_iphone_flag_set
_TLS	ENDS
;	COMDAT ?_Psave@?$_Facetptr@V?$codecvt@DDU_Mbstatet@@@std@@@std@@2PEBVfacet@locale@2@EB
_BSS	SEGMENT
?_Psave@?$_Facetptr@V?$codecvt@DDU_Mbstatet@@@std@@@std@@2PEBVfacet@locale@2@EB DQ 01H DUP (?) ; std::_Facetptr<std::codecvt<char,char,_Mbstatet> >::_Psave
_BSS	ENDS
;	COMDAT ?_Stinit@?1??_Init@?$basic_filebuf@DU?$char_traits@D@std@@@std@@IEAAXPEAU_iobuf@@W4_Initfl@23@@Z@4U_Mbstatet@@A
_BSS	SEGMENT
?_Stinit@?1??_Init@?$basic_filebuf@DU?$char_traits@D@std@@@std@@IEAAXPEAU_iobuf@@W4_Initfl@23@@Z@4U_Mbstatet@@A DQ 01H DUP (?) ; `std::basic_filebuf<char,std::char_traits<char> >::_Init'::`2'::_Stinit
_BSS	ENDS
;	COMDAT __isa_available_default
_BSS	SEGMENT
__isa_available_default DD 01H DUP (?)
_BSS	ENDS
;	COMDAT pdata
pdata	SEGMENT
$pdata$??_H@YAXPEAX_K1P6APEAX0@Z@Z DD imagerel $LN14
	DD	imagerel $LN14+55
	DD	imagerel $unwind$??_H@YAXPEAX_K1P6APEAX0@Z@Z
pdata	ENDS
;	COMDAT pdata
pdata	SEGMENT
$pdata$ldexpf DD imagerel $LN4
	DD	imagerel $LN4+23
	DD	imagerel $unwind$ldexpf
pdata	ENDS
;	COMDAT pdata
pdata	SEGMENT
$pdata$?ldexp@@YAMMH@Z DD imagerel $LN8
	DD	imagerel $LN8+23
	DD	imagerel $unwind$?ldexp@@YAMMH@Z
pdata	ENDS
;	COMDAT pdata
pdata	SEGMENT
$pdata$?copy@?$_Char_traits@DH@std@@SAPEADQEADQEBD_K@Z DD imagerel $LN20
	DD	imagerel $LN20+23
	DD	imagerel $unwind$?copy@?$_Char_traits@DH@std@@SAPEADQEADQEBD_K@Z
pdata	ENDS
;	COMDAT pdata
pdata	SEGMENT
$pdata$?move@?$_Char_traits@DH@std@@SAPEADQEADQEBD_K@Z DD imagerel $LN40
	DD	imagerel $LN40+23
	DD	imagerel $unwind$?move@?$_Char_traits@DH@std@@SAPEADQEADQEBD_K@Z
pdata	ENDS
;	COMDAT pdata
pdata	SEGMENT
$pdata$??0exception@std@@QEAA@AEBV01@@Z DD imagerel $LN6
	DD	imagerel $LN6+50
	DD	imagerel $unwind$??0exception@std@@QEAA@AEBV01@@Z
pdata	ENDS
;	COMDAT pdata
pdata	SEGMENT
$pdata$??_Gexception@std@@UEAAPEAXI@Z DD imagerel $LN12
	DD	imagerel $LN12+66
	DD	imagerel $unwind$??_Gexception@std@@UEAAPEAXI@Z
pdata	ENDS
;	COMDAT pdata
pdata	SEGMENT
$pdata$??0bad_alloc@std@@QEAA@AEBV01@@Z DD imagerel $LN9
	DD	imagerel $LN9+60
	DD	imagerel $unwind$??0bad_alloc@std@@QEAA@AEBV01@@Z
pdata	ENDS
;	COMDAT pdata
pdata	SEGMENT
$pdata$??_Gbad_alloc@std@@UEAAPEAXI@Z DD imagerel $LN17
	DD	imagerel $LN17+66
	DD	imagerel $unwind$??_Gbad_alloc@std@@UEAAPEAXI@Z
pdata	ENDS
;	COMDAT pdata
pdata	SEGMENT
$pdata$??0bad_array_new_length@std@@QEAA@AEBV01@@Z DD imagerel $LN14
	DD	imagerel $LN14+60
	DD	imagerel $unwind$??0bad_array_new_length@std@@QEAA@AEBV01@@Z
pdata	ENDS
;	COMDAT pdata
pdata	SEGMENT
$pdata$??_Gbad_array_new_length@std@@UEAAPEAXI@Z DD imagerel $LN22
	DD	imagerel $LN22+66
	DD	imagerel $unwind$??_Gbad_array_new_length@std@@UEAAPEAXI@Z
pdata	ENDS
;	COMDAT pdata
pdata	SEGMENT
$pdata$?_Throw_bad_array_new_length@std@@YAXXZ DD imagerel $LN4
	DD	imagerel $LN4+32
	DD	imagerel $unwind$?_Throw_bad_array_new_length@std@@YAXXZ
pdata	ENDS
;	COMDAT pdata
pdata	SEGMENT
$pdata$?_Xlen_string@std@@YAXXZ DD imagerel $LN4
	DD	imagerel $LN4+17
	DD	imagerel $unwind$?_Xlen_string@std@@YAXXZ
pdata	ENDS
;	COMDAT pdata
pdata	SEGMENT
$pdata$?allocate@?$allocator@D@std@@QEAAPEAD_K@Z DD imagerel $LN23
	DD	imagerel $LN23+89
	DD	imagerel $unwind$?allocate@?$allocator@D@std@@QEAAPEAD_K@Z
pdata	ENDS
;	COMDAT pdata
pdata	SEGMENT
$pdata$?_Check_offset@?$_String_val@U?$_Simple_types@D@std@@@std@@QEBAX_K@Z DD imagerel $LN7
	DD	imagerel $LN7+21
	DD	imagerel $unwind$?_Check_offset@?$_String_val@U?$_Simple_types@D@std@@@std@@QEBAX_K@Z
pdata	ENDS
;	COMDAT pdata
pdata	SEGMENT
$pdata$?_Xran@?$_String_val@U?$_Simple_types@D@std@@@std@@SAXXZ DD imagerel $LN4
	DD	imagerel $LN4+17
	DD	imagerel $unwind$?_Xran@?$_String_val@U?$_Simple_types@D@std@@@std@@SAXXZ
pdata	ENDS
;	COMDAT pdata
pdata	SEGMENT
$pdata$??0?$basic_string@DU?$char_traits@D@std@@V?$allocator@D@2@@std@@QEAA@QEBD@Z DD imagerel $LN21
	DD	imagerel $LN21+68
	DD	imagerel $unwind$??0?$basic_string@DU?$char_traits@D@std@@V?$allocator@D@2@@std@@QEAA@QEBD@Z
pdata	ENDS
;	COMDAT pdata
pdata	SEGMENT
$pdata$??4?$basic_string@DU?$char_traits@D@std@@V?$allocator@D@2@@std@@QEAAAEAV01@$$QEAV01@@Z DD imagerel $LN67
	DD	imagerel $LN67+142
	DD	imagerel $unwind$??4?$basic_string@DU?$char_traits@D@std@@V?$allocator@D@2@@std@@QEAAAEAV01@$$QEAV01@@Z
pdata	ENDS
;	COMDAT pdata
pdata	SEGMENT
$pdata$?_Erase_noexcept@?$basic_string@DU?$char_traits@D@std@@V?$allocator@D@2@@std@@AEAAAEAV12@_K_K@Z DD imagerel $LN58
	DD	imagerel $LN58+91
	DD	imagerel $unwind$?_Erase_noexcept@?$basic_string@DU?$char_traits@D@std@@V?$allocator@D@2@@std@@AEAAAEAV12@_K_K@Z
pdata	ENDS
;	COMDAT pdata
pdata	SEGMENT
$pdata$?erase@?$basic_string@DU?$char_traits@D@std@@V?$allocator@D@2@@std@@QEAAAEAV12@_K0@Z DD imagerel $LN67
	DD	imagerel $LN67+102
	DD	imagerel $unwind$?erase@?$basic_string@DU?$char_traits@D@std@@V?$allocator@D@2@@std@@QEAAAEAV12@_K0@Z
pdata	ENDS
;	COMDAT pdata
pdata	SEGMENT
$pdata$?_Tidy_deallocate@?$basic_string@DU?$char_traits@D@std@@V?$allocator@D@2@@std@@AEAAXXZ DD imagerel $LN34
	DD	imagerel $LN34+97
	DD	imagerel $unwind$?_Tidy_deallocate@?$basic_string@DU?$char_traits@D@std@@V?$allocator@D@2@@std@@AEAAXXZ
pdata	ENDS
;	COMDAT pdata
pdata	SEGMENT
$pdata$?normalize@Vector3@@QEBA?AU1@XZ DD imagerel $LN22
	DD	imagerel $LN22+216
	DD	imagerel $unwind$?normalize@Vector3@@QEBA?AU1@XZ
pdata	ENDS
;	COMDAT pdata
pdata	SEGMENT
$pdata$??DMatrix4@@QEBA?AU0@AEBU0@@Z DD imagerel $LN39
	DD	imagerel $LN39+303
	DD	imagerel $unwind$??DMatrix4@@QEBA?AU0@AEBU0@@Z
pdata	ENDS
;	COMDAT pdata
pdata	SEGMENT
$pdata$?Perspective@Matrix4@@SA?AU1@MMMM@Z DD imagerel $LN28
	DD	imagerel $LN28+167
	DD	imagerel $unwind$?Perspective@Matrix4@@SA?AU1@MMMM@Z
pdata	ENDS
;	COMDAT pdata
pdata	SEGMENT
$pdata$?LookAt@Matrix4@@SA?AU1@UVector3@@00@Z DD imagerel $LN33
	DD	imagerel $LN33+633
	DD	imagerel $unwind$?LookAt@Matrix4@@SA?AU1@UVector3@@00@Z
pdata	ENDS
;	COMDAT pdata
pdata	SEGMENT
$pdata$?FromQuaternion@Matrix4@@SA?AU1@AEBUQuaternion@@@Z DD imagerel $LN15
	DD	imagerel $LN15+355
	DD	imagerel $unwind$?FromQuaternion@Matrix4@@SA?AU1@AEBUQuaternion@@@Z
pdata	ENDS
;	COMDAT pdata
pdata	SEGMENT
$pdata$??0bad_cast@std@@QEAA@AEBV01@@Z DD imagerel $LN9
	DD	imagerel $LN9+60
	DD	imagerel $unwind$??0bad_cast@std@@QEAA@AEBV01@@Z
pdata	ENDS
;	COMDAT pdata
pdata	SEGMENT
$pdata$??_Gbad_cast@std@@UEAAPEAXI@Z DD imagerel $LN17
	DD	imagerel $LN17+66
	DD	imagerel $unwind$??_Gbad_cast@std@@UEAAPEAXI@Z
pdata	ENDS
;	COMDAT pdata
pdata	SEGMENT
$pdata$?_Throw_bad_cast@std@@YAXXZ DD imagerel $LN4
	DD	imagerel $LN4+32
	DD	imagerel $unwind$?_Throw_bad_cast@std@@YAXXZ
pdata	ENDS
;	COMDAT pdata
pdata	SEGMENT
$pdata$??1locale@std@@QEAA@XZ DD imagerel $LN9
	DD	imagerel $LN9+47
	DD	imagerel $unwind$??1locale@std@@QEAA@XZ
pdata	ENDS
;	COMDAT pdata
pdata	SEGMENT
$pdata$?_Getfacet@locale@std@@QEBAPEBVfacet@12@_K@Z DD imagerel $LN13
	DD	imagerel $LN13+97
	DD	imagerel $unwind$?_Getfacet@locale@std@@QEBAPEBVfacet@12@_K@Z
pdata	ENDS
;	COMDAT pdata
pdata	SEGMENT
$pdata$?_Maklocwcs@std@@YAPEA_WPEB_W@Z DD imagerel $LN10
	DD	imagerel $LN10+89
	DD	imagerel $unwind$?_Maklocwcs@std@@YAPEA_WPEB_W@Z
pdata	ENDS
;	COMDAT pdata
pdata	SEGMENT
$pdata$??$_Fgetc@D@std@@YA_NAEADPEAU_iobuf@@@Z DD imagerel $LN7
	DD	imagerel $LN7+41
	DD	imagerel $unwind$??$_Fgetc@D@std@@YA_NAEADPEAU_iobuf@@@Z
pdata	ENDS
;	COMDAT pdata
pdata	SEGMENT
$pdata$??$_Fputc@D@std@@YA_NDPEAU_iobuf@@@Z DD imagerel $LN4
	DD	imagerel $LN4+24
	DD	imagerel $unwind$??$_Fputc@D@std@@YA_NDPEAU_iobuf@@@Z
pdata	ENDS
;	COMDAT pdata
pdata	SEGMENT
$pdata$??$_Ungetc@D@std@@YA_NAEBDPEAU_iobuf@@@Z DD imagerel $LN4
	DD	imagerel $LN4+24
	DD	imagerel $unwind$??$_Ungetc@D@std@@YA_NAEBDPEAU_iobuf@@@Z
pdata	ENDS
;	COMDAT pdata
pdata	SEGMENT
$pdata$??$_Getvals@_W@?$time_get@DV?$istreambuf_iterator@DU?$char_traits@D@std@@@std@@@std@@IEAAX_WAEBV_Locinfo@1@@Z DD imagerel $LN27
	DD	imagerel $LN27+308
	DD	imagerel $unwind$??$_Getvals@_W@?$time_get@DV?$istreambuf_iterator@DU?$char_traits@D@std@@@std@@@std@@IEAAX_WAEBV_Locinfo@1@@Z
pdata	ENDS
;	COMDAT pdata
pdata	SEGMENT
$pdata$??$_Getvals@_W@?$time_get@_WV?$istreambuf_iterator@_WU?$char_traits@_W@std@@@std@@@std@@IEAAX_WAEBV_Locinfo@1@@Z DD imagerel $LN27
	DD	imagerel $LN27+308
	DD	imagerel $unwind$??$_Getvals@_W@?$time_get@_WV?$istreambuf_iterator@_WU?$char_traits@_W@std@@@std@@@std@@IEAAX_WAEBV_Locinfo@1@@Z
pdata	ENDS
;	COMDAT pdata
pdata	SEGMENT
$pdata$??0_Sentry_base@?$basic_ostream@DU?$char_traits@D@std@@@std@@QEAA@AEAV12@@Z DD imagerel $LN7
	DD	imagerel $LN7+51
	DD	imagerel $unwind$??0_Sentry_base@?$basic_ostream@DU?$char_traits@D@std@@@std@@QEAA@AEAV12@@Z
pdata	ENDS
;	COMDAT pdata
pdata	SEGMENT
$pdata$??1_Sentry_base@?$basic_ostream@DU?$char_traits@D@std@@@std@@QEAA@XZ DD imagerel $LN7
	DD	imagerel $LN7+43
	DD	imagerel $unwind$??1_Sentry_base@?$basic_ostream@DU?$char_traits@D@std@@@std@@QEAA@XZ
pdata	ENDS
;	COMDAT pdata
pdata	SEGMENT
$pdata$??0sentry@?$basic_ostream@DU?$char_traits@D@std@@@std@@QEAA@AEAV12@@Z DD imagerel $LN12
	DD	imagerel $LN12+148
	DD	imagerel $unwind$??0sentry@?$basic_ostream@DU?$char_traits@D@std@@@std@@QEAA@AEAV12@@Z
pdata	ENDS
;	COMDAT pdata
pdata	SEGMENT
$pdata$??1sentry@?$basic_ostream@DU?$char_traits@D@std@@@std@@QEAA@XZ DD imagerel $LN14
	DD	imagerel $LN14+68
	DD	imagerel $unwind$??1sentry@?$basic_ostream@DU?$char_traits@D@std@@@std@@QEAA@XZ
pdata	ENDS
;	COMDAT pdata
pdata	SEGMENT
$pdata$?allocate@?$allocator@I@std@@QEAAPEAI_K@Z DD imagerel $LN27
	DD	imagerel $LN27+112
	DD	imagerel $unwind$?allocate@?$allocator@I@std@@QEAAPEAI_K@Z
pdata	ENDS
;	COMDAT pdata
pdata	SEGMENT
$pdata$?_Change_array@?$vector@IV?$allocator@I@std@@@std@@AEAAXQEAI_K1@Z DD imagerel $LN27
	DD	imagerel $LN27+123
	DD	imagerel $unwind$?_Change_array@?$vector@IV?$allocator@I@std@@@std@@AEAAXQEAI_K1@Z
pdata	ENDS
;	COMDAT pdata
pdata	SEGMENT
$pdata$?_Xlength@?$vector@IV?$allocator@I@std@@@std@@CAXXZ DD imagerel $LN4
	DD	imagerel $LN4+17
	DD	imagerel $unwind$?_Xlength@?$vector@IV?$allocator@I@std@@@std@@CAXXZ
pdata	ENDS
;	COMDAT pdata
pdata	SEGMENT
$pdata$?createWhiteTexture@Renderer@@QEAAXXZ DD imagerel $LN4
	DD	imagerel $LN4+162
	DD	imagerel $unwind$?createWhiteTexture@Renderer@@QEAAXXZ
pdata	ENDS
;	COMDAT pdata
pdata	SEGMENT
$pdata$?loadShaderSource@Renderer@@QEAA?AV?$basic_string@DU?$char_traits@D@std@@V?$allocator@D@2@@std@@PEBD@Z DD imagerel $LN436
	DD	imagerel $LN436+896
	DD	imagerel $unwind$?loadShaderSource@Renderer@@QEAA?AV?$basic_string@DU?$char_traits@D@std@@V?$allocator@D@2@@std@@PEBD@Z
pdata	ENDS
;	COMDAT pdata
pdata	SEGMENT
$pdata$?dtor$12@?0??loadShaderSource@Renderer@@QEAA?AV?$basic_string@DU?$char_traits@D@std@@V?$allocator@D@2@@std@@PEBD@Z@4HA DD imagerel ?dtor$12@?0??loadShaderSource@Renderer@@QEAA?AV?$basic_string@DU?$char_traits@D@std@@V?$allocator@D@2@@std@@PEBD@Z@4HA
	DD	imagerel ?dtor$12@?0??loadShaderSource@Renderer@@QEAA?AV?$basic_string@DU?$char_traits@D@std@@V?$allocator@D@2@@std@@PEBD@Z@4HA+46
	DD	imagerel $unwind$?dtor$12@?0??loadShaderSource@Renderer@@QEAA?AV?$basic_string@DU?$char_traits@D@std@@V?$allocator@D@2@@std@@PEBD@Z@4HA
pdata	ENDS
;	COMDAT pdata
pdata	SEGMENT
$pdata$?dtor$17@?0??loadShaderSource@Renderer@@QEAA?AV?$basic_string@DU?$char_traits@D@std@@V?$allocator@D@2@@std@@PEBD@Z@4HA DD imagerel ?dtor$17@?0??loadShaderSource@Renderer@@QEAA?AV?$basic_string@DU?$char_traits@D@std@@V?$allocator@D@2@@std@@PEBD@Z@4HA
	DD	imagerel ?dtor$17@?0??loadShaderSource@Renderer@@QEAA?AV?$basic_string@DU?$char_traits@D@std@@V?$allocator@D@2@@std@@PEBD@Z@4HA+41
	DD	imagerel $unwind$?dtor$17@?0??loadShaderSource@Renderer@@QEAA?AV?$basic_string@DU?$char_traits@D@std@@V?$allocator@D@2@@std@@PEBD@Z@4HA
pdata	ENDS
;	COMDAT pdata
pdata	SEGMENT
$pdata$?init@Renderer@@QEAAXXZ DD imagerel $LN193
	DD	imagerel $LN193+1926
	DD	imagerel $unwind$?init@Renderer@@QEAAXXZ
pdata	ENDS
;	COMDAT pdata
pdata	SEGMENT
$pdata$?render@Renderer@@QEAAXAEAVUser@@PEAUGLFWwindow@@AEAVWorkspace@@@Z DD imagerel $LN381
	DD	imagerel $LN381+1044
	DD	imagerel $unwind$?render@Renderer@@QEAAXAEAVUser@@PEAUGLFWwindow@@AEAVWorkspace@@@Z
pdata	ENDS
;	COMDAT pdata
pdata	SEGMENT
$pdata$0$?render@Renderer@@QEAAXAEAVUser@@PEAUGLFWwindow@@AEAVWorkspace@@@Z DD imagerel $LN381+1044
	DD	imagerel $LN381+2000
	DD	imagerel $chain$0$?render@Renderer@@QEAAXAEAVUser@@PEAUGLFWwindow@@AEAVWorkspace@@@Z
pdata	ENDS
;	COMDAT pdata
pdata	SEGMENT
$pdata$1$?render@Renderer@@QEAAXAEAVUser@@PEAUGLFWwindow@@AEAVWorkspace@@@Z DD imagerel $LN381+2000
	DD	imagerel $LN381+2099
	DD	imagerel $chain$1$?render@Renderer@@QEAAXAEAVUser@@PEAUGLFWwindow@@AEAVWorkspace@@@Z
pdata	ENDS
;	COMDAT pdata
pdata	SEGMENT
$pdata$?loadTexture@Renderer@@QEAAIPEBD@Z DD imagerel $LN34
	DD	imagerel $LN34+753
	DD	imagerel $unwind$?loadTexture@Renderer@@QEAAIPEBD@Z
pdata	ENDS
;	COMDAT pdata
pdata	SEGMENT
$pdata$stbi_load_from_memory DD imagerel $LN6
	DD	imagerel $LN6+151
	DD	imagerel $unwind$stbi_load_from_memory
pdata	ENDS
;	COMDAT pdata
pdata	SEGMENT
$pdata$stbi_load_from_callbacks DD imagerel $LN12
	DD	imagerel $LN12+258
	DD	imagerel $unwind$stbi_load_from_callbacks
pdata	ENDS
;	COMDAT pdata
pdata	SEGMENT
$pdata$stbi_load DD imagerel $LN27
	DD	imagerel $LN27+378
	DD	imagerel $unwind$stbi_load
pdata	ENDS
;	COMDAT pdata
pdata	SEGMENT
$pdata$stbi_load_from_file DD imagerel $LN17
	DD	imagerel $LN17+286
	DD	imagerel $unwind$stbi_load_from_file
pdata	ENDS
;	COMDAT pdata
pdata	SEGMENT
$pdata$stbi_load_gif_from_memory DD imagerel $LN26
	DD	imagerel $LN26+220
	DD	imagerel $unwind$stbi_load_gif_from_memory
pdata	ENDS
;	COMDAT pdata
pdata	SEGMENT
$pdata$0$stbi_load_gif_from_memory DD imagerel $LN26+220
	DD	imagerel $LN26+238
	DD	imagerel $chain$0$stbi_load_gif_from_memory
pdata	ENDS
;	COMDAT pdata
pdata	SEGMENT
$pdata$1$stbi_load_gif_from_memory DD imagerel $LN26+238
	DD	imagerel $LN26+290
	DD	imagerel $chain$1$stbi_load_gif_from_memory
pdata	ENDS
;	COMDAT pdata
pdata	SEGMENT
$pdata$2$stbi_load_gif_from_memory DD imagerel $LN26+290
	DD	imagerel $LN26+301
	DD	imagerel $chain$2$stbi_load_gif_from_memory
pdata	ENDS
;	COMDAT pdata
pdata	SEGMENT
$pdata$3$stbi_load_gif_from_memory DD imagerel $LN26+301
	DD	imagerel $LN26+339
	DD	imagerel $chain$3$stbi_load_gif_from_memory
pdata	ENDS
;	COMDAT pdata
pdata	SEGMENT
$pdata$stbi_load_16_from_memory DD imagerel $LN6
	DD	imagerel $LN6+151
	DD	imagerel $unwind$stbi_load_16_from_memory
pdata	ENDS
;	COMDAT pdata
pdata	SEGMENT
$pdata$stbi_load_16_from_callbacks DD imagerel $LN12
	DD	imagerel $LN12+258
	DD	imagerel $unwind$stbi_load_16_from_callbacks
pdata	ENDS
;	COMDAT pdata
pdata	SEGMENT
$pdata$stbi_load_16 DD imagerel $LN27
	DD	imagerel $LN27+378
	DD	imagerel $unwind$stbi_load_16
pdata	ENDS
;	COMDAT pdata
pdata	SEGMENT
$pdata$stbi_load_from_file_16 DD imagerel $LN17
	DD	imagerel $LN17+286
	DD	imagerel $unwind$stbi_load_from_file_16
pdata	ENDS
;	COMDAT pdata
pdata	SEGMENT
$pdata$stbi_loadf_from_memory DD imagerel $LN6
	DD	imagerel $LN6+151
	DD	imagerel $unwind$stbi_loadf_from_memory
pdata	ENDS
;	COMDAT pdata
pdata	SEGMENT
$pdata$stbi_loadf_from_callbacks DD imagerel $LN12
	DD	imagerel $LN12+258
	DD	imagerel $unwind$stbi_loadf_from_callbacks
pdata	ENDS
;	COMDAT pdata
pdata	SEGMENT
$pdata$stbi_loadf DD imagerel $LN25
	DD	imagerel $LN25+352
	DD	imagerel $unwind$stbi_loadf
pdata	ENDS
;	COMDAT pdata
pdata	SEGMENT
$pdata$stbi_loadf_from_file DD imagerel $LN14
	DD	imagerel $LN14+241
	DD	imagerel $unwind$stbi_loadf_from_file
pdata	ENDS
;	COMDAT pdata
pdata	SEGMENT
$pdata$stbi_is_hdr_from_callbacks DD imagerel $LN76
	DD	imagerel $LN76+570
	DD	imagerel $unwind$stbi_is_hdr_from_callbacks
pdata	ENDS
;	COMDAT pdata
pdata	SEGMENT
$pdata$stbi_is_hdr_from_memory DD imagerel $LN71
	DD	imagerel $LN71+489
	DD	imagerel $unwind$stbi_is_hdr_from_memory
pdata	ENDS
;	COMDAT pdata
pdata	SEGMENT
$pdata$stbi_is_hdr DD imagerel $LN12
	DD	imagerel $LN12+55
	DD	imagerel $unwind$stbi_is_hdr
pdata	ENDS
;	COMDAT pdata
pdata	SEGMENT
$pdata$0$stbi_is_hdr DD imagerel $LN12+55
	DD	imagerel $LN12+83
	DD	imagerel $chain$0$stbi_is_hdr
pdata	ENDS
;	COMDAT pdata
pdata	SEGMENT
$pdata$1$stbi_is_hdr DD imagerel $LN12+83
	DD	imagerel $LN12+89
	DD	imagerel $chain$1$stbi_is_hdr
pdata	ENDS
;	COMDAT pdata
pdata	SEGMENT
$pdata$stbi_is_hdr_from_file DD imagerel $LN79
	DD	imagerel $LN79+661
	DD	imagerel $unwind$stbi_is_hdr_from_file
pdata	ENDS
;	COMDAT pdata
pdata	SEGMENT
$pdata$stbi_info_from_memory DD imagerel $LN6
	DD	imagerel $LN6+135
	DD	imagerel $unwind$stbi_info_from_memory
pdata	ENDS
;	COMDAT pdata
pdata	SEGMENT
$pdata$stbi_info_from_callbacks DD imagerel $LN12
	DD	imagerel $LN12+238
	DD	imagerel $unwind$stbi_info_from_callbacks
pdata	ENDS
;	COMDAT pdata
pdata	SEGMENT
$pdata$stbi_is_16_bit_from_memory DD imagerel $LN6
	DD	imagerel $LN6+99
	DD	imagerel $unwind$stbi_is_16_bit_from_memory
pdata	ENDS
;	COMDAT pdata
pdata	SEGMENT
$pdata$stbi_is_16_bit_from_callbacks DD imagerel $LN11
	DD	imagerel $LN11+203
	DD	imagerel $unwind$stbi_is_16_bit_from_callbacks
pdata	ENDS
;	COMDAT pdata
pdata	SEGMENT
$pdata$stbi_info DD imagerel $LN25
	DD	imagerel $LN25+132
	DD	imagerel $unwind$stbi_info
pdata	ENDS
;	COMDAT pdata
pdata	SEGMENT
$pdata$0$stbi_info DD imagerel $LN25+132
	DD	imagerel $LN25+351
	DD	imagerel $chain$0$stbi_info
pdata	ENDS
;	COMDAT pdata
pdata	SEGMENT
$pdata$1$stbi_info DD imagerel $LN25+351
	DD	imagerel $LN25+378
	DD	imagerel $chain$1$stbi_info
pdata	ENDS
;	COMDAT pdata
pdata	SEGMENT
$pdata$stbi_info_from_file DD imagerel $LN14
	DD	imagerel $LN14+271
	DD	imagerel $unwind$stbi_info_from_file
pdata	ENDS
;	COMDAT pdata
pdata	SEGMENT
$pdata$stbi_is_16_bit DD imagerel $LN25
	DD	imagerel $LN25+128
	DD	imagerel $unwind$stbi_is_16_bit
pdata	ENDS
;	COMDAT pdata
pdata	SEGMENT
$pdata$0$stbi_is_16_bit DD imagerel $LN25+128
	DD	imagerel $LN25+333
	DD	imagerel $chain$0$stbi_is_16_bit
pdata	ENDS
;	COMDAT pdata
pdata	SEGMENT
$pdata$1$stbi_is_16_bit DD imagerel $LN25+333
	DD	imagerel $LN25+366
	DD	imagerel $chain$1$stbi_is_16_bit
pdata	ENDS
;	COMDAT pdata
pdata	SEGMENT
$pdata$stbi_is_16_bit_from_file DD imagerel $LN14
	DD	imagerel $LN14+240
	DD	imagerel $unwind$stbi_is_16_bit_from_file
pdata	ENDS
;	COMDAT pdata
pdata	SEGMENT
$pdata$stbi_zlib_decode_malloc_guesssize DD imagerel $LN16
	DD	imagerel $LN16+195
	DD	imagerel $unwind$stbi_zlib_decode_malloc_guesssize
pdata	ENDS
;	COMDAT pdata
pdata	SEGMENT
$pdata$stbi_zlib_decode_malloc_guesssize_headerflag DD imagerel $LN16
	DD	imagerel $LN16+197
	DD	imagerel $unwind$stbi_zlib_decode_malloc_guesssize_headerflag
pdata	ENDS
;	COMDAT pdata
pdata	SEGMENT
$pdata$stbi_zlib_decode_malloc DD imagerel $LN18
	DD	imagerel $LN18+195
	DD	imagerel $unwind$stbi_zlib_decode_malloc
pdata	ENDS
;	COMDAT pdata
pdata	SEGMENT
$pdata$stbi_zlib_decode_buffer DD imagerel $LN8
	DD	imagerel $LN8+148
	DD	imagerel $unwind$stbi_zlib_decode_buffer
pdata	ENDS
;	COMDAT pdata
pdata	SEGMENT
$pdata$stbi_zlib_decode_noheader_malloc DD imagerel $LN16
	DD	imagerel $LN16+192
	DD	imagerel $unwind$stbi_zlib_decode_noheader_malloc
pdata	ENDS
;	COMDAT pdata
pdata	SEGMENT
$pdata$stbi_zlib_decode_noheader_buffer DD imagerel $LN8
	DD	imagerel $LN8+145
	DD	imagerel $unwind$stbi_zlib_decode_noheader_buffer
pdata	ENDS
;	COMDAT pdata
pdata	SEGMENT
$pdata$?stbi__cpuid3@@YAHXZ DD imagerel ?stbi__cpuid3@@YAHXZ
	DD	imagerel ?stbi__cpuid3@@YAHXZ+23
	DD	imagerel $unwind$?stbi__cpuid3@@YAHXZ
pdata	ENDS
;	COMDAT pdata
pdata	SEGMENT
$pdata$?stbi__sse2_available@@YAHXZ DD imagerel ?stbi__sse2_available@@YAHXZ
	DD	imagerel ?stbi__sse2_available@@YAHXZ+29
	DD	imagerel $unwind$?stbi__sse2_available@@YAHXZ
pdata	ENDS
;	COMDAT pdata
pdata	SEGMENT
$pdata$?stbi__refill_buffer@@YAXPEAUstbi__context@@@Z DD imagerel ?stbi__refill_buffer@@YAXPEAUstbi__context@@@Z
	DD	imagerel ?stbi__refill_buffer@@YAXPEAUstbi__context@@@Z+116
	DD	imagerel $unwind$?stbi__refill_buffer@@YAXPEAUstbi__context@@@Z
pdata	ENDS
;	COMDAT pdata
pdata	SEGMENT
$pdata$?stbi__start_callbacks@@YAXPEAUstbi__context@@PEAUstbi_io_callbacks@@PEAX@Z DD imagerel ?stbi__start_callbacks@@YAXPEAUstbi__context@@PEAUstbi_io_callbacks@@PEAX@Z
	DD	imagerel ?stbi__start_callbacks@@YAXPEAUstbi__context@@PEAUstbi_io_callbacks@@PEAX@Z+97
	DD	imagerel $unwind$?stbi__start_callbacks@@YAXPEAUstbi__context@@PEAUstbi_io_callbacks@@PEAX@Z
pdata	ENDS
;	COMDAT pdata
pdata	SEGMENT
$pdata$?stbi__stdio_skip@@YAXPEAXH@Z DD imagerel ?stbi__stdio_skip@@YAXPEAXH@Z
	DD	imagerel ?stbi__stdio_skip@@YAXPEAXH@Z+58
	DD	imagerel $unwind$?stbi__stdio_skip@@YAXPEAXH@Z
pdata	ENDS
;	COMDAT pdata
pdata	SEGMENT
$pdata$?stbi__stdio_eof@@YAHPEAX@Z DD imagerel ?stbi__stdio_eof@@YAHPEAX@Z
	DD	imagerel ?stbi__stdio_eof@@YAHPEAX@Z+49
	DD	imagerel $unwind$?stbi__stdio_eof@@YAHPEAX@Z
pdata	ENDS
;	COMDAT pdata
pdata	SEGMENT
$pdata$?stbi__start_file@@YAXPEAUstbi__context@@PEAU_iobuf@@@Z DD imagerel ?stbi__start_file@@YAXPEAUstbi__context@@PEAU_iobuf@@@Z
	DD	imagerel ?stbi__start_file@@YAXPEAUstbi__context@@PEAU_iobuf@@@Z+104
	DD	imagerel $unwind$?stbi__start_file@@YAXPEAUstbi__context@@PEAU_iobuf@@@Z
pdata	ENDS
;	COMDAT pdata
pdata	SEGMENT
$pdata$?stbi__jpeg_test@@YAHPEAUstbi__context@@@Z DD imagerel ?stbi__jpeg_test@@YAHPEAUstbi__context@@@Z
	DD	imagerel ?stbi__jpeg_test@@YAHPEAUstbi__context@@@Z+251
	DD	imagerel $unwind$?stbi__jpeg_test@@YAHPEAUstbi__context@@@Z
pdata	ENDS
;	COMDAT pdata
pdata	SEGMENT
$pdata$?stbi__jpeg_load@@YAPEAXPEAUstbi__context@@PEAH11HPEAUstbi__result_info@@@Z DD imagerel ?stbi__jpeg_load@@YAPEAXPEAUstbi__context@@PEAH11HPEAUstbi__result_info@@@Z
	DD	imagerel ?stbi__jpeg_load@@YAPEAXPEAUstbi__context@@PEAH11HPEAUstbi__result_info@@@Z+174
	DD	imagerel $unwind$?stbi__jpeg_load@@YAPEAXPEAUstbi__context@@PEAH11HPEAUstbi__result_info@@@Z
pdata	ENDS
;	COMDAT pdata
pdata	SEGMENT
$pdata$?stbi__jpeg_info@@YAHPEAUstbi__context@@PEAH11@Z DD imagerel ?stbi__jpeg_info@@YAHPEAUstbi__context@@PEAH11@Z
	DD	imagerel ?stbi__jpeg_info@@YAHPEAUstbi__context@@PEAH11@Z+238
	DD	imagerel $unwind$?stbi__jpeg_info@@YAHPEAUstbi__context@@PEAH11@Z
pdata	ENDS
;	COMDAT pdata
pdata	SEGMENT
$pdata$?stbi__png_test@@YAHPEAUstbi__context@@@Z DD imagerel ?stbi__png_test@@YAHPEAUstbi__context@@@Z
	DD	imagerel ?stbi__png_test@@YAHPEAUstbi__context@@@Z+48
	DD	imagerel $unwind$?stbi__png_test@@YAHPEAUstbi__context@@@Z
pdata	ENDS
;	COMDAT pdata
pdata	SEGMENT
$pdata$?stbi__png_load@@YAPEAXPEAUstbi__context@@PEAH11HPEAUstbi__result_info@@@Z DD imagerel ?stbi__png_load@@YAPEAXPEAUstbi__context@@PEAH11HPEAUstbi__result_info@@@Z
	DD	imagerel ?stbi__png_load@@YAPEAXPEAUstbi__context@@PEAH11HPEAUstbi__result_info@@@Z+52
	DD	imagerel $unwind$?stbi__png_load@@YAPEAXPEAUstbi__context@@PEAH11HPEAUstbi__result_info@@@Z
pdata	ENDS
;	COMDAT pdata
pdata	SEGMENT
$pdata$1$?stbi__png_load@@YAPEAXPEAUstbi__context@@PEAH11HPEAUstbi__result_info@@@Z DD imagerel ?stbi__png_load@@YAPEAXPEAUstbi__context@@PEAH11HPEAUstbi__result_info@@@Z+52
	DD	imagerel ?stbi__png_load@@YAPEAXPEAUstbi__context@@PEAH11HPEAUstbi__result_info@@@Z+261
	DD	imagerel $chain$1$?stbi__png_load@@YAPEAXPEAUstbi__context@@PEAH11HPEAUstbi__result_info@@@Z
pdata	ENDS
;	COMDAT pdata
pdata	SEGMENT
$pdata$2$?stbi__png_load@@YAPEAXPEAUstbi__context@@PEAH11HPEAUstbi__result_info@@@Z DD imagerel ?stbi__png_load@@YAPEAXPEAUstbi__context@@PEAH11HPEAUstbi__result_info@@@Z+261
	DD	imagerel ?stbi__png_load@@YAPEAXPEAUstbi__context@@PEAH11HPEAUstbi__result_info@@@Z+284
	DD	imagerel $chain$2$?stbi__png_load@@YAPEAXPEAUstbi__context@@PEAH11HPEAUstbi__result_info@@@Z
pdata	ENDS
;	COMDAT pdata
pdata	SEGMENT
$pdata$3$?stbi__png_load@@YAPEAXPEAUstbi__context@@PEAH11HPEAUstbi__result_info@@@Z DD imagerel ?stbi__png_load@@YAPEAXPEAUstbi__context@@PEAH11HPEAUstbi__result_info@@@Z+284
	DD	imagerel ?stbi__png_load@@YAPEAXPEAUstbi__context@@PEAH11HPEAUstbi__result_info@@@Z+325
	DD	imagerel $chain$3$?stbi__png_load@@YAPEAXPEAUstbi__context@@PEAH11HPEAUstbi__result_info@@@Z
pdata	ENDS
;	COMDAT pdata
pdata	SEGMENT
$pdata$4$?stbi__png_load@@YAPEAXPEAUstbi__context@@PEAH11HPEAUstbi__result_info@@@Z DD imagerel ?stbi__png_load@@YAPEAXPEAUstbi__context@@PEAH11HPEAUstbi__result_info@@@Z+325
	DD	imagerel ?stbi__png_load@@YAPEAXPEAUstbi__context@@PEAH11HPEAUstbi__result_info@@@Z+365
	DD	imagerel $chain$4$?stbi__png_load@@YAPEAXPEAUstbi__context@@PEAH11HPEAUstbi__result_info@@@Z
pdata	ENDS
;	COMDAT pdata
pdata	SEGMENT
$pdata$?stbi__png_info@@YAHPEAUstbi__context@@PEAH11@Z DD imagerel ?stbi__png_info@@YAHPEAUstbi__context@@PEAH11@Z
	DD	imagerel ?stbi__png_info@@YAHPEAUstbi__context@@PEAH11@Z+152
	DD	imagerel $unwind$?stbi__png_info@@YAHPEAUstbi__context@@PEAH11@Z
pdata	ENDS
;	COMDAT pdata
pdata	SEGMENT
$pdata$?stbi__png_is16@@YAHPEAUstbi__context@@@Z DD imagerel ?stbi__png_is16@@YAHPEAUstbi__context@@@Z
	DD	imagerel ?stbi__png_is16@@YAHPEAUstbi__context@@@Z+88
	DD	imagerel $unwind$?stbi__png_is16@@YAHPEAUstbi__context@@@Z
pdata	ENDS
;	COMDAT pdata
pdata	SEGMENT
$pdata$?stbi__bmp_test@@YAHPEAUstbi__context@@@Z DD imagerel ?stbi__bmp_test@@YAHPEAUstbi__context@@@Z
	DD	imagerel ?stbi__bmp_test@@YAHPEAUstbi__context@@@Z+276
	DD	imagerel $unwind$?stbi__bmp_test@@YAHPEAUstbi__context@@@Z
pdata	ENDS
;	COMDAT pdata
pdata	SEGMENT
$pdata$?stbi__bmp_load@@YAPEAXPEAUstbi__context@@PEAH11HPEAUstbi__result_info@@@Z DD imagerel ?stbi__bmp_load@@YAPEAXPEAUstbi__context@@PEAH11HPEAUstbi__result_info@@@Z
	DD	imagerel ?stbi__bmp_load@@YAPEAXPEAUstbi__context@@PEAH11HPEAUstbi__result_info@@@Z+4241
	DD	imagerel $unwind$?stbi__bmp_load@@YAPEAXPEAUstbi__context@@PEAH11HPEAUstbi__result_info@@@Z
pdata	ENDS
;	COMDAT pdata
pdata	SEGMENT
$pdata$?stbi__bmp_info@@YAHPEAUstbi__context@@PEAH11@Z DD imagerel ?stbi__bmp_info@@YAHPEAUstbi__context@@PEAH11@Z
	DD	imagerel ?stbi__bmp_info@@YAHPEAUstbi__context@@PEAH11@Z+177
	DD	imagerel $unwind$?stbi__bmp_info@@YAHPEAUstbi__context@@PEAH11@Z
pdata	ENDS
;	COMDAT pdata
pdata	SEGMENT
$pdata$?stbi__tga_test@@YAHPEAUstbi__context@@@Z DD imagerel ?stbi__tga_test@@YAHPEAUstbi__context@@@Z
	DD	imagerel ?stbi__tga_test@@YAHPEAUstbi__context@@@Z+131
	DD	imagerel $unwind$?stbi__tga_test@@YAHPEAUstbi__context@@@Z
pdata	ENDS
;	COMDAT pdata
pdata	SEGMENT
$pdata$2$?stbi__tga_test@@YAHPEAUstbi__context@@@Z DD imagerel ?stbi__tga_test@@YAHPEAUstbi__context@@@Z+131
	DD	imagerel ?stbi__tga_test@@YAHPEAUstbi__context@@@Z+595
	DD	imagerel $chain$2$?stbi__tga_test@@YAHPEAUstbi__context@@@Z
pdata	ENDS
;	COMDAT pdata
pdata	SEGMENT
$pdata$3$?stbi__tga_test@@YAHPEAUstbi__context@@@Z DD imagerel ?stbi__tga_test@@YAHPEAUstbi__context@@@Z+595
	DD	imagerel ?stbi__tga_test@@YAHPEAUstbi__context@@@Z+640
	DD	imagerel $chain$3$?stbi__tga_test@@YAHPEAUstbi__context@@@Z
pdata	ENDS
;	COMDAT pdata
pdata	SEGMENT
$pdata$?stbi__tga_load@@YAPEAXPEAUstbi__context@@PEAH11HPEAUstbi__result_info@@@Z DD imagerel ?stbi__tga_load@@YAPEAXPEAUstbi__context@@PEAH11HPEAUstbi__result_info@@@Z
	DD	imagerel ?stbi__tga_load@@YAPEAXPEAUstbi__context@@PEAH11HPEAUstbi__result_info@@@Z+262
	DD	imagerel $unwind$?stbi__tga_load@@YAPEAXPEAUstbi__context@@PEAH11HPEAUstbi__result_info@@@Z
pdata	ENDS
;	COMDAT pdata
pdata	SEGMENT
$pdata$4$?stbi__tga_load@@YAPEAXPEAUstbi__context@@PEAH11HPEAUstbi__result_info@@@Z DD imagerel ?stbi__tga_load@@YAPEAXPEAUstbi__context@@PEAH11HPEAUstbi__result_info@@@Z+262
	DD	imagerel ?stbi__tga_load@@YAPEAXPEAUstbi__context@@PEAH11HPEAUstbi__result_info@@@Z+2365
	DD	imagerel $chain$4$?stbi__tga_load@@YAPEAXPEAUstbi__context@@PEAH11HPEAUstbi__result_info@@@Z
pdata	ENDS
;	COMDAT pdata
pdata	SEGMENT
$pdata$?stbi__tga_info@@YAHPEAUstbi__context@@PEAH11@Z DD imagerel ?stbi__tga_info@@YAHPEAUstbi__context@@PEAH11@Z
	DD	imagerel ?stbi__tga_info@@YAHPEAUstbi__context@@PEAH11@Z+608
	DD	imagerel $unwind$?stbi__tga_info@@YAHPEAUstbi__context@@PEAH11@Z
pdata	ENDS
;	COMDAT pdata
pdata	SEGMENT
$pdata$3$?stbi__tga_info@@YAHPEAUstbi__context@@PEAH11@Z DD imagerel ?stbi__tga_info@@YAHPEAUstbi__context@@PEAH11@Z+608
	DD	imagerel ?stbi__tga_info@@YAHPEAUstbi__context@@PEAH11@Z+664
	DD	imagerel $chain$3$?stbi__tga_info@@YAHPEAUstbi__context@@PEAH11@Z
pdata	ENDS
;	COMDAT pdata
pdata	SEGMENT
$pdata$4$?stbi__tga_info@@YAHPEAUstbi__context@@PEAH11@Z DD imagerel ?stbi__tga_info@@YAHPEAUstbi__context@@PEAH11@Z+664
	DD	imagerel ?stbi__tga_info@@YAHPEAUstbi__context@@PEAH11@Z+1003
	DD	imagerel $chain$4$?stbi__tga_info@@YAHPEAUstbi__context@@PEAH11@Z
pdata	ENDS
;	COMDAT pdata
pdata	SEGMENT
$pdata$5$?stbi__tga_info@@YAHPEAUstbi__context@@PEAH11@Z DD imagerel ?stbi__tga_info@@YAHPEAUstbi__context@@PEAH11@Z+1003
	DD	imagerel ?stbi__tga_info@@YAHPEAUstbi__context@@PEAH11@Z+1008
	DD	imagerel $chain$5$?stbi__tga_info@@YAHPEAUstbi__context@@PEAH11@Z
pdata	ENDS
;	COMDAT pdata
pdata	SEGMENT
$pdata$6$?stbi__tga_info@@YAHPEAUstbi__context@@PEAH11@Z DD imagerel ?stbi__tga_info@@YAHPEAUstbi__context@@PEAH11@Z+1008
	DD	imagerel ?stbi__tga_info@@YAHPEAUstbi__context@@PEAH11@Z+1032
	DD	imagerel $chain$6$?stbi__tga_info@@YAHPEAUstbi__context@@PEAH11@Z
pdata	ENDS
;	COMDAT pdata
pdata	SEGMENT
$pdata$?stbi__psd_test@@YAHPEAUstbi__context@@@Z DD imagerel ?stbi__psd_test@@YAHPEAUstbi__context@@@Z
	DD	imagerel ?stbi__psd_test@@YAHPEAUstbi__context@@@Z+84
	DD	imagerel $unwind$?stbi__psd_test@@YAHPEAUstbi__context@@@Z
pdata	ENDS
;	COMDAT pdata
pdata	SEGMENT
$pdata$?stbi__psd_load@@YAPEAXPEAUstbi__context@@PEAH11HPEAUstbi__result_info@@H@Z DD imagerel ?stbi__psd_load@@YAPEAXPEAUstbi__context@@PEAH11HPEAUstbi__result_info@@H@Z
	DD	imagerel ?stbi__psd_load@@YAPEAXPEAUstbi__context@@PEAH11HPEAUstbi__result_info@@H@Z+157
	DD	imagerel $unwind$?stbi__psd_load@@YAPEAXPEAUstbi__context@@PEAH11HPEAUstbi__result_info@@H@Z
pdata	ENDS
;	COMDAT pdata
pdata	SEGMENT
$pdata$2$?stbi__psd_load@@YAPEAXPEAUstbi__context@@PEAH11HPEAUstbi__result_info@@H@Z DD imagerel ?stbi__psd_load@@YAPEAXPEAUstbi__context@@PEAH11HPEAUstbi__result_info@@H@Z+157
	DD	imagerel ?stbi__psd_load@@YAPEAXPEAUstbi__context@@PEAH11HPEAUstbi__result_info@@H@Z+338
	DD	imagerel $chain$2$?stbi__psd_load@@YAPEAXPEAUstbi__context@@PEAH11HPEAUstbi__result_info@@H@Z
pdata	ENDS
;	COMDAT pdata
pdata	SEGMENT
$pdata$3$?stbi__psd_load@@YAPEAXPEAUstbi__context@@PEAH11HPEAUstbi__result_info@@H@Z DD imagerel ?stbi__psd_load@@YAPEAXPEAUstbi__context@@PEAH11HPEAUstbi__result_info@@H@Z+338
	DD	imagerel ?stbi__psd_load@@YAPEAXPEAUstbi__context@@PEAH11HPEAUstbi__result_info@@H@Z+462
	DD	imagerel $chain$3$?stbi__psd_load@@YAPEAXPEAUstbi__context@@PEAH11HPEAUstbi__result_info@@H@Z
pdata	ENDS
;	COMDAT pdata
pdata	SEGMENT
$pdata$4$?stbi__psd_load@@YAPEAXPEAUstbi__context@@PEAH11HPEAUstbi__result_info@@H@Z DD imagerel ?stbi__psd_load@@YAPEAXPEAUstbi__context@@PEAH11HPEAUstbi__result_info@@H@Z+462
	DD	imagerel ?stbi__psd_load@@YAPEAXPEAUstbi__context@@PEAH11HPEAUstbi__result_info@@H@Z+662
	DD	imagerel $chain$4$?stbi__psd_load@@YAPEAXPEAUstbi__context@@PEAH11HPEAUstbi__result_info@@H@Z
pdata	ENDS
;	COMDAT pdata
pdata	SEGMENT
$pdata$5$?stbi__psd_load@@YAPEAXPEAUstbi__context@@PEAH11HPEAUstbi__result_info@@H@Z DD imagerel ?stbi__psd_load@@YAPEAXPEAUstbi__context@@PEAH11HPEAUstbi__result_info@@H@Z+662
	DD	imagerel ?stbi__psd_load@@YAPEAXPEAUstbi__context@@PEAH11HPEAUstbi__result_info@@H@Z+877
	DD	imagerel $chain$5$?stbi__psd_load@@YAPEAXPEAUstbi__context@@PEAH11HPEAUstbi__result_info@@H@Z
pdata	ENDS
;	COMDAT pdata
pdata	SEGMENT
$pdata$6$?stbi__psd_load@@YAPEAXPEAUstbi__context@@PEAH11HPEAUstbi__result_info@@H@Z DD imagerel ?stbi__psd_load@@YAPEAXPEAUstbi__context@@PEAH11HPEAUstbi__result_info@@H@Z+877
	DD	imagerel ?stbi__psd_load@@YAPEAXPEAUstbi__context@@PEAH11HPEAUstbi__result_info@@H@Z+885
	DD	imagerel $chain$6$?stbi__psd_load@@YAPEAXPEAUstbi__context@@PEAH11HPEAUstbi__result_info@@H@Z
pdata	ENDS
;	COMDAT pdata
pdata	SEGMENT
$pdata$7$?stbi__psd_load@@YAPEAXPEAUstbi__context@@PEAH11HPEAUstbi__result_info@@H@Z DD imagerel ?stbi__psd_load@@YAPEAXPEAUstbi__context@@PEAH11HPEAUstbi__result_info@@H@Z+885
	DD	imagerel ?stbi__psd_load@@YAPEAXPEAUstbi__context@@PEAH11HPEAUstbi__result_info@@H@Z+890
	DD	imagerel $chain$7$?stbi__psd_load@@YAPEAXPEAUstbi__context@@PEAH11HPEAUstbi__result_info@@H@Z
pdata	ENDS
;	COMDAT pdata
pdata	SEGMENT
$pdata$8$?stbi__psd_load@@YAPEAXPEAUstbi__context@@PEAH11HPEAUstbi__result_info@@H@Z DD imagerel ?stbi__psd_load@@YAPEAXPEAUstbi__context@@PEAH11HPEAUstbi__result_info@@H@Z+890
	DD	imagerel ?stbi__psd_load@@YAPEAXPEAUstbi__context@@PEAH11HPEAUstbi__result_info@@H@Z+912
	DD	imagerel $chain$8$?stbi__psd_load@@YAPEAXPEAUstbi__context@@PEAH11HPEAUstbi__result_info@@H@Z
pdata	ENDS
;	COMDAT pdata
pdata	SEGMENT
$pdata$10$?stbi__psd_load@@YAPEAXPEAUstbi__context@@PEAH11HPEAUstbi__result_info@@H@Z DD imagerel ?stbi__psd_load@@YAPEAXPEAUstbi__context@@PEAH11HPEAUstbi__result_info@@H@Z+912
	DD	imagerel ?stbi__psd_load@@YAPEAXPEAUstbi__context@@PEAH11HPEAUstbi__result_info@@H@Z+3102
	DD	imagerel $chain$10$?stbi__psd_load@@YAPEAXPEAUstbi__context@@PEAH11HPEAUstbi__result_info@@H@Z
pdata	ENDS
;	COMDAT pdata
pdata	SEGMENT
$pdata$11$?stbi__psd_load@@YAPEAXPEAUstbi__context@@PEAH11HPEAUstbi__result_info@@H@Z DD imagerel ?stbi__psd_load@@YAPEAXPEAUstbi__context@@PEAH11HPEAUstbi__result_info@@H@Z+3102
	DD	imagerel ?stbi__psd_load@@YAPEAXPEAUstbi__context@@PEAH11HPEAUstbi__result_info@@H@Z+3144
	DD	imagerel $chain$11$?stbi__psd_load@@YAPEAXPEAUstbi__context@@PEAH11HPEAUstbi__result_info@@H@Z
pdata	ENDS
;	COMDAT pdata
pdata	SEGMENT
$pdata$12$?stbi__psd_load@@YAPEAXPEAUstbi__context@@PEAH11HPEAUstbi__result_info@@H@Z DD imagerel ?stbi__psd_load@@YAPEAXPEAUstbi__context@@PEAH11HPEAUstbi__result_info@@H@Z+3144
	DD	imagerel ?stbi__psd_load@@YAPEAXPEAUstbi__context@@PEAH11HPEAUstbi__result_info@@H@Z+3193
	DD	imagerel $chain$12$?stbi__psd_load@@YAPEAXPEAUstbi__context@@PEAH11HPEAUstbi__result_info@@H@Z
pdata	ENDS
;	COMDAT pdata
pdata	SEGMENT
$pdata$?stbi__psd_info@@YAHPEAUstbi__context@@PEAH11@Z DD imagerel ?stbi__psd_info@@YAHPEAUstbi__context@@PEAH11@Z
	DD	imagerel ?stbi__psd_info@@YAHPEAUstbi__context@@PEAH11@Z+145
	DD	imagerel $unwind$?stbi__psd_info@@YAHPEAUstbi__context@@PEAH11@Z
pdata	ENDS
;	COMDAT pdata
pdata	SEGMENT
$pdata$0$?stbi__psd_info@@YAHPEAUstbi__context@@PEAH11@Z DD imagerel ?stbi__psd_info@@YAHPEAUstbi__context@@PEAH11@Z+145
	DD	imagerel ?stbi__psd_info@@YAHPEAUstbi__context@@PEAH11@Z+301
	DD	imagerel $chain$0$?stbi__psd_info@@YAHPEAUstbi__context@@PEAH11@Z
pdata	ENDS
;	COMDAT pdata
pdata	SEGMENT
$pdata$1$?stbi__psd_info@@YAHPEAUstbi__context@@PEAH11@Z DD imagerel ?stbi__psd_info@@YAHPEAUstbi__context@@PEAH11@Z+301
	DD	imagerel ?stbi__psd_info@@YAHPEAUstbi__context@@PEAH11@Z+321
	DD	imagerel $chain$1$?stbi__psd_info@@YAHPEAUstbi__context@@PEAH11@Z
pdata	ENDS
;	COMDAT pdata
pdata	SEGMENT
$pdata$?stbi__psd_is16@@YAHPEAUstbi__context@@@Z DD imagerel ?stbi__psd_is16@@YAHPEAUstbi__context@@@Z
	DD	imagerel ?stbi__psd_is16@@YAHPEAUstbi__context@@@Z+106
	DD	imagerel $unwind$?stbi__psd_is16@@YAHPEAUstbi__context@@@Z
pdata	ENDS
;	COMDAT pdata
pdata	SEGMENT
$pdata$0$?stbi__psd_is16@@YAHPEAUstbi__context@@@Z DD imagerel ?stbi__psd_is16@@YAHPEAUstbi__context@@@Z+106
	DD	imagerel ?stbi__psd_is16@@YAHPEAUstbi__context@@@Z+218
	DD	imagerel $chain$0$?stbi__psd_is16@@YAHPEAUstbi__context@@@Z
pdata	ENDS
;	COMDAT pdata
pdata	SEGMENT
$pdata$2$?stbi__psd_is16@@YAHPEAUstbi__context@@@Z DD imagerel ?stbi__psd_is16@@YAHPEAUstbi__context@@@Z+218
	DD	imagerel ?stbi__psd_is16@@YAHPEAUstbi__context@@@Z+256
	DD	imagerel $chain$2$?stbi__psd_is16@@YAHPEAUstbi__context@@@Z
pdata	ENDS
;	COMDAT pdata
pdata	SEGMENT
$pdata$?stbi__hdr_test@@YAHPEAUstbi__context@@@Z DD imagerel ?stbi__hdr_test@@YAHPEAUstbi__context@@@Z
	DD	imagerel ?stbi__hdr_test@@YAHPEAUstbi__context@@@Z+262
	DD	imagerel $unwind$?stbi__hdr_test@@YAHPEAUstbi__context@@@Z
pdata	ENDS
;	COMDAT pdata
pdata	SEGMENT
$pdata$?stbi__hdr_load@@YAPEAMPEAUstbi__context@@PEAH11HPEAUstbi__result_info@@@Z DD imagerel ?stbi__hdr_load@@YAPEAMPEAUstbi__context@@PEAH11HPEAUstbi__result_info@@@Z
	DD	imagerel ?stbi__hdr_load@@YAPEAMPEAUstbi__context@@PEAH11HPEAUstbi__result_info@@@Z+124
	DD	imagerel $unwind$?stbi__hdr_load@@YAPEAMPEAUstbi__context@@PEAH11HPEAUstbi__result_info@@@Z
pdata	ENDS
;	COMDAT pdata
pdata	SEGMENT
$pdata$0$?stbi__hdr_load@@YAPEAMPEAUstbi__context@@PEAH11HPEAUstbi__result_info@@@Z DD imagerel ?stbi__hdr_load@@YAPEAMPEAUstbi__context@@PEAH11HPEAUstbi__result_info@@@Z+124
	DD	imagerel ?stbi__hdr_load@@YAPEAMPEAUstbi__context@@PEAH11HPEAUstbi__result_info@@@Z+319
	DD	imagerel $chain$0$?stbi__hdr_load@@YAPEAMPEAUstbi__context@@PEAH11HPEAUstbi__result_info@@@Z
pdata	ENDS
;	COMDAT pdata
pdata	SEGMENT
$pdata$1$?stbi__hdr_load@@YAPEAMPEAUstbi__context@@PEAH11HPEAUstbi__result_info@@@Z DD imagerel ?stbi__hdr_load@@YAPEAMPEAUstbi__context@@PEAH11HPEAUstbi__result_info@@@Z+319
	DD	imagerel ?stbi__hdr_load@@YAPEAMPEAUstbi__context@@PEAH11HPEAUstbi__result_info@@@Z+361
	DD	imagerel $chain$1$?stbi__hdr_load@@YAPEAMPEAUstbi__context@@PEAH11HPEAUstbi__result_info@@@Z
pdata	ENDS
;	COMDAT pdata
pdata	SEGMENT
$pdata$2$?stbi__hdr_load@@YAPEAMPEAUstbi__context@@PEAH11HPEAUstbi__result_info@@@Z DD imagerel ?stbi__hdr_load@@YAPEAMPEAUstbi__context@@PEAH11HPEAUstbi__result_info@@@Z+361
	DD	imagerel ?stbi__hdr_load@@YAPEAMPEAUstbi__context@@PEAH11HPEAUstbi__result_info@@@Z+365
	DD	imagerel $chain$2$?stbi__hdr_load@@YAPEAMPEAUstbi__context@@PEAH11HPEAUstbi__result_info@@@Z
pdata	ENDS
;	COMDAT pdata
pdata	SEGMENT
$pdata$3$?stbi__hdr_load@@YAPEAMPEAUstbi__context@@PEAH11HPEAUstbi__result_info@@@Z DD imagerel ?stbi__hdr_load@@YAPEAMPEAUstbi__context@@PEAH11HPEAUstbi__result_info@@@Z+365
	DD	imagerel ?stbi__hdr_load@@YAPEAMPEAUstbi__context@@PEAH11HPEAUstbi__result_info@@@Z+496
	DD	imagerel $chain$3$?stbi__hdr_load@@YAPEAMPEAUstbi__context@@PEAH11HPEAUstbi__result_info@@@Z
pdata	ENDS
;	COMDAT pdata
pdata	SEGMENT
$pdata$4$?stbi__hdr_load@@YAPEAMPEAUstbi__context@@PEAH11HPEAUstbi__result_info@@@Z DD imagerel ?stbi__hdr_load@@YAPEAMPEAUstbi__context@@PEAH11HPEAUstbi__result_info@@@Z+496
	DD	imagerel ?stbi__hdr_load@@YAPEAMPEAUstbi__context@@PEAH11HPEAUstbi__result_info@@@Z+504
	DD	imagerel $chain$4$?stbi__hdr_load@@YAPEAMPEAUstbi__context@@PEAH11HPEAUstbi__result_info@@@Z
pdata	ENDS
;	COMDAT pdata
pdata	SEGMENT
$pdata$5$?stbi__hdr_load@@YAPEAMPEAUstbi__context@@PEAH11HPEAUstbi__result_info@@@Z DD imagerel ?stbi__hdr_load@@YAPEAMPEAUstbi__context@@PEAH11HPEAUstbi__result_info@@@Z+504
	DD	imagerel ?stbi__hdr_load@@YAPEAMPEAUstbi__context@@PEAH11HPEAUstbi__result_info@@@Z+536
	DD	imagerel $chain$5$?stbi__hdr_load@@YAPEAMPEAUstbi__context@@PEAH11HPEAUstbi__result_info@@@Z
pdata	ENDS
;	COMDAT pdata
pdata	SEGMENT
$pdata$6$?stbi__hdr_load@@YAPEAMPEAUstbi__context@@PEAH11HPEAUstbi__result_info@@@Z DD imagerel ?stbi__hdr_load@@YAPEAMPEAUstbi__context@@PEAH11HPEAUstbi__result_info@@@Z+536
	DD	imagerel ?stbi__hdr_load@@YAPEAMPEAUstbi__context@@PEAH11HPEAUstbi__result_info@@@Z+2061
	DD	imagerel $chain$6$?stbi__hdr_load@@YAPEAMPEAUstbi__context@@PEAH11HPEAUstbi__result_info@@@Z
pdata	ENDS
;	COMDAT pdata
pdata	SEGMENT
$pdata$7$?stbi__hdr_load@@YAPEAMPEAUstbi__context@@PEAH11HPEAUstbi__result_info@@@Z DD imagerel ?stbi__hdr_load@@YAPEAMPEAUstbi__context@@PEAH11HPEAUstbi__result_info@@@Z+2061
	DD	imagerel ?stbi__hdr_load@@YAPEAMPEAUstbi__context@@PEAH11HPEAUstbi__result_info@@@Z+2103
	DD	imagerel $chain$7$?stbi__hdr_load@@YAPEAMPEAUstbi__context@@PEAH11HPEAUstbi__result_info@@@Z
pdata	ENDS
;	COMDAT pdata
pdata	SEGMENT
$pdata$?stbi__hdr_info@@YAHPEAUstbi__context@@PEAH11@Z DD imagerel ?stbi__hdr_info@@YAHPEAUstbi__context@@PEAH11@Z
	DD	imagerel ?stbi__hdr_info@@YAHPEAUstbi__context@@PEAH11@Z+115
	DD	imagerel $unwind$?stbi__hdr_info@@YAHPEAUstbi__context@@PEAH11@Z
pdata	ENDS
;	COMDAT pdata
pdata	SEGMENT
$pdata$1$?stbi__hdr_info@@YAHPEAUstbi__context@@PEAH11@Z DD imagerel ?stbi__hdr_info@@YAHPEAUstbi__context@@PEAH11@Z+115
	DD	imagerel ?stbi__hdr_info@@YAHPEAUstbi__context@@PEAH11@Z+444
	DD	imagerel $chain$1$?stbi__hdr_info@@YAHPEAUstbi__context@@PEAH11@Z
pdata	ENDS
;	COMDAT pdata
pdata	SEGMENT
$pdata$2$?stbi__hdr_info@@YAHPEAUstbi__context@@PEAH11@Z DD imagerel ?stbi__hdr_info@@YAHPEAUstbi__context@@PEAH11@Z+444
	DD	imagerel ?stbi__hdr_info@@YAHPEAUstbi__context@@PEAH11@Z+474
	DD	imagerel $chain$2$?stbi__hdr_info@@YAHPEAUstbi__context@@PEAH11@Z
pdata	ENDS
;	COMDAT pdata
pdata	SEGMENT
$pdata$?stbi__pic_test@@YAHPEAUstbi__context@@@Z DD imagerel ?stbi__pic_test@@YAHPEAUstbi__context@@@Z
	DD	imagerel ?stbi__pic_test@@YAHPEAUstbi__context@@@Z+48
	DD	imagerel $unwind$?stbi__pic_test@@YAHPEAUstbi__context@@@Z
pdata	ENDS
;	COMDAT pdata
pdata	SEGMENT
$pdata$2$?stbi__pic_test@@YAHPEAUstbi__context@@@Z DD imagerel ?stbi__pic_test@@YAHPEAUstbi__context@@@Z+48
	DD	imagerel ?stbi__pic_test@@YAHPEAUstbi__context@@@Z+229
	DD	imagerel $chain$2$?stbi__pic_test@@YAHPEAUstbi__context@@@Z
pdata	ENDS
;	COMDAT pdata
pdata	SEGMENT
$pdata$3$?stbi__pic_test@@YAHPEAUstbi__context@@@Z DD imagerel ?stbi__pic_test@@YAHPEAUstbi__context@@@Z+229
	DD	imagerel ?stbi__pic_test@@YAHPEAUstbi__context@@@Z+271
	DD	imagerel $chain$3$?stbi__pic_test@@YAHPEAUstbi__context@@@Z
pdata	ENDS
;	COMDAT pdata
pdata	SEGMENT
$pdata$?stbi__pic_load@@YAPEAXPEAUstbi__context@@PEAH11HPEAUstbi__result_info@@@Z DD imagerel ?stbi__pic_load@@YAPEAXPEAUstbi__context@@PEAH11HPEAUstbi__result_info@@@Z
	DD	imagerel ?stbi__pic_load@@YAPEAXPEAUstbi__context@@PEAH11HPEAUstbi__result_info@@@Z+287
	DD	imagerel $unwind$?stbi__pic_load@@YAPEAXPEAUstbi__context@@PEAH11HPEAUstbi__result_info@@@Z
pdata	ENDS
;	COMDAT pdata
pdata	SEGMENT
$pdata$0$?stbi__pic_load@@YAPEAXPEAUstbi__context@@PEAH11HPEAUstbi__result_info@@@Z DD imagerel ?stbi__pic_load@@YAPEAXPEAUstbi__context@@PEAH11HPEAUstbi__result_info@@@Z+287
	DD	imagerel ?stbi__pic_load@@YAPEAXPEAUstbi__context@@PEAH11HPEAUstbi__result_info@@@Z+346
	DD	imagerel $chain$0$?stbi__pic_load@@YAPEAXPEAUstbi__context@@PEAH11HPEAUstbi__result_info@@@Z
pdata	ENDS
;	COMDAT pdata
pdata	SEGMENT
$pdata$1$?stbi__pic_load@@YAPEAXPEAUstbi__context@@PEAH11HPEAUstbi__result_info@@@Z DD imagerel ?stbi__pic_load@@YAPEAXPEAUstbi__context@@PEAH11HPEAUstbi__result_info@@@Z+346
	DD	imagerel ?stbi__pic_load@@YAPEAXPEAUstbi__context@@PEAH11HPEAUstbi__result_info@@@Z+529
	DD	imagerel $chain$1$?stbi__pic_load@@YAPEAXPEAUstbi__context@@PEAH11HPEAUstbi__result_info@@@Z
pdata	ENDS
;	COMDAT pdata
pdata	SEGMENT
$pdata$2$?stbi__pic_load@@YAPEAXPEAUstbi__context@@PEAH11HPEAUstbi__result_info@@@Z DD imagerel ?stbi__pic_load@@YAPEAXPEAUstbi__context@@PEAH11HPEAUstbi__result_info@@@Z+529
	DD	imagerel ?stbi__pic_load@@YAPEAXPEAUstbi__context@@PEAH11HPEAUstbi__result_info@@@Z+552
	DD	imagerel $chain$2$?stbi__pic_load@@YAPEAXPEAUstbi__context@@PEAH11HPEAUstbi__result_info@@@Z
pdata	ENDS
;	COMDAT pdata
pdata	SEGMENT
$pdata$4$?stbi__pic_load@@YAPEAXPEAUstbi__context@@PEAH11HPEAUstbi__result_info@@@Z DD imagerel ?stbi__pic_load@@YAPEAXPEAUstbi__context@@PEAH11HPEAUstbi__result_info@@@Z+552
	DD	imagerel ?stbi__pic_load@@YAPEAXPEAUstbi__context@@PEAH11HPEAUstbi__result_info@@@Z+591
	DD	imagerel $chain$4$?stbi__pic_load@@YAPEAXPEAUstbi__context@@PEAH11HPEAUstbi__result_info@@@Z
pdata	ENDS
;	COMDAT pdata
pdata	SEGMENT
$pdata$5$?stbi__pic_load@@YAPEAXPEAUstbi__context@@PEAH11HPEAUstbi__result_info@@@Z DD imagerel ?stbi__pic_load@@YAPEAXPEAUstbi__context@@PEAH11HPEAUstbi__result_info@@@Z+591
	DD	imagerel ?stbi__pic_load@@YAPEAXPEAUstbi__context@@PEAH11HPEAUstbi__result_info@@@Z+630
	DD	imagerel $chain$5$?stbi__pic_load@@YAPEAXPEAUstbi__context@@PEAH11HPEAUstbi__result_info@@@Z
pdata	ENDS
;	COMDAT pdata
pdata	SEGMENT
$pdata$?stbi__pic_info@@YAHPEAUstbi__context@@PEAH11@Z DD imagerel ?stbi__pic_info@@YAHPEAUstbi__context@@PEAH11@Z
	DD	imagerel ?stbi__pic_info@@YAHPEAUstbi__context@@PEAH11@Z+301
	DD	imagerel $unwind$?stbi__pic_info@@YAHPEAUstbi__context@@PEAH11@Z
pdata	ENDS
;	COMDAT pdata
pdata	SEGMENT
$pdata$2$?stbi__pic_info@@YAHPEAUstbi__context@@PEAH11@Z DD imagerel ?stbi__pic_info@@YAHPEAUstbi__context@@PEAH11@Z+301
	DD	imagerel ?stbi__pic_info@@YAHPEAUstbi__context@@PEAH11@Z+656
	DD	imagerel $chain$2$?stbi__pic_info@@YAHPEAUstbi__context@@PEAH11@Z
pdata	ENDS
;	COMDAT pdata
pdata	SEGMENT
$pdata$?stbi__gif_test@@YAHPEAUstbi__context@@@Z DD imagerel ?stbi__gif_test@@YAHPEAUstbi__context@@@Z
	DD	imagerel ?stbi__gif_test@@YAHPEAUstbi__context@@@Z+48
	DD	imagerel $unwind$?stbi__gif_test@@YAHPEAUstbi__context@@@Z
pdata	ENDS
;	COMDAT pdata
pdata	SEGMENT
$pdata$?stbi__gif_load@@YAPEAXPEAUstbi__context@@PEAH11HPEAUstbi__result_info@@@Z DD imagerel ?stbi__gif_load@@YAPEAXPEAUstbi__context@@PEAH11HPEAUstbi__result_info@@@Z
	DD	imagerel ?stbi__gif_load@@YAPEAXPEAUstbi__context@@PEAH11HPEAUstbi__result_info@@@Z+239
	DD	imagerel $unwind$?stbi__gif_load@@YAPEAXPEAUstbi__context@@PEAH11HPEAUstbi__result_info@@@Z
pdata	ENDS
;	COMDAT pdata
pdata	SEGMENT
$pdata$?stbi__load_gif_main@@YAPEAXPEAUstbi__context@@PEAPEAHPEAH222H@Z DD imagerel ?stbi__load_gif_main@@YAPEAXPEAUstbi__context@@PEAPEAHPEAH222H@Z
	DD	imagerel ?stbi__load_gif_main@@YAPEAXPEAUstbi__context@@PEAPEAHPEAH222H@Z+140
	DD	imagerel $unwind$?stbi__load_gif_main@@YAPEAXPEAUstbi__context@@PEAPEAHPEAH222H@Z
pdata	ENDS
;	COMDAT pdata
pdata	SEGMENT
$pdata$3$?stbi__load_gif_main@@YAPEAXPEAUstbi__context@@PEAPEAHPEAH222H@Z DD imagerel ?stbi__load_gif_main@@YAPEAXPEAUstbi__context@@PEAPEAHPEAH222H@Z+140
	DD	imagerel ?stbi__load_gif_main@@YAPEAXPEAUstbi__context@@PEAPEAHPEAH222H@Z+751
	DD	imagerel $chain$3$?stbi__load_gif_main@@YAPEAXPEAUstbi__context@@PEAPEAHPEAH222H@Z
pdata	ENDS
;	COMDAT pdata
pdata	SEGMENT
$pdata$4$?stbi__load_gif_main@@YAPEAXPEAUstbi__context@@PEAPEAHPEAH222H@Z DD imagerel ?stbi__load_gif_main@@YAPEAXPEAUstbi__context@@PEAPEAHPEAH222H@Z+751
	DD	imagerel ?stbi__load_gif_main@@YAPEAXPEAUstbi__context@@PEAPEAHPEAH222H@Z+782
	DD	imagerel $chain$4$?stbi__load_gif_main@@YAPEAXPEAUstbi__context@@PEAPEAHPEAH222H@Z
pdata	ENDS
;	COMDAT pdata
pdata	SEGMENT
$pdata$5$?stbi__load_gif_main@@YAPEAXPEAUstbi__context@@PEAPEAHPEAH222H@Z DD imagerel ?stbi__load_gif_main@@YAPEAXPEAUstbi__context@@PEAPEAHPEAH222H@Z+782
	DD	imagerel ?stbi__load_gif_main@@YAPEAXPEAUstbi__context@@PEAPEAHPEAH222H@Z+875
	DD	imagerel $chain$5$?stbi__load_gif_main@@YAPEAXPEAUstbi__context@@PEAPEAHPEAH222H@Z
pdata	ENDS
;	COMDAT pdata
pdata	SEGMENT
$pdata$6$?stbi__load_gif_main@@YAPEAXPEAUstbi__context@@PEAPEAHPEAH222H@Z DD imagerel ?stbi__load_gif_main@@YAPEAXPEAUstbi__context@@PEAPEAHPEAH222H@Z+875
	DD	imagerel ?stbi__load_gif_main@@YAPEAXPEAUstbi__context@@PEAPEAHPEAH222H@Z+917
	DD	imagerel $chain$6$?stbi__load_gif_main@@YAPEAXPEAUstbi__context@@PEAPEAHPEAH222H@Z
pdata	ENDS
;	COMDAT pdata
pdata	SEGMENT
$pdata$?stbi__gif_info@@YAHPEAUstbi__context@@PEAH11@Z DD imagerel ?stbi__gif_info@@YAHPEAUstbi__context@@PEAH11@Z
	DD	imagerel ?stbi__gif_info@@YAHPEAUstbi__context@@PEAH11@Z+209
	DD	imagerel $unwind$?stbi__gif_info@@YAHPEAUstbi__context@@PEAH11@Z
pdata	ENDS
;	COMDAT pdata
pdata	SEGMENT
$pdata$?stbi__pnm_test@@YAHPEAUstbi__context@@@Z DD imagerel ?stbi__pnm_test@@YAHPEAUstbi__context@@@Z
	DD	imagerel ?stbi__pnm_test@@YAHPEAUstbi__context@@@Z+16
	DD	imagerel $unwind$?stbi__pnm_test@@YAHPEAUstbi__context@@@Z
pdata	ENDS
;	COMDAT pdata
pdata	SEGMENT
$pdata$1$?stbi__pnm_test@@YAHPEAUstbi__context@@@Z DD imagerel ?stbi__pnm_test@@YAHPEAUstbi__context@@@Z+16
	DD	imagerel ?stbi__pnm_test@@YAHPEAUstbi__context@@@Z+166
	DD	imagerel $chain$1$?stbi__pnm_test@@YAHPEAUstbi__context@@@Z
pdata	ENDS
;	COMDAT pdata
pdata	SEGMENT
$pdata$2$?stbi__pnm_test@@YAHPEAUstbi__context@@@Z DD imagerel ?stbi__pnm_test@@YAHPEAUstbi__context@@@Z+166
	DD	imagerel ?stbi__pnm_test@@YAHPEAUstbi__context@@@Z+221
	DD	imagerel $chain$2$?stbi__pnm_test@@YAHPEAUstbi__context@@@Z
pdata	ENDS
;	COMDAT pdata
pdata	SEGMENT
$pdata$?stbi__pnm_load@@YAPEAXPEAUstbi__context@@PEAH11HPEAUstbi__result_info@@@Z DD imagerel ?stbi__pnm_load@@YAPEAXPEAUstbi__context@@PEAH11HPEAUstbi__result_info@@@Z
	DD	imagerel ?stbi__pnm_load@@YAPEAXPEAUstbi__context@@PEAH11HPEAUstbi__result_info@@@Z+529
	DD	imagerel $unwind$?stbi__pnm_load@@YAPEAXPEAUstbi__context@@PEAH11HPEAUstbi__result_info@@@Z
pdata	ENDS
;	COMDAT pdata
pdata	SEGMENT
$pdata$?stbi__pnm_info@@YAHPEAUstbi__context@@PEAH11@Z DD imagerel ?stbi__pnm_info@@YAHPEAUstbi__context@@PEAH11@Z
	DD	imagerel ?stbi__pnm_info@@YAHPEAUstbi__context@@PEAH11@Z+580
	DD	imagerel $unwind$?stbi__pnm_info@@YAHPEAUstbi__context@@PEAH11@Z
pdata	ENDS
;	COMDAT pdata
pdata	SEGMENT
$pdata$?stbi__pnm_is16@@YAHPEAUstbi__context@@@Z DD imagerel ?stbi__pnm_is16@@YAHPEAUstbi__context@@@Z
	DD	imagerel ?stbi__pnm_is16@@YAHPEAUstbi__context@@@Z+32
	DD	imagerel $unwind$?stbi__pnm_is16@@YAHPEAUstbi__context@@@Z
pdata	ENDS
;	COMDAT pdata
pdata	SEGMENT
$pdata$?stbi__malloc_mad4@@YAPEAXHHHHH@Z DD imagerel ?stbi__malloc_mad4@@YAPEAXHHHHH@Z
	DD	imagerel ?stbi__malloc_mad4@@YAPEAXHHHHH@Z+92
	DD	imagerel $unwind$?stbi__malloc_mad4@@YAPEAXHHHHH@Z
pdata	ENDS
;	COMDAT pdata
pdata	SEGMENT
$pdata$?stbi__ldr_to_hdr@@YAPEAMPEAEHHH@Z DD imagerel ?stbi__ldr_to_hdr@@YAPEAMPEAEHHH@Z
	DD	imagerel ?stbi__ldr_to_hdr@@YAPEAMPEAEHHH@Z+35
	DD	imagerel $unwind$?stbi__ldr_to_hdr@@YAPEAMPEAEHHH@Z
pdata	ENDS
;	COMDAT pdata
pdata	SEGMENT
$pdata$1$?stbi__ldr_to_hdr@@YAPEAMPEAEHHH@Z DD imagerel ?stbi__ldr_to_hdr@@YAPEAMPEAEHHH@Z+35
	DD	imagerel ?stbi__ldr_to_hdr@@YAPEAMPEAEHHH@Z+186
	DD	imagerel $chain$1$?stbi__ldr_to_hdr@@YAPEAMPEAEHHH@Z
pdata	ENDS
;	COMDAT pdata
pdata	SEGMENT
$pdata$3$?stbi__ldr_to_hdr@@YAPEAMPEAEHHH@Z DD imagerel ?stbi__ldr_to_hdr@@YAPEAMPEAEHHH@Z+186
	DD	imagerel ?stbi__ldr_to_hdr@@YAPEAMPEAEHHH@Z+224
	DD	imagerel $chain$3$?stbi__ldr_to_hdr@@YAPEAMPEAEHHH@Z
pdata	ENDS
;	COMDAT pdata
pdata	SEGMENT
$pdata$7$?stbi__ldr_to_hdr@@YAPEAMPEAEHHH@Z DD imagerel ?stbi__ldr_to_hdr@@YAPEAMPEAEHHH@Z+224
	DD	imagerel ?stbi__ldr_to_hdr@@YAPEAMPEAEHHH@Z+380
	DD	imagerel $chain$7$?stbi__ldr_to_hdr@@YAPEAMPEAEHHH@Z
pdata	ENDS
;	COMDAT pdata
pdata	SEGMENT
$pdata$8$?stbi__ldr_to_hdr@@YAPEAMPEAEHHH@Z DD imagerel ?stbi__ldr_to_hdr@@YAPEAMPEAEHHH@Z+380
	DD	imagerel ?stbi__ldr_to_hdr@@YAPEAMPEAEHHH@Z+394
	DD	imagerel $chain$8$?stbi__ldr_to_hdr@@YAPEAMPEAEHHH@Z
pdata	ENDS
;	COMDAT pdata
pdata	SEGMENT
$pdata$9$?stbi__ldr_to_hdr@@YAPEAMPEAEHHH@Z DD imagerel ?stbi__ldr_to_hdr@@YAPEAMPEAEHHH@Z+394
	DD	imagerel ?stbi__ldr_to_hdr@@YAPEAMPEAEHHH@Z+655
	DD	imagerel $chain$9$?stbi__ldr_to_hdr@@YAPEAMPEAEHHH@Z
pdata	ENDS
;	COMDAT pdata
pdata	SEGMENT
$pdata$11$?stbi__ldr_to_hdr@@YAPEAMPEAEHHH@Z DD imagerel ?stbi__ldr_to_hdr@@YAPEAMPEAEHHH@Z+655
	DD	imagerel ?stbi__ldr_to_hdr@@YAPEAMPEAEHHH@Z+719
	DD	imagerel $chain$11$?stbi__ldr_to_hdr@@YAPEAMPEAEHHH@Z
pdata	ENDS
;	COMDAT pdata
pdata	SEGMENT
$pdata$?stbi__hdr_to_ldr@@YAPEAEPEAMHHH@Z DD imagerel ?stbi__hdr_to_ldr@@YAPEAEPEAMHHH@Z
	DD	imagerel ?stbi__hdr_to_ldr@@YAPEAEPEAMHHH@Z+46
	DD	imagerel $unwind$?stbi__hdr_to_ldr@@YAPEAEPEAMHHH@Z
pdata	ENDS
;	COMDAT pdata
pdata	SEGMENT
$pdata$1$?stbi__hdr_to_ldr@@YAPEAEPEAMHHH@Z DD imagerel ?stbi__hdr_to_ldr@@YAPEAEPEAMHHH@Z+46
	DD	imagerel ?stbi__hdr_to_ldr@@YAPEAEPEAMHHH@Z+193
	DD	imagerel $chain$1$?stbi__hdr_to_ldr@@YAPEAEPEAMHHH@Z
pdata	ENDS
;	COMDAT pdata
pdata	SEGMENT
$pdata$8$?stbi__hdr_to_ldr@@YAPEAEPEAMHHH@Z DD imagerel ?stbi__hdr_to_ldr@@YAPEAEPEAMHHH@Z+193
	DD	imagerel ?stbi__hdr_to_ldr@@YAPEAEPEAMHHH@Z+483
	DD	imagerel $chain$8$?stbi__hdr_to_ldr@@YAPEAEPEAMHHH@Z
pdata	ENDS
;	COMDAT pdata
pdata	SEGMENT
$pdata$9$?stbi__hdr_to_ldr@@YAPEAEPEAMHHH@Z DD imagerel ?stbi__hdr_to_ldr@@YAPEAEPEAMHHH@Z+483
	DD	imagerel ?stbi__hdr_to_ldr@@YAPEAEPEAMHHH@Z+518
	DD	imagerel $chain$9$?stbi__hdr_to_ldr@@YAPEAEPEAMHHH@Z
pdata	ENDS
;	COMDAT pdata
pdata	SEGMENT
$pdata$11$?stbi__hdr_to_ldr@@YAPEAEPEAMHHH@Z DD imagerel ?stbi__hdr_to_ldr@@YAPEAEPEAMHHH@Z+518
	DD	imagerel ?stbi__hdr_to_ldr@@YAPEAEPEAMHHH@Z+582
	DD	imagerel $chain$11$?stbi__hdr_to_ldr@@YAPEAEPEAMHHH@Z
pdata	ENDS
;	COMDAT pdata
pdata	SEGMENT
$pdata$?stbi__load_main@@YAPEAXPEAUstbi__context@@PEAH11HPEAUstbi__result_info@@H@Z DD imagerel ?stbi__load_main@@YAPEAXPEAUstbi__context@@PEAH11HPEAUstbi__result_info@@H@Z
	DD	imagerel ?stbi__load_main@@YAPEAXPEAUstbi__context@@PEAH11HPEAUstbi__result_info@@H@Z+1772
	DD	imagerel $unwind$?stbi__load_main@@YAPEAXPEAUstbi__context@@PEAH11HPEAUstbi__result_info@@H@Z
pdata	ENDS
;	COMDAT pdata
pdata	SEGMENT
$pdata$3$?stbi__load_main@@YAPEAXPEAUstbi__context@@PEAH11HPEAUstbi__result_info@@H@Z DD imagerel ?stbi__load_main@@YAPEAXPEAUstbi__context@@PEAH11HPEAUstbi__result_info@@H@Z+1772
	DD	imagerel ?stbi__load_main@@YAPEAXPEAUstbi__context@@PEAH11HPEAUstbi__result_info@@H@Z+2043
	DD	imagerel $chain$3$?stbi__load_main@@YAPEAXPEAUstbi__context@@PEAH11HPEAUstbi__result_info@@H@Z
pdata	ENDS
;	COMDAT pdata
pdata	SEGMENT
$pdata$4$?stbi__load_main@@YAPEAXPEAUstbi__context@@PEAH11HPEAUstbi__result_info@@H@Z DD imagerel ?stbi__load_main@@YAPEAXPEAUstbi__context@@PEAH11HPEAUstbi__result_info@@H@Z+2043
	DD	imagerel ?stbi__load_main@@YAPEAXPEAUstbi__context@@PEAH11HPEAUstbi__result_info@@H@Z+2384
	DD	imagerel $chain$4$?stbi__load_main@@YAPEAXPEAUstbi__context@@PEAH11HPEAUstbi__result_info@@H@Z
pdata	ENDS
;	COMDAT pdata
pdata	SEGMENT
$pdata$?stbi__convert_16_to_8@@YAPEAEPEAGHHH@Z DD imagerel ?stbi__convert_16_to_8@@YAPEAEPEAGHHH@Z
	DD	imagerel ?stbi__convert_16_to_8@@YAPEAEPEAGHHH@Z+429
	DD	imagerel $unwind$?stbi__convert_16_to_8@@YAPEAEPEAGHHH@Z
pdata	ENDS
;	COMDAT pdata
pdata	SEGMENT
$pdata$?stbi__convert_8_to_16@@YAPEAGPEAEHHH@Z DD imagerel ?stbi__convert_8_to_16@@YAPEAGPEAEHHH@Z
	DD	imagerel ?stbi__convert_8_to_16@@YAPEAGPEAEHHH@Z+339
	DD	imagerel $unwind$?stbi__convert_8_to_16@@YAPEAGPEAEHHH@Z
pdata	ENDS
;	COMDAT pdata
pdata	SEGMENT
$pdata$?stbi__vertical_flip@@YAXPEAXHHH@Z DD imagerel ?stbi__vertical_flip@@YAXPEAXHHH@Z
	DD	imagerel ?stbi__vertical_flip@@YAXPEAXHHH@Z+72
	DD	imagerel $unwind$?stbi__vertical_flip@@YAXPEAXHHH@Z
pdata	ENDS
;	COMDAT pdata
pdata	SEGMENT
$pdata$3$?stbi__vertical_flip@@YAXPEAXHHH@Z DD imagerel ?stbi__vertical_flip@@YAXPEAXHHH@Z+72
	DD	imagerel ?stbi__vertical_flip@@YAXPEAXHHH@Z+262
	DD	imagerel $chain$3$?stbi__vertical_flip@@YAXPEAXHHH@Z
pdata	ENDS
;	COMDAT pdata
pdata	SEGMENT
$pdata$4$?stbi__vertical_flip@@YAXPEAXHHH@Z DD imagerel ?stbi__vertical_flip@@YAXPEAXHHH@Z+262
	DD	imagerel ?stbi__vertical_flip@@YAXPEAXHHH@Z+294
	DD	imagerel $chain$4$?stbi__vertical_flip@@YAXPEAXHHH@Z
pdata	ENDS
;	COMDAT pdata
pdata	SEGMENT
$pdata$?stbi__vertical_flip_slices@@YAXPEAXHHHH@Z DD imagerel ?stbi__vertical_flip_slices@@YAXPEAXHHHH@Z
	DD	imagerel ?stbi__vertical_flip_slices@@YAXPEAXHHHH@Z+83
	DD	imagerel $unwind$?stbi__vertical_flip_slices@@YAXPEAXHHHH@Z
pdata	ENDS
;	COMDAT pdata
pdata	SEGMENT
$pdata$6$?stbi__vertical_flip_slices@@YAXPEAXHHHH@Z DD imagerel ?stbi__vertical_flip_slices@@YAXPEAXHHHH@Z+83
	DD	imagerel ?stbi__vertical_flip_slices@@YAXPEAXHHHH@Z+385
	DD	imagerel $chain$6$?stbi__vertical_flip_slices@@YAXPEAXHHHH@Z
pdata	ENDS
;	COMDAT pdata
pdata	SEGMENT
$pdata$7$?stbi__vertical_flip_slices@@YAXPEAXHHHH@Z DD imagerel ?stbi__vertical_flip_slices@@YAXPEAXHHHH@Z+385
	DD	imagerel ?stbi__vertical_flip_slices@@YAXPEAXHHHH@Z+411
	DD	imagerel $chain$7$?stbi__vertical_flip_slices@@YAXPEAXHHHH@Z
pdata	ENDS
;	COMDAT pdata
pdata	SEGMENT
$pdata$?stbi__load_and_postprocess_8bit@@YAPEAEPEAUstbi__context@@PEAH11H@Z DD imagerel ?stbi__load_and_postprocess_8bit@@YAPEAEPEAUstbi__context@@PEAH11H@Z
	DD	imagerel ?stbi__load_and_postprocess_8bit@@YAPEAEPEAUstbi__context@@PEAH11H@Z+86
	DD	imagerel $unwind$?stbi__load_and_postprocess_8bit@@YAPEAEPEAUstbi__context@@PEAH11H@Z
pdata	ENDS
;	COMDAT pdata
pdata	SEGMENT
$pdata$1$?stbi__load_and_postprocess_8bit@@YAPEAEPEAUstbi__context@@PEAH11H@Z DD imagerel ?stbi__load_and_postprocess_8bit@@YAPEAEPEAUstbi__context@@PEAH11H@Z+86
	DD	imagerel ?stbi__load_and_postprocess_8bit@@YAPEAEPEAUstbi__context@@PEAH11H@Z+503
	DD	imagerel $chain$1$?stbi__load_and_postprocess_8bit@@YAPEAEPEAUstbi__context@@PEAH11H@Z
pdata	ENDS
;	COMDAT pdata
pdata	SEGMENT
$pdata$2$?stbi__load_and_postprocess_8bit@@YAPEAEPEAUstbi__context@@PEAH11H@Z DD imagerel ?stbi__load_and_postprocess_8bit@@YAPEAEPEAUstbi__context@@PEAH11H@Z+503
	DD	imagerel ?stbi__load_and_postprocess_8bit@@YAPEAEPEAUstbi__context@@PEAH11H@Z+604
	DD	imagerel $chain$2$?stbi__load_and_postprocess_8bit@@YAPEAEPEAUstbi__context@@PEAH11H@Z
pdata	ENDS
;	COMDAT pdata
pdata	SEGMENT
$pdata$?stbi__load_and_postprocess_16bit@@YAPEAGPEAUstbi__context@@PEAH11H@Z DD imagerel ?stbi__load_and_postprocess_16bit@@YAPEAGPEAUstbi__context@@PEAH11H@Z
	DD	imagerel ?stbi__load_and_postprocess_16bit@@YAPEAGPEAUstbi__context@@PEAH11H@Z+88
	DD	imagerel $unwind$?stbi__load_and_postprocess_16bit@@YAPEAGPEAUstbi__context@@PEAH11H@Z
pdata	ENDS
;	COMDAT pdata
pdata	SEGMENT
$pdata$1$?stbi__load_and_postprocess_16bit@@YAPEAGPEAUstbi__context@@PEAH11H@Z DD imagerel ?stbi__load_and_postprocess_16bit@@YAPEAGPEAUstbi__context@@PEAH11H@Z+88
	DD	imagerel ?stbi__load_and_postprocess_16bit@@YAPEAGPEAUstbi__context@@PEAH11H@Z+413
	DD	imagerel $chain$1$?stbi__load_and_postprocess_16bit@@YAPEAGPEAUstbi__context@@PEAH11H@Z
pdata	ENDS
;	COMDAT pdata
pdata	SEGMENT
$pdata$2$?stbi__load_and_postprocess_16bit@@YAPEAGPEAUstbi__context@@PEAH11H@Z DD imagerel ?stbi__load_and_postprocess_16bit@@YAPEAGPEAUstbi__context@@PEAH11H@Z+413
	DD	imagerel ?stbi__load_and_postprocess_16bit@@YAPEAGPEAUstbi__context@@PEAH11H@Z+517
	DD	imagerel $chain$2$?stbi__load_and_postprocess_16bit@@YAPEAGPEAUstbi__context@@PEAH11H@Z
pdata	ENDS
;	COMDAT pdata
pdata	SEGMENT
$pdata$?stbi__fopen@@YAPEAU_iobuf@@PEBD0@Z DD imagerel ?stbi__fopen@@YAPEAU_iobuf@@PEBD0@Z
	DD	imagerel ?stbi__fopen@@YAPEAU_iobuf@@PEBD0@Z+42
	DD	imagerel $unwind$?stbi__fopen@@YAPEAU_iobuf@@PEBD0@Z
pdata	ENDS
;	COMDAT pdata
pdata	SEGMENT
$pdata$?stbi__loadf_main@@YAPEAMPEAUstbi__context@@PEAH11H@Z DD imagerel ?stbi__loadf_main@@YAPEAMPEAUstbi__context@@PEAH11H@Z
	DD	imagerel ?stbi__loadf_main@@YAPEAMPEAUstbi__context@@PEAH11H@Z+269
	DD	imagerel $unwind$?stbi__loadf_main@@YAPEAMPEAUstbi__context@@PEAH11H@Z
pdata	ENDS
;	COMDAT pdata
pdata	SEGMENT
$pdata$?stbi__get8@@YAEPEAUstbi__context@@@Z DD imagerel ?stbi__get8@@YAEPEAUstbi__context@@@Z
	DD	imagerel ?stbi__get8@@YAEPEAUstbi__context@@@Z+89
	DD	imagerel $unwind$?stbi__get8@@YAEPEAUstbi__context@@@Z
pdata	ENDS
;	COMDAT pdata
pdata	SEGMENT
$pdata$?stbi__at_eof@@YAHPEAUstbi__context@@@Z DD imagerel ?stbi__at_eof@@YAHPEAUstbi__context@@@Z
	DD	imagerel ?stbi__at_eof@@YAHPEAUstbi__context@@@Z+75
	DD	imagerel $unwind$?stbi__at_eof@@YAHPEAUstbi__context@@@Z
pdata	ENDS
;	COMDAT pdata
pdata	SEGMENT
$pdata$?stbi__getn@@YAHPEAUstbi__context@@PEAEH@Z DD imagerel ?stbi__getn@@YAHPEAUstbi__context@@PEAEH@Z
	DD	imagerel ?stbi__getn@@YAHPEAUstbi__context@@PEAEH@Z+191
	DD	imagerel $unwind$?stbi__getn@@YAHPEAUstbi__context@@PEAEH@Z
pdata	ENDS
;	COMDAT pdata
pdata	SEGMENT
$pdata$?stbi__get16be@@YAHPEAUstbi__context@@@Z DD imagerel ?stbi__get16be@@YAHPEAUstbi__context@@@Z
	DD	imagerel ?stbi__get16be@@YAHPEAUstbi__context@@@Z+162
	DD	imagerel $unwind$?stbi__get16be@@YAHPEAUstbi__context@@@Z
pdata	ENDS
;	COMDAT pdata
pdata	SEGMENT
$pdata$?stbi__get32be@@YAIPEAUstbi__context@@@Z DD imagerel ?stbi__get32be@@YAIPEAUstbi__context@@@Z
	DD	imagerel ?stbi__get32be@@YAIPEAUstbi__context@@@Z+44
	DD	imagerel $unwind$?stbi__get32be@@YAIPEAUstbi__context@@@Z
pdata	ENDS
;	COMDAT pdata
pdata	SEGMENT
$pdata$?stbi__get16le@@YAHPEAUstbi__context@@@Z DD imagerel ?stbi__get16le@@YAHPEAUstbi__context@@@Z
	DD	imagerel ?stbi__get16le@@YAHPEAUstbi__context@@@Z+162
	DD	imagerel $unwind$?stbi__get16le@@YAHPEAUstbi__context@@@Z
pdata	ENDS
;	COMDAT pdata
pdata	SEGMENT
$pdata$?stbi__get32le@@YAIPEAUstbi__context@@@Z DD imagerel ?stbi__get32le@@YAIPEAUstbi__context@@@Z
	DD	imagerel ?stbi__get32le@@YAIPEAUstbi__context@@@Z+44
	DD	imagerel $unwind$?stbi__get32le@@YAIPEAUstbi__context@@@Z
pdata	ENDS
;	COMDAT pdata
pdata	SEGMENT
$pdata$?stbi__convert_format@@YAPEAEPEAEHHII@Z DD imagerel ?stbi__convert_format@@YAPEAEPEAEHHII@Z
	DD	imagerel ?stbi__convert_format@@YAPEAEPEAEHHII@Z+42
	DD	imagerel $unwind$?stbi__convert_format@@YAPEAEPEAEHHII@Z
pdata	ENDS
;	COMDAT pdata
pdata	SEGMENT
$pdata$1$?stbi__convert_format@@YAPEAEPEAEHHII@Z DD imagerel ?stbi__convert_format@@YAPEAEPEAEHHII@Z+42
	DD	imagerel ?stbi__convert_format@@YAPEAEPEAEHHII@Z+155
	DD	imagerel $chain$1$?stbi__convert_format@@YAPEAEPEAEHHII@Z
pdata	ENDS
;	COMDAT pdata
pdata	SEGMENT
$pdata$3$?stbi__convert_format@@YAPEAEPEAEHHII@Z DD imagerel ?stbi__convert_format@@YAPEAEPEAEHHII@Z+155
	DD	imagerel ?stbi__convert_format@@YAPEAEPEAEHHII@Z+1030
	DD	imagerel $chain$3$?stbi__convert_format@@YAPEAEPEAEHHII@Z
pdata	ENDS
;	COMDAT pdata
pdata	SEGMENT
$pdata$4$?stbi__convert_format@@YAPEAEPEAEHHII@Z DD imagerel ?stbi__convert_format@@YAPEAEPEAEHHII@Z+1030
	DD	imagerel ?stbi__convert_format@@YAPEAEPEAEHHII@Z+1051
	DD	imagerel $chain$4$?stbi__convert_format@@YAPEAEPEAEHHII@Z
pdata	ENDS
;	COMDAT pdata
pdata	SEGMENT
$pdata$6$?stbi__convert_format@@YAPEAEPEAEHHII@Z DD imagerel ?stbi__convert_format@@YAPEAEPEAEHHII@Z+1051
	DD	imagerel ?stbi__convert_format@@YAPEAEPEAEHHII@Z+1108
	DD	imagerel $chain$6$?stbi__convert_format@@YAPEAEPEAEHHII@Z
pdata	ENDS
;	COMDAT pdata
pdata	SEGMENT
$pdata$7$?stbi__convert_format@@YAPEAEPEAEHHII@Z DD imagerel ?stbi__convert_format@@YAPEAEPEAEHHII@Z+1108
	DD	imagerel ?stbi__convert_format@@YAPEAEPEAEHHII@Z+1260
	DD	imagerel $chain$7$?stbi__convert_format@@YAPEAEPEAEHHII@Z
pdata	ENDS
;	COMDAT pdata
pdata	SEGMENT
$pdata$?stbi__convert_format16@@YAPEAGPEAGHHII@Z DD imagerel ?stbi__convert_format16@@YAPEAGPEAGHHII@Z
	DD	imagerel ?stbi__convert_format16@@YAPEAGPEAGHHII@Z+49
	DD	imagerel $unwind$?stbi__convert_format16@@YAPEAGPEAGHHII@Z
pdata	ENDS
;	COMDAT pdata
pdata	SEGMENT
$pdata$0$?stbi__convert_format16@@YAPEAGPEAGHHII@Z DD imagerel ?stbi__convert_format16@@YAPEAGPEAGHHII@Z+49
	DD	imagerel ?stbi__convert_format16@@YAPEAGPEAGHHII@Z+135
	DD	imagerel $chain$0$?stbi__convert_format16@@YAPEAGPEAGHHII@Z
pdata	ENDS
;	COMDAT pdata
pdata	SEGMENT
$pdata$2$?stbi__convert_format16@@YAPEAGPEAGHHII@Z DD imagerel ?stbi__convert_format16@@YAPEAGPEAGHHII@Z+135
	DD	imagerel ?stbi__convert_format16@@YAPEAGPEAGHHII@Z+728
	DD	imagerel $chain$2$?stbi__convert_format16@@YAPEAGPEAGHHII@Z
pdata	ENDS
;	COMDAT pdata
pdata	SEGMENT
$pdata$3$?stbi__convert_format16@@YAPEAGPEAGHHII@Z DD imagerel ?stbi__convert_format16@@YAPEAGPEAGHHII@Z+728
	DD	imagerel ?stbi__convert_format16@@YAPEAGPEAGHHII@Z+747
	DD	imagerel $chain$3$?stbi__convert_format16@@YAPEAGPEAGHHII@Z
pdata	ENDS
;	COMDAT pdata
pdata	SEGMENT
$pdata$5$?stbi__convert_format16@@YAPEAGPEAGHHII@Z DD imagerel ?stbi__convert_format16@@YAPEAGPEAGHHII@Z+747
	DD	imagerel ?stbi__convert_format16@@YAPEAGPEAGHHII@Z+1248
	DD	imagerel $chain$5$?stbi__convert_format16@@YAPEAGPEAGHHII@Z
pdata	ENDS
;	COMDAT pdata
pdata	SEGMENT
$pdata$?stbi__build_huffman@@YAHPEAUstbi__huffman@@PEAH@Z DD imagerel ?stbi__build_huffman@@YAHPEAUstbi__huffman@@PEAH@Z
	DD	imagerel ?stbi__build_huffman@@YAHPEAUstbi__huffman@@PEAH@Z+254
	DD	imagerel $unwind$?stbi__build_huffman@@YAHPEAUstbi__huffman@@PEAH@Z
pdata	ENDS
;	COMDAT pdata
pdata	SEGMENT
$pdata$0$?stbi__build_huffman@@YAHPEAUstbi__huffman@@PEAH@Z DD imagerel ?stbi__build_huffman@@YAHPEAUstbi__huffman@@PEAH@Z+254
	DD	imagerel ?stbi__build_huffman@@YAHPEAUstbi__huffman@@PEAH@Z+379
	DD	imagerel $chain$0$?stbi__build_huffman@@YAHPEAUstbi__huffman@@PEAH@Z
pdata	ENDS
;	COMDAT pdata
pdata	SEGMENT
$pdata$1$?stbi__build_huffman@@YAHPEAUstbi__huffman@@PEAH@Z DD imagerel ?stbi__build_huffman@@YAHPEAUstbi__huffman@@PEAH@Z+379
	DD	imagerel ?stbi__build_huffman@@YAHPEAUstbi__huffman@@PEAH@Z+475
	DD	imagerel $chain$1$?stbi__build_huffman@@YAHPEAUstbi__huffman@@PEAH@Z
pdata	ENDS
;	COMDAT pdata
pdata	SEGMENT
$pdata$?stbi__build_fast_ac@@YAXPEAFPEAUstbi__huffman@@@Z DD imagerel ?stbi__build_fast_ac@@YAXPEAFPEAUstbi__huffman@@@Z
	DD	imagerel ?stbi__build_fast_ac@@YAXPEAFPEAUstbi__huffman@@@Z+190
	DD	imagerel $unwind$?stbi__build_fast_ac@@YAXPEAFPEAUstbi__huffman@@@Z
pdata	ENDS
;	COMDAT pdata
pdata	SEGMENT
$pdata$?stbi__grow_buffer_unsafe@@YAXPEAUstbi__jpeg@@@Z DD imagerel ?stbi__grow_buffer_unsafe@@YAXPEAUstbi__jpeg@@@Z
	DD	imagerel ?stbi__grow_buffer_unsafe@@YAXPEAUstbi__jpeg@@@Z+342
	DD	imagerel $unwind$?stbi__grow_buffer_unsafe@@YAXPEAUstbi__jpeg@@@Z
pdata	ENDS
;	COMDAT pdata
pdata	SEGMENT
$pdata$?stbi__jpeg_huff_decode@@YAHPEAUstbi__jpeg@@PEAUstbi__huffman@@@Z DD imagerel ?stbi__jpeg_huff_decode@@YAHPEAUstbi__jpeg@@PEAUstbi__huffman@@@Z
	DD	imagerel ?stbi__jpeg_huff_decode@@YAHPEAUstbi__jpeg@@PEAUstbi__huffman@@@Z+293
	DD	imagerel $unwind$?stbi__jpeg_huff_decode@@YAHPEAUstbi__jpeg@@PEAUstbi__huffman@@@Z
pdata	ENDS
;	COMDAT pdata
pdata	SEGMENT
$pdata$?stbi__extend_receive@@YAHPEAUstbi__jpeg@@H@Z DD imagerel ?stbi__extend_receive@@YAHPEAUstbi__jpeg@@H@Z
	DD	imagerel ?stbi__extend_receive@@YAHPEAUstbi__jpeg@@H@Z+149
	DD	imagerel $unwind$?stbi__extend_receive@@YAHPEAUstbi__jpeg@@H@Z
pdata	ENDS
;	COMDAT pdata
pdata	SEGMENT
$pdata$?stbi__jpeg_get_bits@@YAHPEAUstbi__jpeg@@H@Z DD imagerel ?stbi__jpeg_get_bits@@YAHPEAUstbi__jpeg@@H@Z
	DD	imagerel ?stbi__jpeg_get_bits@@YAHPEAUstbi__jpeg@@H@Z+109
	DD	imagerel $unwind$?stbi__jpeg_get_bits@@YAHPEAUstbi__jpeg@@H@Z
pdata	ENDS
;	COMDAT pdata
pdata	SEGMENT
$pdata$?stbi__jpeg_get_bit@@YAHPEAUstbi__jpeg@@@Z DD imagerel ?stbi__jpeg_get_bit@@YAHPEAUstbi__jpeg@@@Z
	DD	imagerel ?stbi__jpeg_get_bit@@YAHPEAUstbi__jpeg@@@Z+77
	DD	imagerel $unwind$?stbi__jpeg_get_bit@@YAHPEAUstbi__jpeg@@@Z
pdata	ENDS
;	COMDAT pdata
pdata	SEGMENT
$pdata$?stbi__jpeg_decode_block@@YAHPEAUstbi__jpeg@@QEAFPEAUstbi__huffman@@2PEAFHPEAG@Z DD imagerel ?stbi__jpeg_decode_block@@YAHPEAUstbi__jpeg@@QEAFPEAUstbi__huffman@@2PEAFHPEAG@Z
	DD	imagerel ?stbi__jpeg_decode_block@@YAHPEAUstbi__jpeg@@QEAFPEAUstbi__huffman@@2PEAFHPEAG@Z+626
	DD	imagerel $unwind$?stbi__jpeg_decode_block@@YAHPEAUstbi__jpeg@@QEAFPEAUstbi__huffman@@2PEAFHPEAG@Z
pdata	ENDS
;	COMDAT pdata
pdata	SEGMENT
$pdata$0$?stbi__jpeg_decode_block@@YAHPEAUstbi__jpeg@@QEAFPEAUstbi__huffman@@2PEAFHPEAG@Z DD imagerel ?stbi__jpeg_decode_block@@YAHPEAUstbi__jpeg@@QEAFPEAUstbi__huffman@@2PEAFHPEAG@Z+626
	DD	imagerel ?stbi__jpeg_decode_block@@YAHPEAUstbi__jpeg@@QEAFPEAUstbi__huffman@@2PEAFHPEAG@Z+720
	DD	imagerel $chain$0$?stbi__jpeg_decode_block@@YAHPEAUstbi__jpeg@@QEAFPEAUstbi__huffman@@2PEAFHPEAG@Z
pdata	ENDS
;	COMDAT pdata
pdata	SEGMENT
$pdata$4$?stbi__jpeg_decode_block@@YAHPEAUstbi__jpeg@@QEAFPEAUstbi__huffman@@2PEAFHPEAG@Z DD imagerel ?stbi__jpeg_decode_block@@YAHPEAUstbi__jpeg@@QEAFPEAUstbi__huffman@@2PEAFHPEAG@Z+720
	DD	imagerel ?stbi__jpeg_decode_block@@YAHPEAUstbi__jpeg@@QEAFPEAUstbi__huffman@@2PEAFHPEAG@Z+1328
	DD	imagerel $chain$4$?stbi__jpeg_decode_block@@YAHPEAUstbi__jpeg@@QEAFPEAUstbi__huffman@@2PEAFHPEAG@Z
pdata	ENDS
;	COMDAT pdata
pdata	SEGMENT
$pdata$6$?stbi__jpeg_decode_block@@YAHPEAUstbi__jpeg@@QEAFPEAUstbi__huffman@@2PEAFHPEAG@Z DD imagerel ?stbi__jpeg_decode_block@@YAHPEAUstbi__jpeg@@QEAFPEAUstbi__huffman@@2PEAFHPEAG@Z+1328
	DD	imagerel ?stbi__jpeg_decode_block@@YAHPEAUstbi__jpeg@@QEAFPEAUstbi__huffman@@2PEAFHPEAG@Z+1377
	DD	imagerel $chain$6$?stbi__jpeg_decode_block@@YAHPEAUstbi__jpeg@@QEAFPEAUstbi__huffman@@2PEAFHPEAG@Z
pdata	ENDS
;	COMDAT pdata
pdata	SEGMENT
$pdata$?stbi__jpeg_decode_block_prog_dc@@YAHPEAUstbi__jpeg@@QEAFPEAUstbi__huffman@@H@Z DD imagerel ?stbi__jpeg_decode_block_prog_dc@@YAHPEAUstbi__jpeg@@QEAFPEAUstbi__huffman@@H@Z
	DD	imagerel ?stbi__jpeg_decode_block_prog_dc@@YAHPEAUstbi__jpeg@@QEAFPEAUstbi__huffman@@H@Z+97
	DD	imagerel $unwind$?stbi__jpeg_decode_block_prog_dc@@YAHPEAUstbi__jpeg@@QEAFPEAUstbi__huffman@@H@Z
pdata	ENDS
;	COMDAT pdata
pdata	SEGMENT
$pdata$0$?stbi__jpeg_decode_block_prog_dc@@YAHPEAUstbi__jpeg@@QEAFPEAUstbi__huffman@@H@Z DD imagerel ?stbi__jpeg_decode_block_prog_dc@@YAHPEAUstbi__jpeg@@QEAFPEAUstbi__huffman@@H@Z+97
	DD	imagerel ?stbi__jpeg_decode_block_prog_dc@@YAHPEAUstbi__jpeg@@QEAFPEAUstbi__huffman@@H@Z+345
	DD	imagerel $chain$0$?stbi__jpeg_decode_block_prog_dc@@YAHPEAUstbi__jpeg@@QEAFPEAUstbi__huffman@@H@Z
pdata	ENDS
;	COMDAT pdata
pdata	SEGMENT
$pdata$2$?stbi__jpeg_decode_block_prog_dc@@YAHPEAUstbi__jpeg@@QEAFPEAUstbi__huffman@@H@Z DD imagerel ?stbi__jpeg_decode_block_prog_dc@@YAHPEAUstbi__jpeg@@QEAFPEAUstbi__huffman@@H@Z+345
	DD	imagerel ?stbi__jpeg_decode_block_prog_dc@@YAHPEAUstbi__jpeg@@QEAFPEAUstbi__huffman@@H@Z+636
	DD	imagerel $chain$2$?stbi__jpeg_decode_block_prog_dc@@YAHPEAUstbi__jpeg@@QEAFPEAUstbi__huffman@@H@Z
pdata	ENDS
;	COMDAT pdata
pdata	SEGMENT
$pdata$4$?stbi__jpeg_decode_block_prog_dc@@YAHPEAUstbi__jpeg@@QEAFPEAUstbi__huffman@@H@Z DD imagerel ?stbi__jpeg_decode_block_prog_dc@@YAHPEAUstbi__jpeg@@QEAFPEAUstbi__huffman@@H@Z+636
	DD	imagerel ?stbi__jpeg_decode_block_prog_dc@@YAHPEAUstbi__jpeg@@QEAFPEAUstbi__huffman@@H@Z+798
	DD	imagerel $chain$4$?stbi__jpeg_decode_block_prog_dc@@YAHPEAUstbi__jpeg@@QEAFPEAUstbi__huffman@@H@Z
pdata	ENDS
;	COMDAT pdata
pdata	SEGMENT
$pdata$?stbi__jpeg_decode_block_prog_ac@@YAHPEAUstbi__jpeg@@QEAFPEAUstbi__huffman@@PEAF@Z DD imagerel ?stbi__jpeg_decode_block_prog_ac@@YAHPEAUstbi__jpeg@@QEAFPEAUstbi__huffman@@PEAF@Z
	DD	imagerel ?stbi__jpeg_decode_block_prog_ac@@YAHPEAUstbi__jpeg@@QEAFPEAUstbi__huffman@@PEAF@Z+1798
	DD	imagerel $unwind$?stbi__jpeg_decode_block_prog_ac@@YAHPEAUstbi__jpeg@@QEAFPEAUstbi__huffman@@PEAF@Z
pdata	ENDS
;	COMDAT pdata
pdata	SEGMENT
$pdata$?stbi__idct_block@@YAXPEAEHQEAF@Z DD imagerel ?stbi__idct_block@@YAXPEAEHQEAF@Z
	DD	imagerel ?stbi__idct_block@@YAXPEAEHQEAF@Z+1599
	DD	imagerel $unwind$?stbi__idct_block@@YAXPEAEHQEAF@Z
pdata	ENDS
;	COMDAT pdata
pdata	SEGMENT
$pdata$?stbi__idct_simd@@YAXPEAEHQEAF@Z DD imagerel ?stbi__idct_simd@@YAXPEAEHQEAF@Z
	DD	imagerel ?stbi__idct_simd@@YAXPEAEHQEAF@Z+2096
	DD	imagerel $unwind$?stbi__idct_simd@@YAXPEAEHQEAF@Z
pdata	ENDS
;	COMDAT pdata
pdata	SEGMENT
$pdata$?stbi__get_marker@@YAEPEAUstbi__jpeg@@@Z DD imagerel ?stbi__get_marker@@YAEPEAUstbi__jpeg@@@Z
	DD	imagerel ?stbi__get_marker@@YAEPEAUstbi__jpeg@@@Z+33
	DD	imagerel $unwind$?stbi__get_marker@@YAEPEAUstbi__jpeg@@@Z
pdata	ENDS
;	COMDAT pdata
pdata	SEGMENT
$pdata$0$?stbi__get_marker@@YAEPEAUstbi__jpeg@@@Z DD imagerel ?stbi__get_marker@@YAEPEAUstbi__jpeg@@@Z+33
	DD	imagerel ?stbi__get_marker@@YAEPEAUstbi__jpeg@@@Z+168
	DD	imagerel $chain$0$?stbi__get_marker@@YAEPEAUstbi__jpeg@@@Z
pdata	ENDS
;	COMDAT pdata
pdata	SEGMENT
$pdata$2$?stbi__get_marker@@YAEPEAUstbi__jpeg@@@Z DD imagerel ?stbi__get_marker@@YAEPEAUstbi__jpeg@@@Z+168
	DD	imagerel ?stbi__get_marker@@YAEPEAUstbi__jpeg@@@Z+184
	DD	imagerel $chain$2$?stbi__get_marker@@YAEPEAUstbi__jpeg@@@Z
pdata	ENDS
;	COMDAT pdata
pdata	SEGMENT
$pdata$4$?stbi__get_marker@@YAEPEAUstbi__jpeg@@@Z DD imagerel ?stbi__get_marker@@YAEPEAUstbi__jpeg@@@Z+184
	DD	imagerel ?stbi__get_marker@@YAEPEAUstbi__jpeg@@@Z+197
	DD	imagerel $chain$4$?stbi__get_marker@@YAEPEAUstbi__jpeg@@@Z
pdata	ENDS
;	COMDAT pdata
pdata	SEGMENT
$pdata$?stbi__parse_entropy_coded_data@@YAHPEAUstbi__jpeg@@@Z DD imagerel ?stbi__parse_entropy_coded_data@@YAHPEAUstbi__jpeg@@@Z
	DD	imagerel ?stbi__parse_entropy_coded_data@@YAHPEAUstbi__jpeg@@@Z+2089
	DD	imagerel $unwind$?stbi__parse_entropy_coded_data@@YAHPEAUstbi__jpeg@@@Z
pdata	ENDS
;	COMDAT pdata
pdata	SEGMENT
$pdata$?stbi__jpeg_finish@@YAXPEAUstbi__jpeg@@@Z DD imagerel ?stbi__jpeg_finish@@YAXPEAUstbi__jpeg@@@Z
	DD	imagerel ?stbi__jpeg_finish@@YAXPEAUstbi__jpeg@@@Z+25
	DD	imagerel $unwind$?stbi__jpeg_finish@@YAXPEAUstbi__jpeg@@@Z
pdata	ENDS
;	COMDAT pdata
pdata	SEGMENT
$pdata$0$?stbi__jpeg_finish@@YAXPEAUstbi__jpeg@@@Z DD imagerel ?stbi__jpeg_finish@@YAXPEAUstbi__jpeg@@@Z+25
	DD	imagerel ?stbi__jpeg_finish@@YAXPEAUstbi__jpeg@@@Z+43
	DD	imagerel $chain$0$?stbi__jpeg_finish@@YAXPEAUstbi__jpeg@@@Z
pdata	ENDS
;	COMDAT pdata
pdata	SEGMENT
$pdata$5$?stbi__jpeg_finish@@YAXPEAUstbi__jpeg@@@Z DD imagerel ?stbi__jpeg_finish@@YAXPEAUstbi__jpeg@@@Z+43
	DD	imagerel ?stbi__jpeg_finish@@YAXPEAUstbi__jpeg@@@Z+469
	DD	imagerel $chain$5$?stbi__jpeg_finish@@YAXPEAUstbi__jpeg@@@Z
pdata	ENDS
;	COMDAT pdata
pdata	SEGMENT
$pdata$6$?stbi__jpeg_finish@@YAXPEAUstbi__jpeg@@@Z DD imagerel ?stbi__jpeg_finish@@YAXPEAUstbi__jpeg@@@Z+469
	DD	imagerel ?stbi__jpeg_finish@@YAXPEAUstbi__jpeg@@@Z+474
	DD	imagerel $chain$6$?stbi__jpeg_finish@@YAXPEAUstbi__jpeg@@@Z
pdata	ENDS
;	COMDAT pdata
pdata	SEGMENT
$pdata$7$?stbi__jpeg_finish@@YAXPEAUstbi__jpeg@@@Z DD imagerel ?stbi__jpeg_finish@@YAXPEAUstbi__jpeg@@@Z+474
	DD	imagerel ?stbi__jpeg_finish@@YAXPEAUstbi__jpeg@@@Z+481
	DD	imagerel $chain$7$?stbi__jpeg_finish@@YAXPEAUstbi__jpeg@@@Z
pdata	ENDS
;	COMDAT pdata
pdata	SEGMENT
$pdata$?stbi__process_marker@@YAHPEAUstbi__jpeg@@H@Z DD imagerel ?stbi__process_marker@@YAHPEAUstbi__jpeg@@H@Z
	DD	imagerel ?stbi__process_marker@@YAHPEAUstbi__jpeg@@H@Z+2517
	DD	imagerel $unwind$?stbi__process_marker@@YAHPEAUstbi__jpeg@@H@Z
pdata	ENDS
;	COMDAT pdata
pdata	SEGMENT
$pdata$?stbi__process_scan_header@@YAHPEAUstbi__jpeg@@@Z DD imagerel ?stbi__process_scan_header@@YAHPEAUstbi__jpeg@@@Z
	DD	imagerel ?stbi__process_scan_header@@YAHPEAUstbi__jpeg@@@Z+197
	DD	imagerel $unwind$?stbi__process_scan_header@@YAHPEAUstbi__jpeg@@@Z
pdata	ENDS
;	COMDAT pdata
pdata	SEGMENT
$pdata$0$?stbi__process_scan_header@@YAHPEAUstbi__jpeg@@@Z DD imagerel ?stbi__process_scan_header@@YAHPEAUstbi__jpeg@@@Z+197
	DD	imagerel ?stbi__process_scan_header@@YAHPEAUstbi__jpeg@@@Z+865
	DD	imagerel $chain$0$?stbi__process_scan_header@@YAHPEAUstbi__jpeg@@@Z
pdata	ENDS
;	COMDAT pdata
pdata	SEGMENT
$pdata$2$?stbi__process_scan_header@@YAHPEAUstbi__jpeg@@@Z DD imagerel ?stbi__process_scan_header@@YAHPEAUstbi__jpeg@@@Z+865
	DD	imagerel ?stbi__process_scan_header@@YAHPEAUstbi__jpeg@@@Z+960
	DD	imagerel $chain$2$?stbi__process_scan_header@@YAHPEAUstbi__jpeg@@@Z
pdata	ENDS
;	COMDAT pdata
pdata	SEGMENT
$pdata$3$?stbi__process_scan_header@@YAHPEAUstbi__jpeg@@@Z DD imagerel ?stbi__process_scan_header@@YAHPEAUstbi__jpeg@@@Z+960
	DD	imagerel ?stbi__process_scan_header@@YAHPEAUstbi__jpeg@@@Z+1013
	DD	imagerel $chain$3$?stbi__process_scan_header@@YAHPEAUstbi__jpeg@@@Z
pdata	ENDS
;	COMDAT pdata
pdata	SEGMENT
$pdata$?stbi__free_jpeg_components@@YAHPEAUstbi__jpeg@@HH@Z DD imagerel ?stbi__free_jpeg_components@@YAHPEAUstbi__jpeg@@HH@Z
	DD	imagerel ?stbi__free_jpeg_components@@YAHPEAUstbi__jpeg@@HH@Z+35
	DD	imagerel $unwind$?stbi__free_jpeg_components@@YAHPEAUstbi__jpeg@@HH@Z
pdata	ENDS
;	COMDAT pdata
pdata	SEGMENT
$pdata$2$?stbi__free_jpeg_components@@YAHPEAUstbi__jpeg@@HH@Z DD imagerel ?stbi__free_jpeg_components@@YAHPEAUstbi__jpeg@@HH@Z+35
	DD	imagerel ?stbi__free_jpeg_components@@YAHPEAUstbi__jpeg@@HH@Z+186
	DD	imagerel $chain$2$?stbi__free_jpeg_components@@YAHPEAUstbi__jpeg@@HH@Z
pdata	ENDS
;	COMDAT pdata
pdata	SEGMENT
$pdata$3$?stbi__free_jpeg_components@@YAHPEAUstbi__jpeg@@HH@Z DD imagerel ?stbi__free_jpeg_components@@YAHPEAUstbi__jpeg@@HH@Z+186
	DD	imagerel ?stbi__free_jpeg_components@@YAHPEAUstbi__jpeg@@HH@Z+202
	DD	imagerel $chain$3$?stbi__free_jpeg_components@@YAHPEAUstbi__jpeg@@HH@Z
pdata	ENDS
;	COMDAT pdata
pdata	SEGMENT
$pdata$?stbi__process_frame_header@@YAHPEAUstbi__jpeg@@H@Z DD imagerel ?stbi__process_frame_header@@YAHPEAUstbi__jpeg@@H@Z
	DD	imagerel ?stbi__process_frame_header@@YAHPEAUstbi__jpeg@@H@Z+468
	DD	imagerel $unwind$?stbi__process_frame_header@@YAHPEAUstbi__jpeg@@H@Z
pdata	ENDS
;	COMDAT pdata
pdata	SEGMENT
$pdata$0$?stbi__process_frame_header@@YAHPEAUstbi__jpeg@@H@Z DD imagerel ?stbi__process_frame_header@@YAHPEAUstbi__jpeg@@H@Z+468
	DD	imagerel ?stbi__process_frame_header@@YAHPEAUstbi__jpeg@@H@Z+594
	DD	imagerel $chain$0$?stbi__process_frame_header@@YAHPEAUstbi__jpeg@@H@Z
pdata	ENDS
;	COMDAT pdata
pdata	SEGMENT
$pdata$5$?stbi__process_frame_header@@YAHPEAUstbi__jpeg@@H@Z DD imagerel ?stbi__process_frame_header@@YAHPEAUstbi__jpeg@@H@Z+594
	DD	imagerel ?stbi__process_frame_header@@YAHPEAUstbi__jpeg@@H@Z+1810
	DD	imagerel $chain$5$?stbi__process_frame_header@@YAHPEAUstbi__jpeg@@H@Z
pdata	ENDS
;	COMDAT pdata
pdata	SEGMENT
$pdata$7$?stbi__process_frame_header@@YAHPEAUstbi__jpeg@@H@Z DD imagerel ?stbi__process_frame_header@@YAHPEAUstbi__jpeg@@H@Z+1810
	DD	imagerel ?stbi__process_frame_header@@YAHPEAUstbi__jpeg@@H@Z+1979
	DD	imagerel $chain$7$?stbi__process_frame_header@@YAHPEAUstbi__jpeg@@H@Z
pdata	ENDS
;	COMDAT pdata
pdata	SEGMENT
$pdata$8$?stbi__process_frame_header@@YAHPEAUstbi__jpeg@@H@Z DD imagerel ?stbi__process_frame_header@@YAHPEAUstbi__jpeg@@H@Z+1979
	DD	imagerel ?stbi__process_frame_header@@YAHPEAUstbi__jpeg@@H@Z+2026
	DD	imagerel $chain$8$?stbi__process_frame_header@@YAHPEAUstbi__jpeg@@H@Z
pdata	ENDS
;	COMDAT pdata
pdata	SEGMENT
$pdata$?stbi__decode_jpeg_header@@YAHPEAUstbi__jpeg@@H@Z DD imagerel ?stbi__decode_jpeg_header@@YAHPEAUstbi__jpeg@@H@Z
	DD	imagerel ?stbi__decode_jpeg_header@@YAHPEAUstbi__jpeg@@H@Z+111
	DD	imagerel $unwind$?stbi__decode_jpeg_header@@YAHPEAUstbi__jpeg@@H@Z
pdata	ENDS
;	COMDAT pdata
pdata	SEGMENT
$pdata$0$?stbi__decode_jpeg_header@@YAHPEAUstbi__jpeg@@H@Z DD imagerel ?stbi__decode_jpeg_header@@YAHPEAUstbi__jpeg@@H@Z+111
	DD	imagerel ?stbi__decode_jpeg_header@@YAHPEAUstbi__jpeg@@H@Z+302
	DD	imagerel $chain$0$?stbi__decode_jpeg_header@@YAHPEAUstbi__jpeg@@H@Z
pdata	ENDS
;	COMDAT pdata
pdata	SEGMENT
$pdata$2$?stbi__decode_jpeg_header@@YAHPEAUstbi__jpeg@@H@Z DD imagerel ?stbi__decode_jpeg_header@@YAHPEAUstbi__jpeg@@H@Z+302
	DD	imagerel ?stbi__decode_jpeg_header@@YAHPEAUstbi__jpeg@@H@Z+355
	DD	imagerel $chain$2$?stbi__decode_jpeg_header@@YAHPEAUstbi__jpeg@@H@Z
pdata	ENDS
;	COMDAT pdata
pdata	SEGMENT
$pdata$3$?stbi__decode_jpeg_header@@YAHPEAUstbi__jpeg@@H@Z DD imagerel ?stbi__decode_jpeg_header@@YAHPEAUstbi__jpeg@@H@Z+355
	DD	imagerel ?stbi__decode_jpeg_header@@YAHPEAUstbi__jpeg@@H@Z+371
	DD	imagerel $chain$3$?stbi__decode_jpeg_header@@YAHPEAUstbi__jpeg@@H@Z
pdata	ENDS
;	COMDAT pdata
pdata	SEGMENT
$pdata$?stbi__skip_jpeg_junk_at_end@@YAEPEAUstbi__jpeg@@@Z DD imagerel ?stbi__skip_jpeg_junk_at_end@@YAEPEAUstbi__jpeg@@@Z
	DD	imagerel ?stbi__skip_jpeg_junk_at_end@@YAEPEAUstbi__jpeg@@@Z+268
	DD	imagerel $unwind$?stbi__skip_jpeg_junk_at_end@@YAEPEAUstbi__jpeg@@@Z
pdata	ENDS
;	COMDAT pdata
pdata	SEGMENT
$pdata$?stbi__decode_jpeg_image@@YAHPEAUstbi__jpeg@@@Z DD imagerel ?stbi__decode_jpeg_image@@YAHPEAUstbi__jpeg@@@Z
	DD	imagerel ?stbi__decode_jpeg_image@@YAHPEAUstbi__jpeg@@@Z+640
	DD	imagerel $unwind$?stbi__decode_jpeg_image@@YAHPEAUstbi__jpeg@@@Z
pdata	ENDS
;	COMDAT pdata
pdata	SEGMENT
$pdata$?stbi__resample_row_v_2@@YAPEAEPEAE00HH@Z DD imagerel ?stbi__resample_row_v_2@@YAPEAEPEAE00HH@Z
	DD	imagerel ?stbi__resample_row_v_2@@YAPEAEPEAE00HH@Z+404
	DD	imagerel $unwind$?stbi__resample_row_v_2@@YAPEAEPEAE00HH@Z
pdata	ENDS
;	COMDAT pdata
pdata	SEGMENT
$pdata$?stbi__resample_row_h_2@@YAPEAEPEAE00HH@Z DD imagerel ?stbi__resample_row_h_2@@YAPEAEPEAE00HH@Z
	DD	imagerel ?stbi__resample_row_h_2@@YAPEAEPEAE00HH@Z+195
	DD	imagerel $unwind$?stbi__resample_row_h_2@@YAPEAEPEAE00HH@Z
pdata	ENDS
;	COMDAT pdata
pdata	SEGMENT
$pdata$?stbi__resample_row_hv_2@@YAPEAEPEAE00HH@Z DD imagerel ?stbi__resample_row_hv_2@@YAPEAEPEAE00HH@Z
	DD	imagerel ?stbi__resample_row_hv_2@@YAPEAEPEAE00HH@Z+172
	DD	imagerel $unwind$?stbi__resample_row_hv_2@@YAPEAEPEAE00HH@Z
pdata	ENDS
;	COMDAT pdata
pdata	SEGMENT
$pdata$?stbi__resample_row_hv_2_simd@@YAPEAEPEAE00HH@Z DD imagerel ?stbi__resample_row_hv_2_simd@@YAPEAEPEAE00HH@Z
	DD	imagerel ?stbi__resample_row_hv_2_simd@@YAPEAEPEAE00HH@Z+69
	DD	imagerel $unwind$?stbi__resample_row_hv_2_simd@@YAPEAEPEAE00HH@Z
pdata	ENDS
;	COMDAT pdata
pdata	SEGMENT
$pdata$0$?stbi__resample_row_hv_2_simd@@YAPEAEPEAE00HH@Z DD imagerel ?stbi__resample_row_hv_2_simd@@YAPEAEPEAE00HH@Z+69
	DD	imagerel ?stbi__resample_row_hv_2_simd@@YAPEAEPEAE00HH@Z+337
	DD	imagerel $chain$0$?stbi__resample_row_hv_2_simd@@YAPEAEPEAE00HH@Z
pdata	ENDS
;	COMDAT pdata
pdata	SEGMENT
$pdata$1$?stbi__resample_row_hv_2_simd@@YAPEAEPEAE00HH@Z DD imagerel ?stbi__resample_row_hv_2_simd@@YAPEAEPEAE00HH@Z+337
	DD	imagerel ?stbi__resample_row_hv_2_simd@@YAPEAEPEAE00HH@Z+437
	DD	imagerel $chain$1$?stbi__resample_row_hv_2_simd@@YAPEAEPEAE00HH@Z
pdata	ENDS
;	COMDAT pdata
pdata	SEGMENT
$pdata$?stbi__resample_row_generic@@YAPEAEPEAE00HH@Z DD imagerel ?stbi__resample_row_generic@@YAPEAEPEAE00HH@Z
	DD	imagerel ?stbi__resample_row_generic@@YAPEAEPEAE00HH@Z+85
	DD	imagerel $unwind$?stbi__resample_row_generic@@YAPEAEPEAE00HH@Z
pdata	ENDS
;	COMDAT pdata
pdata	SEGMENT
$pdata$?stbi__YCbCr_to_RGB_row@@YAXPEAEPEBE11HH@Z DD imagerel ?stbi__YCbCr_to_RGB_row@@YAXPEAEPEBE11HH@Z
	DD	imagerel ?stbi__YCbCr_to_RGB_row@@YAXPEAEPEBE11HH@Z+39
	DD	imagerel $unwind$?stbi__YCbCr_to_RGB_row@@YAXPEAEPEBE11HH@Z
pdata	ENDS
;	COMDAT pdata
pdata	SEGMENT
$pdata$1$?stbi__YCbCr_to_RGB_row@@YAXPEAEPEBE11HH@Z DD imagerel ?stbi__YCbCr_to_RGB_row@@YAXPEAEPEBE11HH@Z+39
	DD	imagerel ?stbi__YCbCr_to_RGB_row@@YAXPEAEPEBE11HH@Z+285
	DD	imagerel $chain$1$?stbi__YCbCr_to_RGB_row@@YAXPEAEPEBE11HH@Z
pdata	ENDS
;	COMDAT pdata
pdata	SEGMENT
$pdata$2$?stbi__YCbCr_to_RGB_row@@YAXPEAEPEBE11HH@Z DD imagerel ?stbi__YCbCr_to_RGB_row@@YAXPEAEPEBE11HH@Z+285
	DD	imagerel ?stbi__YCbCr_to_RGB_row@@YAXPEAEPEBE11HH@Z+302
	DD	imagerel $chain$2$?stbi__YCbCr_to_RGB_row@@YAXPEAEPEBE11HH@Z
pdata	ENDS
;	COMDAT pdata
pdata	SEGMENT
$pdata$?stbi__YCbCr_to_RGB_simd@@YAXPEAEPEBE11HH@Z DD imagerel ?stbi__YCbCr_to_RGB_simd@@YAXPEAEPEBE11HH@Z
	DD	imagerel ?stbi__YCbCr_to_RGB_simd@@YAXPEAEPEBE11HH@Z+60
	DD	imagerel $unwind$?stbi__YCbCr_to_RGB_simd@@YAXPEAEPEBE11HH@Z
pdata	ENDS
;	COMDAT pdata
pdata	SEGMENT
$pdata$4$?stbi__YCbCr_to_RGB_simd@@YAXPEAEPEBE11HH@Z DD imagerel ?stbi__YCbCr_to_RGB_simd@@YAXPEAEPEBE11HH@Z+60
	DD	imagerel ?stbi__YCbCr_to_RGB_simd@@YAXPEAEPEBE11HH@Z+341
	DD	imagerel $chain$4$?stbi__YCbCr_to_RGB_simd@@YAXPEAEPEBE11HH@Z
pdata	ENDS
;	COMDAT pdata
pdata	SEGMENT
$pdata$5$?stbi__YCbCr_to_RGB_simd@@YAXPEAEPEBE11HH@Z DD imagerel ?stbi__YCbCr_to_RGB_simd@@YAXPEAEPEBE11HH@Z+341
	DD	imagerel ?stbi__YCbCr_to_RGB_simd@@YAXPEAEPEBE11HH@Z+349
	DD	imagerel $chain$5$?stbi__YCbCr_to_RGB_simd@@YAXPEAEPEBE11HH@Z
pdata	ENDS
;	COMDAT pdata
pdata	SEGMENT
$pdata$6$?stbi__YCbCr_to_RGB_simd@@YAXPEAEPEBE11HH@Z DD imagerel ?stbi__YCbCr_to_RGB_simd@@YAXPEAEPEBE11HH@Z+349
	DD	imagerel ?stbi__YCbCr_to_RGB_simd@@YAXPEAEPEBE11HH@Z+585
	DD	imagerel $chain$6$?stbi__YCbCr_to_RGB_simd@@YAXPEAEPEBE11HH@Z
pdata	ENDS
;	COMDAT pdata
pdata	SEGMENT
$pdata$7$?stbi__YCbCr_to_RGB_simd@@YAXPEAEPEBE11HH@Z DD imagerel ?stbi__YCbCr_to_RGB_simd@@YAXPEAEPEBE11HH@Z+585
	DD	imagerel ?stbi__YCbCr_to_RGB_simd@@YAXPEAEPEBE11HH@Z+599
	DD	imagerel $chain$7$?stbi__YCbCr_to_RGB_simd@@YAXPEAEPEBE11HH@Z
pdata	ENDS
;	COMDAT pdata
pdata	SEGMENT
$pdata$?stbi__setup_jpeg@@YAXPEAUstbi__jpeg@@@Z DD imagerel ?stbi__setup_jpeg@@YAXPEAUstbi__jpeg@@@Z
	DD	imagerel ?stbi__setup_jpeg@@YAXPEAUstbi__jpeg@@@Z+114
	DD	imagerel $unwind$?stbi__setup_jpeg@@YAXPEAUstbi__jpeg@@@Z
pdata	ENDS
;	COMDAT pdata
pdata	SEGMENT
$pdata$?load_jpeg_image@@YAPEAEPEAUstbi__jpeg@@PEAH11H@Z DD imagerel ?load_jpeg_image@@YAPEAEPEAUstbi__jpeg@@PEAH11H@Z
	DD	imagerel ?load_jpeg_image@@YAPEAEPEAUstbi__jpeg@@PEAH11H@Z+115
	DD	imagerel $unwind$?load_jpeg_image@@YAPEAEPEAUstbi__jpeg@@PEAH11H@Z
pdata	ENDS
;	COMDAT pdata
pdata	SEGMENT
$pdata$1$?load_jpeg_image@@YAPEAEPEAUstbi__jpeg@@PEAH11H@Z DD imagerel ?load_jpeg_image@@YAPEAEPEAUstbi__jpeg@@PEAH11H@Z+115
	DD	imagerel ?load_jpeg_image@@YAPEAEPEAUstbi__jpeg@@PEAH11H@Z+257
	DD	imagerel $chain$1$?load_jpeg_image@@YAPEAEPEAUstbi__jpeg@@PEAH11H@Z
pdata	ENDS
;	COMDAT pdata
pdata	SEGMENT
$pdata$3$?load_jpeg_image@@YAPEAEPEAUstbi__jpeg@@PEAH11H@Z DD imagerel ?load_jpeg_image@@YAPEAEPEAUstbi__jpeg@@PEAH11H@Z+257
	DD	imagerel ?load_jpeg_image@@YAPEAEPEAUstbi__jpeg@@PEAH11H@Z+470
	DD	imagerel $chain$3$?load_jpeg_image@@YAPEAEPEAUstbi__jpeg@@PEAH11H@Z
pdata	ENDS
;	COMDAT pdata
pdata	SEGMENT
$pdata$4$?load_jpeg_image@@YAPEAEPEAUstbi__jpeg@@PEAH11H@Z DD imagerel ?load_jpeg_image@@YAPEAEPEAUstbi__jpeg@@PEAH11H@Z+470
	DD	imagerel ?load_jpeg_image@@YAPEAEPEAUstbi__jpeg@@PEAH11H@Z+498
	DD	imagerel $chain$4$?load_jpeg_image@@YAPEAEPEAUstbi__jpeg@@PEAH11H@Z
pdata	ENDS
;	COMDAT pdata
pdata	SEGMENT
$pdata$5$?load_jpeg_image@@YAPEAEPEAUstbi__jpeg@@PEAH11H@Z DD imagerel ?load_jpeg_image@@YAPEAEPEAUstbi__jpeg@@PEAH11H@Z+498
	DD	imagerel ?load_jpeg_image@@YAPEAEPEAUstbi__jpeg@@PEAH11H@Z+2175
	DD	imagerel $chain$5$?load_jpeg_image@@YAPEAEPEAUstbi__jpeg@@PEAH11H@Z
pdata	ENDS
;	COMDAT pdata
pdata	SEGMENT
$pdata$6$?load_jpeg_image@@YAPEAEPEAUstbi__jpeg@@PEAH11H@Z DD imagerel ?load_jpeg_image@@YAPEAEPEAUstbi__jpeg@@PEAH11H@Z+2175
	DD	imagerel ?load_jpeg_image@@YAPEAEPEAUstbi__jpeg@@PEAH11H@Z+2191
	DD	imagerel $chain$6$?load_jpeg_image@@YAPEAEPEAUstbi__jpeg@@PEAH11H@Z
pdata	ENDS
;	COMDAT pdata
pdata	SEGMENT
$pdata$7$?load_jpeg_image@@YAPEAEPEAUstbi__jpeg@@PEAH11H@Z DD imagerel ?load_jpeg_image@@YAPEAEPEAUstbi__jpeg@@PEAH11H@Z+2191
	DD	imagerel ?load_jpeg_image@@YAPEAEPEAUstbi__jpeg@@PEAH11H@Z+2218
	DD	imagerel $chain$7$?load_jpeg_image@@YAPEAEPEAUstbi__jpeg@@PEAH11H@Z
pdata	ENDS
;	COMDAT pdata
pdata	SEGMENT
$pdata$8$?load_jpeg_image@@YAPEAEPEAUstbi__jpeg@@PEAH11H@Z DD imagerel ?load_jpeg_image@@YAPEAEPEAUstbi__jpeg@@PEAH11H@Z+2218
	DD	imagerel ?load_jpeg_image@@YAPEAEPEAUstbi__jpeg@@PEAH11H@Z+2274
	DD	imagerel $chain$8$?load_jpeg_image@@YAPEAEPEAUstbi__jpeg@@PEAH11H@Z
pdata	ENDS
;	COMDAT pdata
pdata	SEGMENT
$pdata$9$?load_jpeg_image@@YAPEAEPEAUstbi__jpeg@@PEAH11H@Z DD imagerel ?load_jpeg_image@@YAPEAEPEAUstbi__jpeg@@PEAH11H@Z+2274
	DD	imagerel ?load_jpeg_image@@YAPEAEPEAUstbi__jpeg@@PEAH11H@Z+2313
	DD	imagerel $chain$9$?load_jpeg_image@@YAPEAEPEAUstbi__jpeg@@PEAH11H@Z
pdata	ENDS
;	COMDAT pdata
pdata	SEGMENT
$pdata$?stbi__jpeg_info_raw@@YAHPEAUstbi__jpeg@@PEAH11@Z DD imagerel ?stbi__jpeg_info_raw@@YAHPEAUstbi__jpeg@@PEAH11@Z
	DD	imagerel ?stbi__jpeg_info_raw@@YAHPEAUstbi__jpeg@@PEAH11@Z+149
	DD	imagerel $unwind$?stbi__jpeg_info_raw@@YAHPEAUstbi__jpeg@@PEAH11@Z
pdata	ENDS
;	COMDAT pdata
pdata	SEGMENT
$pdata$?stbi__zbuild_huffman@@YAHPEAUstbi__zhuffman@@PEBEH@Z DD imagerel ?stbi__zbuild_huffman@@YAHPEAUstbi__zhuffman@@PEBEH@Z
	DD	imagerel ?stbi__zbuild_huffman@@YAHPEAUstbi__zhuffman@@PEBEH@Z+154
	DD	imagerel $unwind$?stbi__zbuild_huffman@@YAHPEAUstbi__zhuffman@@PEBEH@Z
pdata	ENDS
;	COMDAT pdata
pdata	SEGMENT
$pdata$0$?stbi__zbuild_huffman@@YAHPEAUstbi__zhuffman@@PEBEH@Z DD imagerel ?stbi__zbuild_huffman@@YAHPEAUstbi__zhuffman@@PEBEH@Z+154
	DD	imagerel ?stbi__zbuild_huffman@@YAHPEAUstbi__zhuffman@@PEBEH@Z+551
	DD	imagerel $chain$0$?stbi__zbuild_huffman@@YAHPEAUstbi__zhuffman@@PEBEH@Z
pdata	ENDS
;	COMDAT pdata
pdata	SEGMENT
$pdata$1$?stbi__zbuild_huffman@@YAHPEAUstbi__zhuffman@@PEBEH@Z DD imagerel ?stbi__zbuild_huffman@@YAHPEAUstbi__zhuffman@@PEBEH@Z+551
	DD	imagerel ?stbi__zbuild_huffman@@YAHPEAUstbi__zhuffman@@PEBEH@Z+578
	DD	imagerel $chain$1$?stbi__zbuild_huffman@@YAHPEAUstbi__zhuffman@@PEBEH@Z
pdata	ENDS
;	COMDAT pdata
pdata	SEGMENT
$pdata$2$?stbi__zbuild_huffman@@YAHPEAUstbi__zhuffman@@PEBEH@Z DD imagerel ?stbi__zbuild_huffman@@YAHPEAUstbi__zhuffman@@PEBEH@Z+578
	DD	imagerel ?stbi__zbuild_huffman@@YAHPEAUstbi__zhuffman@@PEBEH@Z+617
	DD	imagerel $chain$2$?stbi__zbuild_huffman@@YAHPEAUstbi__zhuffman@@PEBEH@Z
pdata	ENDS
;	COMDAT pdata
pdata	SEGMENT
$pdata$3$?stbi__zbuild_huffman@@YAHPEAUstbi__zhuffman@@PEBEH@Z DD imagerel ?stbi__zbuild_huffman@@YAHPEAUstbi__zhuffman@@PEBEH@Z+617
	DD	imagerel ?stbi__zbuild_huffman@@YAHPEAUstbi__zhuffman@@PEBEH@Z+656
	DD	imagerel $chain$3$?stbi__zbuild_huffman@@YAHPEAUstbi__zhuffman@@PEBEH@Z
pdata	ENDS
;	COMDAT pdata
pdata	SEGMENT
$pdata$?stbi__zreceive@@YAIPEAUstbi__zbuf@@H@Z DD imagerel ?stbi__zreceive@@YAIPEAUstbi__zbuf@@H@Z
	DD	imagerel ?stbi__zreceive@@YAIPEAUstbi__zbuf@@H@Z+57
	DD	imagerel $unwind$?stbi__zreceive@@YAIPEAUstbi__zbuf@@H@Z
pdata	ENDS
;	COMDAT pdata
pdata	SEGMENT
$pdata$?stbi__zhuffman_decode@@YAHPEAUstbi__zbuf@@PEAUstbi__zhuffman@@@Z DD imagerel ?stbi__zhuffman_decode@@YAHPEAUstbi__zbuf@@PEAUstbi__zhuffman@@@Z
	DD	imagerel ?stbi__zhuffman_decode@@YAHPEAUstbi__zbuf@@PEAUstbi__zhuffman@@@Z+129
	DD	imagerel $unwind$?stbi__zhuffman_decode@@YAHPEAUstbi__zbuf@@PEAUstbi__zhuffman@@@Z
pdata	ENDS
;	COMDAT pdata
pdata	SEGMENT
$pdata$?stbi__zexpand@@YAHPEAUstbi__zbuf@@PEADH@Z DD imagerel ?stbi__zexpand@@YAHPEAUstbi__zbuf@@PEADH@Z
	DD	imagerel ?stbi__zexpand@@YAHPEAUstbi__zbuf@@PEADH@Z+166
	DD	imagerel $unwind$?stbi__zexpand@@YAHPEAUstbi__zbuf@@PEADH@Z
pdata	ENDS
;	COMDAT pdata
pdata	SEGMENT
$pdata$0$?stbi__zexpand@@YAHPEAUstbi__zbuf@@PEADH@Z DD imagerel ?stbi__zexpand@@YAHPEAUstbi__zbuf@@PEADH@Z+166
	DD	imagerel ?stbi__zexpand@@YAHPEAUstbi__zbuf@@PEADH@Z+242
	DD	imagerel $chain$0$?stbi__zexpand@@YAHPEAUstbi__zbuf@@PEADH@Z
pdata	ENDS
;	COMDAT pdata
pdata	SEGMENT
$pdata$2$?stbi__zexpand@@YAHPEAUstbi__zbuf@@PEADH@Z DD imagerel ?stbi__zexpand@@YAHPEAUstbi__zbuf@@PEADH@Z+242
	DD	imagerel ?stbi__zexpand@@YAHPEAUstbi__zbuf@@PEADH@Z+284
	DD	imagerel $chain$2$?stbi__zexpand@@YAHPEAUstbi__zbuf@@PEADH@Z
pdata	ENDS
;	COMDAT pdata
pdata	SEGMENT
$pdata$?stbi__parse_huffman_block@@YAHPEAUstbi__zbuf@@@Z DD imagerel ?stbi__parse_huffman_block@@YAHPEAUstbi__zbuf@@@Z
	DD	imagerel ?stbi__parse_huffman_block@@YAHPEAUstbi__zbuf@@@Z+797
	DD	imagerel $unwind$?stbi__parse_huffman_block@@YAHPEAUstbi__zbuf@@@Z
pdata	ENDS
;	COMDAT pdata
pdata	SEGMENT
$pdata$?stbi__compute_huffman_codes@@YAHPEAUstbi__zbuf@@@Z DD imagerel ?stbi__compute_huffman_codes@@YAHPEAUstbi__zbuf@@@Z
	DD	imagerel ?stbi__compute_huffman_codes@@YAHPEAUstbi__zbuf@@@Z+254
	DD	imagerel $unwind$?stbi__compute_huffman_codes@@YAHPEAUstbi__zbuf@@@Z
pdata	ENDS
;	COMDAT pdata
pdata	SEGMENT
$pdata$2$?stbi__compute_huffman_codes@@YAHPEAUstbi__zbuf@@@Z DD imagerel ?stbi__compute_huffman_codes@@YAHPEAUstbi__zbuf@@@Z+254
	DD	imagerel ?stbi__compute_huffman_codes@@YAHPEAUstbi__zbuf@@@Z+783
	DD	imagerel $chain$2$?stbi__compute_huffman_codes@@YAHPEAUstbi__zbuf@@@Z
pdata	ENDS
;	COMDAT pdata
pdata	SEGMENT
$pdata$?stbi__parse_uncompressed_block@@YAHPEAUstbi__zbuf@@@Z DD imagerel ?stbi__parse_uncompressed_block@@YAHPEAUstbi__zbuf@@@Z
	DD	imagerel ?stbi__parse_uncompressed_block@@YAHPEAUstbi__zbuf@@@Z+247
	DD	imagerel $unwind$?stbi__parse_uncompressed_block@@YAHPEAUstbi__zbuf@@@Z
pdata	ENDS
;	COMDAT pdata
pdata	SEGMENT
$pdata$0$?stbi__parse_uncompressed_block@@YAHPEAUstbi__zbuf@@@Z DD imagerel ?stbi__parse_uncompressed_block@@YAHPEAUstbi__zbuf@@@Z+247
	DD	imagerel ?stbi__parse_uncompressed_block@@YAHPEAUstbi__zbuf@@@Z+312
	DD	imagerel $chain$0$?stbi__parse_uncompressed_block@@YAHPEAUstbi__zbuf@@@Z
pdata	ENDS
;	COMDAT pdata
pdata	SEGMENT
$pdata$2$?stbi__parse_uncompressed_block@@YAHPEAUstbi__zbuf@@@Z DD imagerel ?stbi__parse_uncompressed_block@@YAHPEAUstbi__zbuf@@@Z+312
	DD	imagerel ?stbi__parse_uncompressed_block@@YAHPEAUstbi__zbuf@@@Z+376
	DD	imagerel $chain$2$?stbi__parse_uncompressed_block@@YAHPEAUstbi__zbuf@@@Z
pdata	ENDS
;	COMDAT pdata
pdata	SEGMENT
$pdata$?stbi__parse_zlib@@YAHPEAUstbi__zbuf@@H@Z DD imagerel ?stbi__parse_zlib@@YAHPEAUstbi__zbuf@@H@Z
	DD	imagerel ?stbi__parse_zlib@@YAHPEAUstbi__zbuf@@H@Z+483
	DD	imagerel $unwind$?stbi__parse_zlib@@YAHPEAUstbi__zbuf@@H@Z
pdata	ENDS
;	COMDAT pdata
pdata	SEGMENT
$pdata$?stbi__get_chunk_header@@YA?AUstbi__pngchunk@@PEAUstbi__context@@@Z DD imagerel ?stbi__get_chunk_header@@YA?AUstbi__pngchunk@@PEAUstbi__context@@@Z
	DD	imagerel ?stbi__get_chunk_header@@YA?AUstbi__pngchunk@@PEAUstbi__context@@@Z+86
	DD	imagerel $unwind$?stbi__get_chunk_header@@YA?AUstbi__pngchunk@@PEAUstbi__context@@@Z
pdata	ENDS
;	COMDAT pdata
pdata	SEGMENT
$pdata$?stbi__check_png_header@@YAHPEAUstbi__context@@@Z DD imagerel ?stbi__check_png_header@@YAHPEAUstbi__context@@@Z
	DD	imagerel ?stbi__check_png_header@@YAHPEAUstbi__context@@@Z+187
	DD	imagerel $unwind$?stbi__check_png_header@@YAHPEAUstbi__context@@@Z
pdata	ENDS
;	COMDAT pdata
pdata	SEGMENT
$pdata$?stbi__create_png_alpha_expand8@@YAXPEAE0IH@Z DD imagerel ?stbi__create_png_alpha_expand8@@YAXPEAE0IH@Z
	DD	imagerel ?stbi__create_png_alpha_expand8@@YAXPEAE0IH@Z+157
	DD	imagerel $unwind$?stbi__create_png_alpha_expand8@@YAXPEAE0IH@Z
pdata	ENDS
;	COMDAT pdata
pdata	SEGMENT
$pdata$?stbi__create_png_image_raw@@YAHPEAUstbi__png@@PEAEIHIIHH@Z DD imagerel ?stbi__create_png_image_raw@@YAHPEAUstbi__png@@PEAEIHIIHH@Z
	DD	imagerel ?stbi__create_png_image_raw@@YAHPEAUstbi__png@@PEAEIHIIHH@Z+2444
	DD	imagerel $unwind$?stbi__create_png_image_raw@@YAHPEAUstbi__png@@PEAEIHIIHH@Z
pdata	ENDS
;	COMDAT pdata
pdata	SEGMENT
$pdata$?stbi__create_png_image@@YAHPEAUstbi__png@@PEAEIHHHH@Z DD imagerel ?stbi__create_png_image@@YAHPEAUstbi__png@@PEAEIHHHH@Z
	DD	imagerel ?stbi__create_png_image@@YAHPEAUstbi__png@@PEAEIHHHH@Z+132
	DD	imagerel $unwind$?stbi__create_png_image@@YAHPEAUstbi__png@@PEAEIHHHH@Z
pdata	ENDS
;	COMDAT pdata
pdata	SEGMENT
$pdata$0$?stbi__create_png_image@@YAHPEAUstbi__png@@PEAEIHHHH@Z DD imagerel ?stbi__create_png_image@@YAHPEAUstbi__png@@PEAEIHHHH@Z+132
	DD	imagerel ?stbi__create_png_image@@YAHPEAUstbi__png@@PEAEIHHHH@Z+248
	DD	imagerel $chain$0$?stbi__create_png_image@@YAHPEAUstbi__png@@PEAEIHHHH@Z
pdata	ENDS
;	COMDAT pdata
pdata	SEGMENT
$pdata$6$?stbi__create_png_image@@YAHPEAUstbi__png@@PEAEIHHHH@Z DD imagerel ?stbi__create_png_image@@YAHPEAUstbi__png@@PEAEIHHHH@Z+248
	DD	imagerel ?stbi__create_png_image@@YAHPEAUstbi__png@@PEAEIHHHH@Z+1003
	DD	imagerel $chain$6$?stbi__create_png_image@@YAHPEAUstbi__png@@PEAEIHHHH@Z
pdata	ENDS
;	COMDAT pdata
pdata	SEGMENT
$pdata$7$?stbi__create_png_image@@YAHPEAUstbi__png@@PEAEIHHHH@Z DD imagerel ?stbi__create_png_image@@YAHPEAUstbi__png@@PEAEIHHHH@Z+1003
	DD	imagerel ?stbi__create_png_image@@YAHPEAUstbi__png@@PEAEIHHHH@Z+1027
	DD	imagerel $chain$7$?stbi__create_png_image@@YAHPEAUstbi__png@@PEAEIHHHH@Z
pdata	ENDS
;	COMDAT pdata
pdata	SEGMENT
$pdata$9$?stbi__create_png_image@@YAHPEAUstbi__png@@PEAEIHHHH@Z DD imagerel ?stbi__create_png_image@@YAHPEAUstbi__png@@PEAEIHHHH@Z+1027
	DD	imagerel ?stbi__create_png_image@@YAHPEAUstbi__png@@PEAEIHHHH@Z+1042
	DD	imagerel $chain$9$?stbi__create_png_image@@YAHPEAUstbi__png@@PEAEIHHHH@Z
pdata	ENDS
;	COMDAT pdata
pdata	SEGMENT
$pdata$10$?stbi__create_png_image@@YAHPEAUstbi__png@@PEAEIHHHH@Z DD imagerel ?stbi__create_png_image@@YAHPEAUstbi__png@@PEAEIHHHH@Z+1042
	DD	imagerel ?stbi__create_png_image@@YAHPEAUstbi__png@@PEAEIHHHH@Z+1081
	DD	imagerel $chain$10$?stbi__create_png_image@@YAHPEAUstbi__png@@PEAEIHHHH@Z
pdata	ENDS
;	COMDAT pdata
pdata	SEGMENT
$pdata$?stbi__expand_png_palette@@YAHPEAUstbi__png@@PEAEHH@Z DD imagerel ?stbi__expand_png_palette@@YAHPEAUstbi__png@@PEAEHH@Z
	DD	imagerel ?stbi__expand_png_palette@@YAHPEAUstbi__png@@PEAEHH@Z+286
	DD	imagerel $unwind$?stbi__expand_png_palette@@YAHPEAUstbi__png@@PEAEHH@Z
pdata	ENDS
;	COMDAT pdata
pdata	SEGMENT
$pdata$?stbi__de_iphone@@YAXPEAUstbi__png@@@Z DD imagerel ?stbi__de_iphone@@YAXPEAUstbi__png@@@Z
	DD	imagerel ?stbi__de_iphone@@YAXPEAUstbi__png@@@Z+143
	DD	imagerel $unwind$?stbi__de_iphone@@YAXPEAUstbi__png@@@Z
pdata	ENDS
;	COMDAT pdata
pdata	SEGMENT
$pdata$2$?stbi__de_iphone@@YAXPEAUstbi__png@@@Z DD imagerel ?stbi__de_iphone@@YAXPEAUstbi__png@@@Z+143
	DD	imagerel ?stbi__de_iphone@@YAXPEAUstbi__png@@@Z+281
	DD	imagerel $chain$2$?stbi__de_iphone@@YAXPEAUstbi__png@@@Z
pdata	ENDS
;	COMDAT pdata
pdata	SEGMENT
$pdata$3$?stbi__de_iphone@@YAXPEAUstbi__png@@@Z DD imagerel ?stbi__de_iphone@@YAXPEAUstbi__png@@@Z+281
	DD	imagerel ?stbi__de_iphone@@YAXPEAUstbi__png@@@Z+317
	DD	imagerel $chain$3$?stbi__de_iphone@@YAXPEAUstbi__png@@@Z
pdata	ENDS
;	COMDAT pdata
pdata	SEGMENT
$pdata$?stbi__parse_png_file@@YAHPEAUstbi__png@@HH@Z DD imagerel ?stbi__parse_png_file@@YAHPEAUstbi__png@@HH@Z
	DD	imagerel ?stbi__parse_png_file@@YAHPEAUstbi__png@@HH@Z+4009
	DD	imagerel $unwind$?stbi__parse_png_file@@YAHPEAUstbi__png@@HH@Z
pdata	ENDS
;	COMDAT pdata
pdata	SEGMENT
$pdata$?stbi__do_png@@YAPEAXPEAUstbi__png@@PEAH11HPEAUstbi__result_info@@@Z DD imagerel ?stbi__do_png@@YAPEAXPEAUstbi__png@@PEAH11HPEAUstbi__result_info@@@Z
	DD	imagerel ?stbi__do_png@@YAPEAXPEAUstbi__png@@PEAH11HPEAUstbi__result_info@@@Z+44
	DD	imagerel $unwind$?stbi__do_png@@YAPEAXPEAUstbi__png@@PEAH11HPEAUstbi__result_info@@@Z
pdata	ENDS
;	COMDAT pdata
pdata	SEGMENT
$pdata$1$?stbi__do_png@@YAPEAXPEAUstbi__png@@PEAH11HPEAUstbi__result_info@@@Z DD imagerel ?stbi__do_png@@YAPEAXPEAUstbi__png@@PEAH11HPEAUstbi__result_info@@@Z+44
	DD	imagerel ?stbi__do_png@@YAPEAXPEAUstbi__png@@PEAH11HPEAUstbi__result_info@@@Z+270
	DD	imagerel $chain$1$?stbi__do_png@@YAPEAXPEAUstbi__png@@PEAH11HPEAUstbi__result_info@@@Z
pdata	ENDS
;	COMDAT pdata
pdata	SEGMENT
$pdata$2$?stbi__do_png@@YAPEAXPEAUstbi__png@@PEAH11HPEAUstbi__result_info@@@Z DD imagerel ?stbi__do_png@@YAPEAXPEAUstbi__png@@PEAH11HPEAUstbi__result_info@@@Z+270
	DD	imagerel ?stbi__do_png@@YAPEAXPEAUstbi__png@@PEAH11HPEAUstbi__result_info@@@Z+290
	DD	imagerel $chain$2$?stbi__do_png@@YAPEAXPEAUstbi__png@@PEAH11HPEAUstbi__result_info@@@Z
pdata	ENDS
;	COMDAT pdata
pdata	SEGMENT
$pdata$3$?stbi__do_png@@YAPEAXPEAUstbi__png@@PEAH11HPEAUstbi__result_info@@@Z DD imagerel ?stbi__do_png@@YAPEAXPEAUstbi__png@@PEAH11HPEAUstbi__result_info@@@Z+290
	DD	imagerel ?stbi__do_png@@YAPEAXPEAUstbi__png@@PEAH11HPEAUstbi__result_info@@@Z+329
	DD	imagerel $chain$3$?stbi__do_png@@YAPEAXPEAUstbi__png@@PEAH11HPEAUstbi__result_info@@@Z
pdata	ENDS
;	COMDAT pdata
pdata	SEGMENT
$pdata$4$?stbi__do_png@@YAPEAXPEAUstbi__png@@PEAH11HPEAUstbi__result_info@@@Z DD imagerel ?stbi__do_png@@YAPEAXPEAUstbi__png@@PEAH11HPEAUstbi__result_info@@@Z+329
	DD	imagerel ?stbi__do_png@@YAPEAXPEAUstbi__png@@PEAH11HPEAUstbi__result_info@@@Z+368
	DD	imagerel $chain$4$?stbi__do_png@@YAPEAXPEAUstbi__png@@PEAH11HPEAUstbi__result_info@@@Z
pdata	ENDS
;	COMDAT pdata
pdata	SEGMENT
$pdata$?stbi__png_info_raw@@YAHPEAUstbi__png@@PEAH11@Z DD imagerel ?stbi__png_info_raw@@YAHPEAUstbi__png@@PEAH11@Z
	DD	imagerel ?stbi__png_info_raw@@YAHPEAUstbi__png@@PEAH11@Z+136
	DD	imagerel $unwind$?stbi__png_info_raw@@YAHPEAUstbi__png@@PEAH11@Z
pdata	ENDS
;	COMDAT pdata
pdata	SEGMENT
$pdata$?stbi__bmp_test_raw@@YAHPEAUstbi__context@@@Z DD imagerel ?stbi__bmp_test_raw@@YAHPEAUstbi__context@@@Z
	DD	imagerel ?stbi__bmp_test_raw@@YAHPEAUstbi__context@@@Z+257
	DD	imagerel $unwind$?stbi__bmp_test_raw@@YAHPEAUstbi__context@@@Z
pdata	ENDS
;	COMDAT pdata
pdata	SEGMENT
$pdata$?stbi__bmp_parse_header@@YAPEAXPEAUstbi__context@@PEAUstbi__bmp_data@@@Z DD imagerel ?stbi__bmp_parse_header@@YAPEAXPEAUstbi__context@@PEAUstbi__bmp_data@@@Z
	DD	imagerel ?stbi__bmp_parse_header@@YAPEAXPEAUstbi__context@@PEAUstbi__bmp_data@@@Z+140
	DD	imagerel $unwind$?stbi__bmp_parse_header@@YAPEAXPEAUstbi__context@@PEAUstbi__bmp_data@@@Z
pdata	ENDS
;	COMDAT pdata
pdata	SEGMENT
$pdata$0$?stbi__bmp_parse_header@@YAPEAXPEAUstbi__context@@PEAUstbi__bmp_data@@@Z DD imagerel ?stbi__bmp_parse_header@@YAPEAXPEAUstbi__context@@PEAUstbi__bmp_data@@@Z+140
	DD	imagerel ?stbi__bmp_parse_header@@YAPEAXPEAUstbi__context@@PEAUstbi__bmp_data@@@Z+341
	DD	imagerel $chain$0$?stbi__bmp_parse_header@@YAPEAXPEAUstbi__context@@PEAUstbi__bmp_data@@@Z
pdata	ENDS
;	COMDAT pdata
pdata	SEGMENT
$pdata$2$?stbi__bmp_parse_header@@YAPEAXPEAUstbi__context@@PEAUstbi__bmp_data@@@Z DD imagerel ?stbi__bmp_parse_header@@YAPEAXPEAUstbi__context@@PEAUstbi__bmp_data@@@Z+341
	DD	imagerel ?stbi__bmp_parse_header@@YAPEAXPEAUstbi__context@@PEAUstbi__bmp_data@@@Z+914
	DD	imagerel $chain$2$?stbi__bmp_parse_header@@YAPEAXPEAUstbi__context@@PEAUstbi__bmp_data@@@Z
pdata	ENDS
;	COMDAT pdata
pdata	SEGMENT
$pdata$3$?stbi__bmp_parse_header@@YAPEAXPEAUstbi__context@@PEAUstbi__bmp_data@@@Z DD imagerel ?stbi__bmp_parse_header@@YAPEAXPEAUstbi__context@@PEAUstbi__bmp_data@@@Z+914
	DD	imagerel ?stbi__bmp_parse_header@@YAPEAXPEAUstbi__context@@PEAUstbi__bmp_data@@@Z+967
	DD	imagerel $chain$3$?stbi__bmp_parse_header@@YAPEAXPEAUstbi__context@@PEAUstbi__bmp_data@@@Z
pdata	ENDS
;	COMDAT pdata
pdata	SEGMENT
$pdata$?stbi__tga_read_rgb16@@YAXPEAUstbi__context@@PEAE@Z DD imagerel ?stbi__tga_read_rgb16@@YAXPEAUstbi__context@@PEAE@Z
	DD	imagerel ?stbi__tga_read_rgb16@@YAXPEAUstbi__context@@PEAE@Z+130
	DD	imagerel $unwind$?stbi__tga_read_rgb16@@YAXPEAUstbi__context@@PEAE@Z
pdata	ENDS
;	COMDAT pdata
pdata	SEGMENT
$pdata$?stbi__psd_decode_rle@@YAHPEAUstbi__context@@PEAEH@Z DD imagerel ?stbi__psd_decode_rle@@YAHPEAUstbi__context@@PEAEH@Z
	DD	imagerel ?stbi__psd_decode_rle@@YAHPEAUstbi__context@@PEAEH@Z+367
	DD	imagerel $unwind$?stbi__psd_decode_rle@@YAHPEAUstbi__context@@PEAEH@Z
pdata	ENDS
;	COMDAT pdata
pdata	SEGMENT
$pdata$?stbi__pic_is4@@YAHPEAUstbi__context@@PEBD@Z DD imagerel ?stbi__pic_is4@@YAHPEAUstbi__context@@PEBD@Z
	DD	imagerel ?stbi__pic_is4@@YAHPEAUstbi__context@@PEBD@Z+152
	DD	imagerel $unwind$?stbi__pic_is4@@YAHPEAUstbi__context@@PEBD@Z
pdata	ENDS
;	COMDAT pdata
pdata	SEGMENT
$pdata$?stbi__pic_test_core@@YAHPEAUstbi__context@@@Z DD imagerel ?stbi__pic_test_core@@YAHPEAUstbi__context@@@Z
	DD	imagerel ?stbi__pic_test_core@@YAHPEAUstbi__context@@@Z+210
	DD	imagerel $unwind$?stbi__pic_test_core@@YAHPEAUstbi__context@@@Z
pdata	ENDS
;	COMDAT pdata
pdata	SEGMENT
$pdata$?stbi__readval@@YAPEAEPEAUstbi__context@@HPEAE@Z DD imagerel ?stbi__readval@@YAPEAEPEAUstbi__context@@HPEAE@Z
	DD	imagerel ?stbi__readval@@YAPEAEPEAUstbi__context@@HPEAE@Z+228
	DD	imagerel $unwind$?stbi__readval@@YAPEAEPEAUstbi__context@@HPEAE@Z
pdata	ENDS
;	COMDAT pdata
pdata	SEGMENT
$pdata$?stbi__pic_load_core@@YAPEAEPEAUstbi__context@@HHPEAHPEAE@Z DD imagerel ?stbi__pic_load_core@@YAPEAEPEAUstbi__context@@HHPEAHPEAE@Z
	DD	imagerel ?stbi__pic_load_core@@YAPEAEPEAUstbi__context@@HHPEAHPEAE@Z+1552
	DD	imagerel $unwind$?stbi__pic_load_core@@YAPEAEPEAUstbi__context@@HHPEAHPEAE@Z
pdata	ENDS
;	COMDAT pdata
pdata	SEGMENT
$pdata$?stbi__gif_test_raw@@YAHPEAUstbi__context@@@Z DD imagerel ?stbi__gif_test_raw@@YAHPEAUstbi__context@@@Z
	DD	imagerel ?stbi__gif_test_raw@@YAHPEAUstbi__context@@@Z+365
	DD	imagerel $unwind$?stbi__gif_test_raw@@YAHPEAUstbi__context@@@Z
pdata	ENDS
;	COMDAT pdata
pdata	SEGMENT
$pdata$?stbi__gif_parse_colortable@@YAXPEAUstbi__context@@QEAY03EHH@Z DD imagerel ?stbi__gif_parse_colortable@@YAXPEAUstbi__context@@QEAY03EHH@Z
	DD	imagerel ?stbi__gif_parse_colortable@@YAXPEAUstbi__context@@QEAY03EHH@Z+31
	DD	imagerel $unwind$?stbi__gif_parse_colortable@@YAXPEAUstbi__context@@QEAY03EHH@Z
pdata	ENDS
;	COMDAT pdata
pdata	SEGMENT
$pdata$0$?stbi__gif_parse_colortable@@YAXPEAUstbi__context@@QEAY03EHH@Z DD imagerel ?stbi__gif_parse_colortable@@YAXPEAUstbi__context@@QEAY03EHH@Z+31
	DD	imagerel ?stbi__gif_parse_colortable@@YAXPEAUstbi__context@@QEAY03EHH@Z+319
	DD	imagerel $chain$0$?stbi__gif_parse_colortable@@YAXPEAUstbi__context@@QEAY03EHH@Z
pdata	ENDS
;	COMDAT pdata
pdata	SEGMENT
$pdata$1$?stbi__gif_parse_colortable@@YAXPEAUstbi__context@@QEAY03EHH@Z DD imagerel ?stbi__gif_parse_colortable@@YAXPEAUstbi__context@@QEAY03EHH@Z+319
	DD	imagerel ?stbi__gif_parse_colortable@@YAXPEAUstbi__context@@QEAY03EHH@Z+320
	DD	imagerel $chain$1$?stbi__gif_parse_colortable@@YAXPEAUstbi__context@@QEAY03EHH@Z
pdata	ENDS
;	COMDAT pdata
pdata	SEGMENT
$pdata$?stbi__gif_header@@YAHPEAUstbi__context@@PEAUstbi__gif@@PEAHH@Z DD imagerel ?stbi__gif_header@@YAHPEAUstbi__context@@PEAUstbi__gif@@PEAHH@Z
	DD	imagerel ?stbi__gif_header@@YAHPEAUstbi__context@@PEAUstbi__gif@@PEAHH@Z+394
	DD	imagerel $unwind$?stbi__gif_header@@YAHPEAUstbi__context@@PEAUstbi__gif@@PEAHH@Z
pdata	ENDS
;	COMDAT pdata
pdata	SEGMENT
$pdata$0$?stbi__gif_header@@YAHPEAUstbi__context@@PEAUstbi__gif@@PEAHH@Z DD imagerel ?stbi__gif_header@@YAHPEAUstbi__context@@PEAUstbi__gif@@PEAHH@Z+394
	DD	imagerel ?stbi__gif_header@@YAHPEAUstbi__context@@PEAUstbi__gif@@PEAHH@Z+749
	DD	imagerel $chain$0$?stbi__gif_header@@YAHPEAUstbi__context@@PEAUstbi__gif@@PEAHH@Z
pdata	ENDS
;	COMDAT pdata
pdata	SEGMENT
$pdata$1$?stbi__gif_header@@YAHPEAUstbi__context@@PEAUstbi__gif@@PEAHH@Z DD imagerel ?stbi__gif_header@@YAHPEAUstbi__context@@PEAUstbi__gif@@PEAHH@Z+749
	DD	imagerel ?stbi__gif_header@@YAHPEAUstbi__context@@PEAUstbi__gif@@PEAHH@Z+768
	DD	imagerel $chain$1$?stbi__gif_header@@YAHPEAUstbi__context@@PEAUstbi__gif@@PEAHH@Z
pdata	ENDS
;	COMDAT pdata
pdata	SEGMENT
$pdata$2$?stbi__gif_header@@YAHPEAUstbi__context@@PEAUstbi__gif@@PEAHH@Z DD imagerel ?stbi__gif_header@@YAHPEAUstbi__context@@PEAUstbi__gif@@PEAHH@Z+768
	DD	imagerel ?stbi__gif_header@@YAHPEAUstbi__context@@PEAUstbi__gif@@PEAHH@Z+782
	DD	imagerel $chain$2$?stbi__gif_header@@YAHPEAUstbi__context@@PEAUstbi__gif@@PEAHH@Z
pdata	ENDS
;	COMDAT pdata
pdata	SEGMENT
$pdata$3$?stbi__gif_header@@YAHPEAUstbi__context@@PEAUstbi__gif@@PEAHH@Z DD imagerel ?stbi__gif_header@@YAHPEAUstbi__context@@PEAUstbi__gif@@PEAHH@Z+782
	DD	imagerel ?stbi__gif_header@@YAHPEAUstbi__context@@PEAUstbi__gif@@PEAHH@Z+861
	DD	imagerel $chain$3$?stbi__gif_header@@YAHPEAUstbi__context@@PEAUstbi__gif@@PEAHH@Z
pdata	ENDS
;	COMDAT pdata
pdata	SEGMENT
$pdata$?stbi__gif_info_raw@@YAHPEAUstbi__context@@PEAH11@Z DD imagerel ?stbi__gif_info_raw@@YAHPEAUstbi__context@@PEAH11@Z
	DD	imagerel ?stbi__gif_info_raw@@YAHPEAUstbi__context@@PEAH11@Z+209
	DD	imagerel $unwind$?stbi__gif_info_raw@@YAHPEAUstbi__context@@PEAH11@Z
pdata	ENDS
;	COMDAT pdata
pdata	SEGMENT
$pdata$?stbi__out_gif_code@@YAXPEAUstbi__gif@@G@Z DD imagerel ?stbi__out_gif_code@@YAXPEAUstbi__gif@@G@Z
	DD	imagerel ?stbi__out_gif_code@@YAXPEAUstbi__gif@@G@Z+279
	DD	imagerel $unwind$?stbi__out_gif_code@@YAXPEAUstbi__gif@@G@Z
pdata	ENDS
;	COMDAT pdata
pdata	SEGMENT
$pdata$?stbi__process_gif_raster@@YAPEAEPEAUstbi__context@@PEAUstbi__gif@@@Z DD imagerel ?stbi__process_gif_raster@@YAPEAEPEAUstbi__context@@PEAUstbi__gif@@@Z
	DD	imagerel ?stbi__process_gif_raster@@YAPEAEPEAUstbi__context@@PEAUstbi__gif@@@Z+1090
	DD	imagerel $unwind$?stbi__process_gif_raster@@YAPEAEPEAUstbi__context@@PEAUstbi__gif@@@Z
pdata	ENDS
;	COMDAT pdata
pdata	SEGMENT
$pdata$?stbi__gif_load_next@@YAPEAEPEAUstbi__context@@PEAUstbi__gif@@PEAHHPEAE@Z DD imagerel ?stbi__gif_load_next@@YAPEAEPEAUstbi__context@@PEAUstbi__gif@@PEAHHPEAE@Z
	DD	imagerel ?stbi__gif_load_next@@YAPEAEPEAUstbi__context@@PEAUstbi__gif@@PEAHHPEAE@Z+1850
	DD	imagerel $unwind$?stbi__gif_load_next@@YAPEAEPEAUstbi__context@@PEAUstbi__gif@@PEAHHPEAE@Z
pdata	ENDS
;	COMDAT pdata
pdata	SEGMENT
$pdata$?stbi__load_gif_main_outofmem@@YAPEAXPEAUstbi__gif@@PEAEPEAPEAH@Z DD imagerel ?stbi__load_gif_main_outofmem@@YAPEAXPEAUstbi__gif@@PEAEPEAPEAH@Z
	DD	imagerel ?stbi__load_gif_main_outofmem@@YAPEAXPEAUstbi__gif@@PEAEPEAPEAH@Z+140
	DD	imagerel $unwind$?stbi__load_gif_main_outofmem@@YAPEAXPEAUstbi__gif@@PEAEPEAPEAH@Z
pdata	ENDS
;	COMDAT pdata
pdata	SEGMENT
$pdata$?stbi__hdr_test_core@@YAHPEAUstbi__context@@PEBD@Z DD imagerel ?stbi__hdr_test_core@@YAHPEAUstbi__context@@PEBD@Z
	DD	imagerel ?stbi__hdr_test_core@@YAHPEAUstbi__context@@PEBD@Z+179
	DD	imagerel $unwind$?stbi__hdr_test_core@@YAHPEAUstbi__context@@PEBD@Z
pdata	ENDS
;	COMDAT pdata
pdata	SEGMENT
$pdata$?stbi__hdr_gettoken@@YAPEADPEAUstbi__context@@PEAD@Z DD imagerel ?stbi__hdr_gettoken@@YAPEADPEAUstbi__context@@PEAD@Z
	DD	imagerel ?stbi__hdr_gettoken@@YAPEADPEAUstbi__context@@PEAD@Z+327
	DD	imagerel $unwind$?stbi__hdr_gettoken@@YAPEADPEAUstbi__context@@PEAD@Z
pdata	ENDS
;	COMDAT pdata
pdata	SEGMENT
$pdata$?stbi__hdr_convert@@YAXPEAMPEAEH@Z DD imagerel ?stbi__hdr_convert@@YAXPEAMPEAEH@Z
	DD	imagerel ?stbi__hdr_convert@@YAXPEAMPEAEH@Z+299
	DD	imagerel $unwind$?stbi__hdr_convert@@YAXPEAMPEAEH@Z
pdata	ENDS
;	COMDAT pdata
pdata	SEGMENT
$pdata$?stbi__pnm_skip_whitespace@@YAXPEAUstbi__context@@PEAD@Z DD imagerel ?stbi__pnm_skip_whitespace@@YAXPEAUstbi__context@@PEAD@Z
	DD	imagerel ?stbi__pnm_skip_whitespace@@YAXPEAUstbi__context@@PEAD@Z+486
	DD	imagerel $unwind$?stbi__pnm_skip_whitespace@@YAXPEAUstbi__context@@PEAD@Z
pdata	ENDS
;	COMDAT pdata
pdata	SEGMENT
$pdata$?stbi__pnm_getinteger@@YAHPEAUstbi__context@@PEAD@Z DD imagerel ?stbi__pnm_getinteger@@YAHPEAUstbi__context@@PEAD@Z
	DD	imagerel ?stbi__pnm_getinteger@@YAHPEAUstbi__context@@PEAD@Z+274
	DD	imagerel $unwind$?stbi__pnm_getinteger@@YAHPEAUstbi__context@@PEAD@Z
pdata	ENDS
;	COMDAT pdata
pdata	SEGMENT
$pdata$?stbi__info_main@@YAHPEAUstbi__context@@PEAH11@Z DD imagerel ?stbi__info_main@@YAHPEAUstbi__context@@PEAH11@Z
	DD	imagerel ?stbi__info_main@@YAHPEAUstbi__context@@PEAH11@Z+1481
	DD	imagerel $unwind$?stbi__info_main@@YAHPEAUstbi__context@@PEAH11@Z
pdata	ENDS
;	COMDAT pdata
pdata	SEGMENT
$pdata$?stbi__is_16_main@@YAHPEAUstbi__context@@@Z DD imagerel ?stbi__is_16_main@@YAHPEAUstbi__context@@@Z
	DD	imagerel ?stbi__is_16_main@@YAHPEAUstbi__context@@@Z+371
	DD	imagerel $unwind$?stbi__is_16_main@@YAHPEAUstbi__context@@@Z
pdata	ENDS
;	COMDAT pdata
pdata	SEGMENT
$pdata$??0?$basic_ifstream@DU?$char_traits@D@std@@@std@@QEAA@PEBDHH@Z DD imagerel $LN42
	DD	imagerel $LN42+499
	DD	imagerel $unwind$??0?$basic_ifstream@DU?$char_traits@D@std@@@std@@QEAA@PEBDHH@Z
pdata	ENDS
;	COMDAT pdata
pdata	SEGMENT
$pdata$?dtor$0@?0???0?$basic_ifstream@DU?$char_traits@D@std@@@std@@QEAA@PEBDHH@Z@4HA DD imagerel ?dtor$0@?0???0?$basic_ifstream@DU?$char_traits@D@std@@@std@@QEAA@PEBDHH@Z@4HA
	DD	imagerel ?dtor$0@?0???0?$basic_ifstream@DU?$char_traits@D@std@@@std@@QEAA@PEBDHH@Z@4HA+49
	DD	imagerel $unwind$?dtor$0@?0???0?$basic_ifstream@DU?$char_traits@D@std@@@std@@QEAA@PEBDHH@Z@4HA
pdata	ENDS
;	COMDAT pdata
pdata	SEGMENT
$pdata$??1?$basic_ifstream@DU?$char_traits@D@std@@@std@@UEAA@XZ DD imagerel $LN6
	DD	imagerel $LN6+92
	DD	imagerel $unwind$??1?$basic_ifstream@DU?$char_traits@D@std@@@std@@UEAA@XZ
pdata	ENDS
;	COMDAT pdata
pdata	SEGMENT
$pdata$?close@?$basic_ifstream@DU?$char_traits@D@std@@@std@@QEAAXXZ DD imagerel $LN6
	DD	imagerel $LN6+59
	DD	imagerel $unwind$?close@?$basic_ifstream@DU?$char_traits@D@std@@@std@@QEAAXXZ
pdata	ENDS
;	COMDAT pdata
pdata	SEGMENT
$pdata$??0?$basic_filebuf@DU?$char_traits@D@std@@@std@@QEAA@XZ DD imagerel $LN10
	DD	imagerel $LN10+75
	DD	imagerel $unwind$??0?$basic_filebuf@DU?$char_traits@D@std@@@std@@QEAA@XZ
pdata	ENDS
;	COMDAT pdata
pdata	SEGMENT
$pdata$??1?$basic_filebuf@DU?$char_traits@D@std@@@std@@UEAA@XZ DD imagerel $LN12
	DD	imagerel $LN12+99
	DD	imagerel $unwind$??1?$basic_filebuf@DU?$char_traits@D@std@@@std@@UEAA@XZ
pdata	ENDS
;	COMDAT pdata
pdata	SEGMENT
$pdata$?open@?$basic_filebuf@DU?$char_traits@D@std@@@std@@QEAAPEAV12@PEBDHH@Z DD imagerel $LN25
	DD	imagerel $LN25+319
	DD	imagerel $unwind$?open@?$basic_filebuf@DU?$char_traits@D@std@@@std@@QEAAPEAV12@PEBDHH@Z
pdata	ENDS
;	COMDAT pdata
pdata	SEGMENT
$pdata$?close@?$basic_filebuf@DU?$char_traits@D@std@@@std@@QEAAPEAV12@XZ DD imagerel $LN19
	DD	imagerel $LN19+23
	DD	imagerel $unwind$?close@?$basic_filebuf@DU?$char_traits@D@std@@@std@@QEAAPEAV12@XZ
pdata	ENDS
;	COMDAT pdata
pdata	SEGMENT
$pdata$0$?close@?$basic_filebuf@DU?$char_traits@D@std@@@std@@QEAAPEAV12@XZ DD imagerel $LN19+23
	DD	imagerel $LN19+113
	DD	imagerel $chain$0$?close@?$basic_filebuf@DU?$char_traits@D@std@@@std@@QEAAPEAV12@XZ
pdata	ENDS
;	COMDAT pdata
pdata	SEGMENT
$pdata$1$?close@?$basic_filebuf@DU?$char_traits@D@std@@@std@@QEAAPEAV12@XZ DD imagerel $LN19+113
	DD	imagerel $LN19+176
	DD	imagerel $chain$1$?close@?$basic_filebuf@DU?$char_traits@D@std@@@std@@QEAAPEAV12@XZ
pdata	ENDS
;	COMDAT pdata
pdata	SEGMENT
$pdata$?overflow@?$basic_filebuf@DU?$char_traits@D@std@@@std@@MEAAHH@Z DD imagerel $LN59
	DD	imagerel $LN59+45
	DD	imagerel $unwind$?overflow@?$basic_filebuf@DU?$char_traits@D@std@@@std@@MEAAHH@Z
pdata	ENDS
;	COMDAT pdata
pdata	SEGMENT
$pdata$0$?overflow@?$basic_filebuf@DU?$char_traits@D@std@@@std@@MEAAHH@Z DD imagerel $LN59+45
	DD	imagerel $LN59+406
	DD	imagerel $chain$0$?overflow@?$basic_filebuf@DU?$char_traits@D@std@@@std@@MEAAHH@Z
pdata	ENDS
;	COMDAT pdata
pdata	SEGMENT
$pdata$1$?overflow@?$basic_filebuf@DU?$char_traits@D@std@@@std@@MEAAHH@Z DD imagerel $LN59+406
	DD	imagerel $LN59+436
	DD	imagerel $chain$1$?overflow@?$basic_filebuf@DU?$char_traits@D@std@@@std@@MEAAHH@Z
pdata	ENDS
;	COMDAT pdata
pdata	SEGMENT
$pdata$?pbackfail@?$basic_filebuf@DU?$char_traits@D@std@@@std@@MEAAHH@Z DD imagerel $LN55
	DD	imagerel $LN55+282
	DD	imagerel $unwind$?pbackfail@?$basic_filebuf@DU?$char_traits@D@std@@@std@@MEAAHH@Z
pdata	ENDS
;	COMDAT pdata
pdata	SEGMENT
$pdata$?underflow@?$basic_filebuf@DU?$char_traits@D@std@@@std@@MEAAHXZ DD imagerel $LN18
	DD	imagerel $LN18+124
	DD	imagerel $unwind$?underflow@?$basic_filebuf@DU?$char_traits@D@std@@@std@@MEAAHXZ
pdata	ENDS
;	COMDAT pdata
pdata	SEGMENT
$pdata$?uflow@?$basic_filebuf@DU?$char_traits@D@std@@@std@@MEAAHXZ DD imagerel $LN378
	DD	imagerel $LN378+733
	DD	imagerel $unwind$?uflow@?$basic_filebuf@DU?$char_traits@D@std@@@std@@MEAAHXZ
pdata	ENDS
;	COMDAT pdata
pdata	SEGMENT
$pdata$?xsgetn@?$basic_filebuf@DU?$char_traits@D@std@@@std@@MEAA_JPEAD_J@Z DD imagerel $LN48
	DD	imagerel $LN48+95
	DD	imagerel $unwind$?xsgetn@?$basic_filebuf@DU?$char_traits@D@std@@@std@@MEAA_JPEAD_J@Z
pdata	ENDS
;	COMDAT pdata
pdata	SEGMENT
$pdata$1$?xsgetn@?$basic_filebuf@DU?$char_traits@D@std@@@std@@MEAA_JPEAD_J@Z DD imagerel $LN48+95
	DD	imagerel $LN48+160
	DD	imagerel $chain$1$?xsgetn@?$basic_filebuf@DU?$char_traits@D@std@@@std@@MEAA_JPEAD_J@Z
pdata	ENDS
;	COMDAT pdata
pdata	SEGMENT
$pdata$2$?xsgetn@?$basic_filebuf@DU?$char_traits@D@std@@@std@@MEAA_JPEAD_J@Z DD imagerel $LN48+160
	DD	imagerel $LN48+298
	DD	imagerel $chain$2$?xsgetn@?$basic_filebuf@DU?$char_traits@D@std@@@std@@MEAA_JPEAD_J@Z
pdata	ENDS
;	COMDAT pdata
pdata	SEGMENT
$pdata$?xsputn@?$basic_filebuf@DU?$char_traits@D@std@@@std@@MEAA_JPEBD_J@Z DD imagerel $LN34
	DD	imagerel $LN34+201
	DD	imagerel $unwind$?xsputn@?$basic_filebuf@DU?$char_traits@D@std@@@std@@MEAA_JPEBD_J@Z
pdata	ENDS
;	COMDAT pdata
pdata	SEGMENT
$pdata$?seekoff@?$basic_filebuf@DU?$char_traits@D@std@@@std@@MEAA?AV?$fpos@U_Mbstatet@@@2@_JHH@Z DD imagerel $LN21
	DD	imagerel $LN21+205
	DD	imagerel $unwind$?seekoff@?$basic_filebuf@DU?$char_traits@D@std@@@std@@MEAA?AV?$fpos@U_Mbstatet@@@2@_JHH@Z
pdata	ENDS
;	COMDAT pdata
pdata	SEGMENT
$pdata$?seekpos@?$basic_filebuf@DU?$char_traits@D@std@@@std@@MEAA?AV?$fpos@U_Mbstatet@@@2@V32@H@Z DD imagerel $LN20
	DD	imagerel $LN20+176
	DD	imagerel $unwind$?seekpos@?$basic_filebuf@DU?$char_traits@D@std@@@std@@MEAA?AV?$fpos@U_Mbstatet@@@2@V32@H@Z
pdata	ENDS
;	COMDAT pdata
pdata	SEGMENT
$pdata$?setbuf@?$basic_filebuf@DU?$char_traits@D@std@@@std@@MEAAPEAV?$basic_streambuf@DU?$char_traits@D@std@@@2@PEAD_J@Z DD imagerel $LN18
	DD	imagerel $LN18+64
	DD	imagerel $unwind$?setbuf@?$basic_filebuf@DU?$char_traits@D@std@@@std@@MEAAPEAV?$basic_streambuf@DU?$char_traits@D@std@@@2@PEAD_J@Z
pdata	ENDS
;	COMDAT pdata
pdata	SEGMENT
$pdata$0$?setbuf@?$basic_filebuf@DU?$char_traits@D@std@@@std@@MEAAPEAV?$basic_streambuf@DU?$char_traits@D@std@@@2@PEAD_J@Z DD imagerel $LN18+64
	DD	imagerel $LN18+213
	DD	imagerel $chain$0$?setbuf@?$basic_filebuf@DU?$char_traits@D@std@@@std@@MEAAPEAV?$basic_streambuf@DU?$char_traits@D@std@@@2@PEAD_J@Z
pdata	ENDS
;	COMDAT pdata
pdata	SEGMENT
$pdata$1$?setbuf@?$basic_filebuf@DU?$char_traits@D@std@@@std@@MEAAPEAV?$basic_streambuf@DU?$char_traits@D@std@@@2@PEAD_J@Z DD imagerel $LN18+213
	DD	imagerel $LN18+222
	DD	imagerel $chain$1$?setbuf@?$basic_filebuf@DU?$char_traits@D@std@@@std@@MEAAPEAV?$basic_streambuf@DU?$char_traits@D@std@@@2@PEAD_J@Z
pdata	ENDS
;	COMDAT pdata
pdata	SEGMENT
$pdata$?sync@?$basic_filebuf@DU?$char_traits@D@std@@@std@@MEAAHXZ DD imagerel $LN12
	DD	imagerel $LN12+72
	DD	imagerel $unwind$?sync@?$basic_filebuf@DU?$char_traits@D@std@@@std@@MEAAHXZ
pdata	ENDS
;	COMDAT pdata
pdata	SEGMENT
$pdata$?imbue@?$basic_filebuf@DU?$char_traits@D@std@@@std@@MEAAXAEBVlocale@2@@Z DD imagerel $LN11
	DD	imagerel $LN11+80
	DD	imagerel $unwind$?imbue@?$basic_filebuf@DU?$char_traits@D@std@@@std@@MEAAXAEBVlocale@2@@Z
pdata	ENDS
;	COMDAT pdata
pdata	SEGMENT
$pdata$?_Init@?$basic_filebuf@DU?$char_traits@D@std@@@std@@IEAAXPEAU_iobuf@@W4_Initfl@12@@Z DD imagerel $LN8
	DD	imagerel $LN8+149
	DD	imagerel $unwind$?_Init@?$basic_filebuf@DU?$char_traits@D@std@@@std@@IEAAXPEAU_iobuf@@W4_Initfl@12@@Z
pdata	ENDS
;	COMDAT pdata
pdata	SEGMENT
$pdata$?_Endwrite@?$basic_filebuf@DU?$char_traits@D@std@@@std@@IEAA_NXZ DD imagerel $LN28
	DD	imagerel $LN28+53
	DD	imagerel $unwind$?_Endwrite@?$basic_filebuf@DU?$char_traits@D@std@@@std@@IEAA_NXZ
pdata	ENDS
;	COMDAT pdata
pdata	SEGMENT
$pdata$0$?_Endwrite@?$basic_filebuf@DU?$char_traits@D@std@@@std@@IEAA_NXZ DD imagerel $LN28+53
	DD	imagerel $LN28+148
	DD	imagerel $chain$0$?_Endwrite@?$basic_filebuf@DU?$char_traits@D@std@@@std@@IEAA_NXZ
pdata	ENDS
;	COMDAT pdata
pdata	SEGMENT
$pdata$2$?_Endwrite@?$basic_filebuf@DU?$char_traits@D@std@@@std@@IEAA_NXZ DD imagerel $LN28+148
	DD	imagerel $LN28+211
	DD	imagerel $chain$2$?_Endwrite@?$basic_filebuf@DU?$char_traits@D@std@@@std@@IEAA_NXZ
pdata	ENDS
;	COMDAT pdata
pdata	SEGMENT
$pdata$3$?_Endwrite@?$basic_filebuf@DU?$char_traits@D@std@@@std@@IEAA_NXZ DD imagerel $LN28+211
	DD	imagerel $LN28+232
	DD	imagerel $chain$3$?_Endwrite@?$basic_filebuf@DU?$char_traits@D@std@@@std@@IEAA_NXZ
pdata	ENDS
;	COMDAT pdata
pdata	SEGMENT
$pdata$?_Initcvt@?$basic_filebuf@DU?$char_traits@D@std@@@std@@IEAAXAEBV?$codecvt@DDU_Mbstatet@@@2@@Z DD imagerel $LN9
	DD	imagerel $LN9+72
	DD	imagerel $unwind$?_Initcvt@?$basic_filebuf@DU?$char_traits@D@std@@@std@@IEAAXAEBV?$codecvt@DDU_Mbstatet@@@2@@Z
pdata	ENDS
;	COMDAT pdata
pdata	SEGMENT
$pdata$?_Reset_back@?$basic_filebuf@DU?$char_traits@D@std@@@std@@AEAAXXZ DD imagerel $LN8
	DD	imagerel $LN8+62
	DD	imagerel $unwind$?_Reset_back@?$basic_filebuf@DU?$char_traits@D@std@@@std@@AEAAXXZ
pdata	ENDS
;	COMDAT pdata
pdata	SEGMENT
$pdata$?_Set_back@?$basic_filebuf@DU?$char_traits@D@std@@@std@@AEAAXXZ DD imagerel $LN8
	DD	imagerel $LN8+90
	DD	imagerel $unwind$?_Set_back@?$basic_filebuf@DU?$char_traits@D@std@@@std@@AEAAXXZ
pdata	ENDS
;	COMDAT pdata
pdata	SEGMENT
$pdata$??_G?$basic_filebuf@DU?$char_traits@D@std@@@std@@UEAAPEAXI@Z DD imagerel $LN9
	DD	imagerel $LN9+52
	DD	imagerel $unwind$??_G?$basic_filebuf@DU?$char_traits@D@std@@@std@@UEAAPEAXI@Z
pdata	ENDS
;	COMDAT pdata
pdata	SEGMENT
$pdata$??_G?$basic_ifstream@DU?$char_traits@D@std@@@std@@UEAAPEAXI@Z DD imagerel $LN17
	DD	imagerel $LN17+140
	DD	imagerel $unwind$??_G?$basic_ifstream@DU?$char_traits@D@std@@@std@@UEAAPEAXI@Z
pdata	ENDS
;	COMDAT pdata
pdata	SEGMENT
$pdata$??_D?$basic_ifstream@DU?$char_traits@D@std@@@std@@QEAAXXZ DD imagerel $LN11
	DD	imagerel $LN11+94
	DD	imagerel $unwind$??_D?$basic_ifstream@DU?$char_traits@D@std@@@std@@QEAAXXZ
pdata	ENDS
;	COMDAT pdata
pdata	SEGMENT
$pdata$??$?6U?$char_traits@D@std@@@std@@YAAEAV?$basic_ostream@DU?$char_traits@D@std@@@0@AEAV10@PEBD@Z DD imagerel $LN74
	DD	imagerel $LN74+592
	DD	imagerel $unwind$??$?6U?$char_traits@D@std@@@std@@YAAEAV?$basic_ostream@DU?$char_traits@D@std@@@0@AEAV10@PEBD@Z
pdata	ENDS
;	COMDAT pdata
pdata	SEGMENT
$pdata$?catch$4@?0???$?6U?$char_traits@D@std@@@std@@YAAEAV?$basic_ostream@DU?$char_traits@D@std@@@0@AEAV10@PEBD@Z@4HA DD imagerel ?catch$4@?0???$?6U?$char_traits@D@std@@@std@@YAAEAV?$basic_ostream@DU?$char_traits@D@std@@@0@AEAV10@PEBD@Z@4HA
	DD	imagerel ?catch$4@?0???$?6U?$char_traits@D@std@@@std@@YAAEAV?$basic_ostream@DU?$char_traits@D@std@@@0@AEAV10@PEBD@Z@4HA+59
	DD	imagerel $unwind$?catch$4@?0???$?6U?$char_traits@D@std@@@std@@YAAEAV?$basic_ostream@DU?$char_traits@D@std@@@0@AEAV10@PEBD@Z@4HA
pdata	ENDS
;	COMDAT pdata
pdata	SEGMENT
$pdata$??$endl@DU?$char_traits@D@std@@@std@@YAAEAV?$basic_ostream@DU?$char_traits@D@std@@@0@AEAV10@@Z DD imagerel $LN4
	DD	imagerel $LN4+57
	DD	imagerel $unwind$??$endl@DU?$char_traits@D@std@@@std@@YAAEAV?$basic_ostream@DU?$char_traits@D@std@@@0@AEAV10@@Z
pdata	ENDS
;	COMDAT pdata
pdata	SEGMENT
$pdata$??0?$basic_stringstream@DU?$char_traits@D@std@@V?$allocator@D@2@@std@@QEAA@XZ DD imagerel $LN20
	DD	imagerel $LN20+181
	DD	imagerel $unwind$??0?$basic_stringstream@DU?$char_traits@D@std@@V?$allocator@D@2@@std@@QEAA@XZ
pdata	ENDS
;	COMDAT pdata
pdata	SEGMENT
$pdata$?dtor$0@?0???0?$basic_stringstream@DU?$char_traits@D@std@@V?$allocator@D@2@@std@@QEAA@XZ@4HA DD imagerel ?dtor$0@?0???0?$basic_stringstream@DU?$char_traits@D@std@@V?$allocator@D@2@@std@@QEAA@XZ@4HA
	DD	imagerel ?dtor$0@?0???0?$basic_stringstream@DU?$char_traits@D@std@@V?$allocator@D@2@@std@@QEAA@XZ@4HA+46
	DD	imagerel $unwind$?dtor$0@?0???0?$basic_stringstream@DU?$char_traits@D@std@@V?$allocator@D@2@@std@@QEAA@XZ@4HA
pdata	ENDS
;	COMDAT pdata
pdata	SEGMENT
$pdata$??1?$basic_stringstream@DU?$char_traits@D@std@@V?$allocator@D@2@@std@@UEAA@XZ DD imagerel $LN6
	DD	imagerel $LN6+86
	DD	imagerel $unwind$??1?$basic_stringstream@DU?$char_traits@D@std@@V?$allocator@D@2@@std@@UEAA@XZ
pdata	ENDS
;	COMDAT pdata
pdata	SEGMENT
$pdata$?str@?$basic_stringstream@DU?$char_traits@D@std@@V?$allocator@D@2@@std@@QEGBA?AV?$basic_string@DU?$char_traits@D@std@@V?$allocator@D@2@@2@XZ DD imagerel $LN53
	DD	imagerel $LN53+216
	DD	imagerel $unwind$?str@?$basic_stringstream@DU?$char_traits@D@std@@V?$allocator@D@2@@std@@QEGBA?AV?$basic_string@DU?$char_traits@D@std@@V?$allocator@D@2@@2@XZ
pdata	ENDS
;	COMDAT pdata
pdata	SEGMENT
$pdata$?dtor$1@?0??str@?$basic_stringstream@DU?$char_traits@D@std@@V?$allocator@D@2@@std@@QEGBA?AV?$basic_string@DU?$char_traits@D@std@@V?$allocator@D@2@@2@XZ@4HA DD imagerel ?dtor$1@?0??str@?$basic_stringstream@DU?$char_traits@D@std@@V?$allocator@D@2@@std@@QEGBA?AV?$basic_string@DU?$char_traits@D@std@@V?$allocator@D@2@@2@XZ@4HA
	DD	imagerel ?dtor$1@?0??str@?$basic_stringstream@DU?$char_traits@D@std@@V?$allocator@D@2@@std@@QEGBA?AV?$basic_string@DU?$char_traits@D@std@@V?$allocator@D@2@@2@XZ@4HA+38
	DD	imagerel $unwind$?dtor$1@?0??str@?$basic_stringstream@DU?$char_traits@D@std@@V?$allocator@D@2@@std@@QEGBA?AV?$basic_string@DU?$char_traits@D@std@@V?$allocator@D@2@@2@XZ@4HA
pdata	ENDS
;	COMDAT pdata
pdata	SEGMENT
$pdata$??0?$basic_stringbuf@DU?$char_traits@D@std@@V?$allocator@D@2@@std@@QEAA@H@Z DD imagerel $LN13
	DD	imagerel $LN13+105
	DD	imagerel $unwind$??0?$basic_stringbuf@DU?$char_traits@D@std@@V?$allocator@D@2@@std@@QEAA@H@Z
pdata	ENDS
;	COMDAT pdata
pdata	SEGMENT
$pdata$??1?$basic_stringbuf@DU?$char_traits@D@std@@V?$allocator@D@2@@std@@UEAA@XZ DD imagerel $LN38
	DD	imagerel $LN38+194
	DD	imagerel $unwind$??1?$basic_stringbuf@DU?$char_traits@D@std@@V?$allocator@D@2@@std@@UEAA@XZ
pdata	ENDS
;	COMDAT pdata
pdata	SEGMENT
$pdata$?_Get_buffer_view@?$basic_stringbuf@DU?$char_traits@D@std@@V?$allocator@D@2@@std@@QEBA?AU_Buffer_view@12@XZ DD imagerel $LN23
	DD	imagerel $LN23+181
	DD	imagerel $unwind$?_Get_buffer_view@?$basic_stringbuf@DU?$char_traits@D@std@@V?$allocator@D@2@@std@@QEBA?AU_Buffer_view@12@XZ
pdata	ENDS
;	COMDAT pdata
pdata	SEGMENT
$pdata$?str@?$basic_stringbuf@DU?$char_traits@D@std@@V?$allocator@D@2@@std@@QEGBA?AV?$basic_string@DU?$char_traits@D@std@@V?$allocator@D@2@@2@XZ DD imagerel $LN49
	DD	imagerel $LN49+204
	DD	imagerel $unwind$?str@?$basic_stringbuf@DU?$char_traits@D@std@@V?$allocator@D@2@@std@@QEGBA?AV?$basic_string@DU?$char_traits@D@std@@V?$allocator@D@2@@2@XZ
pdata	ENDS
;	COMDAT pdata
pdata	SEGMENT
$pdata$?dtor$0@?0??str@?$basic_stringbuf@DU?$char_traits@D@std@@V?$allocator@D@2@@std@@QEGBA?AV?$basic_string@DU?$char_traits@D@std@@V?$allocator@D@2@@2@XZ@4HA DD imagerel ?dtor$0@?0??str@?$basic_stringbuf@DU?$char_traits@D@std@@V?$allocator@D@2@@std@@QEGBA?AV?$basic_string@DU?$char_traits@D@std@@V?$allocator@D@2@@2@XZ@4HA
	DD	imagerel ?dtor$0@?0??str@?$basic_stringbuf@DU?$char_traits@D@std@@V?$allocator@D@2@@std@@QEGBA?AV?$basic_string@DU?$char_traits@D@std@@V?$allocator@D@2@@2@XZ@4HA+38
	DD	imagerel $unwind$?dtor$0@?0??str@?$basic_stringbuf@DU?$char_traits@D@std@@V?$allocator@D@2@@std@@QEGBA?AV?$basic_string@DU?$char_traits@D@std@@V?$allocator@D@2@@2@XZ@4HA
pdata	ENDS
;	COMDAT pdata
pdata	SEGMENT
$pdata$?overflow@?$basic_stringbuf@DU?$char_traits@D@std@@V?$allocator@D@2@@std@@MEAAHH@Z DD imagerel $LN94
	DD	imagerel $LN94+427
	DD	imagerel $unwind$?overflow@?$basic_stringbuf@DU?$char_traits@D@std@@V?$allocator@D@2@@std@@MEAAHH@Z
pdata	ENDS
;	COMDAT pdata
pdata	SEGMENT
$pdata$?pbackfail@?$basic_stringbuf@DU?$char_traits@D@std@@V?$allocator@D@2@@std@@MEAAHH@Z DD imagerel $LN33
	DD	imagerel $LN33+141
	DD	imagerel $unwind$?pbackfail@?$basic_stringbuf@DU?$char_traits@D@std@@V?$allocator@D@2@@std@@MEAAHH@Z
pdata	ENDS
;	COMDAT pdata
pdata	SEGMENT
$pdata$?underflow@?$basic_stringbuf@DU?$char_traits@D@std@@V?$allocator@D@2@@std@@MEAAHXZ DD imagerel $LN26
	DD	imagerel $LN26+197
	DD	imagerel $unwind$?underflow@?$basic_stringbuf@DU?$char_traits@D@std@@V?$allocator@D@2@@std@@MEAAHXZ
pdata	ENDS
;	COMDAT pdata
pdata	SEGMENT
$pdata$?seekoff@?$basic_stringbuf@DU?$char_traits@D@std@@V?$allocator@D@2@@std@@MEAA?AV?$fpos@U_Mbstatet@@@2@_JHH@Z DD imagerel $LN77
	DD	imagerel $LN77+440
	DD	imagerel $unwind$?seekoff@?$basic_stringbuf@DU?$char_traits@D@std@@V?$allocator@D@2@@std@@MEAA?AV?$fpos@U_Mbstatet@@@2@_JHH@Z
pdata	ENDS
;	COMDAT pdata
pdata	SEGMENT
$pdata$?seekpos@?$basic_stringbuf@DU?$char_traits@D@std@@V?$allocator@D@2@@std@@MEAA?AV?$fpos@U_Mbstatet@@@2@V32@H@Z DD imagerel $LN57
	DD	imagerel $LN57+324
	DD	imagerel $unwind$?seekpos@?$basic_stringbuf@DU?$char_traits@D@std@@V?$allocator@D@2@@std@@MEAA?AV?$fpos@U_Mbstatet@@@2@V32@H@Z
pdata	ENDS
;	COMDAT pdata
pdata	SEGMENT
$pdata$?_Tidy@?$basic_stringbuf@DU?$char_traits@D@std@@V?$allocator@D@2@@std@@IEAAXXZ DD imagerel $LN34
	DD	imagerel $LN34+175
	DD	imagerel $unwind$?_Tidy@?$basic_stringbuf@DU?$char_traits@D@std@@V?$allocator@D@2@@std@@IEAAXXZ
pdata	ENDS
;	COMDAT pdata
pdata	SEGMENT
$pdata$??_G?$basic_stringbuf@DU?$char_traits@D@std@@V?$allocator@D@2@@std@@UEAAPEAXI@Z DD imagerel $LN9
	DD	imagerel $LN9+52
	DD	imagerel $unwind$??_G?$basic_stringbuf@DU?$char_traits@D@std@@V?$allocator@D@2@@std@@UEAAPEAXI@Z
pdata	ENDS
;	COMDAT pdata
pdata	SEGMENT
$pdata$??_G?$basic_stringstream@DU?$char_traits@D@std@@V?$allocator@D@2@@std@@UEAAPEAXI@Z DD imagerel $LN17
	DD	imagerel $LN17+137
	DD	imagerel $unwind$??_G?$basic_stringstream@DU?$char_traits@D@std@@V?$allocator@D@2@@std@@UEAAPEAXI@Z
pdata	ENDS
;	COMDAT pdata
pdata	SEGMENT
$pdata$??_D?$basic_stringstream@DU?$char_traits@D@std@@V?$allocator@D@2@@std@@QEAAXXZ DD imagerel $LN11
	DD	imagerel $LN11+91
	DD	imagerel $unwind$??_D?$basic_stringstream@DU?$char_traits@D@std@@V?$allocator@D@2@@std@@QEAAXXZ
pdata	ENDS
;	COMDAT pdata
pdata	SEGMENT
$pdata$??1?$vector@UVertex@@V?$allocator@UVertex@@@std@@@std@@QEAA@XZ DD imagerel $LN31
	DD	imagerel $LN31+94
	DD	imagerel $unwind$??1?$vector@UVertex@@V?$allocator@UVertex@@@std@@@std@@QEAA@XZ
pdata	ENDS
;	COMDAT pdata
pdata	SEGMENT
$pdata$?_Tidy@?$vector@UVertex@@V?$allocator@UVertex@@@std@@@std@@AEAAXXZ DD imagerel $LN27
	DD	imagerel $LN27+94
	DD	imagerel $unwind$?_Tidy@?$vector@UVertex@@V?$allocator@UVertex@@@std@@@std@@AEAAXXZ
pdata	ENDS
;	COMDAT pdata
pdata	SEGMENT
$pdata$??$?RV<lambda_1>@?1??render@Renderer@@QEAAXAEAVUser@@PEAUGLFWwindow@@AEAVWorkspace@@@Z@@<lambda_1>@?1??render@Renderer@@QEAAXAEAVUser@@PEAUGLFWwindow@@AEAVWorkspace@@@Z@QEBAXAEAV0?1??12@QEAAX012@Z@PEAVInstance@@@Z DD imagerel ??$?RV<lambda_1>@?1??render@Renderer@@QEAAXAEAVUser@@PEAUGLFWwindow@@AEAVWorkspace@@@Z@@<lambda_1>@?1??render@Renderer@@QEAAXAEAVUser@@PEAUGLFWwindow@@AEAVWorkspace@@@Z@QEBAXAEAV0?1??12@QEAAX012@Z@PEAVInstance@@@Z
	DD	imagerel ??$?RV<lambda_1>@?1??render@Renderer@@QEAAXAEAVUser@@PEAUGLFWwindow@@AEAVWorkspace@@@Z@@<lambda_1>@?1??render@Renderer@@QEAAXAEAVUser@@PEAUGLFWwindow@@AEAVWorkspace@@@Z@QEBAXAEAV0?1??12@QEAAX012@Z@PEAVInstance@@@Z+156
	DD	imagerel $unwind$??$?RV<lambda_1>@?1??render@Renderer@@QEAAXAEAVUser@@PEAUGLFWwindow@@AEAVWorkspace@@@Z@@<lambda_1>@?1??render@Renderer@@QEAAXAEAVUser@@PEAUGLFWwindow@@AEAVWorkspace@@@Z@QEBAXAEAV0?1??12@QEAAX012@Z@PEAVInstance@@@Z
pdata	ENDS
;	COMDAT pdata
pdata	SEGMENT
$pdata$9$??$?RV<lambda_1>@?1??render@Renderer@@QEAAXAEAVUser@@PEAUGLFWwindow@@AEAVWorkspace@@@Z@@<lambda_1>@?1??render@Renderer@@QEAAXAEAVUser@@PEAUGLFWwindow@@AEAVWorkspace@@@Z@QEBAXAEAV0?1??12@QEAAX012@Z@PEAVInstance@@@Z DD imagerel ??$?RV<lambda_1>@?1??render@Renderer@@QEAAXAEAVUser@@PEAUGLFWwindow@@AEAVWorkspace@@@Z@@<lambda_1>@?1??render@Renderer@@QEAAXAEAVUser@@PEAUGLFWwindow@@AEAVWorkspace@@@Z@QEBAXAEAV0?1??12@QEAAX012@Z@PEAVInstance@@@Z+156
	DD	imagerel ??$?RV<lambda_1>@?1??render@Renderer@@QEAAXAEAVUser@@PEAUGLFWwindow@@AEAVWorkspace@@@Z@@<lambda_1>@?1??render@Renderer@@QEAAXAEAVUser@@PEAUGLFWwindow@@AEAVWorkspace@@@Z@QEBAXAEAV0?1??12@QEAAX012@Z@PEAVInstance@@@Z+1081
	DD	imagerel $chain$9$??$?RV<lambda_1>@?1??render@Renderer@@QEAAXAEAVUser@@PEAUGLFWwindow@@AEAVWorkspace@@@Z@@<lambda_1>@?1??render@Renderer@@QEAAXAEAVUser@@PEAUGLFWwindow@@AEAVWorkspace@@@Z@QEBAXAEAV0?1??12@QEAAX012@Z@PEAVInstance@@@Z
pdata	ENDS
;	COMDAT pdata
pdata	SEGMENT
$pdata$10$??$?RV<lambda_1>@?1??render@Renderer@@QEAAXAEAVUser@@PEAUGLFWwindow@@AEAVWorkspace@@@Z@@<lambda_1>@?1??render@Renderer@@QEAAXAEAVUser@@PEAUGLFWwindow@@AEAVWorkspace@@@Z@QEBAXAEAV0?1??12@QEAAX012@Z@PEAVInstance@@@Z DD imagerel ??$?RV<lambda_1>@?1??render@Renderer@@QEAAXAEAVUser@@PEAUGLFWwindow@@AEAVWorkspace@@@Z@@<lambda_1>@?1??render@Renderer@@QEAAXAEAVUser@@PEAUGLFWwindow@@AEAVWorkspace@@@Z@QEBAXAEAV0?1??12@QEAAX012@Z@PEAVInstance@@@Z+1081
	DD	imagerel ??$?RV<lambda_1>@?1??render@Renderer@@QEAAXAEAVUser@@PEAUGLFWwindow@@AEAVWorkspace@@@Z@@<lambda_1>@?1??render@Renderer@@QEAAXAEAVUser@@PEAUGLFWwindow@@AEAVWorkspace@@@Z@QEBAXAEAV0?1??12@QEAAX012@Z@PEAVInstance@@@Z+1158
	DD	imagerel $chain$10$??$?RV<lambda_1>@?1??render@Renderer@@QEAAXAEAVUser@@PEAUGLFWwindow@@AEAVWorkspace@@@Z@@<lambda_1>@?1??render@Renderer@@QEAAXAEAVUser@@PEAUGLFWwindow@@AEAVWorkspace@@@Z@QEBAXAEAV0?1??12@QEAAX012@Z@PEAVInstance@@@Z
pdata	ENDS
;	COMDAT pdata
pdata	SEGMENT
$pdata$??$_Get_index@$0A@@id@locale@std@@QEAA_KXZ DD imagerel $LN11
	DD	imagerel $LN11+85
	DD	imagerel $unwind$??$_Get_index@$0A@@id@locale@std@@QEAA_KXZ
pdata	ENDS
;	COMDAT pdata
pdata	SEGMENT
$pdata$??R<lambda_1>@?1??push_back@?$basic_string@DU?$char_traits@D@std@@V?$allocator@D@2@@std@@QEAAXD@Z@SA@QEADQEBD_KD@Z DD imagerel $LN22
	DD	imagerel $LN22+55
	DD	imagerel $unwind$??R<lambda_1>@?1??push_back@?$basic_string@DU?$char_traits@D@std@@V?$allocator@D@2@@std@@QEAAXD@Z@SA@QEADQEBD_KD@Z
pdata	ENDS
;	COMDAT pdata
pdata	SEGMENT
$pdata$??$_Reallocate_grow_by@V<lambda_1>@?1??push_back@?$basic_string@DU?$char_traits@D@std@@V?$allocator@D@2@@std@@QEAAXD@Z@D@?$basic_string@DU?$char_traits@D@std@@V?$allocator@D@2@@std@@AEAAAEAV01@_KV<lambda_1>@?1??push_back@01@QEAAXD@Z@D@Z DD imagerel $LN134
	DD	imagerel $LN134+49
	DD	imagerel $unwind$??$_Reallocate_grow_by@V<lambda_1>@?1??push_back@?$basic_string@DU?$char_traits@D@std@@V?$allocator@D@2@@std@@QEAAXD@Z@D@?$basic_string@DU?$char_traits@D@std@@V?$allocator@D@2@@std@@AEAAAEAV01@_KV<lambda_1>@?1??push_back@01@QEAAXD@Z@D@Z
pdata	ENDS
;	COMDAT pdata
pdata	SEGMENT
$pdata$2$??$_Reallocate_grow_by@V<lambda_1>@?1??push_back@?$basic_string@DU?$char_traits@D@std@@V?$allocator@D@2@@std@@QEAAXD@Z@D@?$basic_string@DU?$char_traits@D@std@@V?$allocator@D@2@@std@@AEAAAEAV01@_KV<lambda_1>@?1??push_back@01@QEAAXD@Z@D@Z DD imagerel $LN134+49
	DD	imagerel $LN134+348
	DD	imagerel $chain$2$??$_Reallocate_grow_by@V<lambda_1>@?1??push_back@?$basic_string@DU?$char_traits@D@std@@V?$allocator@D@2@@std@@QEAAXD@Z@D@?$basic_string@DU?$char_traits@D@std@@V?$allocator@D@2@@std@@AEAAAEAV01@_KV<lambda_1>@?1??push_back@01@QEAAXD@Z@D@Z
pdata	ENDS
;	COMDAT pdata
pdata	SEGMENT
$pdata$3$??$_Reallocate_grow_by@V<lambda_1>@?1??push_back@?$basic_string@DU?$char_traits@D@std@@V?$allocator@D@2@@std@@QEAAXD@Z@D@?$basic_string@DU?$char_traits@D@std@@V?$allocator@D@2@@std@@AEAAAEAV01@_KV<lambda_1>@?1??push_back@01@QEAAXD@Z@D@Z DD imagerel $LN134+348
	DD	imagerel $LN134+354
	DD	imagerel $chain$3$??$_Reallocate_grow_by@V<lambda_1>@?1??push_back@?$basic_string@DU?$char_traits@D@std@@V?$allocator@D@2@@std@@QEAAXD@Z@D@?$basic_string@DU?$char_traits@D@std@@V?$allocator@D@2@@std@@AEAAAEAV01@_KV<lambda_1>@?1??push_back@01@QEAAXD@Z@D@Z
pdata	ENDS
;	COMDAT pdata
pdata	SEGMENT
$pdata$4$??$_Reallocate_grow_by@V<lambda_1>@?1??push_back@?$basic_string@DU?$char_traits@D@std@@V?$allocator@D@2@@std@@QEAAXD@Z@D@?$basic_string@DU?$char_traits@D@std@@V?$allocator@D@2@@std@@AEAAAEAV01@_KV<lambda_1>@?1??push_back@01@QEAAXD@Z@D@Z DD imagerel $LN134+354
	DD	imagerel $LN134+360
	DD	imagerel $chain$4$??$_Reallocate_grow_by@V<lambda_1>@?1??push_back@?$basic_string@DU?$char_traits@D@std@@V?$allocator@D@2@@std@@QEAAXD@Z@D@?$basic_string@DU?$char_traits@D@std@@V?$allocator@D@2@@std@@AEAAAEAV01@_KV<lambda_1>@?1??push_back@01@QEAAXD@Z@D@Z
pdata	ENDS
;	COMDAT pdata
pdata	SEGMENT
$pdata$??$_Construct@$00PEBD@?$basic_string@DU?$char_traits@D@std@@V?$allocator@D@2@@std@@AEAAXQEBD_K@Z DD imagerel $LN108
	DD	imagerel $LN108+79
	DD	imagerel $unwind$??$_Construct@$00PEBD@?$basic_string@DU?$char_traits@D@std@@V?$allocator@D@2@@std@@AEAAXQEBD_K@Z
pdata	ENDS
;	COMDAT pdata
pdata	SEGMENT
$pdata$0$??$_Construct@$00PEBD@?$basic_string@DU?$char_traits@D@std@@V?$allocator@D@2@@std@@AEAAXQEBD_K@Z DD imagerel $LN108+79
	DD	imagerel $LN108+237
	DD	imagerel $chain$0$??$_Construct@$00PEBD@?$basic_string@DU?$char_traits@D@std@@V?$allocator@D@2@@std@@AEAAXQEBD_K@Z
pdata	ENDS
;	COMDAT pdata
pdata	SEGMENT
$pdata$1$??$_Construct@$00PEBD@?$basic_string@DU?$char_traits@D@std@@V?$allocator@D@2@@std@@AEAAXQEBD_K@Z DD imagerel $LN108+237
	DD	imagerel $LN108+243
	DD	imagerel $chain$1$??$_Construct@$00PEBD@?$basic_string@DU?$char_traits@D@std@@V?$allocator@D@2@@std@@AEAAXQEBD_K@Z
pdata	ENDS
;	COMDAT pdata
pdata	SEGMENT
$pdata$2$??$_Construct@$00PEBD@?$basic_string@DU?$char_traits@D@std@@V?$allocator@D@2@@std@@AEAAXQEBD_K@Z DD imagerel $LN108+243
	DD	imagerel $LN108+249
	DD	imagerel $chain$2$??$_Construct@$00PEBD@?$basic_string@DU?$char_traits@D@std@@V?$allocator@D@2@@std@@AEAAXQEBD_K@Z
pdata	ENDS
;	COMDAT pdata
pdata	SEGMENT
$pdata$??$use_facet@V?$codecvt@DDU_Mbstatet@@@std@@@std@@YAAEBV?$codecvt@DDU_Mbstatet@@@0@AEBVlocale@0@@Z DD imagerel $LN52
	DD	imagerel $LN52+276
	DD	imagerel $unwind$??$use_facet@V?$codecvt@DDU_Mbstatet@@@std@@@std@@YAAEBV?$codecvt@DDU_Mbstatet@@@0@AEBVlocale@0@@Z
pdata	ENDS
;	COMDAT pdata
pdata	SEGMENT
$pdata$??$_Allocate_at_least_helper@V?$allocator@D@std@@@std@@YAPEADAEAV?$allocator@D@0@AEA_K@Z DD imagerel $LN26
	DD	imagerel $LN26+92
	DD	imagerel $unwind$??$_Allocate_at_least_helper@V?$allocator@D@std@@@std@@YAPEADAEAV?$allocator@D@0@AEA_K@Z
pdata	ENDS
;	COMDAT pdata
pdata	SEGMENT
$pdata$??$_Allocate_for_capacity@$0A@@?$basic_string@DU?$char_traits@D@std@@V?$allocator@D@2@@std@@CAPEADAEAV?$allocator@D@1@AEA_K@Z DD imagerel $LN46
	DD	imagerel $LN46+111
	DD	imagerel $unwind$??$_Allocate_for_capacity@$0A@@?$basic_string@DU?$char_traits@D@std@@V?$allocator@D@2@@std@@CAPEADAEAV?$allocator@D@1@AEA_K@Z
pdata	ENDS
;	COMDAT pdata
pdata	SEGMENT
$pdata$??$_Emplace_reallocate@I@?$vector@IV?$allocator@I@std@@@std@@AEAAPEAIQEAI$$QEAI@Z DD imagerel $LN166
	DD	imagerel $LN166+60
	DD	imagerel $unwind$??$_Emplace_reallocate@I@?$vector@IV?$allocator@I@std@@@std@@AEAAPEAIQEAI$$QEAI@Z
pdata	ENDS
;	COMDAT pdata
pdata	SEGMENT
$pdata$3$??$_Emplace_reallocate@I@?$vector@IV?$allocator@I@std@@@std@@AEAAPEAIQEAI$$QEAI@Z DD imagerel $LN166+60
	DD	imagerel $LN166+411
	DD	imagerel $chain$3$??$_Emplace_reallocate@I@?$vector@IV?$allocator@I@std@@@std@@AEAAPEAIQEAI$$QEAI@Z
pdata	ENDS
;	COMDAT pdata
pdata	SEGMENT
$pdata$4$??$_Emplace_reallocate@I@?$vector@IV?$allocator@I@std@@@std@@AEAAPEAIQEAI$$QEAI@Z DD imagerel $LN166+411
	DD	imagerel $LN166+417
	DD	imagerel $chain$4$??$_Emplace_reallocate@I@?$vector@IV?$allocator@I@std@@@std@@AEAAPEAIQEAI$$QEAI@Z
pdata	ENDS
;	COMDAT pdata
pdata	SEGMENT
$pdata$5$??$_Emplace_reallocate@I@?$vector@IV?$allocator@I@std@@@std@@AEAAPEAIQEAI$$QEAI@Z DD imagerel $LN166+417
	DD	imagerel $LN166+423
	DD	imagerel $chain$5$??$_Emplace_reallocate@I@?$vector@IV?$allocator@I@std@@@std@@AEAAPEAIQEAI$$QEAI@Z
pdata	ENDS
;	COMDAT pdata
pdata	SEGMENT
$pdata$??$_Allocate@$0BA@U_Default_allocate_traits@std@@@std@@YAPEAX_K@Z DD imagerel $LN20
	DD	imagerel $LN20+89
	DD	imagerel $unwind$??$_Allocate@$0BA@U_Default_allocate_traits@std@@@std@@YAPEAX_K@Z
pdata	ENDS
;	COMDAT pdata
pdata	SEGMENT
$pdata$??$_Allocate_at_least_helper@V?$allocator@I@std@@@std@@YAPEAIAEAV?$allocator@I@0@AEA_K@Z DD imagerel $LN30
	DD	imagerel $LN30+115
	DD	imagerel $unwind$??$_Allocate_at_least_helper@V?$allocator@I@std@@@std@@YAPEAIAEAV?$allocator@I@0@AEA_K@Z
pdata	ENDS
;	COMDAT pdata
pdata	SEGMENT
$pdata$??$_Uninitialized_move@PEAIV?$allocator@I@std@@@std@@YAPEAIQEAI0PEAIAEAV?$allocator@I@0@@Z DD imagerel $LN24
	DD	imagerel $LN24+52
	DD	imagerel $unwind$??$_Uninitialized_move@PEAIV?$allocator@I@std@@@std@@YAPEAIQEAI0PEAIAEAV?$allocator@I@0@@Z
pdata	ENDS
;	COMDAT pdata
pdata	SEGMENT
$pdata$??$_Allocate_manually_vector_aligned@U_Default_allocate_traits@std@@@std@@YAPEAX_K@Z DD imagerel $LN10
	DD	imagerel $LN10+59
	DD	imagerel $unwind$??$_Allocate_manually_vector_aligned@U_Default_allocate_traits@std@@@std@@YAPEAX_K@Z
pdata	ENDS
;	COMDAT pdata
pdata	SEGMENT
$pdata$??$_Assign@D@?$basic_string@DU?$char_traits@D@std@@V?$allocator@D@2@@std@@AEAAAEAV01@QEBD_K@Z DD imagerel $LN170
	DD	imagerel $LN170+93
	DD	imagerel $unwind$??$_Assign@D@?$basic_string@DU?$char_traits@D@std@@V?$allocator@D@2@@std@@AEAAAEAV01@QEBD_K@Z
pdata	ENDS
;	COMDAT pdata
pdata	SEGMENT
$pdata$0$??$_Assign@D@?$basic_string@DU?$char_traits@D@std@@V?$allocator@D@2@@std@@AEAAAEAV01@QEBD_K@Z DD imagerel $LN170+93
	DD	imagerel $LN170+321
	DD	imagerel $chain$0$??$_Assign@D@?$basic_string@DU?$char_traits@D@std@@V?$allocator@D@2@@std@@AEAAAEAV01@QEBD_K@Z
pdata	ENDS
;	COMDAT pdata
pdata	SEGMENT
$pdata$1$??$_Assign@D@?$basic_string@DU?$char_traits@D@std@@V?$allocator@D@2@@std@@AEAAAEAV01@QEBD_K@Z DD imagerel $LN170+321
	DD	imagerel $LN170+349
	DD	imagerel $chain$1$??$_Assign@D@?$basic_string@DU?$char_traits@D@std@@V?$allocator@D@2@@std@@AEAAAEAV01@QEBD_K@Z
pdata	ENDS
;	COMDAT pdata
pdata	SEGMENT
$pdata$2$??$_Assign@D@?$basic_string@DU?$char_traits@D@std@@V?$allocator@D@2@@std@@AEAAAEAV01@QEBD_K@Z DD imagerel $LN170+349
	DD	imagerel $LN170+355
	DD	imagerel $chain$2$??$_Assign@D@?$basic_string@DU?$char_traits@D@std@@V?$allocator@D@2@@std@@AEAAAEAV01@QEBD_K@Z
pdata	ENDS
;	COMDAT pdata
pdata	SEGMENT
$pdata$??$_Copy_memmove@PEAIPEAI@std@@YAPEAIPEAI00@Z DD imagerel $LN6
	DD	imagerel $LN6+48
	DD	imagerel $unwind$??$_Copy_memmove@PEAIPEAI@std@@YAPEAIPEAI00@Z
pdata	ENDS
;	COMDAT pdata
pdata	SEGMENT
$pdata$??R<lambda_1>@?1???$_Assign@D@?$basic_string@DU?$char_traits@D@std@@V?$allocator@D@2@@std@@AEAAAEAV12@QEBD_K@Z@SA@QEAD10@Z DD imagerel $LN25
	DD	imagerel $LN25+45
	DD	imagerel $unwind$??R<lambda_1>@?1???$_Assign@D@?$basic_string@DU?$char_traits@D@std@@V?$allocator@D@2@@std@@AEAAAEAV12@QEBD_K@Z@SA@QEAD10@Z
pdata	ENDS
;	COMDAT pdata
pdata	SEGMENT
$pdata$??$_Reallocate_for@V<lambda_1>@?1???$_Assign@D@?$basic_string@DU?$char_traits@D@std@@V?$allocator@D@2@@std@@AEAAAEAV23@QEBD_K@Z@PEBD@?$basic_string@DU?$char_traits@D@std@@V?$allocator@D@2@@std@@AEAAAEAV01@_KV<lambda_1>@?1???$_Assign@D@01@AEAAAEAV01@QEBD0@Z@PEBD@Z DD imagerel $LN116
	DD	imagerel $LN116+42
	DD	imagerel $unwind$??$_Reallocate_for@V<lambda_1>@?1???$_Assign@D@?$basic_string@DU?$char_traits@D@std@@V?$allocator@D@2@@std@@AEAAAEAV23@QEBD_K@Z@PEBD@?$basic_string@DU?$char_traits@D@std@@V?$allocator@D@2@@std@@AEAAAEAV01@_KV<lambda_1>@?1???$_Assign@D@01@AEAAAEAV01@QEBD0@Z@PEBD@Z
pdata	ENDS
;	COMDAT pdata
pdata	SEGMENT
$pdata$1$??$_Reallocate_for@V<lambda_1>@?1???$_Assign@D@?$basic_string@DU?$char_traits@D@std@@V?$allocator@D@2@@std@@AEAAAEAV23@QEBD_K@Z@PEBD@?$basic_string@DU?$char_traits@D@std@@V?$allocator@D@2@@std@@AEAAAEAV01@_KV<lambda_1>@?1???$_Assign@D@01@AEAAAEAV01@QEBD0@Z@PEBD@Z DD imagerel $LN116+42
	DD	imagerel $LN116+301
	DD	imagerel $chain$1$??$_Reallocate_for@V<lambda_1>@?1???$_Assign@D@?$basic_string@DU?$char_traits@D@std@@V?$allocator@D@2@@std@@AEAAAEAV23@QEBD_K@Z@PEBD@?$basic_string@DU?$char_traits@D@std@@V?$allocator@D@2@@std@@AEAAAEAV01@_KV<lambda_1>@?1???$_Assign@D@01@AEAAAEAV01@QEBD0@Z@PEBD@Z
pdata	ENDS
;	COMDAT pdata
pdata	SEGMENT
$pdata$2$??$_Reallocate_for@V<lambda_1>@?1???$_Assign@D@?$basic_string@DU?$char_traits@D@std@@V?$allocator@D@2@@std@@AEAAAEAV23@QEBD_K@Z@PEBD@?$basic_string@DU?$char_traits@D@std@@V?$allocator@D@2@@std@@AEAAAEAV01@_KV<lambda_1>@?1???$_Assign@D@01@AEAAAEAV01@QEBD0@Z@PEBD@Z DD imagerel $LN116+301
	DD	imagerel $LN116+307
	DD	imagerel $chain$2$??$_Reallocate_for@V<lambda_1>@?1???$_Assign@D@?$basic_string@DU?$char_traits@D@std@@V?$allocator@D@2@@std@@AEAAAEAV23@QEBD_K@Z@PEBD@?$basic_string@DU?$char_traits@D@std@@V?$allocator@D@2@@std@@AEAAAEAV01@_KV<lambda_1>@?1???$_Assign@D@01@AEAAAEAV01@QEBD0@Z@PEBD@Z
pdata	ENDS
;	COMDAT pdata
pdata	SEGMENT
$pdata$3$??$_Reallocate_for@V<lambda_1>@?1???$_Assign@D@?$basic_string@DU?$char_traits@D@std@@V?$allocator@D@2@@std@@AEAAAEAV23@QEBD_K@Z@PEBD@?$basic_string@DU?$char_traits@D@std@@V?$allocator@D@2@@std@@AEAAAEAV01@_KV<lambda_1>@?1???$_Assign@D@01@AEAAAEAV01@QEBD0@Z@PEBD@Z DD imagerel $LN116+307
	DD	imagerel $LN116+313
	DD	imagerel $chain$3$??$_Reallocate_for@V<lambda_1>@?1???$_Assign@D@?$basic_string@DU?$char_traits@D@std@@V?$allocator@D@2@@std@@AEAAAEAV23@QEBD_K@Z@PEBD@?$basic_string@DU?$char_traits@D@std@@V?$allocator@D@2@@std@@AEAAAEAV01@_KV<lambda_1>@?1???$_Assign@D@01@AEAAAEAV01@QEBD0@Z@PEBD@Z
pdata	ENDS
;	COMDAT pdata
pdata	SEGMENT
$pdata$??$_Get_size_of_n@$03@std@@YA_K_K@Z DD imagerel $LN7
	DD	imagerel $LN7+38
	DD	imagerel $unwind$??$_Get_size_of_n@$03@std@@YA_K_K@Z
pdata	ENDS
;	COMDAT pdata
pdata	SEGMENT
$pdata$??$_Copy_memmove_tail@PEAI@std@@YAPEAIQEBDQEAI_K2@Z DD imagerel $LN4
	DD	imagerel $LN4+42
	DD	imagerel $unwind$??$_Copy_memmove_tail@PEAI@std@@YAPEAIQEBDQEAI_K2@Z
pdata	ENDS
CRT$XCU	SEGMENT
?minFError$initializer$@vecMathTests@aos@physx@@3P6AXXZEA DQ FLAT:??__EminFError@vecMathTests@aos@physx@@YAXXZ ; physx::aos::vecMathTests::minFError$initializer$
CRT$XCU	ENDS
;	COMDAT __xmm@fa7efa7efa7efa7efa7efa7efa7efa7e
CONST	SEGMENT
__xmm@fa7efa7efa7efa7efa7efa7efa7efa7e DB '~', 0faH, '~', 0faH, '~', 0faH
	DB	'~', 0faH, '~', 0faH, '~', 0faH, '~', 0faH, '~', 0faH
CONST	ENDS
;	COMDAT __xmm@f9c31a9df9c31a9df9c31a9df9c31a9d
CONST	SEGMENT
__xmm@f9c31a9df9c31a9df9c31a9df9c31a9d DB 09dH, 01aH, 0c3H, 0f9H, 09dH, 01aH
	DB	0c3H, 0f9H, 09dH, 01aH, 0c3H, 0f9H, 09dH, 01aH, 0c3H, 0f9H
CONST	ENDS
;	COMDAT __xmm@f493f493f493f493f493f493f493f493
CONST	SEGMENT
__xmm@f493f493f493f493f493f493f493f493 DB 093H, 0f4H, 093H, 0f4H, 093H, 0f4H
	DB	093H, 0f4H, 093H, 0f4H, 093H, 0f4H, 093H, 0f4H, 093H, 0f4H
CONST	ENDS
;	COMDAT __xmm@eb1a08a9eb1a08a9eb1a08a9eb1a08a9
CONST	SEGMENT
__xmm@eb1a08a9eb1a08a9eb1a08a9eb1a08a9 DB 0a9H, 08H, 01aH, 0ebH, 0a9H, 08H
	DB	01aH, 0ebH, 0a9H, 08H, 01aH, 0ebH, 0a9H, 08H, 01aH, 0ebH
CONST	ENDS
;	COMDAT __xmm@e9cf12d0e9cf12d0e9cf12d0e9cf12d0
CONST	SEGMENT
__xmm@e9cf12d0e9cf12d0e9cf12d0e9cf12d0 DB 0d0H, 012H, 0cfH, 0e9H, 0d0H, 012H
	DB	0cfH, 0e9H, 0d0H, 012H, 0cfH, 0e9H, 0d0H, 012H, 0cfH, 0e9H
CONST	ENDS
;	COMDAT __xmm@e09ee565e09ee565e09ee565e09ee565
CONST	SEGMENT
__xmm@e09ee565e09ee565e09ee565e09ee565 DB 'e', 0e5H, 09eH, 0e0H, 'e', 0e5H
	DB	09eH, 0e0H, 'e', 0e5H, 09eH, 0e0H, 'e', 0e5H, 09eH, 0e0H
CONST	ENDS
;	COMDAT __xmm@ba83126fba83126fba83126fba83126f
CONST	SEGMENT
__xmm@ba83126fba83126fba83126fba83126f DB 'o', 012H, 083H, 0baH, 'o', 012H
	DB	083H, 0baH, 'o', 012H, 083H, 0baH, 'o', 012H, 083H, 0baH
CONST	ENDS
;	COMDAT __xmm@80808080808080808080808080808080
CONST	SEGMENT
__xmm@80808080808080808080808080808080 DB 080H, 080H, 080H, 080H, 080H, 080H
	DB	080H, 080H, 080H, 080H, 080H, 080H, 080H, 080H, 080H, 080H
CONST	ENDS
;	COMDAT __xmm@80000000800000008000000080000000
CONST	SEGMENT
__xmm@80000000800000008000000080000000 DB 00H, 00H, 00H, 080H, 00H, 00H, 00H
	DB	080H, 00H, 00H, 00H, 080H, 00H, 00H, 00H, 080H
CONST	ENDS
;	COMDAT __xmm@3f8000003f8000003f8000003f800000
CONST	SEGMENT
__xmm@3f8000003f8000003f8000003f800000 DB 00H, 00H, 080H, '?', 00H, 00H, 080H
	DB	'?', 00H, 00H, 080H, '?', 00H, 00H, 080H, '?'
CONST	ENDS
;	COMDAT __xmm@3a83126f3a83126f3a83126f3a83126f
CONST	SEGMENT
__xmm@3a83126f3a83126f3a83126f3a83126f DB 'o', 012H, 083H, ':o', 012H, 083H
	DB	':o', 012H, 083H, ':o', 012H, 083H, ':'
CONST	ENDS
;	COMDAT __xmm@1c5a1c5a1c5a1c5a1c5a1c5a1c5a1c5a
CONST	SEGMENT
__xmm@1c5a1c5a1c5a1c5a1c5a1c5a1c5a1c5a DB 'Z', 01cH, 'Z', 01cH, 'Z', 01cH
	DB	'Z', 01cH, 'Z', 01cH, 'Z', 01cH, 'Z', 01cH, 'Z', 01cH
CONST	ENDS
;	COMDAT __xmm@166f166f166f166f166f166f166f166f
CONST	SEGMENT
__xmm@166f166f166f166f166f166f166f166f DB 'o', 016H, 'o', 016H, 'o', 016H
	DB	'o', 016H, 'o', 016H, 'o', 016H, 'o', 016H, 'o', 016H
CONST	ENDS
;	COMDAT __xmm@12d0046b12d0046b12d0046b12d0046b
CONST	SEGMENT
__xmm@12d0046b12d0046b12d0046b12d0046b DB 'k', 04H, 0d0H, 012H, 'k', 04H, 0d0H
	DB	012H, 'k', 04H, 0d0H, 012H, 'k', 04H, 0d0H, 012H
CONST	ENDS
;	COMDAT __xmm@11c8f9c311c8f9c311c8f9c311c8f9c3
CONST	SEGMENT
__xmm@11c8f9c311c8f9c311c8f9c311c8f9c3 DB 0c3H, 0f9H, 0c8H, 011H, 0c3H, 0f9H
	DB	0c8H, 011H, 0c3H, 0f9H, 0c8H, 011H, 0c3H, 0f9H, 0c8H, 011H
CONST	ENDS
;	COMDAT __xmm@11c8e09e11c8e09e11c8e09e11c8e09e
CONST	SEGMENT
__xmm@11c8e09e11c8e09e11c8e09e11c8e09e DB 09eH, 0e0H, 0c8H, 011H, 09eH, 0e0H
	DB	0c8H, 011H, 09eH, 0e0H, 0c8H, 011H, 09eH, 0e0H, 0c8H, 011H
CONST	ENDS
;	COMDAT __xmm@08a914e808a914e808a914e808a914e8
CONST	SEGMENT
__xmm@08a914e808a914e808a914e808a914e8 DB 0e8H, 014H, 0a9H, 08H, 0e8H, 014H
	DB	0a9H, 08H, 0e8H, 014H, 0a9H, 08H, 0e8H, 014H, 0a9H, 08H
CONST	ENDS
;	COMDAT __xmm@01010101010101010101010101010101
CONST	SEGMENT
__xmm@01010101010101010101010101010101 DB 01H, 01H, 01H, 01H, 01H, 01H, 01H
	DB	01H, 01H, 01H, 01H, 01H, 01H, 01H, 01H, 01H
CONST	ENDS
;	COMDAT __xmm@01010000010100000101000001010000
CONST	SEGMENT
__xmm@01010000010100000101000001010000 DB 00H, 00H, 01H, 01H, 00H, 00H, 01H
	DB	01H, 00H, 00H, 01H, 01H, 00H, 00H, 01H, 01H
CONST	ENDS
;	COMDAT __xmm@00ff00ff00ff00ff00ff00ff00ff00ff
CONST	SEGMENT
__xmm@00ff00ff00ff00ff00ff00ff00ff00ff DB 0ffH, 00H, 0ffH, 00H, 0ffH, 00H
	DB	0ffH, 00H, 0ffH, 00H, 0ffH, 00H, 0ffH, 00H, 0ffH, 00H
CONST	ENDS
;	COMDAT __xmm@00080008000800080008000800080008
CONST	SEGMENT
__xmm@00080008000800080008000800080008 DB 08H, 00H, 08H, 00H, 08H, 00H, 08H
	DB	00H, 08H, 00H, 08H, 00H, 08H, 00H, 08H, 00H
CONST	ENDS
;	COMDAT __xmm@00000200000002000000020000000200
CONST	SEGMENT
__xmm@00000200000002000000020000000200 DB 00H, 02H, 00H, 00H, 00H, 02H, 00H
	DB	00H, 00H, 02H, 00H, 00H, 00H, 02H, 00H, 00H
CONST	ENDS
;	COMDAT __xmm@000000ff000000ff000000ff000000ff
CONST	SEGMENT
__xmm@000000ff000000ff000000ff000000ff DB 0ffH, 00H, 00H, 00H, 0ffH, 00H, 00H
	DB	00H, 0ffH, 00H, 00H, 00H, 0ffH, 00H, 00H, 00H
CONST	ENDS
;	COMDAT __xmm@00000004000000080000000800000008
CONST	SEGMENT
__xmm@00000004000000080000000800000008 DB 08H, 00H, 00H, 00H, 08H, 00H, 00H
	DB	00H, 08H, 00H, 00H, 00H, 04H, 00H, 00H, 00H
CONST	ENDS
;	COMDAT __xmm@00000004000000040000000800000008
CONST	SEGMENT
__xmm@00000004000000040000000800000008 DB 08H, 00H, 00H, 00H, 08H, 00H, 00H
	DB	00H, 04H, 00H, 00H, 00H, 04H, 00H, 00H, 00H
CONST	ENDS
;	COMDAT __xmm@00000003000000030000000300000003
CONST	SEGMENT
__xmm@00000003000000030000000300000003 DB 03H, 00H, 00H, 00H, 03H, 00H, 00H
	DB	00H, 03H, 00H, 00H, 00H, 03H, 00H, 00H, 00H
CONST	ENDS
;	COMDAT __xmm@00000002000000020000000200000002
CONST	SEGMENT
__xmm@00000002000000020000000200000002 DB 02H, 00H, 00H, 00H, 02H, 00H, 00H
	DB	00H, 02H, 00H, 00H, 00H, 02H, 00H, 00H, 00H
CONST	ENDS
;	COMDAT __xmm@00000002000000000000000400000000
CONST	SEGMENT
__xmm@00000002000000000000000400000000 DB 00H, 00H, 00H, 00H, 04H, 00H, 00H
	DB	00H, 00H, 00H, 00H, 00H, 02H, 00H, 00H, 00H
CONST	ENDS
;	COMDAT __xmm@00000000ba83126fba83126fba83126f
CONST	SEGMENT
__xmm@00000000ba83126fba83126fba83126f DB 'o', 012H, 083H, 0baH, 'o', 012H
	DB	083H, 0baH, 'o', 012H, 083H, 0baH, 00H, 00H, 00H, 00H
CONST	ENDS
;	COMDAT __xmm@000000003a83126f3a83126f3a83126f
CONST	SEGMENT
__xmm@000000003a83126f3a83126f3a83126f DB 'o', 012H, 083H, ':o', 012H, 083H
	DB	':o', 012H, 083H, ':', 00H, 00H, 00H, 00H
CONST	ENDS
;	COMDAT __xmm@00000000000000040000000000000000
CONST	SEGMENT
__xmm@00000000000000040000000000000000 DB 00H, 00H, 00H, 00H, 00H, 00H, 00H
	DB	00H, 04H, 00H, 00H, 00H, 00H, 00H, 00H, 00H
CONST	ENDS
;	COMDAT __real@477fff00
CONST	SEGMENT
__real@477fff00 DD 0477fff00r			; 65535
CONST	ENDS
;	COMDAT __real@43b40000
CONST	SEGMENT
__real@43b40000 DD 043b40000r			; 360
CONST	ENDS
;	COMDAT __real@437f0000
CONST	SEGMENT
__real@437f0000 DD 0437f0000r			; 255
CONST	ENDS
;	COMDAT __real@41200000
CONST	SEGMENT
__real@41200000 DD 041200000r			; 10
CONST	ENDS
;	COMDAT __real@40490fdb
CONST	SEGMENT
__real@40490fdb DD 040490fdbr			; 3.14159
CONST	ENDS
;	COMDAT __real@40400000
CONST	SEGMENT
__real@40400000 DD 040400000r			; 3
CONST	ENDS
;	COMDAT __real@3ff0000000000000
CONST	SEGMENT
__real@3ff0000000000000 DQ 03ff0000000000000r	; 1
CONST	ENDS
;	COMDAT __real@3f800000
CONST	SEGMENT
__real@3f800000 DD 03f800000r			; 1
CONST	ENDS
;	COMDAT __real@3f400000
CONST	SEGMENT
__real@3f400000 DD 03f400000r			; 0.75
CONST	ENDS
;	COMDAT __real@3f000000
CONST	SEGMENT
__real@3f000000 DD 03f000000r			; 0.5
CONST	ENDS
;	COMDAT __real@3ec90fdb
CONST	SEGMENT
__real@3ec90fdb DD 03ec90fdbr			; 0.392699
CONST	ENDS
;	COMDAT ??_R1A@?0A@EA@bad_cast@std@@8
rdata$r	SEGMENT
??_R1A@?0A@EA@bad_cast@std@@8 DD imagerel ??_R0?AVbad_cast@std@@@8 ; std::bad_cast::`RTTI Base Class Descriptor at (0,-1,0,64)'
	DD	01H
	DD	00H
	DD	0ffffffffH
	DD	00H
	DD	040H
	DD	imagerel ??_R3bad_cast@std@@8
rdata$r	ENDS
;	COMDAT ??_R2bad_cast@std@@8
rdata$r	SEGMENT
??_R2bad_cast@std@@8 DD imagerel ??_R1A@?0A@EA@bad_cast@std@@8 ; std::bad_cast::`RTTI Base Class Array'
	DD	imagerel ??_R1A@?0A@EA@exception@std@@8
	ORG $+3
rdata$r	ENDS
;	COMDAT ??_R3bad_cast@std@@8
rdata$r	SEGMENT
??_R3bad_cast@std@@8 DD 00H				; std::bad_cast::`RTTI Class Hierarchy Descriptor'
	DD	00H
	DD	02H
	DD	imagerel ??_R2bad_cast@std@@8
rdata$r	ENDS
;	COMDAT ??_R4bad_cast@std@@6B@
rdata$r	SEGMENT
??_R4bad_cast@std@@6B@ DD 01H				; std::bad_cast::`RTTI Complete Object Locator'
	DD	00H
	DD	00H
	DD	imagerel ??_R0?AVbad_cast@std@@@8
	DD	imagerel ??_R3bad_cast@std@@8
	DD	imagerel ??_R4bad_cast@std@@6B@
rdata$r	ENDS
;	COMDAT ??_R4bad_alloc@std@@6B@
rdata$r	SEGMENT
??_R4bad_alloc@std@@6B@ DD 01H				; std::bad_alloc::`RTTI Complete Object Locator'
	DD	00H
	DD	00H
	DD	imagerel ??_R0?AVbad_alloc@std@@@8
	DD	imagerel ??_R3bad_alloc@std@@8
	DD	imagerel ??_R4bad_alloc@std@@6B@
rdata$r	ENDS
;	COMDAT ??_R2bad_alloc@std@@8
rdata$r	SEGMENT
??_R2bad_alloc@std@@8 DD imagerel ??_R1A@?0A@EA@bad_alloc@std@@8 ; std::bad_alloc::`RTTI Base Class Array'
	DD	imagerel ??_R1A@?0A@EA@exception@std@@8
	ORG $+3
rdata$r	ENDS
;	COMDAT ??_R3bad_alloc@std@@8
rdata$r	SEGMENT
??_R3bad_alloc@std@@8 DD 00H				; std::bad_alloc::`RTTI Class Hierarchy Descriptor'
	DD	00H
	DD	02H
	DD	imagerel ??_R2bad_alloc@std@@8
rdata$r	ENDS
;	COMDAT ??_R1A@?0A@EA@bad_alloc@std@@8
rdata$r	SEGMENT
??_R1A@?0A@EA@bad_alloc@std@@8 DD imagerel ??_R0?AVbad_alloc@std@@@8 ; std::bad_alloc::`RTTI Base Class Descriptor at (0,-1,0,64)'
	DD	01H
	DD	00H
	DD	0ffffffffH
	DD	00H
	DD	040H
	DD	imagerel ??_R3bad_alloc@std@@8
rdata$r	ENDS
;	COMDAT ??_R1A@?0A@EA@bad_array_new_length@std@@8
rdata$r	SEGMENT
??_R1A@?0A@EA@bad_array_new_length@std@@8 DD imagerel ??_R0?AVbad_array_new_length@std@@@8 ; std::bad_array_new_length::`RTTI Base Class Descriptor at (0,-1,0,64)'
	DD	02H
	DD	00H
	DD	0ffffffffH
	DD	00H
	DD	040H
	DD	imagerel ??_R3bad_array_new_length@std@@8
rdata$r	ENDS
;	COMDAT ??_R2bad_array_new_length@std@@8
rdata$r	SEGMENT
??_R2bad_array_new_length@std@@8 DD imagerel ??_R1A@?0A@EA@bad_array_new_length@std@@8 ; std::bad_array_new_length::`RTTI Base Class Array'
	DD	imagerel ??_R1A@?0A@EA@bad_alloc@std@@8
	DD	imagerel ??_R1A@?0A@EA@exception@std@@8
	ORG $+3
rdata$r	ENDS
;	COMDAT ??_R3bad_array_new_length@std@@8
rdata$r	SEGMENT
??_R3bad_array_new_length@std@@8 DD 00H			; std::bad_array_new_length::`RTTI Class Hierarchy Descriptor'
	DD	00H
	DD	03H
	DD	imagerel ??_R2bad_array_new_length@std@@8
rdata$r	ENDS
;	COMDAT ??_R4bad_array_new_length@std@@6B@
rdata$r	SEGMENT
??_R4bad_array_new_length@std@@6B@ DD 01H		; std::bad_array_new_length::`RTTI Complete Object Locator'
	DD	00H
	DD	00H
	DD	imagerel ??_R0?AVbad_array_new_length@std@@@8
	DD	imagerel ??_R3bad_array_new_length@std@@8
	DD	imagerel ??_R4bad_array_new_length@std@@6B@
rdata$r	ENDS
;	COMDAT ??_R1A@?0A@EA@exception@std@@8
rdata$r	SEGMENT
??_R1A@?0A@EA@exception@std@@8 DD imagerel ??_R0?AVexception@std@@@8 ; std::exception::`RTTI Base Class Descriptor at (0,-1,0,64)'
	DD	00H
	DD	00H
	DD	0ffffffffH
	DD	00H
	DD	040H
	DD	imagerel ??_R3exception@std@@8
rdata$r	ENDS
;	COMDAT ??_R2exception@std@@8
rdata$r	SEGMENT
??_R2exception@std@@8 DD imagerel ??_R1A@?0A@EA@exception@std@@8 ; std::exception::`RTTI Base Class Array'
	ORG $+3
rdata$r	ENDS
;	COMDAT ??_R3exception@std@@8
rdata$r	SEGMENT
??_R3exception@std@@8 DD 00H				; std::exception::`RTTI Class Hierarchy Descriptor'
	DD	00H
	DD	01H
	DD	imagerel ??_R2exception@std@@8
rdata$r	ENDS
;	COMDAT ??_R4exception@std@@6B@
rdata$r	SEGMENT
??_R4exception@std@@6B@ DD 01H				; std::exception::`RTTI Complete Object Locator'
	DD	00H
	DD	00H
	DD	imagerel ??_R0?AVexception@std@@@8
	DD	imagerel ??_R3exception@std@@8
	DD	imagerel ??_R4exception@std@@6B@
rdata$r	ENDS
;	COMDAT ??_R1A@?0A@EA@?$basic_ifstream@DU?$char_traits@D@std@@@std@@8
rdata$r	SEGMENT
??_R1A@?0A@EA@?$basic_ifstream@DU?$char_traits@D@std@@@std@@8 DD imagerel ??_R0?AV?$basic_ifstream@DU?$char_traits@D@std@@@std@@@8 ; std::basic_ifstream<char,std::char_traits<char> >::`RTTI Base Class Descriptor at (0,-1,0,64)'
	DD	04H
	DD	00H
	DD	0ffffffffH
	DD	00H
	DD	040H
	DD	imagerel ??_R3?$basic_ifstream@DU?$char_traits@D@std@@@std@@8
rdata$r	ENDS
;	COMDAT ??_R2?$basic_ifstream@DU?$char_traits@D@std@@@std@@8
rdata$r	SEGMENT
??_R2?$basic_ifstream@DU?$char_traits@D@std@@@std@@8 DD imagerel ??_R1A@?0A@EA@?$basic_ifstream@DU?$char_traits@D@std@@@std@@8 ; std::basic_ifstream<char,std::char_traits<char> >::`RTTI Base Class Array'
	DD	imagerel ??_R1A@?0A@EA@?$basic_istream@DU?$char_traits@D@std@@@std@@8
	DD	imagerel ??_R1A@A@3FA@?$basic_ios@DU?$char_traits@D@std@@@std@@8
	DD	imagerel ??_R1A@A@3EA@ios_base@std@@8
	DD	imagerel ??_R17A@3EA@?$_Iosb@H@std@@8
	ORG $+3
rdata$r	ENDS
;	COMDAT ??_R3?$basic_ifstream@DU?$char_traits@D@std@@@std@@8
rdata$r	SEGMENT
??_R3?$basic_ifstream@DU?$char_traits@D@std@@@std@@8 DD 00H ; std::basic_ifstream<char,std::char_traits<char> >::`RTTI Class Hierarchy Descriptor'
	DD	00H
	DD	05H
	DD	imagerel ??_R2?$basic_ifstream@DU?$char_traits@D@std@@@std@@8
rdata$r	ENDS
;	COMDAT ??_R0?AV?$basic_ifstream@DU?$char_traits@D@std@@@std@@@8
data$rs	SEGMENT
??_R0?AV?$basic_ifstream@DU?$char_traits@D@std@@@std@@@8 DQ FLAT:??_7type_info@@6B@ ; std::basic_ifstream<char,std::char_traits<char> > `RTTI Type Descriptor'
	DQ	0000000000000000H
	DB	'.?AV?$basic_ifstream@DU?$char_traits@D@std@@@std@@', 00H
data$rs	ENDS
;	COMDAT ??_R4?$basic_ifstream@DU?$char_traits@D@std@@@std@@6B@
rdata$r	SEGMENT
??_R4?$basic_ifstream@DU?$char_traits@D@std@@@std@@6B@ DD 01H ; std::basic_ifstream<char,std::char_traits<char> >::`RTTI Complete Object Locator'
	DD	0b0H
	DD	04H
	DD	imagerel ??_R0?AV?$basic_ifstream@DU?$char_traits@D@std@@@std@@@8
	DD	imagerel ??_R3?$basic_ifstream@DU?$char_traits@D@std@@@std@@8
	DD	imagerel ??_R4?$basic_ifstream@DU?$char_traits@D@std@@@std@@6B@
rdata$r	ENDS
;	COMDAT ??_R1A@?0A@EA@?$basic_filebuf@DU?$char_traits@D@std@@@std@@8
rdata$r	SEGMENT
??_R1A@?0A@EA@?$basic_filebuf@DU?$char_traits@D@std@@@std@@8 DD imagerel ??_R0?AV?$basic_filebuf@DU?$char_traits@D@std@@@std@@@8 ; std::basic_filebuf<char,std::char_traits<char> >::`RTTI Base Class Descriptor at (0,-1,0,64)'
	DD	01H
	DD	00H
	DD	0ffffffffH
	DD	00H
	DD	040H
	DD	imagerel ??_R3?$basic_filebuf@DU?$char_traits@D@std@@@std@@8
rdata$r	ENDS
;	COMDAT ??_R2?$basic_filebuf@DU?$char_traits@D@std@@@std@@8
rdata$r	SEGMENT
??_R2?$basic_filebuf@DU?$char_traits@D@std@@@std@@8 DD imagerel ??_R1A@?0A@EA@?$basic_filebuf@DU?$char_traits@D@std@@@std@@8 ; std::basic_filebuf<char,std::char_traits<char> >::`RTTI Base Class Array'
	DD	imagerel ??_R1A@?0A@EA@?$basic_streambuf@DU?$char_traits@D@std@@@std@@8
	ORG $+3
rdata$r	ENDS
;	COMDAT ??_R3?$basic_filebuf@DU?$char_traits@D@std@@@std@@8
rdata$r	SEGMENT
??_R3?$basic_filebuf@DU?$char_traits@D@std@@@std@@8 DD 00H ; std::basic_filebuf<char,std::char_traits<char> >::`RTTI Class Hierarchy Descriptor'
	DD	00H
	DD	02H
