; Listing generated by Microsoft (R) Optimizing Compiler Version 19.50.35727.0 

include listing.inc

INCLUDELIB MSVCRT
INCLUDELIB OLDNAMES

PUBLIC	_Avx2WmemEnabledWeakValue
PUBLIC	?g_PXSinCoefficients0@aos@physx@@3UPX_VECTORF32@12@B ; physx::aos::g_PXSinCoefficients0
PUBLIC	?g_PXSinCoefficients1@aos@physx@@3UPX_VECTORF32@12@B ; physx::aos::g_PXSinCoefficients1
PUBLIC	?g_PXSinCoefficients2@aos@physx@@3UPX_VECTORF32@12@B ; physx::aos::g_PXSinCoefficients2
PUBLIC	?g_PXCosCoefficients0@aos@physx@@3UPX_VECTORF32@12@B ; physx::aos::g_PXCosCoefficients0
PUBLIC	?g_PXCosCoefficients1@aos@physx@@3UPX_VECTORF32@12@B ; physx::aos::g_PXCosCoefficients1
PUBLIC	?g_PXCosCoefficients2@aos@physx@@3UPX_VECTORF32@12@B ; physx::aos::g_PXCosCoefficients2
PUBLIC	?g_PXReciprocalTwoPi@aos@physx@@3UPX_VECTORF32@12@B ; physx::aos::g_PXReciprocalTwoPi
PUBLIC	?g_PXTwoPi@aos@physx@@3UPX_VECTORF32@12@B	; physx::aos::g_PXTwoPi
;	COMDAT _Avx2WmemEnabledWeakValue
_BSS	SEGMENT
_Avx2WmemEnabledWeakValue DD 01H DUP (?)
_BSS	ENDS
;	COMDAT ?g_PXTwoPi@aos@physx@@3UPX_VECTORF32@12@B
CONST	SEGMENT
?g_PXTwoPi@aos@physx@@3UPX_VECTORF32@12@B DD 040c90fdbr ; 6.28319 ; physx::aos::g_PXTwoPi
	DD	040c90fdbr			; 6.28319
	DD	040c90fdbr			; 6.28319
	DD	040c90fdbr			; 6.28319
CONST	ENDS
;	COMDAT ?g_PXReciprocalTwoPi@aos@physx@@3UPX_VECTORF32@12@B
CONST	SEGMENT
?g_PXReciprocalTwoPi@aos@physx@@3UPX_VECTORF32@12@B DD 03e22f983r ; 0.159155 ; physx::aos::g_PXReciprocalTwoPi
	DD	03e22f983r			; 0.159155
	DD	03e22f983r			; 0.159155
	DD	03e22f983r			; 0.159155
CONST	ENDS
;	COMDAT ?g_PXCosCoefficients2@aos@physx@@3UPX_VECTORF32@12@B
CONST	SEGMENT
?g_PXCosCoefficients2@aos@physx@@3UPX_VECTORF32@12@B DD 029573f9fr ; 4.77948e-14 ; physx::aos::g_PXCosCoefficients2
	DD	0a53413c3r			; -1.56192e-16
	DD	020f2a15dr			; 4.11032e-19
	DD	09c8671cbr			; -8.89679e-22
CONST	ENDS
;	COMDAT ?g_PXCosCoefficients1@aos@physx@@3UPX_VECTORF32@12@B
CONST	SEGMENT
?g_PXCosCoefficients1@aos@physx@@3UPX_VECTORF32@12@B DD 037d00d01r ; 2.48016e-05 ; physx::aos::g_PXCosCoefficients1
	DD	0b493f27er			; -2.75573e-07
	DD	0310f76c8r			; 2.08768e-09
	DD	0ad49cba5r			; -1.14707e-11
CONST	ENDS
;	COMDAT ?g_PXCosCoefficients0@aos@physx@@3UPX_VECTORF32@12@B
CONST	SEGMENT
?g_PXCosCoefficients0@aos@physx@@3UPX_VECTORF32@12@B DD 03f800000r ; 1 ; physx::aos::g_PXCosCoefficients0
	DD	0bf000000r			; -0.5
	DD	03d2aaaabr			; 0.0416667
	DD	0bab60b61r			; -0.00138889
CONST	ENDS
;	COMDAT ?g_PXSinCoefficients2@aos@physx@@3UPX_VECTORF32@12@B
CONST	SEGMENT
?g_PXSinCoefficients2@aos@physx@@3UPX_VECTORF32@12@B DD 0274a963cr ; 2.81146e-15 ; physx::aos::g_PXSinCoefficients2
	DD	0a317a4dar			; -8.22064e-18
	DD	01eb8dc78r			; 1.95729e-20
	DD	09a3b0da1r			; -3.86817e-23
CONST	ENDS
;	COMDAT ?g_PXSinCoefficients1@aos@physx@@3UPX_VECTORF32@12@B
CONST	SEGMENT
?g_PXSinCoefficients1@aos@physx@@3UPX_VECTORF32@12@B DD 03638ef1dr ; 2.75573e-06 ; physx::aos::g_PXSinCoefficients1
	DD	0b2d7322br			; -2.50521e-08
	DD	02f309231r			; 1.6059e-10
	DD	0ab573f9fr			; -7.64716e-13
CONST	ENDS
;	COMDAT ?g_PXSinCoefficients0@aos@physx@@3UPX_VECTORF32@12@B
CONST	SEGMENT
?g_PXSinCoefficients0@aos@physx@@3UPX_VECTORF32@12@B DD 03f800000r ; 1 ; physx::aos::g_PXSinCoefficients0
	DD	0be2aaaabr			; -0.166667
	DD	03c088889r			; 0.00833333
	DD	0b9500d01r			; -0.000198413
CONST	ENDS
CONST	SEGMENT
?gMaskXYZ@internalSimd@aos@physx@@3QBIB DD 0ffffffffH	; physx::aos::internalSimd::gMaskXYZ
	DD	0ffffffffH
	DD	0ffffffffH
	DD	00H
?minus1w@?A0xcabfe0cd@aos@physx@@3QBMB DD 000000000r ; 0 ; physx::aos::`anonymous namespace'::minus1w
	DD	000000000r			; 0
	DD	000000000r			; 0
	DD	0bf800000r			; -1
CONST	ENDS
PUBLIC	??_H@YAXPEAX_K1P6APEAX0@Z@Z			; `vector constructor iterator'
PUBLIC	?__empty_global_delete@@YAXPEAX@Z		; __empty_global_delete
PUBLIC	?__empty_global_delete@@YAXPEAX_K@Z		; __empty_global_delete
PUBLIC	?__empty_global_delete@@YAXPEAXW4align_val_t@std@@@Z ; __empty_global_delete
PUBLIC	?__empty_global_delete@@YAXPEAX_KW4align_val_t@std@@@Z ; __empty_global_delete
PUBLIC	??2@YAPEAX_KPEAX@Z				; operator new
PUBLIC	?is_constant_evaluated@std@@YA_NXZ		; std::is_constant_evaluated
PUBLIC	?acos@@YAMM@Z					; acos
PUBLIC	?atan2@@YAMMM@Z					; atan2
PUBLIC	?cos@@YAMM@Z					; cos
PUBLIC	?fmod@@YAMMM@Z					; fmod
PUBLIC	?sin@@YAMM@Z					; sin
PUBLIC	?sqrt@@YAMM@Z					; sqrt
PUBLIC	wmemcpy
PUBLIC	?copy@?$_Char_traits@DH@std@@SAPEADQEADQEBD_K@Z	; std::_Char_traits<char,int>::copy
PUBLIC	?move@?$_Char_traits@DH@std@@SAPEADQEADQEBD_K@Z	; std::_Char_traits<char,int>::move
PUBLIC	?compare@?$_Narrow_char_traits@DH@std@@SAHQEBD0_K@Z ; std::_Narrow_char_traits<char,int>::compare
PUBLIC	?length@?$_Narrow_char_traits@DH@std@@SA_KQEBD@Z ; std::_Narrow_char_traits<char,int>::length
PUBLIC	?assign@?$_Narrow_char_traits@DH@std@@SAXAEADAEBD@Z ; std::_Narrow_char_traits<char,int>::assign
PUBLIC	?eq_int_type@?$_Narrow_char_traits@DH@std@@SA_NHH@Z ; std::_Narrow_char_traits<char,int>::eq_int_type
PUBLIC	?eof@?$_Narrow_char_traits@DH@std@@SAHXZ	; std::_Narrow_char_traits<char,int>::eof
PUBLIC	??$min@_K@std@@YAAEB_KAEB_K0@Z			; std::min<unsigned __int64>
PUBLIC	??0exception@std@@QEAA@QEBDH@Z			; std::exception::exception
PUBLIC	??0exception@std@@QEAA@AEBV01@@Z		; std::exception::exception
PUBLIC	??1exception@std@@UEAA@XZ			; std::exception::~exception
PUBLIC	?what@exception@std@@UEBAPEBDXZ			; std::exception::what
PUBLIC	??_Gexception@std@@UEAAPEAXI@Z			; std::exception::`scalar deleting destructor'
PUBLIC	??0bad_alloc@std@@AEAA@QEBD@Z			; std::bad_alloc::bad_alloc
PUBLIC	??1bad_alloc@std@@UEAA@XZ			; std::bad_alloc::~bad_alloc
PUBLIC	??0bad_alloc@std@@QEAA@AEBV01@@Z		; std::bad_alloc::bad_alloc
PUBLIC	??_Gbad_alloc@std@@UEAAPEAXI@Z			; std::bad_alloc::`scalar deleting destructor'
PUBLIC	??0bad_array_new_length@std@@QEAA@XZ		; std::bad_array_new_length::bad_array_new_length
PUBLIC	??1bad_array_new_length@std@@UEAA@XZ		; std::bad_array_new_length::~bad_array_new_length
PUBLIC	??0bad_array_new_length@std@@QEAA@AEBV01@@Z	; std::bad_array_new_length::bad_array_new_length
PUBLIC	??_Gbad_array_new_length@std@@UEAAPEAXI@Z	; std::bad_array_new_length::`scalar deleting destructor'
PUBLIC	?_Throw_bad_array_new_length@std@@YAXXZ		; std::_Throw_bad_array_new_length
PUBLIC	?_Allocate@_Default_allocate_traits@std@@SAPEAX_K@Z ; std::_Default_allocate_traits::_Allocate
PUBLIC	?_Adjust_manually_vector_aligned@std@@YAXAEAPEAXAEA_K@Z ; std::_Adjust_manually_vector_aligned
PUBLIC	?_Orphan_all@_Container_base0@std@@QEAAXXZ	; std::_Container_base0::_Orphan_all
PUBLIC	??0_Fake_proxy_ptr_impl@std@@QEAA@AEBU_Fake_allocator@1@AEBU_Container_base0@1@@Z ; std::_Fake_proxy_ptr_impl::_Fake_proxy_ptr_impl
PUBLIC	?_Release@_Fake_proxy_ptr_impl@std@@QEAAXXZ	; std::_Fake_proxy_ptr_impl::_Release
PUBLIC	?_Xlen_string@std@@YAXXZ			; std::_Xlen_string
PUBLIC	??0?$allocator@D@std@@QEAA@XZ			; std::allocator<char>::allocator<char>
PUBLIC	?deallocate@?$allocator@D@std@@QEAAXQEAD_K@Z	; std::allocator<char>::deallocate
PUBLIC	?allocate@?$allocator@D@std@@QEAAPEAD_K@Z	; std::allocator<char>::allocate
PUBLIC	?max_size@?$_Default_allocator_traits@V?$allocator@D@std@@@std@@SA_KAEBV?$allocator@D@2@@Z ; std::_Default_allocator_traits<std::allocator<char> >::max_size
PUBLIC	?select_on_container_copy_construction@?$_Default_allocator_traits@V?$allocator@D@std@@@std@@SA?AV?$allocator@D@2@AEBV32@@Z ; std::_Default_allocator_traits<std::allocator<char> >::select_on_container_copy_construction
PUBLIC	??0?$_String_val@U?$_Simple_types@D@std@@@std@@QEAA@XZ ; std::_String_val<std::_Simple_types<char> >::_String_val<std::_Simple_types<char> >
PUBLIC	?_Myptr@?$_String_val@U?$_Simple_types@D@std@@@std@@QEAAPEADXZ ; std::_String_val<std::_Simple_types<char> >::_Myptr
PUBLIC	?_Myptr@?$_String_val@U?$_Simple_types@D@std@@@std@@QEBAPEBDXZ ; std::_String_val<std::_Simple_types<char> >::_Myptr
PUBLIC	?_Large_mode_engaged@?$_String_val@U?$_Simple_types@D@std@@@std@@QEBA_NXZ ; std::_String_val<std::_Simple_types<char> >::_Large_mode_engaged
PUBLIC	??0_Bxty@?$_String_val@U?$_Simple_types@D@std@@@std@@QEAA@XZ ; std::_String_val<std::_Simple_types<char> >::_Bxty::_Bxty
PUBLIC	??1_Bxty@?$_String_val@U?$_Simple_types@D@std@@@std@@QEAA@XZ ; std::_String_val<std::_Simple_types<char> >::_Bxty::~_Bxty
PUBLIC	?_Switch_to_buf@_Bxty@?$_String_val@U?$_Simple_types@D@std@@@std@@QEAAXXZ ; std::_String_val<std::_Simple_types<char> >::_Bxty::_Switch_to_buf
PUBLIC	??1?$_String_val@U?$_Simple_types@D@std@@@std@@QEAA@XZ ; std::_String_val<std::_Simple_types<char> >::~_String_val<std::_Simple_types<char> >
PUBLIC	??0?$basic_string@DU?$char_traits@D@std@@V?$allocator@D@2@@std@@QEAA@AEBV01@@Z ; std::basic_string<char,std::char_traits<char>,std::allocator<char> >::basic_string<char,std::char_traits<char>,std::allocator<char> >
PUBLIC	??0?$basic_string@DU?$char_traits@D@std@@V?$allocator@D@2@@std@@QEAA@QEBD@Z ; std::basic_string<char,std::char_traits<char>,std::allocator<char> >::basic_string<char,std::char_traits<char>,std::allocator<char> >
PUBLIC	?_Deallocate_for_capacity@?$basic_string@DU?$char_traits@D@std@@V?$allocator@D@2@@std@@CAXAEAV?$allocator@D@2@QEAD_K@Z ; std::basic_string<char,std::char_traits<char>,std::allocator<char> >::_Deallocate_for_capacity
PUBLIC	??1?$basic_string@DU?$char_traits@D@std@@V?$allocator@D@2@@std@@QEAA@XZ ; std::basic_string<char,std::char_traits<char>,std::allocator<char> >::~basic_string<char,std::char_traits<char>,std::allocator<char> >
PUBLIC	??4?$basic_string@DU?$char_traits@D@std@@V?$allocator@D@2@@std@@QEAAAEAV01@QEBD@Z ; std::basic_string<char,std::char_traits<char>,std::allocator<char> >::operator=
PUBLIC	?assign@?$basic_string@DU?$char_traits@D@std@@V?$allocator@D@2@@std@@QEAAAEAV12@QEBD@Z ; std::basic_string<char,std::char_traits<char>,std::allocator<char> >::assign
PUBLIC	?max_size@?$basic_string@DU?$char_traits@D@std@@V?$allocator@D@2@@std@@QEBA_KXZ ; std::basic_string<char,std::char_traits<char>,std::allocator<char> >::max_size
PUBLIC	?_Equal@?$basic_string@DU?$char_traits@D@std@@V?$allocator@D@2@@std@@QEBA_NQEBD@Z ; std::basic_string<char,std::char_traits<char>,std::allocator<char> >::_Equal
PUBLIC	?_Calculate_growth@?$basic_string@DU?$char_traits@D@std@@V?$allocator@D@2@@std@@CA_K_K00@Z ; std::basic_string<char,std::char_traits<char>,std::allocator<char> >::_Calculate_growth
PUBLIC	?_Calculate_growth@?$basic_string@DU?$char_traits@D@std@@V?$allocator@D@2@@std@@AEBA_K_K@Z ; std::basic_string<char,std::char_traits<char>,std::allocator<char> >::_Calculate_growth
PUBLIC	?_Tidy_deallocate@?$basic_string@DU?$char_traits@D@std@@V?$allocator@D@2@@std@@AEAAXXZ ; std::basic_string<char,std::char_traits<char>,std::allocator<char> >::_Tidy_deallocate
PUBLIC	?_Getal@?$basic_string@DU?$char_traits@D@std@@V?$allocator@D@2@@std@@AEAAAEAV?$allocator@D@2@XZ ; std::basic_string<char,std::char_traits<char>,std::allocator<char> >::_Getal
PUBLIC	?_Getal@?$basic_string@DU?$char_traits@D@std@@V?$allocator@D@2@@std@@AEBAAEBV?$allocator@D@2@XZ ; std::basic_string<char,std::char_traits<char>,std::allocator<char> >::_Getal
PUBLIC	?_Get_first@?$_Compressed_pair@V?$allocator@D@std@@V?$_String_val@U?$_Simple_types@D@std@@@2@$00@std@@QEAAAEAV?$allocator@D@2@XZ ; std::_Compressed_pair<std::allocator<char>,std::_String_val<std::_Simple_types<char> >,1>::_Get_first
PUBLIC	?_Get_first@?$_Compressed_pair@V?$allocator@D@std@@V?$_String_val@U?$_Simple_types@D@std@@@2@$00@std@@QEBAAEBV?$allocator@D@2@XZ ; std::_Compressed_pair<std::allocator<char>,std::_String_val<std::_Simple_types<char> >,1>::_Get_first
PUBLIC	??1?$_Compressed_pair@V?$allocator@D@std@@V?$_String_val@U?$_Simple_types@D@std@@@2@$00@std@@QEAA@XZ ; std::_Compressed_pair<std::allocator<char>,std::_String_val<std::_Simple_types<char> >,1>::~_Compressed_pair<std::allocator<char>,std::_String_val<std::_Simple_types<char> >,1>
PUBLIC	??HVector3@@QEBA?AU0@AEBU0@@Z			; Vector3::operator+
PUBLIC	??GVector3@@QEBA?AU0@AEBU0@@Z			; Vector3::operator-
PUBLIC	??DVector3@@QEBA?AU0@M@Z			; Vector3::operator*
PUBLIC	?length@Vector3@@QEBAMXZ			; Vector3::length
PUBLIC	?normalize@Vector3@@QEBA?AU1@XZ			; Vector3::normalize
PUBLIC	?Cross@Vector3@@SA?AU1@AEBU1@0@Z		; Vector3::Cross
PUBLIC	??0Vector3@@QEAA@MMM@Z				; Vector3::Vector3
PUBLIC	??0Quaternion@@QEAA@XZ				; Quaternion::Quaternion
PUBLIC	??0Quaternion@@QEAA@MMMM@Z			; Quaternion::Quaternion
PUBLIC	?fromAxisAngle@Quaternion@@SA?AU1@AEBUVector3@@M@Z ; Quaternion::fromAxisAngle
PUBLIC	??DQuaternion@@QEBA?AU0@AEBU0@@Z		; Quaternion::operator*
PUBLIC	?rotate@Quaternion@@QEBA?AUVector3@@AEBU2@@Z	; Quaternion::rotate
PUBLIC	?getRight@Quaternion@@QEBA?AUVector3@@XZ	; Quaternion::getRight
PUBLIC	?getUp@Quaternion@@QEBA?AUVector3@@XZ		; Quaternion::getUp
PUBLIC	?getForward@Quaternion@@QEBA?AUVector3@@XZ	; Quaternion::getForward
PUBLIC	?Slerp@Quaternion@@SA?AU1@AEBU1@0M@Z		; Quaternion::Slerp
PUBLIC	?_Maklocwcs@std@@YAPEA_WPEB_W@Z			; std::_Maklocwcs
PUBLIC	??$_Max_limit@_J@std@@YA_JXZ			; std::_Max_limit<__int64>
PUBLIC	??$_Getvals@_W@?$time_get@DV?$istreambuf_iterator@DU?$char_traits@D@std@@@std@@@std@@IEAAX_WAEBV_Locinfo@1@@Z ; std::time_get<char,std::istreambuf_iterator<char,std::char_traits<char> > >::_Getvals<wchar_t>
PUBLIC	??$_Getvals@_W@?$time_get@_WV?$istreambuf_iterator@_WU?$char_traits@_W@std@@@std@@@std@@IEAAX_WAEBV_Locinfo@1@@Z ; std::time_get<wchar_t,std::istreambuf_iterator<wchar_t,std::char_traits<wchar_t> > >::_Getvals<wchar_t>
PUBLIC	??0_Sentry_base@?$basic_ostream@DU?$char_traits@D@std@@@std@@QEAA@AEAV12@@Z ; std::basic_ostream<char,std::char_traits<char> >::_Sentry_base::_Sentry_base
PUBLIC	??1_Sentry_base@?$basic_ostream@DU?$char_traits@D@std@@@std@@QEAA@XZ ; std::basic_ostream<char,std::char_traits<char> >::_Sentry_base::~_Sentry_base
PUBLIC	??0sentry@?$basic_ostream@DU?$char_traits@D@std@@@std@@QEAA@AEAV12@@Z ; std::basic_ostream<char,std::char_traits<char> >::sentry::sentry
PUBLIC	??1sentry@?$basic_ostream@DU?$char_traits@D@std@@@std@@QEAA@XZ ; std::basic_ostream<char,std::char_traits<char> >::sentry::~sentry
PUBLIC	??Bsentry@?$basic_ostream@DU?$char_traits@D@std@@@std@@QEBA_NXZ ; std::basic_ostream<char,std::char_traits<char> >::sentry::operator bool
PUBLIC	??0CFrame@@QEAA@AEBUVector3@@AEBUQuaternion@@@Z	; CFrame::CFrame
PUBLIC	??0CFrame@@QEAA@AEBUVector3@@@Z			; CFrame::CFrame
PUBLIC	??0CFrame@@QEAA@MMM@Z				; CFrame::CFrame
PUBLIC	?fromAxisAngle@CFrame@@SA?AU1@UVector3@@M@Z	; CFrame::fromAxisAngle
PUBLIC	??DCFrame@@QEBA?AU0@AEBU0@@Z			; CFrame::operator*
PUBLIC	??0Spatial@@QEAA@UVector3@@0V?$basic_string@DU?$char_traits@D@std@@V?$allocator@D@2@@std@@@Z ; Spatial::Spatial
PUBLIC	?GetClassName@Spatial@@UEAA?AV?$basic_string@DU?$char_traits@D@std@@V?$allocator@D@2@@std@@XZ ; Spatial::GetClassName
PUBLIC	??1Spatial@@UEAA@XZ				; Spatial::~Spatial
PUBLIC	??_GSpatial@@UEAAPEAXI@Z			; Spatial::`scalar deleting destructor'
PUBLIC	??0Color4@@QEAA@MMMM@Z				; Color4::Color4
PUBLIC	?FromRGB@Color4@@SA?AU1@HHHM@Z			; Color4::FromRGB
PUBLIC	??0?$PxVec3T@M@physx@@QEAA@MMM@Z		; physx::PxVec3T<float>::PxVec3T<float>
PUBLIC	??0?$PxQuatT@M@physx@@QEAA@MMMM@Z		; physx::PxQuatT<float>::PxQuatT<float>
PUBLIC	??4?$PxQuatT@M@physx@@QEAAAEAV01@AEBV01@@Z	; physx::PxQuatT<float>::operator=
PUBLIC	?FLoad@aos@physx@@YA?AT__m128@@M@Z		; physx::aos::FLoad
PUBLIC	?V3Load@aos@physx@@YA?AT__m128@@M@Z		; physx::aos::V3Load
PUBLIC	?V4Load@aos@physx@@YA?AT__m128@@M@Z		; physx::aos::V4Load
PUBLIC	?name@?$PxTypeInfo@VPxRigidDynamic@physx@@@physx@@SAPEBDXZ ; physx::PxTypeInfo<physx::PxRigidDynamic>::name
PUBLIC	?getConcreteType@PxBase@physx@@QEBAGXZ		; physx::PxBase::getConcreteType
PUBLIC	??Uphysx@@YA?AV?$PxFlags@W4Enum@PxRigidDynamicLockFlag@physx@@E@0@W4Enum@PxRigidDynamicLockFlag@0@0@Z ; physx::operator|
PUBLIC	??0?$PxFlags@W4Enum@PxRigidDynamicLockFlag@physx@@E@physx@@QEAA@W4Enum@PxRigidDynamicLockFlag@1@@Z ; physx::PxFlags<enum physx::PxRigidDynamicLockFlag::Enum,unsigned char>::PxFlags<enum physx::PxRigidDynamicLockFlag::Enum,unsigned char>
PUBLIC	??0?$PxFlags@W4Enum@PxRigidDynamicLockFlag@physx@@E@physx@@QEAA@AEBV01@@Z ; physx::PxFlags<enum physx::PxRigidDynamicLockFlag::Enum,unsigned char>::PxFlags<enum physx::PxRigidDynamicLockFlag::Enum,unsigned char>
PUBLIC	??4?$PxFlags@W4Enum@PxRigidDynamicLockFlag@physx@@E@physx@@QEAAAEAV01@AEBV01@@Z ; physx::PxFlags<enum physx::PxRigidDynamicLockFlag::Enum,unsigned char>::operator=
PUBLIC	??_5?$PxFlags@W4Enum@PxRigidDynamicLockFlag@physx@@E@physx@@QEAAAEAV01@W4Enum@PxRigidDynamicLockFlag@1@@Z ; physx::PxFlags<enum physx::PxRigidDynamicLockFlag::Enum,unsigned char>::operator|=
PUBLIC	??0Model@@QEAA@UVector3@@0@Z			; Model::Model
PUBLIC	?GetClassName@Model@@UEAA?AV?$basic_string@DU?$char_traits@D@std@@V?$allocator@D@2@@std@@XZ ; Model::GetClassName
PUBLIC	?IsA@Model@@UEAA_NV?$basic_string@DU?$char_traits@D@std@@V?$allocator@D@2@@std@@@Z ; Model::IsA
PUBLIC	??1Model@@UEAA@XZ				; Model::~Model
PUBLIC	??_GModel@@UEAAPEAXI@Z				; Model::`scalar deleting destructor'
PUBLIC	??$?8DU?$char_traits@D@std@@V?$allocator@D@1@@std@@YA_NAEBV?$basic_string@DU?$char_traits@D@std@@V?$allocator@D@2@@0@QEBD@Z ; std::operator==<char,std::char_traits<char>,std::allocator<char> >
PUBLIC	??0camera@@QEAA@XZ				; camera::camera
PUBLIC	??0User@@QEAA@PEAUGLFWwindow@@@Z		; User::User
PUBLIC	??1User@@QEAA@XZ				; User::~User
PUBLIC	?updateVectors@User@@QEAAXXZ			; User::updateVectors
PUBLIC	?processInput@User@@QEAAXXZ			; User::processInput
PUBLIC	?spawnCharacter@User@@QEAAXXZ			; User::spawnCharacter
PUBLIC	??$?6U?$char_traits@D@std@@@std@@YAAEAV?$basic_ostream@DU?$char_traits@D@std@@@0@AEAV10@PEBD@Z ; std::operator<<<std::char_traits<char> >
PUBLIC	??$endl@DU?$char_traits@D@std@@@std@@YAAEAV?$basic_ostream@DU?$char_traits@D@std@@@0@AEAV10@@Z ; std::endl<char,std::char_traits<char> >
PUBLIC	??$is@VPxRigidDynamic@physx@@@PxBase@physx@@QEAAPEAVPxRigidDynamic@1@XZ ; physx::PxBase::is<physx::PxRigidDynamic>
PUBLIC	??$typeMatch@VPxRigidDynamic@physx@@@PxBase@physx@@IEBA_NXZ ; physx::PxBase::typeMatch<physx::PxRigidDynamic>
PUBLIC	??$_Unfancy@D@std@@YAPEADPEAD@Z			; std::_Unfancy<char>
PUBLIC	??$_Convert_size@_K_K@std@@YA_K_K@Z		; std::_Convert_size<unsigned __int64,unsigned __int64>
PUBLIC	??$?0V?$allocator@D@std@@$$V@?$_Compressed_pair@V?$allocator@D@std@@V?$_String_val@U?$_Simple_types@D@std@@@2@$00@std@@QEAA@U_One_then_variadic_args_t@1@$$QEAV?$allocator@D@1@@Z ; std::_Compressed_pair<std::allocator<char>,std::_String_val<std::_Simple_types<char> >,1>::_Compressed_pair<std::allocator<char>,std::_String_val<std::_Simple_types<char> >,1><std::allocator<char> >
PUBLIC	??$_Get_proxy_allocator@V?$allocator@D@std@@@std@@YA?AU_Fake_allocator@0@AEBV?$allocator@D@0@@Z ; std::_Get_proxy_allocator<std::allocator<char> >
PUBLIC	??$?0$$V@?$_Compressed_pair@V?$allocator@D@std@@V?$_String_val@U?$_Simple_types@D@std@@@2@$00@std@@QEAA@U_Zero_then_variadic_args_t@1@@Z ; std::_Compressed_pair<std::allocator<char>,std::_String_val<std::_Simple_types<char> >,1>::_Compressed_pair<std::allocator<char>,std::_String_val<std::_Simple_types<char> >,1><>
PUBLIC	??$_Construct@$00PEBD@?$basic_string@DU?$char_traits@D@std@@V?$allocator@D@2@@std@@AEAAXQEBD_K@Z ; std::basic_string<char,std::char_traits<char>,std::allocator<char> >::_Construct<1,char const *>
PUBLIC	??$_Construct@$01PEBD@?$basic_string@DU?$char_traits@D@std@@V?$allocator@D@2@@std@@AEAAXQEBD_K@Z ; std::basic_string<char,std::char_traits<char>,std::allocator<char> >::_Construct<2,char const *>
PUBLIC	??$_Allocate_for_capacity@$0A@@?$basic_string@DU?$char_traits@D@std@@V?$allocator@D@2@@std@@CAPEADAEAV?$allocator@D@1@AEA_K@Z ; std::basic_string<char,std::char_traits<char>,std::allocator<char> >::_Allocate_for_capacity<0>
PUBLIC	??$_Allocate_at_least_helper@V?$allocator@D@std@@@std@@YAPEADAEAV?$allocator@D@0@AEA_K@Z ; std::_Allocate_at_least_helper<std::allocator<char> >
PUBLIC	??$construct_at@D$$V@std@@YAPEADQEAD@Z		; std::construct_at<char>
PUBLIC	??$_Construct_in_place@PEADAEBQEAD@std@@YAXAEAPEADAEBQEAD@Z ; std::_Construct_in_place<char *,char * const &>
PUBLIC	??$max@_K@std@@YAAEB_KAEB_K0@Z			; std::max<unsigned __int64>
PUBLIC	??$_Traits_move_batch@U?$char_traits@D@std@@D@std@@YAXQEADQEBD_K@Z ; std::_Traits_move_batch<std::char_traits<char>,char>
PUBLIC	??$_Traits_copy_batch@U?$char_traits@D@std@@D@std@@YAXQEADQEBD_K@Z ; std::_Traits_copy_batch<std::char_traits<char>,char>
PUBLIC	??$forward@V?$allocator@D@std@@@std@@YA$$QEAV?$allocator@D@0@AEAV10@@Z ; std::forward<std::allocator<char> >
PUBLIC	??$addressof@V?$basic_ostream@DU?$char_traits@D@std@@@std@@@std@@YAPEAV?$basic_ostream@DU?$char_traits@D@std@@@0@AEAV10@@Z ; std::addressof<std::basic_ostream<char,std::char_traits<char> > >
PUBLIC	??$_Traits_equal@U?$char_traits@D@std@@@std@@YA_NQEBD_K01@Z ; std::_Traits_equal<std::char_traits<char> >
PUBLIC	??$_Assign@D@?$basic_string@DU?$char_traits@D@std@@V?$allocator@D@2@@std@@AEAAAEAV01@QEBD_K@Z ; std::basic_string<char,std::char_traits<char>,std::allocator<char> >::_Assign<char>
PUBLIC	??$addressof@PEAD@std@@YAPEAPEADAEAPEAD@Z	; std::addressof<char *>
PUBLIC	??$forward@AEBQEAD@std@@YAAEBQEADAEBQEAD@Z	; std::forward<char * const &>
PUBLIC	??$construct_at@PEADAEBQEAD@std@@YAPEAPEADQEAPEADAEBQEAD@Z ; std::construct_at<char *,char * const &>
PUBLIC	??R<lambda_1>@?1???$_Assign@D@?$basic_string@DU?$char_traits@D@std@@V?$allocator@D@2@@std@@AEAAAEAV12@QEBD_K@Z@SA@QEAD10@Z ; `std::basic_string<char,std::char_traits<char>,std::allocator<char> >::_Assign<char>'::`2'::<lambda_1>::operator()
PUBLIC	??$_Reallocate_for@V<lambda_1>@?1???$_Assign@D@?$basic_string@DU?$char_traits@D@std@@V?$allocator@D@2@@std@@AEAAAEAV23@QEBD_K@Z@PEBD@?$basic_string@DU?$char_traits@D@std@@V?$allocator@D@2@@std@@AEAAAEAV01@_KV<lambda_1>@?1???$_Assign@D@01@AEAAAEAV01@QEBD0@Z@PEBD@Z ; std::basic_string<char,std::char_traits<char>,std::allocator<char> >::_Reallocate_for<`std::basic_string<char,std::char_traits<char>,std::allocator<char> >::_Assign<char>'::`2'::<lambda_1>,char const *>
PUBLIC	??$_Destroy_in_place@PEAD@std@@YAXAEAPEAD@Z	; std::_Destroy_in_place<char *>
PUBLIC	??$_Allocate@$0BA@U_Default_allocate_traits@std@@@std@@YAPEAX_K@Z ; std::_Allocate<16,std::_Default_allocate_traits>
PUBLIC	??$_Deallocate@$0BA@@std@@YAXPEAX_K@Z		; std::_Deallocate<16>
PUBLIC	??$_Get_size_of_n@$00@std@@YA_K_K@Z		; std::_Get_size_of_n<1>
PUBLIC	??$_Allocate_manually_vector_aligned@U_Default_allocate_traits@std@@@std@@YAPEAX_K@Z ; std::_Allocate_manually_vector_aligned<std::_Default_allocate_traits>
PUBLIC	??_7exception@std@@6B@				; std::exception::`vftable'
PUBLIC	??_C@_0BC@EOODALEL@Unknown?5exception@		; `string'
PUBLIC	??_7bad_alloc@std@@6B@				; std::bad_alloc::`vftable'
PUBLIC	??_7bad_array_new_length@std@@6B@		; std::bad_array_new_length::`vftable'
PUBLIC	??_C@_0BF@KINCDENJ@bad?5array?5new?5length@	; `string'
PUBLIC	??_R0?AVexception@std@@@8			; std::exception `RTTI Type Descriptor'
PUBLIC	_CT??_R0?AVexception@std@@@8??0exception@std@@QEAA@AEBV01@@Z24
PUBLIC	_TI3?AVbad_array_new_length@std@@
PUBLIC	_CTA3?AVbad_array_new_length@std@@
PUBLIC	??_R0?AVbad_array_new_length@std@@@8		; std::bad_array_new_length `RTTI Type Descriptor'
PUBLIC	_CT??_R0?AVbad_array_new_length@std@@@8??0bad_array_new_length@std@@QEAA@AEBV01@@Z24
PUBLIC	??_R0?AVbad_alloc@std@@@8			; std::bad_alloc `RTTI Type Descriptor'
PUBLIC	_CT??_R0?AVbad_alloc@std@@@8??0bad_alloc@std@@QEAA@AEBV01@@Z24
PUBLIC	??_C@_0BA@JFNIOLAK@string?5too?5long@		; `string'
PUBLIC	??_C@_02KEGNLNML@?0?5@				; `string'
PUBLIC	??_7Spatial@@6B@				; Spatial::`vftable'
PUBLIC	??_C@_07KEJFKDFN@Spatial@			; `string'
PUBLIC	??_C@_0P@HECNJDHO@PxRigidDynamic@		; `string'
PUBLIC	??_7Model@@6B@					; Model::`vftable'
PUBLIC	??_C@_05NFIJOKEG@Model@				; `string'
PUBLIC	??_C@_0DA@MEOPJHDA@User?5Destructor?3?5Cleaning?5up?5or@ ; `string'
PUBLIC	??_C@_0O@DFEEAMDI@?$FLRCBN_DEBUG?$FN?5@		; `string'
PUBLIC	??_C@_0EJ@CEKEGHCO@User?5Destructor?3?5Character?5is?5o@ ; `string'
PUBLIC	??_C@_0BI@IIFFLJEA@Control?5Mode?3?5Character@	; `string'
PUBLIC	??_C@_0BD@PEHIFBAP@Control?5Mode?3?5Free@	; `string'
PUBLIC	??_C@_02MNMNLDAI@?$CJ?6@			; `string'
PUBLIC	??_C@_0BD@OMPOOLFM@Camera?5Position?3?5?$CI@	; `string'
PUBLIC	??_C@_0BN@ODBIAHJF@Character?5?$CIRoot?$CJ?5Position?3?5?$CI@ ; `string'
PUBLIC	??_C@_04BAJDEDPD@Root@				; `string'
PUBLIC	??_C@_04BFCCBDOP@Head@				; `string'
PUBLIC	??_C@_05LHKEDNFH@Torso@				; `string'
PUBLIC	??_C@_07ELBAKILC@LeftArm@			; `string'
PUBLIC	??_C@_08IIJMBGOO@RightArm@			; `string'
PUBLIC	??_C@_07FKPMCNBA@LeftLeg@			; `string'
PUBLIC	??_C@_08JJHAJDEM@RightLeg@			; `string'
PUBLIC	??_C@_0BG@ONKMLAAM@Spawning?5character?4?4?4@	; `string'
PUBLIC	??_C@_1BK@MHIKGOKE@?$AA?3?$AAA?$AAM?$AA?3?$AAa?$AAm?$AA?3?$AAP?$AAM?$AA?3?$AAp?$AAm@ ; `string'
PUBLIC	??_R4exception@std@@6B@				; std::exception::`RTTI Complete Object Locator'
PUBLIC	??_R3exception@std@@8				; std::exception::`RTTI Class Hierarchy Descriptor'
PUBLIC	??_R2exception@std@@8				; std::exception::`RTTI Base Class Array'
PUBLIC	??_R1A@?0A@EA@exception@std@@8			; std::exception::`RTTI Base Class Descriptor at (0,-1,0,64)'
PUBLIC	??_R4bad_array_new_length@std@@6B@		; std::bad_array_new_length::`RTTI Complete Object Locator'
PUBLIC	??_R3bad_array_new_length@std@@8		; std::bad_array_new_length::`RTTI Class Hierarchy Descriptor'
PUBLIC	??_R2bad_array_new_length@std@@8		; std::bad_array_new_length::`RTTI Base Class Array'
PUBLIC	??_R1A@?0A@EA@bad_array_new_length@std@@8	; std::bad_array_new_length::`RTTI Base Class Descriptor at (0,-1,0,64)'
PUBLIC	??_R1A@?0A@EA@bad_alloc@std@@8			; std::bad_alloc::`RTTI Base Class Descriptor at (0,-1,0,64)'
PUBLIC	??_R3bad_alloc@std@@8				; std::bad_alloc::`RTTI Class Hierarchy Descriptor'
PUBLIC	??_R2bad_alloc@std@@8				; std::bad_alloc::`RTTI Base Class Array'
PUBLIC	??_R4bad_alloc@std@@6B@				; std::bad_alloc::`RTTI Complete Object Locator'
PUBLIC	??_R4Spatial@@6B@				; Spatial::`RTTI Complete Object Locator'
PUBLIC	??_R0?AVSpatial@@@8				; Spatial `RTTI Type Descriptor'
PUBLIC	??_R3Spatial@@8					; Spatial::`RTTI Class Hierarchy Descriptor'
PUBLIC	??_R2Spatial@@8					; Spatial::`RTTI Base Class Array'
PUBLIC	??_R1A@?0A@EA@Spatial@@8			; Spatial::`RTTI Base Class Descriptor at (0,-1,0,64)'
PUBLIC	??_R1A@?0A@EA@Instance@@8			; Instance::`RTTI Base Class Descriptor at (0,-1,0,64)'
PUBLIC	??_R0?AVInstance@@@8				; Instance `RTTI Type Descriptor'
PUBLIC	??_R3Instance@@8				; Instance::`RTTI Class Hierarchy Descriptor'
PUBLIC	??_R2Instance@@8				; Instance::`RTTI Base Class Array'
PUBLIC	??_R4Model@@6B@					; Model::`RTTI Complete Object Locator'
PUBLIC	??_R0?AVModel@@@8				; Model `RTTI Type Descriptor'
PUBLIC	??_R3Model@@8					; Model::`RTTI Class Hierarchy Descriptor'
PUBLIC	??_R2Model@@8					; Model::`RTTI Base Class Array'
PUBLIC	??_R1A@?0A@EA@Model@@8				; Model::`RTTI Base Class Descriptor at (0,-1,0,64)'
PUBLIC	__real@3c23d70a
PUBLIC	__real@3c567750
PUBLIC	__real@3e19999a
PUBLIC	__real@3f000000
PUBLIC	__real@3f7fdf3b
PUBLIC	__real@3f800000
PUBLIC	__real@40000000
PUBLIC	__real@40490fdb
PUBLIC	__real@40a00000
PUBLIC	__real@41200000
PUBLIC	__real@420c0000
PUBLIC	__real@43340000
PUBLIC	__real@437f0000
PUBLIC	__real@bc567750
PUBLIC	__real@c0000000
PUBLIC	__xmm@000000003a83126f3a83126f3a83126f
PUBLIC	__xmm@00000000ba83126fba83126fba83126f
PUBLIC	__xmm@3a83126f3a83126f3a83126f3a83126f
PUBLIC	__xmm@3f80000000000000000000003f000000
PUBLIC	__xmm@3f8000000000000000000000bf000000
PUBLIC	__xmm@3f800000000000003f80000000000000
PUBLIC	__xmm@3f80000000000000400000003fc00000
PUBLIC	__xmm@3f8000000000000040000000bfc00000
PUBLIC	__xmm@3f800000000000004020000000000000
PUBLIC	__xmm@3f80000000000000bf80000000000000
PUBLIC	__xmm@80000000800000008000000080000000
PUBLIC	__xmm@ba83126fba83126fba83126fba83126f
EXTRN	??2@YAPEAX_K@Z:PROC				; operator new
EXTRN	??3@YAXPEAX_K@Z:PROC				; operator delete
EXTRN	__std_terminate:PROC
EXTRN	__imp_calloc:PROC
EXTRN	?_Xbad_alloc@std@@YAXXZ:PROC			; std::_Xbad_alloc
EXTRN	?_Xlength_error@std@@YAXPEBD@Z:PROC		; std::_Xlength_error
EXTRN	?uncaught_exceptions@std@@YAHXZ:PROC		; std::uncaught_exceptions
EXTRN	__std_exception_copy:PROC
EXTRN	__std_exception_destroy:PROC
EXTRN	??_Eexception@std@@UEAAPEAXI@Z:PROC		; std::exception::`vector deleting destructor'
EXTRN	??_Ebad_alloc@std@@UEAAPEAXI@Z:PROC		; std::bad_alloc::`vector deleting destructor'
EXTRN	??_Ebad_array_new_length@std@@UEAAPEAXI@Z:PROC	; std::bad_array_new_length::`vector deleting destructor'
EXTRN	__imp_?_Getcvt@_Locinfo@std@@QEBA?AU_Cvtvec@@XZ:PROC
EXTRN	__imp_?_W_Getdays@_Locinfo@std@@QEBAPEBGXZ:PROC
EXTRN	__imp_?_W_Getmonths@_Locinfo@std@@QEBAPEBGXZ:PROC
EXTRN	__imp_?good@ios_base@std@@QEBA_NXZ:PROC
EXTRN	__imp_?flags@ios_base@std@@QEBAHXZ:PROC
EXTRN	__imp_?width@ios_base@std@@QEBA_JXZ:PROC
EXTRN	__imp_?width@ios_base@std@@QEAA_J_J@Z:PROC
EXTRN	__imp_?sputc@?$basic_streambuf@DU?$char_traits@D@std@@@std@@QEAAHD@Z:PROC
EXTRN	__imp_?sputn@?$basic_streambuf@DU?$char_traits@D@std@@@std@@QEAA_JPEBD_J@Z:PROC
EXTRN	__imp_?setstate@?$basic_ios@DU?$char_traits@D@std@@@std@@QEAAXH_N@Z:PROC
EXTRN	__imp_?tie@?$basic_ios@DU?$char_traits@D@std@@@std@@QEBAPEAV?$basic_ostream@DU?$char_traits@D@std@@@2@XZ:PROC
EXTRN	__imp_?rdbuf@?$basic_ios@DU?$char_traits@D@std@@@std@@QEBAPEAV?$basic_streambuf@DU?$char_traits@D@std@@@2@XZ:PROC
EXTRN	__imp_?fill@?$basic_ios@DU?$char_traits@D@std@@@std@@QEBADXZ:PROC
EXTRN	__imp_?widen@?$basic_ios@DU?$char_traits@D@std@@@std@@QEBADD@Z:PROC
EXTRN	__imp_?_Osfx@?$basic_ostream@DU?$char_traits@D@std@@@std@@QEAAXXZ:PROC
EXTRN	__imp_??6?$basic_ostream@DU?$char_traits@D@std@@@std@@QEAAAEAV01@P6AAEAV01@AEAV01@@Z@Z:PROC
EXTRN	__imp_??6?$basic_ostream@DU?$char_traits@D@std@@@std@@QEAAAEAV01@M@Z:PROC
EXTRN	__imp_?put@?$basic_ostream@DU?$char_traits@D@std@@@std@@QEAAAEAV12@D@Z:PROC
EXTRN	__imp_?flush@?$basic_ostream@DU?$char_traits@D@std@@@std@@QEAAAEAV12@XZ:PROC
EXTRN	?onAncestorChanged@Instance@@UEAAXXZ:PROC	; Instance::onAncestorChanged
EXTRN	?setParent@Instance@@UEAAXPEAV1@@Z:PROC		; Instance::setParent
EXTRN	??0Instance@@QEAA@V?$basic_string@DU?$char_traits@D@std@@V?$allocator@D@2@@std@@@Z:PROC ; Instance::Instance
EXTRN	?addChild@Instance@@UEAAXPEAV1@@Z:PROC		; Instance::addChild
EXTRN	??1Instance@@UEAA@XZ:PROC			; Instance::~Instance
EXTRN	?IsA@Spatial@@UEAA_NV?$basic_string@DU?$char_traits@D@std@@V?$allocator@D@2@@std@@@Z:PROC ; Spatial::IsA
EXTRN	??_ESpatial@@UEAAPEAXI@Z:PROC			; Spatial::`vector deleting destructor'
EXTRN	??_EModel@@UEAAPEAXI@Z:PROC			; Model::`vector deleting destructor'
EXTRN	??0Cube@@QEAA@UVector3@@0I@Z:PROC		; Cube::Cube
EXTRN	glfwGetKey:PROC
EXTRN	_CxxThrowException:PROC
EXTRN	__CxxFrameHandler4:PROC
EXTRN	__GSHandlerCheck:PROC
EXTRN	__GSHandlerCheck_EH4:PROC
EXTRN	__security_check_cookie:PROC
EXTRN	acosf:PROC
EXTRN	atan2f:PROC
EXTRN	cosf:PROC
EXTRN	fmodf:PROC
EXTRN	memcmp:PROC
EXTRN	memcpy:PROC
EXTRN	memmove:PROC
EXTRN	sinf:PROC
EXTRN	sqrtf:PROC
EXTRN	strlen:PROC
EXTRN	wcslen:PROC
EXTRN	??_7type_info@@6B@:BYTE				; type_info::`vftable'
EXTRN	__imp_?cout@std@@3V?$basic_ostream@DU?$char_traits@D@std@@@1@A:BYTE
EXTRN	__security_cookie:QWORD
EXTRN	_fltused:DWORD
_BSS	SEGMENT
?minFError@vecMathTests@aos@physx@@3T__m128@@B DB 010H DUP (?) ; physx::aos::vecMathTests::minFError
?maxFError@vecMathTests@aos@physx@@3T__m128@@B DB 010H DUP (?) ; physx::aos::vecMathTests::maxFError
?minV3Error@vecMathTests@aos@physx@@3T__m128@@B DB 010H DUP (?) ; physx::aos::vecMathTests::minV3Error
?maxV3Error@vecMathTests@aos@physx@@3T__m128@@B DB 010H DUP (?) ; physx::aos::vecMathTests::maxV3Error
?minV4Error@vecMathTests@aos@physx@@3T__m128@@B DB 010H DUP (?) ; physx::aos::vecMathTests::minV4Error
?maxV4Error@vecMathTests@aos@physx@@3T__m128@@B DB 010H DUP (?) ; physx::aos::vecMathTests::maxV4Error
_BSS	ENDS
;	COMDAT pdata
pdata	SEGMENT
$pdata$??_H@YAXPEAX_K1P6APEAX0@Z@Z DD imagerel $LN14
	DD	imagerel $LN14+55
	DD	imagerel $unwind$??_H@YAXPEAX_K1P6APEAX0@Z@Z
pdata	ENDS
;	COMDAT pdata
pdata	SEGMENT
$pdata$?copy@?$_Char_traits@DH@std@@SAPEADQEADQEBD_K@Z DD imagerel $LN20
	DD	imagerel $LN20+23
	DD	imagerel $unwind$?copy@?$_Char_traits@DH@std@@SAPEADQEADQEBD_K@Z
pdata	ENDS
;	COMDAT pdata
pdata	SEGMENT
$pdata$?move@?$_Char_traits@DH@std@@SAPEADQEADQEBD_K@Z DD imagerel $LN40
	DD	imagerel $LN40+23
	DD	imagerel $unwind$?move@?$_Char_traits@DH@std@@SAPEADQEADQEBD_K@Z
pdata	ENDS
;	COMDAT pdata
pdata	SEGMENT
$pdata$??0exception@std@@QEAA@AEBV01@@Z DD imagerel $LN6
	DD	imagerel $LN6+50
	DD	imagerel $unwind$??0exception@std@@QEAA@AEBV01@@Z
pdata	ENDS
;	COMDAT pdata
pdata	SEGMENT
$pdata$??_Gexception@std@@UEAAPEAXI@Z DD imagerel $LN12
	DD	imagerel $LN12+66
	DD	imagerel $unwind$??_Gexception@std@@UEAAPEAXI@Z
pdata	ENDS
;	COMDAT pdata
pdata	SEGMENT
$pdata$??0bad_alloc@std@@QEAA@AEBV01@@Z DD imagerel $LN9
	DD	imagerel $LN9+60
	DD	imagerel $unwind$??0bad_alloc@std@@QEAA@AEBV01@@Z
pdata	ENDS
;	COMDAT pdata
pdata	SEGMENT
$pdata$??_Gbad_alloc@std@@UEAAPEAXI@Z DD imagerel $LN17
	DD	imagerel $LN17+66
	DD	imagerel $unwind$??_Gbad_alloc@std@@UEAAPEAXI@Z
pdata	ENDS
;	COMDAT pdata
pdata	SEGMENT
$pdata$??0bad_array_new_length@std@@QEAA@AEBV01@@Z DD imagerel $LN14
	DD	imagerel $LN14+60
	DD	imagerel $unwind$??0bad_array_new_length@std@@QEAA@AEBV01@@Z
pdata	ENDS
;	COMDAT pdata
pdata	SEGMENT
$pdata$??_Gbad_array_new_length@std@@UEAAPEAXI@Z DD imagerel $LN22
	DD	imagerel $LN22+66
	DD	imagerel $unwind$??_Gbad_array_new_length@std@@UEAAPEAXI@Z
pdata	ENDS
;	COMDAT pdata
pdata	SEGMENT
$pdata$?_Throw_bad_array_new_length@std@@YAXXZ DD imagerel $LN4
	DD	imagerel $LN4+32
	DD	imagerel $unwind$?_Throw_bad_array_new_length@std@@YAXXZ
pdata	ENDS
;	COMDAT pdata
pdata	SEGMENT
$pdata$?_Xlen_string@std@@YAXXZ DD imagerel $LN4
	DD	imagerel $LN4+17
	DD	imagerel $unwind$?_Xlen_string@std@@YAXXZ
pdata	ENDS
;	COMDAT pdata
pdata	SEGMENT
$pdata$?allocate@?$allocator@D@std@@QEAAPEAD_K@Z DD imagerel $LN23
	DD	imagerel $LN23+89
	DD	imagerel $unwind$?allocate@?$allocator@D@std@@QEAAPEAD_K@Z
pdata	ENDS
;	COMDAT pdata
pdata	SEGMENT
$pdata$??0?$basic_string@DU?$char_traits@D@std@@V?$allocator@D@2@@std@@QEAA@AEBV01@@Z DD imagerel $LN126
	DD	imagerel $LN126+267
	DD	imagerel $unwind$??0?$basic_string@DU?$char_traits@D@std@@V?$allocator@D@2@@std@@QEAA@AEBV01@@Z
pdata	ENDS
;	COMDAT pdata
pdata	SEGMENT
$pdata$??0?$basic_string@DU?$char_traits@D@std@@V?$allocator@D@2@@std@@QEAA@QEBD@Z DD imagerel $LN21
	DD	imagerel $LN21+68
	DD	imagerel $unwind$??0?$basic_string@DU?$char_traits@D@std@@V?$allocator@D@2@@std@@QEAA@QEBD@Z
pdata	ENDS
;	COMDAT pdata
pdata	SEGMENT
$pdata$??4?$basic_string@DU?$char_traits@D@std@@V?$allocator@D@2@@std@@QEAAAEAV01@QEBD@Z DD imagerel $LN10
	DD	imagerel $LN10+48
	DD	imagerel $unwind$??4?$basic_string@DU?$char_traits@D@std@@V?$allocator@D@2@@std@@QEAAAEAV01@QEBD@Z
pdata	ENDS
;	COMDAT pdata
pdata	SEGMENT
$pdata$?assign@?$basic_string@DU?$char_traits@D@std@@V?$allocator@D@2@@std@@QEAAAEAV12@QEBD@Z DD imagerel $LN8
	DD	imagerel $LN8+48
	DD	imagerel $unwind$?assign@?$basic_string@DU?$char_traits@D@std@@V?$allocator@D@2@@std@@QEAAAEAV12@QEBD@Z
pdata	ENDS
;	COMDAT pdata
pdata	SEGMENT
$pdata$?_Equal@?$basic_string@DU?$char_traits@D@std@@V?$allocator@D@2@@std@@QEBA_NQEBD@Z DD imagerel $LN28
	DD	imagerel $LN28+101
	DD	imagerel $unwind$?_Equal@?$basic_string@DU?$char_traits@D@std@@V?$allocator@D@2@@std@@QEBA_NQEBD@Z
pdata	ENDS
;	COMDAT pdata
pdata	SEGMENT
$pdata$?_Tidy_deallocate@?$basic_string@DU?$char_traits@D@std@@V?$allocator@D@2@@std@@AEAAXXZ DD imagerel $LN34
	DD	imagerel $LN34+97
	DD	imagerel $unwind$?_Tidy_deallocate@?$basic_string@DU?$char_traits@D@std@@V?$allocator@D@2@@std@@AEAAXXZ
pdata	ENDS
;	COMDAT pdata
pdata	SEGMENT
$pdata$?normalize@Vector3@@QEBA?AU1@XZ DD imagerel $LN22
	DD	imagerel $LN22+216
	DD	imagerel $unwind$?normalize@Vector3@@QEBA?AU1@XZ
pdata	ENDS
;	COMDAT pdata
pdata	SEGMENT
$pdata$?fromAxisAngle@Quaternion@@SA?AU1@AEBUVector3@@M@Z DD imagerel $LN13
	DD	imagerel $LN13+135
	DD	imagerel $unwind$?fromAxisAngle@Quaternion@@SA?AU1@AEBUVector3@@M@Z
pdata	ENDS
;	COMDAT pdata
pdata	SEGMENT
$pdata$??DQuaternion@@QEBA?AU0@AEBU0@@Z DD imagerel $LN6
	DD	imagerel $LN6+309
	DD	imagerel $unwind$??DQuaternion@@QEBA?AU0@AEBU0@@Z
pdata	ENDS
;	COMDAT pdata
pdata	SEGMENT
$pdata$?rotate@Quaternion@@QEBA?AUVector3@@AEBU2@@Z DD imagerel $LN30
	DD	imagerel $LN30+301
	DD	imagerel $unwind$?rotate@Quaternion@@QEBA?AUVector3@@AEBU2@@Z
pdata	ENDS
;	COMDAT pdata
pdata	SEGMENT
$pdata$?getRight@Quaternion@@QEBA?AUVector3@@XZ DD imagerel $LN6
	DD	imagerel $LN6+137
	DD	imagerel $unwind$?getRight@Quaternion@@QEBA?AUVector3@@XZ
pdata	ENDS
;	COMDAT pdata
pdata	SEGMENT
$pdata$?getUp@Quaternion@@QEBA?AUVector3@@XZ DD imagerel $LN6
	DD	imagerel $LN6+143
	DD	imagerel $unwind$?getUp@Quaternion@@QEBA?AUVector3@@XZ
pdata	ENDS
;	COMDAT pdata
pdata	SEGMENT
$pdata$?getForward@Quaternion@@QEBA?AUVector3@@XZ DD imagerel $LN6
	DD	imagerel $LN6+155
	DD	imagerel $unwind$?getForward@Quaternion@@QEBA?AUVector3@@XZ
pdata	ENDS
;	COMDAT pdata
pdata	SEGMENT
$pdata$?Slerp@Quaternion@@SA?AU1@AEBU1@0M@Z DD imagerel $LN50
	DD	imagerel $LN50+296
	DD	imagerel $unwind$?Slerp@Quaternion@@SA?AU1@AEBU1@0M@Z
pdata	ENDS
;	COMDAT pdata
pdata	SEGMENT
$pdata$1$?Slerp@Quaternion@@SA?AU1@AEBU1@0M@Z DD imagerel $LN50+296
	DD	imagerel $LN50+501
	DD	imagerel $chain$1$?Slerp@Quaternion@@SA?AU1@AEBU1@0M@Z
pdata	ENDS
;	COMDAT pdata
pdata	SEGMENT
$pdata$2$?Slerp@Quaternion@@SA?AU1@AEBU1@0M@Z DD imagerel $LN50+501
	DD	imagerel $LN50+563
	DD	imagerel $chain$2$?Slerp@Quaternion@@SA?AU1@AEBU1@0M@Z
pdata	ENDS
;	COMDAT pdata
pdata	SEGMENT
$pdata$?_Maklocwcs@std@@YAPEA_WPEB_W@Z DD imagerel $LN10
	DD	imagerel $LN10+89
	DD	imagerel $unwind$?_Maklocwcs@std@@YAPEA_WPEB_W@Z
pdata	ENDS
;	COMDAT pdata
pdata	SEGMENT
$pdata$??$_Getvals@_W@?$time_get@DV?$istreambuf_iterator@DU?$char_traits@D@std@@@std@@@std@@IEAAX_WAEBV_Locinfo@1@@Z DD imagerel $LN27
	DD	imagerel $LN27+308
	DD	imagerel $unwind$??$_Getvals@_W@?$time_get@DV?$istreambuf_iterator@DU?$char_traits@D@std@@@std@@@std@@IEAAX_WAEBV_Locinfo@1@@Z
pdata	ENDS
;	COMDAT pdata
pdata	SEGMENT
$pdata$??$_Getvals@_W@?$time_get@_WV?$istreambuf_iterator@_WU?$char_traits@_W@std@@@std@@@std@@IEAAX_WAEBV_Locinfo@1@@Z DD imagerel $LN27
	DD	imagerel $LN27+308
	DD	imagerel $unwind$??$_Getvals@_W@?$time_get@_WV?$istreambuf_iterator@_WU?$char_traits@_W@std@@@std@@@std@@IEAAX_WAEBV_Locinfo@1@@Z
pdata	ENDS
;	COMDAT pdata
pdata	SEGMENT
$pdata$??0_Sentry_base@?$basic_ostream@DU?$char_traits@D@std@@@std@@QEAA@AEAV12@@Z DD imagerel $LN7
	DD	imagerel $LN7+51
	DD	imagerel $unwind$??0_Sentry_base@?$basic_ostream@DU?$char_traits@D@std@@@std@@QEAA@AEAV12@@Z
pdata	ENDS
;	COMDAT pdata
pdata	SEGMENT
$pdata$??1_Sentry_base@?$basic_ostream@DU?$char_traits@D@std@@@std@@QEAA@XZ DD imagerel $LN7
	DD	imagerel $LN7+43
	DD	imagerel $unwind$??1_Sentry_base@?$basic_ostream@DU?$char_traits@D@std@@@std@@QEAA@XZ
pdata	ENDS
;	COMDAT pdata
pdata	SEGMENT
$pdata$??0sentry@?$basic_ostream@DU?$char_traits@D@std@@@std@@QEAA@AEAV12@@Z DD imagerel $LN12
	DD	imagerel $LN12+148
	DD	imagerel $unwind$??0sentry@?$basic_ostream@DU?$char_traits@D@std@@@std@@QEAA@AEAV12@@Z
pdata	ENDS
;	COMDAT pdata
pdata	SEGMENT
$pdata$??1sentry@?$basic_ostream@DU?$char_traits@D@std@@@std@@QEAA@XZ DD imagerel $LN14
	DD	imagerel $LN14+68
	DD	imagerel $unwind$??1sentry@?$basic_ostream@DU?$char_traits@D@std@@@std@@QEAA@XZ
pdata	ENDS
;	COMDAT pdata
pdata	SEGMENT
$pdata$?fromAxisAngle@CFrame@@SA?AU1@UVector3@@M@Z DD imagerel $LN19
	DD	imagerel $LN19+177
	DD	imagerel $unwind$?fromAxisAngle@CFrame@@SA?AU1@UVector3@@M@Z
pdata	ENDS
;	COMDAT pdata
pdata	SEGMENT
$pdata$??DCFrame@@QEBA?AU0@AEBU0@@Z DD imagerel $LN38
	DD	imagerel $LN38+358
	DD	imagerel $unwind$??DCFrame@@QEBA?AU0@AEBU0@@Z
pdata	ENDS
;	COMDAT pdata
pdata	SEGMENT
$pdata$??0Spatial@@QEAA@UVector3@@0V?$basic_string@DU?$char_traits@D@std@@V?$allocator@D@2@@std@@@Z DD imagerel $LN17
	DD	imagerel $LN17+195
	DD	imagerel $unwind$??0Spatial@@QEAA@UVector3@@0V?$basic_string@DU?$char_traits@D@std@@V?$allocator@D@2@@std@@@Z
pdata	ENDS
;	COMDAT pdata
pdata	SEGMENT
$pdata$?GetClassName@Spatial@@UEAA?AV?$basic_string@DU?$char_traits@D@std@@V?$allocator@D@2@@std@@XZ DD imagerel $LN119
	DD	imagerel $LN119+68
	DD	imagerel $unwind$?GetClassName@Spatial@@UEAA?AV?$basic_string@DU?$char_traits@D@std@@V?$allocator@D@2@@std@@XZ
pdata	ENDS
;	COMDAT pdata
pdata	SEGMENT
$pdata$??_GSpatial@@UEAAPEAXI@Z DD imagerel $LN14
	DD	imagerel $LN14+52
	DD	imagerel $unwind$??_GSpatial@@UEAAPEAXI@Z
pdata	ENDS
;	COMDAT pdata
pdata	SEGMENT
$pdata$??0Model@@QEAA@UVector3@@0@Z DD imagerel $LN129
	DD	imagerel $LN129+229
	DD	imagerel $unwind$??0Model@@QEAA@UVector3@@0@Z
pdata	ENDS
;	COMDAT pdata
pdata	SEGMENT
$pdata$?GetClassName@Model@@UEAA?AV?$basic_string@DU?$char_traits@D@std@@V?$allocator@D@2@@std@@XZ DD imagerel $LN115
	DD	imagerel $LN115+56
	DD	imagerel $unwind$?GetClassName@Model@@UEAA?AV?$basic_string@DU?$char_traits@D@std@@V?$allocator@D@2@@std@@XZ
pdata	ENDS
;	COMDAT pdata
pdata	SEGMENT
$pdata$?IsA@Model@@UEAA_NV?$basic_string@DU?$char_traits@D@std@@V?$allocator@D@2@@std@@@Z DD imagerel $LN44
	DD	imagerel $LN44+153
	DD	imagerel $unwind$?IsA@Model@@UEAA_NV?$basic_string@DU?$char_traits@D@std@@V?$allocator@D@2@@std@@@Z
pdata	ENDS
;	COMDAT pdata
pdata	SEGMENT
$pdata$??_GModel@@UEAAPEAXI@Z DD imagerel $LN19
	DD	imagerel $LN19+52
	DD	imagerel $unwind$??_GModel@@UEAAPEAXI@Z
pdata	ENDS
;	COMDAT pdata
pdata	SEGMENT
$pdata$??$?8DU?$char_traits@D@std@@V?$allocator@D@1@@std@@YA_NAEBV?$basic_string@DU?$char_traits@D@std@@V?$allocator@D@2@@0@QEBD@Z DD imagerel $LN31
	DD	imagerel $LN31+101
	DD	imagerel $unwind$??$?8DU?$char_traits@D@std@@V?$allocator@D@1@@std@@YA_NAEBV?$basic_string@DU?$char_traits@D@std@@V?$allocator@D@2@@0@QEBD@Z
pdata	ENDS
;	COMDAT pdata
pdata	SEGMENT
$pdata$??0User@@QEAA@PEAUGLFWwindow@@@Z DD imagerel $LN18
	DD	imagerel $LN18+222
	DD	imagerel $unwind$??0User@@QEAA@PEAUGLFWwindow@@@Z
pdata	ENDS
;	COMDAT pdata
pdata	SEGMENT
$pdata$??1User@@QEAA@XZ DD imagerel $LN11
	DD	imagerel $LN11+189
	DD	imagerel $unwind$??1User@@QEAA@XZ
pdata	ENDS
;	COMDAT pdata
pdata	SEGMENT
$pdata$?updateVectors@User@@QEAAXXZ DD imagerel $LN16
	DD	imagerel $LN16+481
	DD	imagerel $unwind$?updateVectors@User@@QEAAXXZ
pdata	ENDS
;	COMDAT pdata
pdata	SEGMENT
$pdata$?processInput@User@@QEAAXXZ DD imagerel $LN469
	DD	imagerel $LN469+34
	DD	imagerel $unwind$?processInput@User@@QEAAXXZ
pdata	ENDS
;	COMDAT pdata
pdata	SEGMENT
$pdata$0$?processInput@User@@QEAAXXZ DD imagerel $LN469+34
	DD	imagerel $LN469+43
	DD	imagerel $chain$0$?processInput@User@@QEAAXXZ
pdata	ENDS
;	COMDAT pdata
pdata	SEGMENT
$pdata$2$?processInput@User@@QEAAXXZ DD imagerel $LN469+43
	DD	imagerel $LN469+51
	DD	imagerel $chain$2$?processInput@User@@QEAAXXZ
pdata	ENDS
;	COMDAT pdata
pdata	SEGMENT
$pdata$12$?processInput@User@@QEAAXXZ DD imagerel $LN469+51
	DD	imagerel $LN469+672
	DD	imagerel $chain$12$?processInput@User@@QEAAXXZ
pdata	ENDS
;	COMDAT pdata
pdata	SEGMENT
$pdata$13$?processInput@User@@QEAAXXZ DD imagerel $LN469+672
	DD	imagerel $LN469+1393
	DD	imagerel $chain$13$?processInput@User@@QEAAXXZ
pdata	ENDS
;	COMDAT pdata
pdata	SEGMENT
$pdata$14$?processInput@User@@QEAAXXZ DD imagerel $LN469+1393
	DD	imagerel $LN469+2805
	DD	imagerel $chain$14$?processInput@User@@QEAAXXZ
pdata	ENDS
;	COMDAT pdata
pdata	SEGMENT
$pdata$15$?processInput@User@@QEAAXXZ DD imagerel $LN469+2805
	DD	imagerel $LN469+2934
	DD	imagerel $chain$15$?processInput@User@@QEAAXXZ
pdata	ENDS
;	COMDAT pdata
pdata	SEGMENT
$pdata$16$?processInput@User@@QEAAXXZ DD imagerel $LN469+2934
	DD	imagerel $LN469+3674
	DD	imagerel $chain$16$?processInput@User@@QEAAXXZ
pdata	ENDS
;	COMDAT pdata
pdata	SEGMENT
$pdata$17$?processInput@User@@QEAAXXZ DD imagerel $LN469+3674
	DD	imagerel $LN469+3949
	DD	imagerel $chain$17$?processInput@User@@QEAAXXZ
pdata	ENDS
;	COMDAT pdata
pdata	SEGMENT
$pdata$18$?processInput@User@@QEAAXXZ DD imagerel $LN469+3949
	DD	imagerel $LN469+4264
	DD	imagerel $chain$18$?processInput@User@@QEAAXXZ
pdata	ENDS
;	COMDAT pdata
pdata	SEGMENT
$pdata$19$?processInput@User@@QEAAXXZ DD imagerel $LN469+4264
	DD	imagerel $LN469+4456
	DD	imagerel $chain$19$?processInput@User@@QEAAXXZ
pdata	ENDS
;	COMDAT pdata
pdata	SEGMENT
$pdata$20$?processInput@User@@QEAAXXZ DD imagerel $LN469+4456
	DD	imagerel $LN469+4735
	DD	imagerel $chain$20$?processInput@User@@QEAAXXZ
pdata	ENDS
;	COMDAT pdata
pdata	SEGMENT
$pdata$?spawnCharacter@User@@QEAAXXZ DD imagerel $LN254
	DD	imagerel $LN254+1599
	DD	imagerel $unwind$?spawnCharacter@User@@QEAAXXZ
pdata	ENDS
;	COMDAT pdata
pdata	SEGMENT
$pdata$?dtor$0@?0??spawnCharacter@User@@QEAAXXZ@4HA DD imagerel ?dtor$0@?0??spawnCharacter@User@@QEAAXXZ@4HA
	DD	imagerel ?dtor$0@?0??spawnCharacter@User@@QEAAXXZ@4HA+32
	DD	imagerel $unwind$?dtor$0@?0??spawnCharacter@User@@QEAAXXZ@4HA
pdata	ENDS
;	COMDAT pdata
pdata	SEGMENT
$pdata$?dtor$1@?0??spawnCharacter@User@@QEAAXXZ@4HA DD imagerel ?dtor$1@?0??spawnCharacter@User@@QEAAXXZ@4HA
	DD	imagerel ?dtor$1@?0??spawnCharacter@User@@QEAAXXZ@4HA+32
	DD	imagerel $unwind$?dtor$1@?0??spawnCharacter@User@@QEAAXXZ@4HA
pdata	ENDS
;	COMDAT pdata
pdata	SEGMENT
$pdata$?dtor$2@?0??spawnCharacter@User@@QEAAXXZ@4HA DD imagerel ?dtor$2@?0??spawnCharacter@User@@QEAAXXZ@4HA
	DD	imagerel ?dtor$2@?0??spawnCharacter@User@@QEAAXXZ@4HA+32
	DD	imagerel $unwind$?dtor$2@?0??spawnCharacter@User@@QEAAXXZ@4HA
pdata	ENDS
;	COMDAT pdata
pdata	SEGMENT
$pdata$?dtor$3@?0??spawnCharacter@User@@QEAAXXZ@4HA DD imagerel ?dtor$3@?0??spawnCharacter@User@@QEAAXXZ@4HA
	DD	imagerel ?dtor$3@?0??spawnCharacter@User@@QEAAXXZ@4HA+32
	DD	imagerel $unwind$?dtor$3@?0??spawnCharacter@User@@QEAAXXZ@4HA
pdata	ENDS
;	COMDAT pdata
pdata	SEGMENT
$pdata$?dtor$4@?0??spawnCharacter@User@@QEAAXXZ@4HA DD imagerel ?dtor$4@?0??spawnCharacter@User@@QEAAXXZ@4HA
	DD	imagerel ?dtor$4@?0??spawnCharacter@User@@QEAAXXZ@4HA+32
	DD	imagerel $unwind$?dtor$4@?0??spawnCharacter@User@@QEAAXXZ@4HA
pdata	ENDS
;	COMDAT pdata
pdata	SEGMENT
$pdata$?dtor$5@?0??spawnCharacter@User@@QEAAXXZ@4HA DD imagerel ?dtor$5@?0??spawnCharacter@User@@QEAAXXZ@4HA
	DD	imagerel ?dtor$5@?0??spawnCharacter@User@@QEAAXXZ@4HA+32
	DD	imagerel $unwind$?dtor$5@?0??spawnCharacter@User@@QEAAXXZ@4HA
pdata	ENDS
;	COMDAT pdata
pdata	SEGMENT
$pdata$?dtor$6@?0??spawnCharacter@User@@QEAAXXZ@4HA DD imagerel ?dtor$6@?0??spawnCharacter@User@@QEAAXXZ@4HA
	DD	imagerel ?dtor$6@?0??spawnCharacter@User@@QEAAXXZ@4HA+32
	DD	imagerel $unwind$?dtor$6@?0??spawnCharacter@User@@QEAAXXZ@4HA
pdata	ENDS
;	COMDAT pdata
pdata	SEGMENT
$pdata$?dtor$7@?0??spawnCharacter@User@@QEAAXXZ@4HA DD imagerel ?dtor$7@?0??spawnCharacter@User@@QEAAXXZ@4HA
	DD	imagerel ?dtor$7@?0??spawnCharacter@User@@QEAAXXZ@4HA+32
	DD	imagerel $unwind$?dtor$7@?0??spawnCharacter@User@@QEAAXXZ@4HA
pdata	ENDS
;	COMDAT pdata
pdata	SEGMENT
$pdata$??$?6U?$char_traits@D@std@@@std@@YAAEAV?$basic_ostream@DU?$char_traits@D@std@@@0@AEAV10@PEBD@Z DD imagerel $LN74
	DD	imagerel $LN74+592
	DD	imagerel $unwind$??$?6U?$char_traits@D@std@@@std@@YAAEAV?$basic_ostream@DU?$char_traits@D@std@@@0@AEAV10@PEBD@Z
pdata	ENDS
;	COMDAT pdata
pdata	SEGMENT
$pdata$?catch$4@?0???$?6U?$char_traits@D@std@@@std@@YAAEAV?$basic_ostream@DU?$char_traits@D@std@@@0@AEAV10@PEBD@Z@4HA DD imagerel ?catch$4@?0???$?6U?$char_traits@D@std@@@std@@YAAEAV?$basic_ostream@DU?$char_traits@D@std@@@0@AEAV10@PEBD@Z@4HA
	DD	imagerel ?catch$4@?0???$?6U?$char_traits@D@std@@@std@@YAAEAV?$basic_ostream@DU?$char_traits@D@std@@@0@AEAV10@PEBD@Z@4HA+59
	DD	imagerel $unwind$?catch$4@?0???$?6U?$char_traits@D@std@@@std@@YAAEAV?$basic_ostream@DU?$char_traits@D@std@@@0@AEAV10@PEBD@Z@4HA
pdata	ENDS
;	COMDAT pdata
pdata	SEGMENT
$pdata$??$endl@DU?$char_traits@D@std@@@std@@YAAEAV?$basic_ostream@DU?$char_traits@D@std@@@0@AEAV10@@Z DD imagerel $LN4
	DD	imagerel $LN4+57
	DD	imagerel $unwind$??$endl@DU?$char_traits@D@std@@@std@@YAAEAV?$basic_ostream@DU?$char_traits@D@std@@@0@AEAV10@@Z
pdata	ENDS
;	COMDAT pdata
pdata	SEGMENT
$pdata$??$_Construct@$00PEBD@?$basic_string@DU?$char_traits@D@std@@V?$allocator@D@2@@std@@AEAAXQEBD_K@Z DD imagerel $LN108
	DD	imagerel $LN108+79
	DD	imagerel $unwind$??$_Construct@$00PEBD@?$basic_string@DU?$char_traits@D@std@@V?$allocator@D@2@@std@@AEAAXQEBD_K@Z
pdata	ENDS
;	COMDAT pdata
pdata	SEGMENT
$pdata$0$??$_Construct@$00PEBD@?$basic_string@DU?$char_traits@D@std@@V?$allocator@D@2@@std@@AEAAXQEBD_K@Z DD imagerel $LN108+79
	DD	imagerel $LN108+237
	DD	imagerel $chain$0$??$_Construct@$00PEBD@?$basic_string@DU?$char_traits@D@std@@V?$allocator@D@2@@std@@AEAAXQEBD_K@Z
pdata	ENDS
;	COMDAT pdata
pdata	SEGMENT
$pdata$1$??$_Construct@$00PEBD@?$basic_string@DU?$char_traits@D@std@@V?$allocator@D@2@@std@@AEAAXQEBD_K@Z DD imagerel $LN108+237
	DD	imagerel $LN108+243
	DD	imagerel $chain$1$??$_Construct@$00PEBD@?$basic_string@DU?$char_traits@D@std@@V?$allocator@D@2@@std@@AEAAXQEBD_K@Z
pdata	ENDS
;	COMDAT pdata
pdata	SEGMENT
$pdata$2$??$_Construct@$00PEBD@?$basic_string@DU?$char_traits@D@std@@V?$allocator@D@2@@std@@AEAAXQEBD_K@Z DD imagerel $LN108+243
	DD	imagerel $LN108+249
	DD	imagerel $chain$2$??$_Construct@$00PEBD@?$basic_string@DU?$char_traits@D@std@@V?$allocator@D@2@@std@@AEAAXQEBD_K@Z
pdata	ENDS
;	COMDAT pdata
pdata	SEGMENT
$pdata$??$_Construct@$01PEBD@?$basic_string@DU?$char_traits@D@std@@V?$allocator@D@2@@std@@AEAAXQEBD_K@Z DD imagerel $LN101
	DD	imagerel $LN101+228
	DD	imagerel $unwind$??$_Construct@$01PEBD@?$basic_string@DU?$char_traits@D@std@@V?$allocator@D@2@@std@@AEAAXQEBD_K@Z
pdata	ENDS
;	COMDAT pdata
pdata	SEGMENT
$pdata$??$_Allocate_for_capacity@$0A@@?$basic_string@DU?$char_traits@D@std@@V?$allocator@D@2@@std@@CAPEADAEAV?$allocator@D@1@AEA_K@Z DD imagerel $LN46
	DD	imagerel $LN46+111
	DD	imagerel $unwind$??$_Allocate_for_capacity@$0A@@?$basic_string@DU?$char_traits@D@std@@V?$allocator@D@2@@std@@CAPEADAEAV?$allocator@D@1@AEA_K@Z
pdata	ENDS
;	COMDAT pdata
pdata	SEGMENT
$pdata$??$_Allocate_at_least_helper@V?$allocator@D@std@@@std@@YAPEADAEAV?$allocator@D@0@AEA_K@Z DD imagerel $LN26
	DD	imagerel $LN26+92
	DD	imagerel $unwind$??$_Allocate_at_least_helper@V?$allocator@D@std@@@std@@YAPEADAEAV?$allocator@D@0@AEA_K@Z
pdata	ENDS
;	COMDAT pdata
pdata	SEGMENT
$pdata$??$_Traits_equal@U?$char_traits@D@std@@@std@@YA_NQEBD_K01@Z DD imagerel $LN11
	DD	imagerel $LN11+52
	DD	imagerel $unwind$??$_Traits_equal@U?$char_traits@D@std@@@std@@YA_NQEBD_K01@Z
pdata	ENDS
;	COMDAT pdata
pdata	SEGMENT
$pdata$??$_Assign@D@?$basic_string@DU?$char_traits@D@std@@V?$allocator@D@2@@std@@AEAAAEAV01@QEBD_K@Z DD imagerel $LN170
	DD	imagerel $LN170+93
	DD	imagerel $unwind$??$_Assign@D@?$basic_string@DU?$char_traits@D@std@@V?$allocator@D@2@@std@@AEAAAEAV01@QEBD_K@Z
pdata	ENDS
;	COMDAT pdata
pdata	SEGMENT
$pdata$0$??$_Assign@D@?$basic_string@DU?$char_traits@D@std@@V?$allocator@D@2@@std@@AEAAAEAV01@QEBD_K@Z DD imagerel $LN170+93
	DD	imagerel $LN170+321
	DD	imagerel $chain$0$??$_Assign@D@?$basic_string@DU?$char_traits@D@std@@V?$allocator@D@2@@std@@AEAAAEAV01@QEBD_K@Z
pdata	ENDS
;	COMDAT pdata
pdata	SEGMENT
$pdata$1$??$_Assign@D@?$basic_string@DU?$char_traits@D@std@@V?$allocator@D@2@@std@@AEAAAEAV01@QEBD_K@Z DD imagerel $LN170+321
	DD	imagerel $LN170+349
	DD	imagerel $chain$1$??$_Assign@D@?$basic_string@DU?$char_traits@D@std@@V?$allocator@D@2@@std@@AEAAAEAV01@QEBD_K@Z
pdata	ENDS
;	COMDAT pdata
pdata	SEGMENT
$pdata$2$??$_Assign@D@?$basic_string@DU?$char_traits@D@std@@V?$allocator@D@2@@std@@AEAAAEAV01@QEBD_K@Z DD imagerel $LN170+349
	DD	imagerel $LN170+355
	DD	imagerel $chain$2$??$_Assign@D@?$basic_string@DU?$char_traits@D@std@@V?$allocator@D@2@@std@@AEAAAEAV01@QEBD_K@Z
pdata	ENDS
;	COMDAT pdata
pdata	SEGMENT
$pdata$??R<lambda_1>@?1???$_Assign@D@?$basic_string@DU?$char_traits@D@std@@V?$allocator@D@2@@std@@AEAAAEAV12@QEBD_K@Z@SA@QEAD10@Z DD imagerel $LN25
	DD	imagerel $LN25+45
	DD	imagerel $unwind$??R<lambda_1>@?1???$_Assign@D@?$basic_string@DU?$char_traits@D@std@@V?$allocator@D@2@@std@@AEAAAEAV12@QEBD_K@Z@SA@QEAD10@Z
pdata	ENDS
;	COMDAT pdata
pdata	SEGMENT
$pdata$??$_Reallocate_for@V<lambda_1>@?1???$_Assign@D@?$basic_string@DU?$char_traits@D@std@@V?$allocator@D@2@@std@@AEAAAEAV23@QEBD_K@Z@PEBD@?$basic_string@DU?$char_traits@D@std@@V?$allocator@D@2@@std@@AEAAAEAV01@_KV<lambda_1>@?1???$_Assign@D@01@AEAAAEAV01@QEBD0@Z@PEBD@Z DD imagerel $LN116
	DD	imagerel $LN116+42
	DD	imagerel $unwind$??$_Reallocate_for@V<lambda_1>@?1???$_Assign@D@?$basic_string@DU?$char_traits@D@std@@V?$allocator@D@2@@std@@AEAAAEAV23@QEBD_K@Z@PEBD@?$basic_string@DU?$char_traits@D@std@@V?$allocator@D@2@@std@@AEAAAEAV01@_KV<lambda_1>@?1???$_Assign@D@01@AEAAAEAV01@QEBD0@Z@PEBD@Z
pdata	ENDS
;	COMDAT pdata
pdata	SEGMENT
$pdata$1$??$_Reallocate_for@V<lambda_1>@?1???$_Assign@D@?$basic_string@DU?$char_traits@D@std@@V?$allocator@D@2@@std@@AEAAAEAV23@QEBD_K@Z@PEBD@?$basic_string@DU?$char_traits@D@std@@V?$allocator@D@2@@std@@AEAAAEAV01@_KV<lambda_1>@?1???$_Assign@D@01@AEAAAEAV01@QEBD0@Z@PEBD@Z DD imagerel $LN116+42
	DD	imagerel $LN116+301
	DD	imagerel $chain$1$??$_Reallocate_for@V<lambda_1>@?1???$_Assign@D@?$basic_string@DU?$char_traits@D@std@@V?$allocator@D@2@@std@@AEAAAEAV23@QEBD_K@Z@PEBD@?$basic_string@DU?$char_traits@D@std@@V?$allocator@D@2@@std@@AEAAAEAV01@_KV<lambda_1>@?1???$_Assign@D@01@AEAAAEAV01@QEBD0@Z@PEBD@Z
pdata	ENDS
;	COMDAT pdata
pdata	SEGMENT
$pdata$2$??$_Reallocate_for@V<lambda_1>@?1???$_Assign@D@?$basic_string@DU?$char_traits@D@std@@V?$allocator@D@2@@std@@AEAAAEAV23@QEBD_K@Z@PEBD@?$basic_string@DU?$char_traits@D@std@@V?$allocator@D@2@@std@@AEAAAEAV01@_KV<lambda_1>@?1???$_Assign@D@01@AEAAAEAV01@QEBD0@Z@PEBD@Z DD imagerel $LN116+301
	DD	imagerel $LN116+307
	DD	imagerel $chain$2$??$_Reallocate_for@V<lambda_1>@?1???$_Assign@D@?$basic_string@DU?$char_traits@D@std@@V?$allocator@D@2@@std@@AEAAAEAV23@QEBD_K@Z@PEBD@?$basic_string@DU?$char_traits@D@std@@V?$allocator@D@2@@std@@AEAAAEAV01@_KV<lambda_1>@?1???$_Assign@D@01@AEAAAEAV01@QEBD0@Z@PEBD@Z
pdata	ENDS
;	COMDAT pdata
pdata	SEGMENT
$pdata$3$??$_Reallocate_for@V<lambda_1>@?1???$_Assign@D@?$basic_string@DU?$char_traits@D@std@@V?$allocator@D@2@@std@@AEAAAEAV23@QEBD_K@Z@PEBD@?$basic_string@DU?$char_traits@D@std@@V?$allocator@D@2@@std@@AEAAAEAV01@_KV<lambda_1>@?1???$_Assign@D@01@AEAAAEAV01@QEBD0@Z@PEBD@Z DD imagerel $LN116+307
	DD	imagerel $LN116+313
	DD	imagerel $chain$3$??$_Reallocate_for@V<lambda_1>@?1???$_Assign@D@?$basic_string@DU?$char_traits@D@std@@V?$allocator@D@2@@std@@AEAAAEAV23@QEBD_K@Z@PEBD@?$basic_string@DU?$char_traits@D@std@@V?$allocator@D@2@@std@@AEAAAEAV01@_KV<lambda_1>@?1???$_Assign@D@01@AEAAAEAV01@QEBD0@Z@PEBD@Z
pdata	ENDS
;	COMDAT pdata
pdata	SEGMENT
$pdata$??$_Allocate@$0BA@U_Default_allocate_traits@std@@@std@@YAPEAX_K@Z DD imagerel $LN20
	DD	imagerel $LN20+89
	DD	imagerel $unwind$??$_Allocate@$0BA@U_Default_allocate_traits@std@@@std@@YAPEAX_K@Z
pdata	ENDS
;	COMDAT pdata
pdata	SEGMENT
$pdata$??$_Allocate_manually_vector_aligned@U_Default_allocate_traits@std@@@std@@YAPEAX_K@Z DD imagerel $LN10
	DD	imagerel $LN10+59
	DD	imagerel $unwind$??$_Allocate_manually_vector_aligned@U_Default_allocate_traits@std@@@std@@YAPEAX_K@Z
pdata	ENDS
CRT$XCU	SEGMENT
?minFError$initializer$@vecMathTests@aos@physx@@3P6AXXZEA DQ FLAT:??__EminFError@vecMathTests@aos@physx@@YAXXZ ; physx::aos::vecMathTests::minFError$initializer$
CRT$XCU	ENDS
;	COMDAT __xmm@ba83126fba83126fba83126fba83126f
CONST	SEGMENT
__xmm@ba83126fba83126fba83126fba83126f DB 'o', 012H, 083H, 0baH, 'o', 012H
	DB	083H, 0baH, 'o', 012H, 083H, 0baH, 'o', 012H, 083H, 0baH
CONST	ENDS
;	COMDAT __xmm@80000000800000008000000080000000
CONST	SEGMENT
__xmm@80000000800000008000000080000000 DB 00H, 00H, 00H, 080H, 00H, 00H, 00H
	DB	080H, 00H, 00H, 00H, 080H, 00H, 00H, 00H, 080H
CONST	ENDS
;	COMDAT __xmm@3f80000000000000bf80000000000000
CONST	SEGMENT
__xmm@3f80000000000000bf80000000000000 DB 00H, 00H, 00H, 00H, 00H, 00H, 080H
	DB	0bfH, 00H, 00H, 00H, 00H, 00H, 00H, 080H, '?'
CONST	ENDS
;	COMDAT __xmm@3f800000000000004020000000000000
CONST	SEGMENT
__xmm@3f800000000000004020000000000000 DB 00H, 00H, 00H, 00H, 00H, 00H, ' '
	DB	'@', 00H, 00H, 00H, 00H, 00H, 00H, 080H, '?'
CONST	ENDS
;	COMDAT __xmm@3f8000000000000040000000bfc00000
CONST	SEGMENT
__xmm@3f8000000000000040000000bfc00000 DB 00H, 00H, 0c0H, 0bfH, 00H, 00H, 00H
	DB	'@', 00H, 00H, 00H, 00H, 00H, 00H, 080H, '?'
CONST	ENDS
;	COMDAT __xmm@3f80000000000000400000003fc00000
CONST	SEGMENT
__xmm@3f80000000000000400000003fc00000 DB 00H, 00H, 0c0H, '?', 00H, 00H, 00H
	DB	'@', 00H, 00H, 00H, 00H, 00H, 00H, 080H, '?'
CONST	ENDS
;	COMDAT __xmm@3f800000000000003f80000000000000
CONST	SEGMENT
__xmm@3f800000000000003f80000000000000 DB 00H, 00H, 00H, 00H, 00H, 00H, 080H
	DB	'?', 00H, 00H, 00H, 00H, 00H, 00H, 080H, '?'
CONST	ENDS
;	COMDAT __xmm@3f8000000000000000000000bf000000
CONST	SEGMENT
__xmm@3f8000000000000000000000bf000000 DB 00H, 00H, 00H, 0bfH, 00H, 00H, 00H
	DB	00H, 00H, 00H, 00H, 00H, 00H, 00H, 080H, '?'
CONST	ENDS
;	COMDAT __xmm@3f80000000000000000000003f000000
CONST	SEGMENT
__xmm@3f80000000000000000000003f000000 DB 00H, 00H, 00H, '?', 00H, 00H, 00H
	DB	00H, 00H, 00H, 00H, 00H, 00H, 00H, 080H, '?'
CONST	ENDS
;	COMDAT __xmm@3a83126f3a83126f3a83126f3a83126f
CONST	SEGMENT
__xmm@3a83126f3a83126f3a83126f3a83126f DB 'o', 012H, 083H, ':o', 012H, 083H
	DB	':o', 012H, 083H, ':o', 012H, 083H, ':'
CONST	ENDS
;	COMDAT __xmm@00000000ba83126fba83126fba83126f
CONST	SEGMENT
__xmm@00000000ba83126fba83126fba83126f DB 'o', 012H, 083H, 0baH, 'o', 012H
	DB	083H, 0baH, 'o', 012H, 083H, 0baH, 00H, 00H, 00H, 00H
CONST	ENDS
;	COMDAT __xmm@000000003a83126f3a83126f3a83126f
CONST	SEGMENT
__xmm@000000003a83126f3a83126f3a83126f DB 'o', 012H, 083H, ':o', 012H, 083H
	DB	':o', 012H, 083H, ':', 00H, 00H, 00H, 00H
CONST	ENDS
;	COMDAT __real@c0000000
CONST	SEGMENT
__real@c0000000 DD 0c0000000r			; -2
CONST	ENDS
;	COMDAT __real@bc567750
CONST	SEGMENT
__real@bc567750 DD 0bc567750r			; -0.01309
CONST	ENDS
;	COMDAT __real@437f0000
CONST	SEGMENT
__real@437f0000 DD 0437f0000r			; 255
CONST	ENDS
;	COMDAT __real@43340000
CONST	SEGMENT
__real@43340000 DD 043340000r			; 180
CONST	ENDS
;	COMDAT __real@420c0000
CONST	SEGMENT
__real@420c0000 DD 0420c0000r			; 35
CONST	ENDS
;	COMDAT __real@41200000
CONST	SEGMENT
__real@41200000 DD 041200000r			; 10
CONST	ENDS
;	COMDAT __real@40a00000
CONST	SEGMENT
__real@40a00000 DD 040a00000r			; 5
CONST	ENDS
;	COMDAT __real@40490fdb
CONST	SEGMENT
__real@40490fdb DD 040490fdbr			; 3.14159
CONST	ENDS
;	COMDAT __real@40000000
CONST	SEGMENT
__real@40000000 DD 040000000r			; 2
CONST	ENDS
;	COMDAT __real@3f800000
CONST	SEGMENT
__real@3f800000 DD 03f800000r			; 1
CONST	ENDS
;	COMDAT __real@3f7fdf3b
CONST	SEGMENT
__real@3f7fdf3b DD 03f7fdf3br			; 0.9995
CONST	ENDS
;	COMDAT __real@3f000000
CONST	SEGMENT
__real@3f000000 DD 03f000000r			; 0.5
CONST	ENDS
;	COMDAT __real@3e19999a
CONST	SEGMENT
__real@3e19999a DD 03e19999ar			; 0.15
CONST	ENDS
;	COMDAT __real@3c567750
CONST	SEGMENT
__real@3c567750 DD 03c567750r			; 0.01309
CONST	ENDS
;	COMDAT __real@3c23d70a
CONST	SEGMENT
__real@3c23d70a DD 03c23d70ar			; 0.01
CONST	ENDS
;	COMDAT ??_R1A@?0A@EA@Model@@8
rdata$r	SEGMENT
??_R1A@?0A@EA@Model@@8 DD imagerel ??_R0?AVModel@@@8	; Model::`RTTI Base Class Descriptor at (0,-1,0,64)'
	DD	02H
	DD	00H
	DD	0ffffffffH
	DD	00H
	DD	040H
	DD	imagerel ??_R3Model@@8
rdata$r	ENDS
;	COMDAT ??_R2Model@@8
rdata$r	SEGMENT
??_R2Model@@8 DD imagerel ??_R1A@?0A@EA@Model@@8	; Model::`RTTI Base Class Array'
	DD	imagerel ??_R1A@?0A@EA@Spatial@@8
	DD	imagerel ??_R1A@?0A@EA@Instance@@8
	ORG $+3
rdata$r	ENDS
;	COMDAT ??_R3Model@@8
rdata$r	SEGMENT
??_R3Model@@8 DD 00H					; Model::`RTTI Class Hierarchy Descriptor'
	DD	00H
	DD	03H
	DD	imagerel ??_R2Model@@8
rdata$r	ENDS
;	COMDAT ??_R0?AVModel@@@8
data$rs	SEGMENT
??_R0?AVModel@@@8 DQ FLAT:??_7type_info@@6B@		; Model `RTTI Type Descriptor'
	DQ	0000000000000000H
	DB	'.?AVModel@@', 00H
data$rs	ENDS
;	COMDAT ??_R4Model@@6B@
rdata$r	SEGMENT
??_R4Model@@6B@ DD 01H					; Model::`RTTI Complete Object Locator'
	DD	00H
	DD	00H
	DD	imagerel ??_R0?AVModel@@@8
	DD	imagerel ??_R3Model@@8
	DD	imagerel ??_R4Model@@6B@
rdata$r	ENDS
;	COMDAT ??_R2Instance@@8
rdata$r	SEGMENT
??_R2Instance@@8 DD imagerel ??_R1A@?0A@EA@Instance@@8	; Instance::`RTTI Base Class Array'
	ORG $+3
rdata$r	ENDS
;	COMDAT ??_R3Instance@@8
rdata$r	SEGMENT
??_R3Instance@@8 DD 00H					; Instance::`RTTI Class Hierarchy Descriptor'
	DD	00H
	DD	01H
	DD	imagerel ??_R2Instance@@8
rdata$r	ENDS
;	COMDAT ??_R0?AVInstance@@@8
data$rs	SEGMENT
??_R0?AVInstance@@@8 DQ FLAT:??_7type_info@@6B@		; Instance `RTTI Type Descriptor'
	DQ	0000000000000000H
	DB	'.?AVInstance@@', 00H
data$rs	ENDS
;	COMDAT ??_R1A@?0A@EA@Instance@@8
rdata$r	SEGMENT
??_R1A@?0A@EA@Instance@@8 DD imagerel ??_R0?AVInstance@@@8 ; Instance::`RTTI Base Class Descriptor at (0,-1,0,64)'
	DD	00H
	DD	00H
	DD	0ffffffffH
	DD	00H
	DD	040H
	DD	imagerel ??_R3Instance@@8
rdata$r	ENDS
;	COMDAT ??_R1A@?0A@EA@Spatial@@8
rdata$r	SEGMENT
??_R1A@?0A@EA@Spatial@@8 DD imagerel ??_R0?AVSpatial@@@8 ; Spatial::`RTTI Base Class Descriptor at (0,-1,0,64)'
	DD	01H
	DD	00H
	DD	0ffffffffH
	DD	00H
	DD	040H
	DD	imagerel ??_R3Spatial@@8
rdata$r	ENDS
;	COMDAT ??_R2Spatial@@8
rdata$r	SEGMENT
??_R2Spatial@@8 DD imagerel ??_R1A@?0A@EA@Spatial@@8	; Spatial::`RTTI Base Class Array'
	DD	imagerel ??_R1A@?0A@EA@Instance@@8
	ORG $+3
rdata$r	ENDS
;	COMDAT ??_R3Spatial@@8
rdata$r	SEGMENT
??_R3Spatial@@8 DD 00H					; Spatial::`RTTI Class Hierarchy Descriptor'
	DD	00H
	DD	02H
	DD	imagerel ??_R2Spatial@@8
rdata$r	ENDS
;	COMDAT ??_R0?AVSpatial@@@8
data$rs	SEGMENT
??_R0?AVSpatial@@@8 DQ FLAT:??_7type_info@@6B@		; Spatial `RTTI Type Descriptor'
	DQ	0000000000000000H
	DB	'.?AVSpatial@@', 00H
data$rs	ENDS
;	COMDAT ??_R4Spatial@@6B@
rdata$r	SEGMENT
??_R4Spatial@@6B@ DD 01H				; Spatial::`RTTI Complete Object Locator'
	DD	00H
	DD	00H
	DD	imagerel ??_R0?AVSpatial@@@8
	DD	imagerel ??_R3Spatial@@8
	DD	imagerel ??_R4Spatial@@6B@
rdata$r	ENDS
;	COMDAT ??_R4bad_alloc@std@@6B@
rdata$r	SEGMENT
??_R4bad_alloc@std@@6B@ DD 01H				; std::bad_alloc::`RTTI Complete Object Locator'
	DD	00H
	DD	00H
	DD	imagerel ??_R0?AVbad_alloc@std@@@8
	DD	imagerel ??_R3bad_alloc@std@@8
	DD	imagerel ??_R4bad_alloc@std@@6B@
rdata$r	ENDS
;	COMDAT ??_R2bad_alloc@std@@8
rdata$r	SEGMENT
??_R2bad_alloc@std@@8 DD imagerel ??_R1A@?0A@EA@bad_alloc@std@@8 ; std::bad_alloc::`RTTI Base Class Array'
	DD	imagerel ??_R1A@?0A@EA@exception@std@@8
	ORG $+3
rdata$r	ENDS
;	COMDAT ??_R3bad_alloc@std@@8
rdata$r	SEGMENT
??_R3bad_alloc@std@@8 DD 00H				; std::bad_alloc::`RTTI Class Hierarchy Descriptor'
	DD	00H
	DD	02H
	DD	imagerel ??_R2bad_alloc@std@@8
rdata$r	ENDS
;	COMDAT ??_R1A@?0A@EA@bad_alloc@std@@8
rdata$r	SEGMENT
??_R1A@?0A@EA@bad_alloc@std@@8 DD imagerel ??_R0?AVbad_alloc@std@@@8 ; std::bad_alloc::`RTTI Base Class Descriptor at (0,-1,0,64)'
	DD	01H
	DD	00H
	DD	0ffffffffH
	DD	00H
	DD	040H
	DD	imagerel ??_R3bad_alloc@std@@8
rdata$r	ENDS
;	COMDAT ??_R1A@?0A@EA@bad_array_new_length@std@@8
rdata$r	SEGMENT
??_R1A@?0A@EA@bad_array_new_length@std@@8 DD imagerel ??_R0?AVbad_array_new_length@std@@@8 ; std::bad_array_new_length::`RTTI Base Class Descriptor at (0,-1,0,64)'
	DD	02H
	DD	00H
	DD	0ffffffffH
	DD	00H
	DD	040H
	DD	imagerel ??_R3bad_array_new_length@std@@8
rdata$r	ENDS
;	COMDAT ??_R2bad_array_new_length@std@@8
rdata$r	SEGMENT
??_R2bad_array_new_length@std@@8 DD imagerel ??_R1A@?0A@EA@bad_array_new_length@std@@8 ; std::bad_array_new_length::`RTTI Base Class Array'
	DD	imagerel ??_R1A@?0A@EA@bad_alloc@std@@8
	DD	imagerel ??_R1A@?0A@EA@exception@std@@8
	ORG $+3
rdata$r	ENDS
;	COMDAT ??_R3bad_array_new_length@std@@8
rdata$r	SEGMENT
??_R3bad_array_new_length@std@@8 DD 00H			; std::bad_array_new_length::`RTTI Class Hierarchy Descriptor'
	DD	00H
	DD	03H
	DD	imagerel ??_R2bad_array_new_length@std@@8
rdata$r	ENDS
;	COMDAT ??_R4bad_array_new_length@std@@6B@
rdata$r	SEGMENT
??_R4bad_array_new_length@std@@6B@ DD 01H		; std::bad_array_new_length::`RTTI Complete Object Locator'
	DD	00H
	DD	00H
	DD	imagerel ??_R0?AVbad_array_new_length@std@@@8
	DD	imagerel ??_R3bad_array_new_length@std@@8
	DD	imagerel ??_R4bad_array_new_length@std@@6B@
rdata$r	ENDS
;	COMDAT ??_R1A@?0A@EA@exception@std@@8
rdata$r	SEGMENT
??_R1A@?0A@EA@exception@std@@8 DD imagerel ??_R0?AVexception@std@@@8 ; std::exception::`RTTI Base Class Descriptor at (0,-1,0,64)'
	DD	00H
	DD	00H
	DD	0ffffffffH
	DD	00H
	DD	040H
	DD	imagerel ??_R3exception@std@@8
rdata$r	ENDS
;	COMDAT ??_R2exception@std@@8
rdata$r	SEGMENT
??_R2exception@std@@8 DD imagerel ??_R1A@?0A@EA@exception@std@@8 ; std::exception::`RTTI Base Class Array'
	ORG $+3
rdata$r	ENDS
;	COMDAT ??_R3exception@std@@8
rdata$r	SEGMENT
??_R3exception@std@@8 DD 00H				; std::exception::`RTTI Class Hierarchy Descriptor'
	DD	00H
	DD	01H
	DD	imagerel ??_R2exception@std@@8
rdata$r	ENDS
;	COMDAT ??_R4exception@std@@6B@
rdata$r	SEGMENT
??_R4exception@std@@6B@ DD 01H				; std::exception::`RTTI Complete Object Locator'
	DD	00H
	DD	00H
	DD	imagerel ??_R0?AVexception@std@@@8
	DD	imagerel ??_R3exception@std@@8
	DD	imagerel ??_R4exception@std@@6B@
rdata$r	ENDS
;	COMDAT ??_C@_1BK@MHIKGOKE@?$AA?3?$AAA?$AAM?$AA?3?$AAa?$AAm?$AA?3?$AAP?$AAM?$AA?3?$AAp?$AAm@
CONST	SEGMENT
??_C@_1BK@MHIKGOKE@?$AA?3?$AAA?$AAM?$AA?3?$AAa?$AAm?$AA?3?$AAP?$AAM?$AA?3?$AAp?$AAm@ DB ':'
	DB	00H, 'A', 00H, 'M', 00H, ':', 00H, 'a', 00H, 'm', 00H, ':', 00H
	DB	'P', 00H, 'M', 00H, ':', 00H, 'p', 00H, 'm', 00H, 00H, 00H ; `string'
CONST	ENDS
;	COMDAT ??_C@_0BG@ONKMLAAM@Spawning?5character?4?4?4@
CONST	SEGMENT
??_C@_0BG@ONKMLAAM@Spawning?5character?4?4?4@ DB 'Spawning character...', 00H ; `string'
CONST	ENDS
;	COMDAT ??_C@_08JJHAJDEM@RightLeg@
CONST	SEGMENT
??_C@_08JJHAJDEM@RightLeg@ DB 'RightLeg', 00H		; `string'
CONST	ENDS
;	COMDAT ??_C@_07FKPMCNBA@LeftLeg@
CONST	SEGMENT
??_C@_07FKPMCNBA@LeftLeg@ DB 'LeftLeg', 00H		; `string'
CONST	ENDS
;	COMDAT ??_C@_08IIJMBGOO@RightArm@
CONST	SEGMENT
??_C@_08IIJMBGOO@RightArm@ DB 'RightArm', 00H		; `string'
CONST	ENDS
;	COMDAT ??_C@_07ELBAKILC@LeftArm@
CONST	SEGMENT
??_C@_07ELBAKILC@LeftArm@ DB 'LeftArm', 00H		; `string'
CONST	ENDS
;	COMDAT ??_C@_05LHKEDNFH@Torso@
CONST	SEGMENT
??_C@_05LHKEDNFH@Torso@ DB 'Torso', 00H			; `string'
CONST	ENDS
;	COMDAT ??_C@_04BFCCBDOP@Head@
CONST	SEGMENT
??_C@_04BFCCBDOP@Head@ DB 'Head', 00H			; `string'
CONST	ENDS
;	COMDAT ??_C@_04BAJDEDPD@Root@
CONST	SEGMENT
??_C@_04BAJDEDPD@Root@ DB 'Root', 00H			; `string'
CONST	ENDS
;	COMDAT ??_C@_0BN@ODBIAHJF@Character?5?$CIRoot?$CJ?5Position?3?5?$CI@
CONST	SEGMENT
??_C@_0BN@ODBIAHJF@Character?5?$CIRoot?$CJ?5Position?3?5?$CI@ DB 'Charact'
	DB	'er (Root) Position: (', 00H			; `string'
CONST	ENDS
;	COMDAT ??_C@_0BD@OMPOOLFM@Camera?5Position?3?5?$CI@
CONST	SEGMENT
??_C@_0BD@OMPOOLFM@Camera?5Position?3?5?$CI@ DB 'Camera Position: (', 00H ; `string'
CONST	ENDS
;	COMDAT ??_C@_02MNMNLDAI@?$CJ?6@
CONST	SEGMENT
??_C@_02MNMNLDAI@?$CJ?6@ DB ')', 0aH, 00H		; `string'
CONST	ENDS
;	COMDAT ??_C@_0BD@PEHIFBAP@Control?5Mode?3?5Free@
CONST	SEGMENT
??_C@_0BD@PEHIFBAP@Control?5Mode?3?5Free@ DB 'Control Mode: Free', 00H ; `string'
CONST	ENDS
;	COMDAT ??_C@_0BI@IIFFLJEA@Control?5Mode?3?5Character@
CONST	SEGMENT
??_C@_0BI@IIFFLJEA@Control?5Mode?3?5Character@ DB 'Control Mode: Characte'
	DB	'r', 00H					; `string'
CONST	ENDS
;	COMDAT ??_C@_0EJ@CEKEGHCO@User?5Destructor?3?5Character?5is?5o@
CONST	SEGMENT
??_C@_0EJ@CEKEGHCO@User?5Destructor?3?5Character?5is?5o@ DB 'User Destruc'
	DB	'tor: Character is owned by Workspace, skipping manual delete', 00H ; `string'
CONST	ENDS
;	COMDAT ??_C@_0O@DFEEAMDI@?$FLRCBN_DEBUG?$FN?5@
CONST	SEGMENT
??_C@_0O@DFEEAMDI@?$FLRCBN_DEBUG?$FN?5@ DB '[RCBN_DEBUG] ', 00H ; `string'
CONST	ENDS
;	COMDAT ??_C@_0DA@MEOPJHDA@User?5Destructor?3?5Cleaning?5up?5or@
CONST	SEGMENT
??_C@_0DA@MEOPJHDA@User?5Destructor?3?5Cleaning?5up?5or@ DB 'User Destruc'
	DB	'tor: Cleaning up orphaned character', 00H	; `string'
CONST	ENDS
;	COMDAT ??_C@_05NFIJOKEG@Model@
CONST	SEGMENT
??_C@_05NFIJOKEG@Model@ DB 'Model', 00H			; `string'
CONST	ENDS
;	COMDAT ??_7Model@@6B@
CONST	SEGMENT
??_7Model@@6B@ DQ FLAT:??_R4Model@@6B@			; Model::`vftable'
	DQ	FLAT:?onAncestorChanged@Instance@@UEAAXXZ
	DQ	FLAT:?setParent@Instance@@UEAAXPEAV1@@Z
	DQ	FLAT:?GetClassName@Model@@UEAA?AV?$basic_string@DU?$char_traits@D@std@@V?$allocator@D@2@@std@@XZ
	DQ	FLAT:?IsA@Model@@UEAA_NV?$basic_string@DU?$char_traits@D@std@@V?$allocator@D@2@@std@@@Z
	DQ	FLAT:?addChild@Instance@@UEAAXPEAV1@@Z
	DQ	FLAT:??_EModel@@UEAAPEAXI@Z
CONST	ENDS
;	COMDAT ??_C@_0P@HECNJDHO@PxRigidDynamic@
CONST	SEGMENT
??_C@_0P@HECNJDHO@PxRigidDynamic@ DB 'PxRigidDynamic', 00H ; `string'
CONST	ENDS
;	COMDAT ??_C@_07KEJFKDFN@Spatial@
CONST	SEGMENT
??_C@_07KEJFKDFN@Spatial@ DB 'Spatial', 00H		; `string'
CONST	ENDS
;	COMDAT ??_7Spatial@@6B@
CONST	SEGMENT
??_7Spatial@@6B@ DQ FLAT:??_R4Spatial@@6B@		; Spatial::`vftable'
	DQ	FLAT:?onAncestorChanged@Instance@@UEAAXXZ
	DQ	FLAT:?setParent@Instance@@UEAAXPEAV1@@Z
	DQ	FLAT:?GetClassName@Spatial@@UEAA?AV?$basic_string@DU?$char_traits@D@std@@V?$allocator@D@2@@std@@XZ
	DQ	FLAT:?IsA@Spatial@@UEAA_NV?$basic_string@DU?$char_traits@D@std@@V?$allocator@D@2@@std@@@Z
	DQ	FLAT:?addChild@Instance@@UEAAXPEAV1@@Z
	DQ	FLAT:??_ESpatial@@UEAAPEAXI@Z
CONST	ENDS
;	COMDAT ??_C@_02KEGNLNML@?0?5@
CONST	SEGMENT
??_C@_02KEGNLNML@?0?5@ DB ', ', 00H			; `string'
CONST	ENDS
;	COMDAT ??_C@_0BA@JFNIOLAK@string?5too?5long@
CONST	SEGMENT
??_C@_0BA@JFNIOLAK@string?5too?5long@ DB 'string too long', 00H ; `string'
CONST	ENDS
;	COMDAT _CT??_R0?AVbad_alloc@std@@@8??0bad_alloc@std@@QEAA@AEBV01@@Z24
xdata$x	SEGMENT
_CT??_R0?AVbad_alloc@std@@@8??0bad_alloc@std@@QEAA@AEBV01@@Z24 DD 010H
	DD	imagerel ??_R0?AVbad_alloc@std@@@8
	DD	00H
	DD	0ffffffffH
	ORG $+4
	DD	018H
	DD	imagerel ??0bad_alloc@std@@QEAA@AEBV01@@Z
xdata$x	ENDS
;	COMDAT ??_R0?AVbad_alloc@std@@@8
data$r	SEGMENT
??_R0?AVbad_alloc@std@@@8 DQ FLAT:??_7type_info@@6B@	; std::bad_alloc `RTTI Type Descriptor'
	DQ	0000000000000000H
	DB	'.?AVbad_alloc@std@@', 00H
data$r	ENDS
;	COMDAT _CT??_R0?AVbad_array_new_length@std@@@8??0bad_array_new_length@std@@QEAA@AEBV01@@Z24
xdata$x	SEGMENT
_CT??_R0?AVbad_array_new_length@std@@@8??0bad_array_new_length@std@@QEAA@AEBV01@@Z24 DD 00H
	DD	imagerel ??_R0?AVbad_array_new_length@std@@@8
	DD	00H
	DD	0ffffffffH
	ORG $+4
	DD	018H
	DD	imagerel ??0bad_array_new_length@std@@QEAA@AEBV01@@Z
xdata$x	ENDS
;	COMDAT ??_R0?AVbad_array_new_length@std@@@8
data$r	SEGMENT
??_R0?AVbad_array_new_length@std@@@8 DQ FLAT:??_7type_info@@6B@ ; std::bad_array_new_length `RTTI Type Descriptor'
	DQ	0000000000000000H
	DB	'.?AVbad_array_new_length@std@@', 00H
data$r	ENDS
;	COMDAT _CTA3?AVbad_array_new_length@std@@
xdata$x	SEGMENT
_CTA3?AVbad_array_new_length@std@@ DD 03H
	DD	imagerel _CT??_R0?AVbad_array_new_length@std@@@8??0bad_array_new_length@std@@QEAA@AEBV01@@Z24
	DD	imagerel _CT??_R0?AVbad_alloc@std@@@8??0bad_alloc@std@@QEAA@AEBV01@@Z24
	DD	imagerel _CT??_R0?AVexception@std@@@8??0exception@std@@QEAA@AEBV01@@Z24
xdata$x	ENDS
;	COMDAT _TI3?AVbad_array_new_length@std@@
xdata$x	SEGMENT
_TI3?AVbad_array_new_length@std@@ DD 00H
	DD	imagerel ??1bad_array_new_length@std@@UEAA@XZ
	DD	00H
	DD	imagerel _CTA3?AVbad_array_new_length@std@@
xdata$x	ENDS
;	COMDAT _CT??_R0?AVexception@std@@@8??0exception@std@@QEAA@AEBV01@@Z24
xdata$x	SEGMENT
_CT??_R0?AVexception@std@@@8??0exception@std@@QEAA@AEBV01@@Z24 DD 00H
	DD	imagerel ??_R0?AVexception@std@@@8
	DD	00H
	DD	0ffffffffH
	ORG $+4
	DD	018H
	DD	imagerel ??0exception@std@@QEAA@AEBV01@@Z
xdata$x	ENDS
;	COMDAT ??_R0?AVexception@std@@@8
data$r	SEGMENT
??_R0?AVexception@std@@@8 DQ FLAT:??_7type_info@@6B@	; std::exception `RTTI Type Descriptor'
	DQ	0000000000000000H
	DB	'.?AVexception@std@@', 00H
data$r	ENDS
;	COMDAT ??_C@_0BF@KINCDENJ@bad?5array?5new?5length@
CONST	SEGMENT
??_C@_0BF@KINCDENJ@bad?5array?5new?5length@ DB 'bad array new length', 00H ; `string'
CONST	ENDS
;	COMDAT ??_7bad_array_new_length@std@@6B@
CONST	SEGMENT
??_7bad_array_new_length@std@@6B@ DQ FLAT:??_R4bad_array_new_length@std@@6B@ ; std::bad_array_new_length::`vftable'
	DQ	FLAT:??_Ebad_array_new_length@std@@UEAAPEAXI@Z
	DQ	FLAT:?what@exception@std@@UEBAPEBDXZ
CONST	ENDS
;	COMDAT ??_7bad_alloc@std@@6B@
CONST	SEGMENT
??_7bad_alloc@std@@6B@ DQ FLAT:??_R4bad_alloc@std@@6B@	; std::bad_alloc::`vftable'
	DQ	FLAT:??_Ebad_alloc@std@@UEAAPEAXI@Z
	DQ	FLAT:?what@exception@std@@UEBAPEBDXZ
CONST	ENDS
;	COMDAT ??_C@_0BC@EOODALEL@Unknown?5exception@
CONST	SEGMENT
??_C@_0BC@EOODALEL@Unknown?5exception@ DB 'Unknown exception', 00H ; `string'
CONST	ENDS
;	COMDAT ??_7exception@std@@6B@
CONST	SEGMENT
??_7exception@std@@6B@ DQ FLAT:??_R4exception@std@@6B@	; std::exception::`vftable'
	DQ	FLAT:??_Eexception@std@@UEAAPEAXI@Z
	DQ	FLAT:?what@exception@std@@UEBAPEBDXZ
CONST	ENDS
;	COMDAT xdata
xdata	SEGMENT
$unwind$??$_Allocate_manually_vector_aligned@U_Default_allocate_traits@std@@@std@@YAPEAX_K@Z DD 010401H
	DD	04204H
xdata	ENDS
;	COMDAT xdata
xdata	SEGMENT
$unwind$??$_Allocate@$0BA@U_Default_allocate_traits@std@@@std@@YAPEAX_K@Z DD 010401H
	DD	04204H
xdata	ENDS
;	COMDAT xdata
xdata	SEGMENT
$chain$3$??$_Reallocate_for@V<lambda_1>@?1???$_Assign@D@?$basic_string@DU?$char_traits@D@std@@V?$allocator@D@2@@std@@AEAAAEAV23@QEBD_K@Z@PEBD@?$basic_string@DU?$char_traits@D@std@@V?$allocator@D@2@@std@@AEAAAEAV01@_KV<lambda_1>@?1???$_Assign@D@01@AEAAAEAV01@QEBD0@Z@PEBD@Z DD 040021H
	DD	096400H
	DD	085400H
	DD	imagerel $LN116
	DD	imagerel $LN116+42
	DD	imagerel $unwind$??$_Reallocate_for@V<lambda_1>@?1???$_Assign@D@?$basic_string@DU?$char_traits@D@std@@V?$allocator@D@2@@std@@AEAAAEAV23@QEBD_K@Z@PEBD@?$basic_string@DU?$char_traits@D@std@@V?$allocator@D@2@@std@@AEAAAEAV01@_KV<lambda_1>@?1???$_Assign@D@01@AEAAAEAV01@QEBD0@Z@PEBD@Z
xdata	ENDS
;	COMDAT xdata
xdata	SEGMENT
$chain$2$??$_Reallocate_for@V<lambda_1>@?1???$_Assign@D@?$basic_string@DU?$char_traits@D@std@@V?$allocator@D@2@@std@@AEAAAEAV23@QEBD_K@Z@PEBD@?$basic_string@DU?$char_traits@D@std@@V?$allocator@D@2@@std@@AEAAAEAV01@_KV<lambda_1>@?1???$_Assign@D@01@AEAAAEAV01@QEBD0@Z@PEBD@Z DD 021H
	DD	imagerel $LN116
	DD	imagerel $LN116+42
	DD	imagerel $unwind$??$_Reallocate_for@V<lambda_1>@?1???$_Assign@D@?$basic_string@DU?$char_traits@D@std@@V?$allocator@D@2@@std@@AEAAAEAV23@QEBD_K@Z@PEBD@?$basic_string@DU?$char_traits@D@std@@V?$allocator@D@2@@std@@AEAAAEAV01@_KV<lambda_1>@?1???$_Assign@D@01@AEAAAEAV01@QEBD0@Z@PEBD@Z
xdata	ENDS
;	COMDAT xdata
xdata	SEGMENT
$chain$1$??$_Reallocate_for@V<lambda_1>@?1???$_Assign@D@?$basic_string@DU?$char_traits@D@std@@V?$allocator@D@2@@std@@AEAAAEAV23@QEBD_K@Z@PEBD@?$basic_string@DU?$char_traits@D@std@@V?$allocator@D@2@@std@@AEAAAEAV01@_KV<lambda_1>@?1???$_Assign@D@01@AEAAAEAV01@QEBD0@Z@PEBD@Z DD 041521H
	DD	096415H
	DD	085405H
	DD	imagerel $LN116
	DD	imagerel $LN116+42
	DD	imagerel $unwind$??$_Reallocate_for@V<lambda_1>@?1???$_Assign@D@?$basic_string@DU?$char_traits@D@std@@V?$allocator@D@2@@std@@AEAAAEAV23@QEBD_K@Z@PEBD@?$basic_string@DU?$char_traits@D@std@@V?$allocator@D@2@@std@@AEAAAEAV01@_KV<lambda_1>@?1???$_Assign@D@01@AEAAAEAV01@QEBD0@Z@PEBD@Z
xdata	ENDS
;	COMDAT xdata
xdata	SEGMENT
$unwind$??$_Reallocate_for@V<lambda_1>@?1???$_Assign@D@?$basic_string@DU?$char_traits@D@std@@V?$allocator@D@2@@std@@AEAAAEAV23@QEBD_K@Z@PEBD@?$basic_string@DU?$char_traits@D@std@@V?$allocator@D@2@@std@@AEAAAEAV01@_KV<lambda_1>@?1???$_Assign@D@01@AEAAAEAV01@QEBD0@Z@PEBD@Z DD 060e01H
	DD	0a340eH
	DD	0f00a320eH
	DD	07006e008H
xdata	ENDS
;	COMDAT xdata
xdata	SEGMENT
$unwind$??R<lambda_1>@?1???$_Assign@D@?$basic_string@DU?$char_traits@D@std@@V?$allocator@D@2@@std@@AEAAAEAV12@QEBD_K@Z@SA@QEAD10@Z DD 040a01H
	DD	06340aH
	DD	07006320aH
xdata	ENDS
;	COMDAT xdata
xdata	SEGMENT
$chain$2$??$_Assign@D@?$basic_string@DU?$char_traits@D@std@@V?$allocator@D@2@@std@@AEAAAEAV01@QEBD_K@Z DD 020021H
	DD	08e400H
	DD	imagerel $LN170
	DD	imagerel $LN170+93
	DD	imagerel $unwind$??$_Assign@D@?$basic_string@DU?$char_traits@D@std@@V?$allocator@D@2@@std@@AEAAAEAV01@QEBD_K@Z
xdata	ENDS
;	COMDAT xdata
xdata	SEGMENT
$chain$1$??$_Assign@D@?$basic_string@DU?$char_traits@D@std@@V?$allocator@D@2@@std@@AEAAAEAV01@QEBD_K@Z DD 021H
	DD	imagerel $LN170
	DD	imagerel $LN170+93
	DD	imagerel $unwind$??$_Assign@D@?$basic_string@DU?$char_traits@D@std@@V?$allocator@D@2@@std@@AEAAAEAV01@QEBD_K@Z
xdata	ENDS
;	COMDAT xdata
xdata	SEGMENT
$chain$0$??$_Assign@D@?$basic_string@DU?$char_traits@D@std@@V?$allocator@D@2@@std@@AEAAAEAV01@QEBD_K@Z DD 020521H
	DD	08e405H
	DD	imagerel $LN170
	DD	imagerel $LN170+93
	DD	imagerel $unwind$??$_Assign@D@?$basic_string@DU?$char_traits@D@std@@V?$allocator@D@2@@std@@AEAAAEAV01@QEBD_K@Z
xdata	ENDS
;	COMDAT xdata
xdata	SEGMENT
$unwind$??$_Assign@D@?$basic_string@DU?$char_traits@D@std@@V?$allocator@D@2@@std@@AEAAAEAV01@QEBD_K@Z DD 081201H
	DD	0a5412H
	DD	093412H
	DD	0f00e3212H
	DD	0600b700cH
xdata	ENDS
;	COMDAT xdata
xdata	SEGMENT
$unwind$??$_Traits_equal@U?$char_traits@D@std@@@std@@YA_NQEBD_K01@Z DD 010401H
	DD	04204H
xdata	ENDS
;	COMDAT xdata
xdata	SEGMENT
$unwind$??$_Allocate_at_least_helper@V?$allocator@D@std@@@std@@YAPEADAEAV?$allocator@D@0@AEA_K@Z DD 010401H
	DD	04204H
xdata	ENDS
;	COMDAT xdata
xdata	SEGMENT
$unwind$??$_Allocate_for_capacity@$0A@@?$basic_string@DU?$char_traits@D@std@@V?$allocator@D@2@@std@@CAPEADAEAV?$allocator@D@1@AEA_K@Z DD 020601H
	DD	030023206H
xdata	ENDS
;	COMDAT xdata
xdata	SEGMENT
$unwind$??$_Construct@$01PEBD@?$basic_string@DU?$char_traits@D@std@@V?$allocator@D@2@@std@@AEAAXQEBD_K@Z DD 050901H
	DD	070054209H
	DD	050036004H
	DD	03002H
xdata	ENDS
;	COMDAT xdata
xdata	SEGMENT
$chain$2$??$_Construct@$00PEBD@?$basic_string@DU?$char_traits@D@std@@V?$allocator@D@2@@std@@AEAAXQEBD_K@Z DD 020021H
	DD	0a7400H
	DD	imagerel $LN108
	DD	imagerel $LN108+79
	DD	imagerel $unwind$??$_Construct@$00PEBD@?$basic_string@DU?$char_traits@D@std@@V?$allocator@D@2@@std@@AEAAXQEBD_K@Z
xdata	ENDS
;	COMDAT xdata
xdata	SEGMENT
$chain$1$??$_Construct@$00PEBD@?$basic_string@DU?$char_traits@D@std@@V?$allocator@D@2@@std@@AEAAXQEBD_K@Z DD 021H
	DD	imagerel $LN108
	DD	imagerel $LN108+79
	DD	imagerel $unwind$??$_Construct@$00PEBD@?$basic_string@DU?$char_traits@D@std@@V?$allocator@D@2@@std@@AEAAXQEBD_K@Z
xdata	ENDS
;	COMDAT xdata
xdata	SEGMENT
$chain$0$??$_Construct@$00PEBD@?$basic_string@DU?$char_traits@D@std@@V?$allocator@D@2@@std@@AEAAXQEBD_K@Z DD 020521H
	DD	0a7405H
	DD	imagerel $LN108
	DD	imagerel $LN108+79
	DD	imagerel $unwind$??$_Construct@$00PEBD@?$basic_string@DU?$char_traits@D@std@@V?$allocator@D@2@@std@@AEAAXQEBD_K@Z
xdata	ENDS
;	COMDAT xdata
xdata	SEGMENT
$unwind$??$_Construct@$00PEBD@?$basic_string@DU?$char_traits@D@std@@V?$allocator@D@2@@std@@AEAAXQEBD_K@Z DD 050a01H
	DD	0e006420aH
	DD	050036004H
	DD	03002H
xdata	ENDS
;	COMDAT xdata
xdata	SEGMENT
$unwind$??$endl@DU?$char_traits@D@std@@@std@@YAAEAV?$basic_ostream@DU?$char_traits@D@std@@@0@AEAV10@@Z DD 020601H
	DD	030023206H
xdata	ENDS
;	COMDAT voltbl
voltbl	SEGMENT
_volmd	DB	00H
voltbl	ENDS
;	COMDAT xdata
xdata	SEGMENT
$unwind$?catch$4@?0???$?6U?$char_traits@D@std@@@std@@YAAEAV?$basic_ostream@DU?$char_traits@D@std@@@0@AEAV10@PEBD@Z@4HA DD 020a01H
	DD	05006320aH
xdata	ENDS
;	COMDAT xdata
xdata	SEGMENT
$ip2state$??$?6U?$char_traits@D@std@@@std@@YAAEAV?$basic_ostream@DU?$char_traits@D@std@@@0@AEAV10@PEBD@Z DB 0cH
	DB	'm', 02H
	DB	00H
	DB	'v'
	DB	02H
	DB	0f2H
	DB	06H
	DB	'9', 02H
	DB	04H
	DB	'L'
	DB	00H
	DB	'\'
	DB	0aH
xdata	ENDS
;	COMDAT xdata
xdata	SEGMENT
$handlerMap$??$?6U?$char_traits@D@std@@@std@@YAAEAV?$basic_ostream@DU?$char_traits@D@std@@@0@AEAV10@PEBD@Z DB 02H
	DB	011H
	DB	080H
	DD	imagerel ?catch$4@?0???$?6U?$char_traits@D@std@@@std@@YAAEAV?$basic_ostream@DU?$char_traits@D@std@@@0@AEAV10@PEBD@Z@4HA
	DB	'}', 07H
xdata	ENDS
;	COMDAT xdata
xdata	SEGMENT
$tryMap$??$?6U?$char_traits@D@std@@@std@@YAAEAV?$basic_ostream@DU?$char_traits@D@std@@@0@AEAV10@PEBD@Z DB 02H
	DB	04H
	DB	04H
	DB	06H
	DD	imagerel $handlerMap$??$?6U?$char_traits@D@std@@@std@@YAAEAV?$basic_ostream@DU?$char_traits@D@std@@@0@AEAV10@PEBD@Z
xdata	ENDS
;	COMDAT xdata
xdata	SEGMENT
$stateUnwindMap$??$?6U?$char_traits@D@std@@@std@@YAAEAV?$basic_ostream@DU?$char_traits@D@std@@@0@AEAV10@PEBD@Z DB 0aH
	DB	0aH
	DD	imagerel ??1_Sentry_base@?$basic_ostream@DU?$char_traits@D@std@@@std@@QEAA@XZ
	DB	040H
	DB	03aH
	DD	imagerel ??1sentry@?$basic_ostream@DU?$char_traits@D@std@@@std@@QEAA@XZ
	DB	040H
	DB	030H
	DB	038H
	DB	07eH
	DD	imagerel __std_terminate
xdata	ENDS
;	COMDAT xdata
xdata	SEGMENT
$cppxdata$??$?6U?$char_traits@D@std@@@std@@YAAEAV?$basic_ostream@DU?$char_traits@D@std@@@0@AEAV10@PEBD@Z DB 038H
	DD	imagerel $stateUnwindMap$??$?6U?$char_traits@D@std@@@std@@YAAEAV?$basic_ostream@DU?$char_traits@D@std@@@0@AEAV10@PEBD@Z
	DD	imagerel $tryMap$??$?6U?$char_traits@D@std@@@std@@YAAEAV?$basic_ostream@DU?$char_traits@D@std@@@0@AEAV10@PEBD@Z
	DD	imagerel $ip2state$??$?6U?$char_traits@D@std@@@std@@YAAEAV?$basic_ostream@DU?$char_traits@D@std@@@0@AEAV10@PEBD@Z
xdata	ENDS
;	COMDAT xdata
xdata	SEGMENT
$unwind$??$?6U?$char_traits@D@std@@@std@@YAAEAV?$basic_ostream@DU?$char_traits@D@std@@@0@AEAV10@PEBD@Z DD 0a1c19H
	DD	0f641cH
	DD	0d341cH
	DD	0f018521cH
	DD	0d014e016H
	DD	07010c012H
	DD	imagerel __CxxFrameHandler4
	DD	imagerel $cppxdata$??$?6U?$char_traits@D@std@@@std@@YAAEAV?$basic_ostream@DU?$char_traits@D@std@@@0@AEAV10@PEBD@Z
xdata	ENDS
;	COMDAT xdata
xdata	SEGMENT
$unwind$?dtor$7@?0??spawnCharacter@User@@QEAAXXZ@4HA DD 020601H
	DD	050023206H
xdata	ENDS
;	COMDAT xdata
xdata	SEGMENT
$unwind$?dtor$6@?0??spawnCharacter@User@@QEAAXXZ@4HA DD 020601H
	DD	050023206H
xdata	ENDS
;	COMDAT xdata
xdata	SEGMENT
$unwind$?dtor$5@?0??spawnCharacter@User@@QEAAXXZ@4HA DD 020601H
	DD	050023206H
xdata	ENDS
;	COMDAT xdata
xdata	SEGMENT
$unwind$?dtor$4@?0??spawnCharacter@User@@QEAAXXZ@4HA DD 020601H
	DD	050023206H
xdata	ENDS
;	COMDAT xdata
xdata	SEGMENT
$unwind$?dtor$3@?0??spawnCharacter@User@@QEAAXXZ@4HA DD 020601H
	DD	050023206H
xdata	ENDS
;	COMDAT xdata
xdata	SEGMENT
$unwind$?dtor$2@?0??spawnCharacter@User@@QEAAXXZ@4HA DD 020601H
	DD	050023206H
xdata	ENDS
;	COMDAT xdata
xdata	SEGMENT
$unwind$?dtor$1@?0??spawnCharacter@User@@QEAAXXZ@4HA DD 020601H
	DD	050023206H
xdata	ENDS
;	COMDAT xdata
xdata	SEGMENT
$unwind$?dtor$0@?0??spawnCharacter@User@@QEAAXXZ@4HA DD 020601H
	DD	050023206H
xdata	ENDS
;	COMDAT xdata
xdata	SEGMENT
$ip2state$?spawnCharacter@User@@QEAAXXZ DB '$'
	DB	'j'
	DB	00H
	DB	0d8H
	DB	04H
	DB	0ccH
	DB	02H
	DB	'`'
	DB	00H
	DB	'r'
	DB	06H
	DB	'&'
	DB	00H
	DB	'r'
	DB	08H
	DB	'&'
	DB	00H
	DB	'r'
	DB	0aH
	DB	'&'
	DB	00H
	DB	'r'
	DB	0cH
	DB	','
	DB	00H
	DB	'r'
	DB	0eH
	DB	','
	DB	00H
	DB	'r'
	DB	010H
	DB	','
	DB	00H
	DB	'r'
	DB	012H
	DB	'L'
	DB	00H
xdata	ENDS
;	COMDAT xdata
xdata	SEGMENT
$stateUnwindMap$?spawnCharacter@User@@QEAAXXZ DB 012H
	DB	0eH
	DD	imagerel ?dtor$0@?0??spawnCharacter@User@@QEAAXXZ@4HA
	DB	02cH
	DD	imagerel ??1?$basic_string@DU?$char_traits@D@std@@V?$allocator@D@2@@std@@QEAA@XZ
	DB	061H
	DB	03H
	DB	06eH
	DD	imagerel ?dtor$1@?0??spawnCharacter@User@@QEAAXXZ@4HA
	DB	096H
	DD	imagerel ?dtor$2@?0??spawnCharacter@User@@QEAAXXZ@4HA
	DB	0beH
	DD	imagerel ?dtor$3@?0??spawnCharacter@User@@QEAAXXZ@4HA
	DB	0e6H
	DD	imagerel ?dtor$4@?0??spawnCharacter@User@@QEAAXXZ@4HA
	DB	01dH
	DB	02H
	DD	imagerel ?dtor$5@?0??spawnCharacter@User@@QEAAXXZ@4HA
	DB	07dH
	DB	02H
	DD	imagerel ?dtor$6@?0??spawnCharacter@User@@QEAAXXZ@4HA
	DB	0ddH
	DB	02H
	DD	imagerel ?dtor$7@?0??spawnCharacter@User@@QEAAXXZ@4HA
xdata	ENDS
;	COMDAT xdata
xdata	SEGMENT
$cppxdata$?spawnCharacter@User@@QEAAXXZ DB 028H
	DD	imagerel $stateUnwindMap$?spawnCharacter@User@@QEAAXXZ
	DD	imagerel $ip2state$?spawnCharacter@User@@QEAAXXZ
xdata	ENDS
;	COMDAT xdata
xdata	SEGMENT
$unwind$?spawnCharacter@User@@QEAAXXZ DD 0d2211H
	DD	088822H
	DD	09781dH
	DD	0a6819H
	DD	01d3415H
	DD	0160115H
	DD	06009700aH
	DD	05008H
	DD	imagerel __CxxFrameHandler4
	DD	imagerel $cppxdata$?spawnCharacter@User@@QEAAXXZ
xdata	ENDS
;	COMDAT xdata
xdata	SEGMENT
$chain$20$?processInput@User@@QEAAXXZ DD 021H
	DD	imagerel $LN469
	DD	imagerel $LN469+34
	DD	imagerel $unwind$?processInput@User@@QEAAXXZ
xdata	ENDS
;	COMDAT xdata
xdata	SEGMENT
$chain$19$?processInput@User@@QEAAXXZ DD 021H
	DD	imagerel $LN469+34
	DD	imagerel $LN469+43
	DD	imagerel $chain$0$?processInput@User@@QEAAXXZ
xdata	ENDS
;	COMDAT xdata
xdata	SEGMENT
$chain$18$?processInput@User@@QEAAXXZ DD 0e0021H
	DD	0fe800H
	DD	010d800H
	DD	011c800H
	DD	012b800H
	DD	0149800H
	DD	0167800H
	DD	0176800H
	DD	imagerel $LN469+43
	DD	imagerel $LN469+51
	DD	imagerel $chain$2$?processInput@User@@QEAAXXZ
xdata	ENDS
;	COMDAT xdata
xdata	SEGMENT
$chain$17$?processInput@User@@QEAAXXZ DD 0120021H
	DD	0fe800H
	DD	010d800H
	DD	011c800H
	DD	012b800H
	DD	013a800H
	DD	0149800H
	DD	0158800H
	DD	0167800H
	DD	0176800H
	DD	imagerel $LN469+43
	DD	imagerel $LN469+51
	DD	imagerel $chain$2$?processInput@User@@QEAAXXZ
xdata	ENDS
;	COMDAT xdata
xdata	SEGMENT
$chain$16$?processInput@User@@QEAAXXZ DD 021H
	DD	imagerel $LN469+51
	DD	imagerel $LN469+672
	DD	imagerel $chain$12$?processInput@User@@QEAAXXZ
xdata	ENDS
;	COMDAT xdata
xdata	SEGMENT
$chain$15$?processInput@User@@QEAAXXZ DD 021H
	DD	imagerel $LN469+672
	DD	imagerel $LN469+1393
	DD	imagerel $chain$13$?processInput@User@@QEAAXXZ
xdata	ENDS
;	COMDAT xdata
xdata	SEGMENT
$chain$14$?processInput@User@@QEAAXXZ DD 020921H
	DD	0ef809H
	DD	imagerel $LN469+672
	DD	imagerel $LN469+1393
	DD	imagerel $chain$13$?processInput@User@@QEAAXXZ
xdata	ENDS
;	COMDAT xdata
xdata	SEGMENT
$chain$13$?processInput@User@@QEAAXXZ DD 020821H
	DD	030f408H
	DD	imagerel $LN469+51
	DD	imagerel $LN469+672
	DD	imagerel $chain$12$?processInput@User@@QEAAXXZ
xdata	ENDS
;	COMDAT xdata
xdata	SEGMENT
$chain$12$?processInput@User@@QEAAXXZ DD 0143e21H
	DD	017683eH
	DD	0fe83aH
	DD	010d832H
	DD	011c82aH
	DD	012b822H
	DD	013a81aH
	DD	0149812H
	DD	015880dH
	DD	0167808H
	DD	031e404H
	DD	imagerel $LN469+43
	DD	imagerel $LN469+51
	DD	imagerel $chain$2$?processInput@User@@QEAAXXZ
xdata	ENDS
;	COMDAT xdata
xdata	SEGMENT
$chain$2$?processInput@User@@QEAAXXZ DD 040821H
	DD	032c408H
	DD	0336404H
	DD	imagerel $LN469+34
	DD	imagerel $LN469+43
	DD	imagerel $chain$0$?processInput@User@@QEAAXXZ
xdata	ENDS
;	COMDAT xdata
xdata	SEGMENT
$chain$0$?processInput@User@@QEAAXXZ DD 020421H
	DD	0343404H
	DD	imagerel $LN469
	DD	imagerel $LN469+34
	DD	imagerel $unwind$?processInput@User@@QEAAXXZ
xdata	ENDS
;	COMDAT xdata
xdata	SEGMENT
$unwind$?processInput@User@@QEAAXXZ DD 041301H
	DD	0350113H
	DD	050047005H
xdata	ENDS
;	COMDAT xdata
xdata	SEGMENT
$unwind$?updateVectors@User@@QEAAXXZ DD 081f01H
	DD	04781fH
	DD	056818H
	DD	0e340cH
	DD	07008b20cH
xdata	ENDS
;	COMDAT xdata
xdata	SEGMENT
$ip2state$??1User@@QEAA@XZ DB 02H
	DB	'V'
	DB	00H
xdata	ENDS
;	COMDAT xdata
xdata	SEGMENT
$cppxdata$??1User@@QEAA@XZ DB 060H
	DD	imagerel $ip2state$??1User@@QEAA@XZ
xdata	ENDS
;	COMDAT xdata
xdata	SEGMENT
$unwind$??1User@@QEAA@XZ DD 020619H
	DD	030023206H
	DD	imagerel __CxxFrameHandler4
	DD	imagerel $cppxdata$??1User@@QEAA@XZ
xdata	ENDS
;	COMDAT xdata
xdata	SEGMENT
$unwind$??0User@@QEAA@PEAUGLFWwindow@@@Z DD 020601H
	DD	030023206H
xdata	ENDS
;	COMDAT xdata
xdata	SEGMENT
$unwind$??$?8DU?$char_traits@D@std@@V?$allocator@D@1@@std@@YA_NAEBV?$basic_string@DU?$char_traits@D@std@@V?$allocator@D@2@@0@QEBD@Z DD 040a01H
	DD	06340aH
	DD	07006320aH
xdata	ENDS
;	COMDAT xdata
xdata	SEGMENT
$unwind$??_GModel@@UEAAPEAXI@Z DD 040a01H
	DD	06340aH
	DD	07006320aH
xdata	ENDS
;	COMDAT xdata
xdata	SEGMENT
$ip2state$?IsA@Model@@UEAA_NV?$basic_string@DU?$char_traits@D@std@@V?$allocator@D@2@@std@@@Z DB 04H
	DB	0c0H
	DB	02H
	DB	'&'
	DB	00H
xdata	ENDS
;	COMDAT xdata
xdata	SEGMENT
$stateUnwindMap$?IsA@Model@@UEAA_NV?$basic_string@DU?$char_traits@D@std@@V?$allocator@D@2@@std@@@Z DB 02H
	DB	0cH
	DD	imagerel ??1?$basic_string@DU?$char_traits@D@std@@V?$allocator@D@2@@std@@QEAA@XZ
	DB	090H
xdata	ENDS
;	COMDAT xdata
xdata	SEGMENT
$cppxdata$?IsA@Model@@UEAA_NV?$basic_string@DU?$char_traits@D@std@@V?$allocator@D@2@@std@@@Z DB 028H
	DD	imagerel $stateUnwindMap$?IsA@Model@@UEAA_NV?$basic_string@DU?$char_traits@D@std@@V?$allocator@D@2@@std@@@Z
	DD	imagerel $ip2state$?IsA@Model@@UEAA_NV?$basic_string@DU?$char_traits@D@std@@V?$allocator@D@2@@std@@@Z
xdata	ENDS
;	COMDAT xdata
xdata	SEGMENT
$unwind$?IsA@Model@@UEAA_NV?$basic_string@DU?$char_traits@D@std@@V?$allocator@D@2@@std@@@Z DD 041919H
	DD	010340aH
	DD	07006b20aH
	DD	imagerel __GSHandlerCheck_EH4
	DD	imagerel $cppxdata$?IsA@Model@@UEAA_NV?$basic_string@DU?$char_traits@D@std@@V?$allocator@D@2@@std@@@Z
	DD	052H
xdata	ENDS
;	COMDAT xdata
xdata	SEGMENT
$unwind$?GetClassName@Model@@UEAA?AV?$basic_string@DU?$char_traits@D@std@@V?$allocator@D@2@@std@@XZ DD 010401H
	DD	02204H
xdata	ENDS
;	COMDAT xdata
xdata	SEGMENT
$ip2state$??0Model@@QEAA@UVector3@@0@Z DB 04H
	DB	0b6H
	DB	02H
	DB	0c2H
	DB	00H
xdata	ENDS
;	COMDAT xdata
xdata	SEGMENT
$stateUnwindMap$??0Model@@QEAA@UVector3@@0@Z DB 02H
	DB	0cH
	DD	imagerel ??1?$basic_string@DU?$char_traits@D@std@@V?$allocator@D@2@@std@@QEAA@XZ
	DB	061H
	DB	02H
xdata	ENDS
;	COMDAT xdata
xdata	SEGMENT
$cppxdata$??0Model@@QEAA@UVector3@@0@Z DB 028H
	DD	imagerel $stateUnwindMap$??0Model@@QEAA@UVector3@@0@Z
	DD	imagerel $ip2state$??0Model@@QEAA@UVector3@@0@Z
xdata	ENDS
;	COMDAT xdata
xdata	SEGMENT
$unwind$??0Model@@QEAA@UVector3@@0@Z DD 061011H
	DD	0116410H
	DD	0103410H
	DD	0700cd210H
	DD	imagerel __CxxFrameHandler4
	DD	imagerel $cppxdata$??0Model@@QEAA@UVector3@@0@Z
xdata	ENDS
;	COMDAT xdata
xdata	SEGMENT
$unwind$??_GSpatial@@UEAAPEAXI@Z DD 040a01H
	DD	06340aH
	DD	07006320aH
xdata	ENDS
;	COMDAT xdata
xdata	SEGMENT
$unwind$?GetClassName@Spatial@@UEAA?AV?$basic_string@DU?$char_traits@D@std@@V?$allocator@D@2@@std@@XZ DD 010401H
	DD	02204H
xdata	ENDS
;	COMDAT xdata
xdata	SEGMENT
$ip2state$??0Spatial@@QEAA@UVector3@@0V?$basic_string@DU?$char_traits@D@std@@V?$allocator@D@2@@std@@@Z DB 04H
	DB	'r'
	DB	02H
	DB	0c4H
	DB	00H
xdata	ENDS
;	COMDAT xdata
xdata	SEGMENT
$stateUnwindMap$??0Spatial@@QEAA@UVector3@@0V?$basic_string@DU?$char_traits@D@std@@V?$allocator@D@2@@std@@@Z DB 02H
	DB	0cH
	DD	imagerel ??1?$basic_string@DU?$char_traits@D@std@@V?$allocator@D@2@@std@@QEAA@XZ
	DB	090H
xdata	ENDS
;	COMDAT xdata
xdata	SEGMENT
$cppxdata$??0Spatial@@QEAA@UVector3@@0V?$basic_string@DU?$char_traits@D@std@@V?$allocator@D@2@@std@@@Z DB 028H
	DD	imagerel $stateUnwindMap$??0Spatial@@QEAA@UVector3@@0V?$basic_string@DU?$char_traits@D@std@@V?$allocator@D@2@@std@@@Z
	DD	imagerel $ip2state$??0Spatial@@QEAA@UVector3@@0V?$basic_string@DU?$char_traits@D@std@@V?$allocator@D@2@@std@@@Z
xdata	ENDS
;	COMDAT xdata
xdata	SEGMENT
$unwind$??0Spatial@@QEAA@UVector3@@0V?$basic_string@DU?$char_traits@D@std@@V?$allocator@D@2@@std@@@Z DD 061b19H
	DD	011340cH
	DD	07008b20cH
	DD	050066007H
	DD	imagerel __GSHandlerCheck_EH4
	DD	imagerel $cppxdata$??0Spatial@@QEAA@UVector3@@0V?$basic_string@DU?$char_traits@D@std@@V?$allocator@D@2@@std@@@Z
	DD	052H
xdata	ENDS
;	COMDAT xdata
xdata	SEGMENT
$unwind$??DCFrame@@QEBA?AU0@AEBU0@@Z DD 0103b01H
	DD	03c83bH
	DD	04b831H
	DD	05a823H
	DD	06881aH
	DD	077811H
	DD	011010cH
	DD	060047005H
	DD	030025003H
xdata	ENDS
;	COMDAT xdata
xdata	SEGMENT
$unwind$?fromAxisAngle@CFrame@@SA?AU1@UVector3@@M@Z DD 0c2601H
	DD	029826H
	DD	038820H
	DD	047817H
	DD	05680fH
	DD	0e340aH
	DD	07006b20aH
xdata	ENDS
;	COMDAT xdata
xdata	SEGMENT
$ip2state$??1sentry@?$basic_ostream@DU?$char_traits@D@std@@@std@@QEAA@XZ DB 02H
	DB	't'
	DB	02H
xdata	ENDS
;	COMDAT xdata
xdata	SEGMENT
$stateUnwindMap$??1sentry@?$basic_ostream@DU?$char_traits@D@std@@@std@@QEAA@XZ DB 02H
	DB	0eH
	DD	imagerel __std_terminate
xdata	ENDS
;	COMDAT xdata
xdata	SEGMENT
$cppxdata$??1sentry@?$basic_ostream@DU?$char_traits@D@std@@@std@@QEAA@XZ DB 068H
	DD	imagerel $stateUnwindMap$??1sentry@?$basic_ostream@DU?$char_traits@D@std@@@std@@QEAA@XZ
	DD	imagerel $ip2state$??1sentry@?$basic_ostream@DU?$char_traits@D@std@@@std@@QEAA@XZ
xdata	ENDS
;	COMDAT xdata
xdata	SEGMENT
$unwind$??1sentry@?$basic_ostream@DU?$char_traits@D@std@@@std@@QEAA@XZ DD 020619H
	DD	030023206H
	DD	imagerel __CxxFrameHandler4
	DD	imagerel $cppxdata$??1sentry@?$basic_ostream@DU?$char_traits@D@std@@@std@@QEAA@XZ
xdata	ENDS
;	COMDAT xdata
xdata	SEGMENT
$ip2state$??0sentry@?$basic_ostream@DU?$char_traits@D@std@@@std@@QEAA@AEAV12@@Z DB 04H
	DB	'f'
	DB	00H
	DB	'l'
	DB	02H
xdata	ENDS
;	COMDAT xdata
xdata	SEGMENT
$stateUnwindMap$??0sentry@?$basic_ostream@DU?$char_traits@D@std@@@std@@QEAA@AEAV12@@Z DB 02H
	DB	0cH
	DD	imagerel ??1_Sentry_base@?$basic_ostream@DU?$char_traits@D@std@@@std@@QEAA@XZ
	DB	060H
xdata	ENDS
;	COMDAT xdata
xdata	SEGMENT
$cppxdata$??0sentry@?$basic_ostream@DU?$char_traits@D@std@@@std@@QEAA@AEAV12@@Z DB 028H
	DD	imagerel $stateUnwindMap$??0sentry@?$basic_ostream@DU?$char_traits@D@std@@@std@@QEAA@AEAV12@@Z
	DD	imagerel $ip2state$??0sentry@?$basic_ostream@DU?$char_traits@D@std@@@std@@QEAA@AEAV12@@Z
xdata	ENDS
;	COMDAT xdata
xdata	SEGMENT
$unwind$??0sentry@?$basic_ostream@DU?$char_traits@D@std@@@std@@QEAA@AEAV12@@Z DD 040f11H
	DD	07340fH
	DD	0700b320fH
	DD	imagerel __CxxFrameHandler4
	DD	imagerel $cppxdata$??0sentry@?$basic_ostream@DU?$char_traits@D@std@@@std@@QEAA@AEAV12@@Z
xdata	ENDS
;	COMDAT xdata
xdata	SEGMENT
$ip2state$??1_Sentry_base@?$basic_ostream@DU?$char_traits@D@std@@@std@@QEAA@XZ DB 02H
	DB	'D'
	DB	00H
xdata	ENDS
;	COMDAT xdata
xdata	SEGMENT
$cppxdata$??1_Sentry_base@?$basic_ostream@DU?$char_traits@D@std@@@std@@QEAA@XZ DB 060H
	DD	imagerel $ip2state$??1_Sentry_base@?$basic_ostream@DU?$char_traits@D@std@@@std@@QEAA@XZ
xdata	ENDS
;	COMDAT xdata
xdata	SEGMENT
$unwind$??1_Sentry_base@?$basic_ostream@DU?$char_traits@D@std@@@std@@QEAA@XZ DD 010419H
	DD	04204H
	DD	imagerel __CxxFrameHandler4
	DD	imagerel $cppxdata$??1_Sentry_base@?$basic_ostream@DU?$char_traits@D@std@@@std@@QEAA@XZ
xdata	ENDS
;	COMDAT xdata
xdata	SEGMENT
$unwind$??0_Sentry_base@?$basic_ostream@DU?$char_traits@D@std@@@std@@QEAA@AEAV12@@Z DD 020601H
	DD	030023206H
xdata	ENDS
;	COMDAT xdata
xdata	SEGMENT
$unwind$??$_Getvals@_W@?$time_get@_WV?$istreambuf_iterator@_WU?$char_traits@_W@std@@@std@@@std@@IEAAX_WAEBV_Locinfo@1@@Z DD 082119H
	DD	0135412H
	DD	0113412H
	DD	0e00eb212H
	DD	0600b700cH
	DD	imagerel __GSHandlerCheck
	DD	050H
xdata	ENDS
;	COMDAT xdata
xdata	SEGMENT
$unwind$??$_Getvals@_W@?$time_get@DV?$istreambuf_iterator@DU?$char_traits@D@std@@@std@@@std@@IEAAX_WAEBV_Locinfo@1@@Z DD 082119H
	DD	0135412H
	DD	0113412H
	DD	0e00eb212H
	DD	0600b700cH
	DD	imagerel __GSHandlerCheck
	DD	050H
xdata	ENDS
;	COMDAT xdata
xdata	SEGMENT
$unwind$?_Maklocwcs@std@@YAPEA_WPEB_W@Z DD 060f01H
	DD	07640fH
	DD	06340fH
	DD	0700b320fH
xdata	ENDS
;	COMDAT xdata
xdata	SEGMENT
$chain$2$?Slerp@Quaternion@@SA?AU1@AEBU1@0M@Z DD 021H
	DD	imagerel $LN50
	DD	imagerel $LN50+296
	DD	imagerel $unwind$?Slerp@Quaternion@@SA?AU1@AEBU1@0M@Z
xdata	ENDS
;	COMDAT xdata
xdata	SEGMENT
$chain$1$?Slerp@Quaternion@@SA?AU1@AEBU1@0M@Z DD 041421H
	DD	0a7814H
	DD	0b6808H
	DD	imagerel $LN50
	DD	imagerel $LN50+296
	DD	imagerel $unwind$?Slerp@Quaternion@@SA?AU1@AEBU1@0M@Z
xdata	ENDS
;	COMDAT xdata
xdata	SEGMENT
$unwind$?Slerp@Quaternion@@SA?AU1@AEBU1@0M@Z DD 0157c01H
	DD	02f87cH
	DD	03e86bH
	DD	04d85bH
	DD	05c84bH
	DD	06b83cH
	DD	07a832H
	DD	089824H
	DD	09881cH
	DD	01a340fH
	DD	018010fH
	DD	07008H
xdata	ENDS
;	COMDAT xdata
xdata	SEGMENT
$unwind$?getForward@Quaternion@@QEBA?AUVector3@@XZ DD 042201H
	DD	036822H
	DD	030027206H
xdata	ENDS
;	COMDAT xdata
xdata	SEGMENT
$unwind$?getUp@Quaternion@@QEBA?AUVector3@@XZ DD 042201H
	DD	036822H
	DD	030027206H
xdata	ENDS
;	COMDAT xdata
xdata	SEGMENT
$unwind$?getRight@Quaternion@@QEBA?AUVector3@@XZ DD 020601H
	DD	030025206H
xdata	ENDS
;	COMDAT xdata
xdata	SEGMENT
$unwind$?rotate@Quaternion@@QEBA?AUVector3@@AEBU2@@Z DD 0b5b01H
	DD	0b85bH
	DD	01a84bH
	DD	029836H
	DD	03882cH
	DD	046820H
	DD	0a204H
xdata	ENDS
;	COMDAT xdata
xdata	SEGMENT
$unwind$??DQuaternion@@QEBA?AU0@AEBU0@@Z DD 0d6501H
	DD	0b865H
	DD	01a84dH
	DD	029842H
	DD	038833H
	DD	047827H
	DD	056819H
	DD	0c204H
xdata	ENDS
;	COMDAT xdata
xdata	SEGMENT
$unwind$?fromAxisAngle@Quaternion@@SA?AU1@AEBUVector3@@M@Z DD 081701H
	DD	027817H
	DD	03680fH
	DD	0a340aH
	DD	07006720aH
xdata	ENDS
;	COMDAT xdata
xdata	SEGMENT
$unwind$?normalize@Vector3@@QEBA?AU1@XZ DD 082801H
	DD	038828H
	DD	047818H
	DD	05680bH
	DD	03002b206H
xdata	ENDS
;	COMDAT xdata
xdata	SEGMENT
$unwind$?_Tidy_deallocate@?$basic_string@DU?$char_traits@D@std@@V?$allocator@D@2@@std@@AEAAXXZ DD 020601H
	DD	030023206H
xdata	ENDS
;	COMDAT xdata
xdata	SEGMENT
$unwind$?_Equal@?$basic_string@DU?$char_traits@D@std@@V?$allocator@D@2@@std@@QEBA_NQEBD@Z DD 040a01H
	DD	06340aH
	DD	07006320aH
xdata	ENDS
;	COMDAT xdata
xdata	SEGMENT
$unwind$?assign@?$basic_string@DU?$char_traits@D@std@@V?$allocator@D@2@@std@@QEAAAEAV12@QEBD@Z DD 040a01H
	DD	06340aH
	DD	07006320aH
xdata	ENDS
;	COMDAT xdata
xdata	SEGMENT
$unwind$??4?$basic_string@DU?$char_traits@D@std@@V?$allocator@D@2@@std@@QEAAAEAV01@QEBD@Z DD 040a01H
	DD	06340aH
	DD	07006320aH
xdata	ENDS
;	COMDAT xdata
xdata	SEGMENT
$unwind$??0?$basic_string@DU?$char_traits@D@std@@V?$allocator@D@2@@std@@QEAA@QEBD@Z DD 040a01H
	DD	06340aH
	DD	07006320aH
xdata	ENDS
;	COMDAT xdata
xdata	SEGMENT
$unwind$??0?$basic_string@DU?$char_traits@D@std@@V?$allocator@D@2@@std@@QEAA@AEBV01@@Z DD 050a01H
	DD	0e006420aH
	DD	060037004H
	DD	03002H
xdata	ENDS
;	COMDAT xdata
xdata	SEGMENT
$unwind$?allocate@?$allocator@D@std@@QEAAPEAD_K@Z DD 010401H
	DD	04204H
xdata	ENDS
;	COMDAT xdata
xdata	SEGMENT
$unwind$?_Xlen_string@std@@YAXXZ DD 010401H
	DD	04204H
xdata	ENDS
;	COMDAT xdata
xdata	SEGMENT
$unwind$?_Throw_bad_array_new_length@std@@YAXXZ DD 010401H
	DD	08204H
xdata	ENDS
;	COMDAT xdata
xdata	SEGMENT
$unwind$??_Gbad_array_new_length@std@@UEAAPEAXI@Z DD 040a01H
	DD	06340aH
	DD	07006320aH
xdata	ENDS
;	COMDAT xdata
xdata	SEGMENT
$unwind$??0bad_array_new_length@std@@QEAA@AEBV01@@Z DD 020601H
	DD	030023206H
xdata	ENDS
;	COMDAT xdata
xdata	SEGMENT
$unwind$??_Gbad_alloc@std@@UEAAPEAXI@Z DD 040a01H
	DD	06340aH
	DD	07006320aH
xdata	ENDS
;	COMDAT xdata
xdata	SEGMENT
$unwind$??0bad_alloc@std@@QEAA@AEBV01@@Z DD 020601H
	DD	030023206H
xdata	ENDS
;	COMDAT xdata
xdata	SEGMENT
$unwind$??_Gexception@std@@UEAAPEAXI@Z DD 040a01H
	DD	06340aH
	DD	07006320aH
xdata	ENDS
;	COMDAT xdata
xdata	SEGMENT
$unwind$??0exception@std@@QEAA@AEBV01@@Z DD 020601H
	DD	030023206H
xdata	ENDS
;	COMDAT xdata
xdata	SEGMENT
$unwind$?move@?$_Char_traits@DH@std@@SAPEADQEADQEBD_K@Z DD 020601H
	DD	030023206H
xdata	ENDS
;	COMDAT xdata
xdata	SEGMENT
$unwind$?copy@?$_Char_traits@DH@std@@SAPEADQEADQEBD_K@Z DD 020601H
	DD	030023206H
xdata	ENDS
;	COMDAT xdata
xdata	SEGMENT
$unwind$??_H@YAXPEAX_K1P6APEAX0@Z@Z DD 050d01H
	DD	07009420dH
	DD	050076008H
	DD	03006H
xdata	ENDS
CRT$XCU	SEGMENT
?maxFError$initializer$@vecMathTests@aos@physx@@3P6AXXZEA DQ FLAT:??__EmaxFError@vecMathTests@aos@physx@@YAXXZ ; physx::aos::vecMathTests::maxFError$initializer$
CRT$XCU	ENDS
CRT$XCU	SEGMENT
?minV3Error$initializer$@vecMathTests@aos@physx@@3P6AXXZEA DQ FLAT:??__EminV3Error@vecMathTests@aos@physx@@YAXXZ ; physx::aos::vecMathTests::minV3Error$initializer$
CRT$XCU	ENDS
CRT$XCU	SEGMENT
?maxV3Error$initializer$@vecMathTests@aos@physx@@3P6AXXZEA DQ FLAT:??__EmaxV3Error@vecMathTests@aos@physx@@YAXXZ ; physx::aos::vecMathTests::maxV3Error$initializer$
CRT$XCU	ENDS
CRT$XCU	SEGMENT
?minV4Error$initializer$@vecMathTests@aos@physx@@3P6AXXZEA DQ FLAT:??__EminV4Error@vecMathTests@aos@physx@@YAXXZ ; physx::aos::vecMathTests::minV4Error$initializer$
CRT$XCU	ENDS
CRT$XCU	SEGMENT
?maxV4Error$initializer$@vecMathTests@aos@physx@@3P6AXXZEA DQ FLAT:??__EmaxV4Error@vecMathTests@aos@physx@@YAXXZ ; physx::aos::vecMathTests::maxV4Error$initializer$
CRT$XCU	ENDS
; Function compile flags: /Ogtpy
;	COMDAT ??$_Allocate_manually_vector_aligned@U_Default_allocate_traits@std@@@std@@YAPEAX_K@Z
_TEXT	SEGMENT
_Bytes$ = 48
??$_Allocate_manually_vector_aligned@U_Default_allocate_traits@std@@@std@@YAPEAX_K@Z PROC ; std::_Allocate_manually_vector_aligned<std::_Default_allocate_traits>, COMDAT
; File C:\Program Files\Microsoft Visual Studio\18\Community\VC\Tools\MSVC\14.50.35717\include\xmemory
; Line 186
$LN10:
	sub	rsp, 40					; 00000028H
; Line 188
	lea	rax, QWORD PTR [rcx+39]
; Line 189
	cmp	rax, rcx
	jbe	SHORT $LN9@Allocate_m
; Line 140
	mov	rcx, rax
	call	??2@YAPEAX_K@Z				; operator new
	mov	rcx, rax
; Line 194
	test	rax, rax
	jne	SHORT $LN3@Allocate_m
	mov	ecx, 5
	int	41					; 00000029H
$LN3@Allocate_m:
; Line 195
	add	rax, 39					; 00000027H
	and	rax, -32				; ffffffffffffffe0H
; Line 196
	mov	QWORD PTR [rax-8], rcx
; Line 202
	add	rsp, 40					; 00000028H
	ret	0
$LN9@Allocate_m:
; Line 190
	call	?_Throw_bad_array_new_length@std@@YAXXZ	; std::_Throw_bad_array_new_length
	int	3
$LN7@Allocate_m:
??$_Allocate_manually_vector_aligned@U_Default_allocate_traits@std@@@std@@YAPEAX_K@Z ENDP ; std::_Allocate_manually_vector_aligned<std::_Default_allocate_traits>
_TEXT	ENDS
; Function compile flags: /Ogtpy
;	COMDAT ??$_Get_size_of_n@$00@std@@YA_K_K@Z
_TEXT	SEGMENT
_Count$ = 8
??$_Get_size_of_n@$00@std@@YA_K_K@Z PROC		; std::_Get_size_of_n<1>, COMDAT
; File C:\Program Files\Microsoft Visual Studio\18\Community\VC\Tools\MSVC\14.50.35717\include\xmemory
; Line 126
	mov	rax, rcx
; Line 127
	ret	0
??$_Get_size_of_n@$00@std@@YA_K_K@Z ENDP		; std::_Get_size_of_n<1>
_TEXT	ENDS
; Function compile flags: /Ogtpy
;	COMDAT ??$_Deallocate@$0BA@@std@@YAXPEAX_K@Z
_TEXT	SEGMENT
_Ptr$ = 8
_Bytes$ = 16
??$_Deallocate@$0BA@@std@@YAXPEAX_K@Z PROC		; std::_Deallocate<16>, COMDAT
; File C:\Program Files\Microsoft Visual Studio\18\Community\VC\Tools\MSVC\14.50.35717\include\xmemory
; Line 288
	cmp	rdx, 4096				; 00001000H
	jb	SHORT $LN9@Deallocate
; Line 209
	mov	rax, QWORD PTR [rcx-8]
; Line 223
	sub	rcx, rax
	sub	rcx, 8
	cmp	rcx, 31
	ja	SHORT $LN8@Deallocate
; Line 224
	add	rdx, 39					; 00000027H
	mov	rcx, rax
$LN9@Deallocate:
; Line 293
	jmp	??3@YAXPEAX_K@Z				; operator delete
$LN8@Deallocate:
; Line 223
	mov	ecx, 5
	int	41					; 00000029H
$LN11@Deallocate:
??$_Deallocate@$0BA@@std@@YAXPEAX_K@Z ENDP		; std::_Deallocate<16>
_TEXT	ENDS
; Function compile flags: /Ogtpy
;	COMDAT ??$_Allocate@$0BA@U_Default_allocate_traits@std@@@std@@YAPEAX_K@Z
_TEXT	SEGMENT
_Bytes$ = 48
??$_Allocate@$0BA@U_Default_allocate_traits@std@@@std@@YAPEAX_K@Z PROC ; std::_Allocate<16,std::_Default_allocate_traits>, COMDAT
; File C:\Program Files\Microsoft Visual Studio\18\Community\VC\Tools\MSVC\14.50.35717\include\xmemory
; Line 229
$LN20:
	sub	rsp, 40					; 00000028H
; Line 231
	test	rcx, rcx
	jne	SHORT $LN2@Allocate
; Line 232
	xor	eax, eax
; Line 262
	add	rsp, 40					; 00000028H
	ret	0
$LN2@Allocate:
; Line 255
	cmp	rcx, 4096				; 00001000H
	jb	SHORT $LN4@Allocate
; Line 188
	lea	rax, QWORD PTR [rcx+39]
; Line 189
	cmp	rax, rcx
	jbe	SHORT $LN19@Allocate
; Line 140
	mov	rcx, rax
	call	??2@YAPEAX_K@Z				; operator new
	mov	rcx, rax
; Line 194
	test	rax, rax
	jne	SHORT $LN10@Allocate
	mov	ecx, 5
	int	41					; 00000029H
$LN10@Allocate:
; Line 195
	add	rax, 39					; 00000027H
	and	rax, -32				; ffffffffffffffe0H
; Line 196
	mov	QWORD PTR [rax-8], rcx
; Line 262
	add	rsp, 40					; 00000028H
	ret	0
$LN4@Allocate:
	add	rsp, 40					; 00000028H
; Line 140
	jmp	??2@YAPEAX_K@Z				; operator new
$LN19@Allocate:
; Line 190
	call	?_Throw_bad_array_new_length@std@@YAXXZ	; std::_Throw_bad_array_new_length
	int	3
$LN17@Allocate:
??$_Allocate@$0BA@U_Default_allocate_traits@std@@@std@@YAPEAX_K@Z ENDP ; std::_Allocate<16,std::_Default_allocate_traits>
_TEXT	ENDS
; Function compile flags: /Ogtpy
;	COMDAT ??$_Destroy_in_place@PEAD@std@@YAXAEAPEAD@Z
_TEXT	SEGMENT
_Obj$ = 8
??$_Destroy_in_place@PEAD@std@@YAXAEAPEAD@Z PROC	; std::_Destroy_in_place<char *>, COMDAT
; File C:\Program Files\Microsoft Visual Studio\18\Community\VC\Tools\MSVC\14.50.35717\include\xmemory
; Line 330
	ret	0
??$_Destroy_in_place@PEAD@std@@YAXAEAPEAD@Z ENDP	; std::_Destroy_in_place<char *>
_TEXT	ENDS
; Function compile flags: /Ogtpy
;	COMDAT ??$_Reallocate_for@V<lambda_1>@?1???$_Assign@D@?$basic_string@DU?$char_traits@D@std@@V?$allocator@D@2@@std@@AEAAAEAV23@QEBD_K@Z@PEBD@?$basic_string@DU?$char_traits@D@std@@V?$allocator@D@2@@std@@AEAAAEAV01@_KV<lambda_1>@?1???$_Assign@D@01@AEAAAEAV01@QEBD0@Z@PEBD@Z
_TEXT	SEGMENT
this$ = 64
_New_size$ = 72
_Fn$ = 80
<_Args_0>$ = 88
??$_Reallocate_for@V<lambda_1>@?1???$_Assign@D@?$basic_string@DU?$char_traits@D@std@@V?$allocator@D@2@@std@@AEAAAEAV23@QEBD_K@Z@PEBD@?$basic_string@DU?$char_traits@D@std@@V?$allocator@D@2@@std@@AEAAAEAV01@_KV<lambda_1>@?1???$_Assign@D@01@AEAAAEAV01@QEBD0@Z@PEBD@Z PROC ; std::basic_string<char,std::char_traits<char>,std::allocator<char> >::_Reallocate_for<`std::basic_string<char,std::char_traits<char>,std::allocator<char> >::_Assign<char>'::`2'::<lambda_1>,char const *>, COMDAT
; File C:\Program Files\Microsoft Visual Studio\18\Community\VC\Tools\MSVC\14.50.35717\include\xstring
; Line 2902
$LN116:
	mov	QWORD PTR [rsp+24], rbx
	push	rdi
	push	r14
	push	r15
	sub	rsp, 32					; 00000020H
; Line 2905
	mov	rbx, 9223372036854775807		; 7fffffffffffffffH
	mov	r15, r9
	mov	r14, rdx
	mov	rdi, rcx
	cmp	rdx, rbx
	ja	$LN113@Reallocate
; Line 2909
	mov	QWORD PTR [rsp+64], rbp
	mov	rbp, QWORD PTR [rcx+24]
; Line 2885
	mov	rcx, rdx
	or	rcx, 15
	mov	QWORD PTR [rsp+72], rsi
; Line 2886
	cmp	rcx, rbx
	ja	SHORT $LN111@Reallocate
; Line 2890
	mov	rdx, rbp
	mov	rax, rbx
	shr	rdx, 1
	sub	rax, rdx
	cmp	rbp, rax
	ja	SHORT $LN111@Reallocate
; Line 2894
	lea	rax, QWORD PTR [rdx+rbp]
; File C:\Program Files\Microsoft Visual Studio\18\Community\VC\Tools\MSVC\14.50.35717\include\utility
; Line 77
	mov	rbx, rcx
	cmp	rcx, rax
	cmovb	rbx, rax
; File C:\Program Files\Microsoft Visual Studio\18\Community\VC\Tools\MSVC\14.50.35717\include\xstring
; Line 875
	lea	rax, QWORD PTR [rbx+1]
; File C:\Program Files\Microsoft Visual Studio\18\Community\VC\Tools\MSVC\14.50.35717\include\xmemory
; Line 231
	test	rax, rax
	jne	SHORT $LN28@Reallocate
; Line 232
	xor	esi, esi
	jmp	SHORT $LN27@Reallocate
$LN28@Reallocate:
; Line 255
	cmp	rax, 4096				; 00001000H
	jb	SHORT $LN30@Reallocate
; Line 188
	lea	rcx, QWORD PTR [rax+39]
; Line 189
	cmp	rcx, rax
	jbe	$LN114@Reallocate
	jmp	SHORT $LN35@Reallocate
$LN111@Reallocate:
; Line 140
	mov	rcx, -9223372036854775769		; 8000000000000027H
$LN35@Reallocate:
	call	??2@YAPEAX_K@Z				; operator new
; Line 194
	test	rax, rax
	je	SHORT $LN75@Reallocate
; Line 195
	lea	rsi, QWORD PTR [rax+39]
	and	rsi, -32				; ffffffffffffffe0H
; Line 196
	mov	QWORD PTR [rsi-8], rax
; Line 257
	jmp	SHORT $LN27@Reallocate
$LN30@Reallocate:
; Line 140
	mov	rcx, rax
	call	??2@YAPEAX_K@Z				; operator new
	mov	rsi, rax
$LN27@Reallocate:
; File C:\Program Files\Microsoft Visual Studio\18\Community\VC\Tools\MSVC\14.50.35717\include\__msvc_string_view.hpp
; Line 200
	mov	r8, r14
; File C:\Program Files\Microsoft Visual Studio\18\Community\VC\Tools\MSVC\14.50.35717\include\xstring
; Line 2916
	mov	QWORD PTR [rdi+16], r14
; File C:\Program Files\Microsoft Visual Studio\18\Community\VC\Tools\MSVC\14.50.35717\include\__msvc_string_view.hpp
; Line 200
	mov	rdx, r15
; File C:\Program Files\Microsoft Visual Studio\18\Community\VC\Tools\MSVC\14.50.35717\include\xstring
; Line 2917
	mov	QWORD PTR [rdi+24], rbx
; File C:\Program Files\Microsoft Visual Studio\18\Community\VC\Tools\MSVC\14.50.35717\include\__msvc_string_view.hpp
; Line 200
	mov	rcx, rsi
	call	memcpy
; File C:\Program Files\Microsoft Visual Studio\18\Community\VC\Tools\MSVC\14.50.35717\include\xstring
; Line 3034
	mov	BYTE PTR [rsi+r14], 0
; Line 2919
	cmp	rbp, 15
	jbe	SHORT $LN3@Reallocate
; Line 2920
	mov	rcx, QWORD PTR [rdi]
; Line 902
	lea	rdx, QWORD PTR [rbp+1]
; File C:\Program Files\Microsoft Visual Studio\18\Community\VC\Tools\MSVC\14.50.35717\include\xmemory
; Line 288
	cmp	rdx, 4096				; 00001000H
	jb	SHORT $LN97@Reallocate
; Line 209
	mov	rax, QWORD PTR [rcx-8]
; Line 223
	sub	rcx, rax
	sub	rcx, 8
	cmp	rcx, 31
	ja	SHORT $LN75@Reallocate
; Line 224
	add	rdx, 39					; 00000027H
	jmp	SHORT $LN76@Reallocate
$LN75@Reallocate:
; Line 223
	mov	ecx, 5
	int	41					; 00000029H
$LN97@Reallocate:
; Line 989
	mov	rax, rcx
$LN76@Reallocate:
; Line 293
	mov	rcx, rax
	call	??3@YAXPEAX_K@Z				; operator delete
$LN3@Reallocate:
; File C:\Program Files\Microsoft Visual Studio\18\Community\VC\Tools\MSVC\14.50.35717\include\xstring
; Line 2927
	mov	rax, rdi
	mov	QWORD PTR [rax], rsi
	mov	rbp, QWORD PTR [rsp+64]
	mov	rsi, QWORD PTR [rsp+72]
; Line 2928
	mov	rbx, QWORD PTR [rsp+80]
	add	rsp, 32					; 00000020H
	pop	r15
	pop	r14
	pop	rdi
	ret	0
$LN113@Reallocate:
; Line 2906
	call	?_Xlen_string@std@@YAXXZ		; std::_Xlen_string
	int	3
$LN114@Reallocate:
; File C:\Program Files\Microsoft Visual Studio\18\Community\VC\Tools\MSVC\14.50.35717\include\xmemory
; Line 190
	call	?_Throw_bad_array_new_length@std@@YAXXZ	; std::_Throw_bad_array_new_length
	int	3
$LN110@Reallocate:
??$_Reallocate_for@V<lambda_1>@?1???$_Assign@D@?$basic_string@DU?$char_traits@D@std@@V?$allocator@D@2@@std@@AEAAAEAV23@QEBD_K@Z@PEBD@?$basic_string@DU?$char_traits@D@std@@V?$allocator@D@2@@std@@AEAAAEAV01@_KV<lambda_1>@?1???$_Assign@D@01@AEAAAEAV01@QEBD0@Z@PEBD@Z ENDP ; std::basic_string<char,std::char_traits<char>,std::allocator<char> >::_Reallocate_for<`std::basic_string<char,std::char_traits<char>,std::allocator<char> >::_Assign<char>'::`2'::<lambda_1>,char const *>
_TEXT	ENDS
; Function compile flags: /Ogtpy
;	COMDAT ??R<lambda_1>@?1???$_Assign@D@?$basic_string@DU?$char_traits@D@std@@V?$allocator@D@2@@std@@AEAAAEAV12@QEBD_K@Z@SA@QEAD10@Z
_TEXT	SEGMENT
_New_ptr$ = 48
_Count$ = 56
_Ptr$ = 64
??R<lambda_1>@?1???$_Assign@D@?$basic_string@DU?$char_traits@D@std@@V?$allocator@D@2@@std@@AEAAAEAV12@QEBD_K@Z@SA@QEAD10@Z PROC ; `std::basic_string<char,std::char_traits<char>,std::allocator<char> >::_Assign<char>'::`2'::<lambda_1>::operator(), COMDAT
; File C:\Program Files\Microsoft Visual Studio\18\Community\VC\Tools\MSVC\14.50.35717\include\xstring
; Line 3032
$LN25:
	mov	QWORD PTR [rsp+8], rbx
	push	rdi
	sub	rsp, 32					; 00000020H
	mov	rax, r8
	mov	rdi, rdx
; File C:\Program Files\Microsoft Visual Studio\18\Community\VC\Tools\MSVC\14.50.35717\include\__msvc_string_view.hpp
; Line 200
	mov	r8, rdx
; File C:\Program Files\Microsoft Visual Studio\18\Community\VC\Tools\MSVC\14.50.35717\include\xstring
; Line 3032
	mov	rbx, rcx
; File C:\Program Files\Microsoft Visual Studio\18\Community\VC\Tools\MSVC\14.50.35717\include\__msvc_string_view.hpp
; Line 200
	mov	rdx, rax
	call	memcpy
; File C:\Program Files\Microsoft Visual Studio\18\Community\VC\Tools\MSVC\14.50.35717\include\xstring
; Line 3034
	mov	BYTE PTR [rbx+rdi], 0
; Line 3035
	mov	rbx, QWORD PTR [rsp+48]
	add	rsp, 32					; 00000020H
	pop	rdi
	ret	0
??R<lambda_1>@?1???$_Assign@D@?$basic_string@DU?$char_traits@D@std@@V?$allocator@D@2@@std@@AEAAAEAV12@QEBD_K@Z@SA@QEAD10@Z ENDP ; `std::basic_string<char,std::char_traits<char>,std::allocator<char> >::_Assign<char>'::`2'::<lambda_1>::operator()
_TEXT	ENDS
; Function compile flags: /Ogtpy
;	COMDAT ??$construct_at@PEADAEBQEAD@std@@YAPEAPEADQEAPEADAEBQEAD@Z
_TEXT	SEGMENT
_Location$ = 8
<_Args_0>$ = 16
??$construct_at@PEADAEBQEAD@std@@YAPEAPEADQEAPEADAEBQEAD@Z PROC ; std::construct_at<char *,char * const &>, COMDAT
; File C:\Program Files\Microsoft Visual Studio\18\Community\VC\Tools\MSVC\14.50.35717\include\xutility
; Line 509
	mov	rax, QWORD PTR [rdx]
	mov	QWORD PTR [rcx], rax
	mov	rax, rcx
; Line 510
	ret	0
??$construct_at@PEADAEBQEAD@std@@YAPEAPEADQEAPEADAEBQEAD@Z ENDP ; std::construct_at<char *,char * const &>
_TEXT	ENDS
; Function compile flags: /Ogtpy
;	COMDAT ??$forward@AEBQEAD@std@@YAAEBQEADAEBQEAD@Z
_TEXT	SEGMENT
_Arg$ = 8
??$forward@AEBQEAD@std@@YAAEBQEADAEBQEAD@Z PROC		; std::forward<char * const &>, COMDAT
; File C:\Program Files\Microsoft Visual Studio\18\Community\VC\Tools\MSVC\14.50.35717\include\type_traits
; Line 1510
	mov	rax, rcx
; Line 1511
	ret	0
??$forward@AEBQEAD@std@@YAAEBQEADAEBQEAD@Z ENDP		; std::forward<char * const &>
_TEXT	ENDS
; Function compile flags: /Ogtpy
;	COMDAT ??$addressof@PEAD@std@@YAPEAPEADAEAPEAD@Z
_TEXT	SEGMENT
_Val$ = 8
??$addressof@PEAD@std@@YAPEAPEADAEAPEAD@Z PROC		; std::addressof<char *>, COMDAT
; File C:\Program Files\Microsoft Visual Studio\18\Community\VC\Tools\MSVC\14.50.35717\include\type_traits
; Line 1533
	mov	rax, rcx
; Line 1534
	ret	0
??$addressof@PEAD@std@@YAPEAPEADAEAPEAD@Z ENDP		; std::addressof<char *>
_TEXT	ENDS
; Function compile flags: /Ogtpy
;	COMDAT ??$_Assign@D@?$basic_string@DU?$char_traits@D@std@@V?$allocator@D@2@@std@@AEAAAEAV01@QEBD_K@Z
_TEXT	SEGMENT
this$ = 64
_Ptr$ = 72
_Count$ = 80
??$_Assign@D@?$basic_string@DU?$char_traits@D@std@@V?$allocator@D@2@@std@@AEAAAEAV01@QEBD_K@Z PROC ; std::basic_string<char,std::char_traits<char>,std::allocator<char> >::_Assign<char>, COMDAT
; File C:\Program Files\Microsoft Visual Studio\18\Community\VC\Tools\MSVC\14.50.35717\include\xstring
; Line 3016
$LN170:
	mov	QWORD PTR [rsp+16], rbx
	mov	QWORD PTR [rsp+24], rbp
	push	rsi
	push	rdi
	push	r15
	sub	rsp, 32					; 00000020H
; Line 3020
	mov	rbp, QWORD PTR [rcx+24]
	mov	rsi, r8
	mov	r15, rdx
	mov	rbx, rcx
	cmp	r8, rbp
	ja	SHORT $LN2@Assign
; Line 453
	cmp	rbp, 15
; Line 436
	jbe	SHORT $LN148@Assign
; Line 437
	mov	rdi, QWORD PTR [rcx]
; File C:\Program Files\Microsoft Visual Studio\18\Community\VC\Tools\MSVC\14.50.35717\include\xmemory
; Line 194
	jmp	SHORT $LN5@Assign
$LN148@Assign:
; File C:\Program Files\Microsoft Visual Studio\18\Community\VC\Tools\MSVC\14.50.35717\include\xstring
; Line 435
	mov	rdi, rbx
$LN5@Assign:
; Line 3023
	mov	QWORD PTR [rcx+16], rsi
; File C:\Program Files\Microsoft Visual Studio\18\Community\VC\Tools\MSVC\14.50.35717\include\__msvc_string_view.hpp
; Line 253
	mov	rcx, rdi
	call	memmove
; File C:\Program Files\Microsoft Visual Studio\18\Community\VC\Tools\MSVC\14.50.35717\include\xstring
; Line 3025
	mov	BYTE PTR [rdi+rsi], 0
; Line 3027
	jmp	$LN164@Assign
$LN2@Assign:
; Line 2905
	mov	rdi, 9223372036854775807		; 7fffffffffffffffH
	cmp	rsi, rdi
	ja	$LN167@Assign
; Line 2885
	mov	rcx, rsi
	mov	QWORD PTR [rsp+64], r14
	or	rcx, 15
; Line 2886
	cmp	rcx, rdi
	ja	SHORT $LN165@Assign
; Line 2890
	mov	rdx, rbp
	mov	rax, rdi
	shr	rdx, 1
	sub	rax, rdx
	cmp	rbp, rax
	ja	SHORT $LN165@Assign
; Line 2894
	lea	rax, QWORD PTR [rdx+rbp]
; File C:\Program Files\Microsoft Visual Studio\18\Community\VC\Tools\MSVC\14.50.35717\include\utility
; Line 77
	mov	rdi, rcx
	cmp	rcx, rax
	cmovb	rdi, rax
; File C:\Program Files\Microsoft Visual Studio\18\Community\VC\Tools\MSVC\14.50.35717\include\xstring
; Line 875
	lea	rax, QWORD PTR [rdi+1]
; File C:\Program Files\Microsoft Visual Studio\18\Community\VC\Tools\MSVC\14.50.35717\include\xmemory
; Line 231
	test	rax, rax
	jne	SHORT $LN57@Assign
; Line 232
	xor	r14d, r14d
	jmp	SHORT $LN56@Assign
$LN57@Assign:
; Line 255
	cmp	rax, 4096				; 00001000H
	jb	SHORT $LN59@Assign
; Line 188
	lea	rcx, QWORD PTR [rax+39]
; Line 189
	cmp	rcx, rax
	jbe	$LN168@Assign
	jmp	SHORT $LN64@Assign
$LN165@Assign:
; Line 140
	mov	rcx, -9223372036854775769		; 8000000000000027H
$LN64@Assign:
	call	??2@YAPEAX_K@Z				; operator new
; Line 194
	test	rax, rax
	je	SHORT $LN104@Assign
; Line 195
	lea	r14, QWORD PTR [rax+39]
	and	r14, -32				; ffffffffffffffe0H
; Line 196
	mov	QWORD PTR [r14-8], rax
; Line 257
	jmp	SHORT $LN56@Assign
$LN59@Assign:
; Line 140
	mov	rcx, rax
	call	??2@YAPEAX_K@Z				; operator new
	mov	r14, rax
$LN56@Assign:
; File C:\Program Files\Microsoft Visual Studio\18\Community\VC\Tools\MSVC\14.50.35717\include\__msvc_string_view.hpp
; Line 200
	mov	r8, rsi
; File C:\Program Files\Microsoft Visual Studio\18\Community\VC\Tools\MSVC\14.50.35717\include\xstring
; Line 2916
	mov	QWORD PTR [rbx+16], rsi
; File C:\Program Files\Microsoft Visual Studio\18\Community\VC\Tools\MSVC\14.50.35717\include\__msvc_string_view.hpp
; Line 200
	mov	rdx, r15
; File C:\Program Files\Microsoft Visual Studio\18\Community\VC\Tools\MSVC\14.50.35717\include\xstring
; Line 2917
	mov	QWORD PTR [rbx+24], rdi
; File C:\Program Files\Microsoft Visual Studio\18\Community\VC\Tools\MSVC\14.50.35717\include\__msvc_string_view.hpp
; Line 200
	mov	rcx, r14
	call	memcpy
; File C:\Program Files\Microsoft Visual Studio\18\Community\VC\Tools\MSVC\14.50.35717\include\xstring
; Line 3034
	mov	BYTE PTR [r14+rsi], 0
; Line 2919
	cmp	rbp, 15
	jbe	SHORT $LN32@Assign
; Line 2920
	mov	rcx, QWORD PTR [rbx]
; Line 902
	lea	rdx, QWORD PTR [rbp+1]
; File C:\Program Files\Microsoft Visual Studio\18\Community\VC\Tools\MSVC\14.50.35717\include\xmemory
; Line 288
	cmp	rdx, 4096				; 00001000H
	jb	SHORT $LN149@Assign
; Line 209
	mov	rax, QWORD PTR [rcx-8]
; Line 223
	sub	rcx, rax
	sub	rcx, 8
	cmp	rcx, 31
	ja	SHORT $LN104@Assign
; Line 224
	add	rdx, 39					; 00000027H
	jmp	SHORT $LN105@Assign
$LN104@Assign:
; Line 223
	mov	ecx, 5
	int	41					; 00000029H
$LN149@Assign:
; Line 989
	mov	rax, rcx
$LN105@Assign:
; Line 293
	mov	rcx, rax
	call	??3@YAXPEAX_K@Z				; operator delete
$LN32@Assign:
; File C:\Program Files\Microsoft Visual Studio\18\Community\VC\Tools\MSVC\14.50.35717\include\xstring
; Line 3030
	mov	QWORD PTR [rbx], r14
	mov	rax, rbx
	mov	r14, QWORD PTR [rsp+64]
$LN164@Assign:
; Line 3037
	mov	rbp, QWORD PTR [rsp+80]
	mov	rax, rbx
	mov	rbx, QWORD PTR [rsp+72]
	add	rsp, 32					; 00000020H
	pop	r15
	pop	rdi
	pop	rsi
	ret	0
$LN167@Assign:
; Line 2906
	call	?_Xlen_string@std@@YAXXZ		; std::_Xlen_string
	int	3
$LN168@Assign:
; File C:\Program Files\Microsoft Visual Studio\18\Community\VC\Tools\MSVC\14.50.35717\include\xmemory
; Line 190
	call	?_Throw_bad_array_new_length@std@@YAXXZ	; std::_Throw_bad_array_new_length
	int	3
$LN163@Assign:
??$_Assign@D@?$basic_string@DU?$char_traits@D@std@@V?$allocator@D@2@@std@@AEAAAEAV01@QEBD_K@Z ENDP ; std::basic_string<char,std::char_traits<char>,std::allocator<char> >::_Assign<char>
_TEXT	ENDS
; Function compile flags: /Ogtpy
;	COMDAT ??$_Traits_equal@U?$char_traits@D@std@@@std@@YA_NQEBD_K01@Z
_TEXT	SEGMENT
_Left$ = 48
_Left_size$ = 56
_Right$ = 64
_Right_size$ = 72
??$_Traits_equal@U?$char_traits@D@std@@@std@@YA_NQEBD_K01@Z PROC ; std::_Traits_equal<std::char_traits<char> >, COMDAT
; File C:\Program Files\Microsoft Visual Studio\18\Community\VC\Tools\MSVC\14.50.35717\include\__msvc_string_view.hpp
; Line 671
$LN11:
	sub	rsp, 40					; 00000028H
	mov	rax, r8
; Line 673
	cmp	rdx, r9
	je	SHORT $LN2@Traits_equ
; Line 674
	xor	al, al
; Line 682
	add	rsp, 40					; 00000028H
	ret	0
$LN2@Traits_equ:
; Line 677
	test	rdx, rdx
	jne	SHORT $LN3@Traits_equ
; Line 678
	mov	al, 1
; Line 682
	add	rsp, 40					; 00000028H
	ret	0
$LN3@Traits_equ:
; Line 511
	mov	r8, rdx
	mov	rdx, rax
	call	memcmp
; Line 681
	test	eax, eax
	sete	al
; Line 682
	add	rsp, 40					; 00000028H
	ret	0
??$_Traits_equal@U?$char_traits@D@std@@@std@@YA_NQEBD_K01@Z ENDP ; std::_Traits_equal<std::char_traits<char> >
_TEXT	ENDS
; Function compile flags: /Ogtpy
;	COMDAT ??$addressof@V?$basic_ostream@DU?$char_traits@D@std@@@std@@@std@@YAPEAV?$basic_ostream@DU?$char_traits@D@std@@@0@AEAV10@@Z
_TEXT	SEGMENT
_Val$ = 8
??$addressof@V?$basic_ostream@DU?$char_traits@D@std@@@std@@@std@@YAPEAV?$basic_ostream@DU?$char_traits@D@std@@@0@AEAV10@@Z PROC ; std::addressof<std::basic_ostream<char,std::char_traits<char> > >, COMDAT
; File C:\Program Files\Microsoft Visual Studio\18\Community\VC\Tools\MSVC\14.50.35717\include\type_traits
; Line 1533
	mov	rax, rcx
; Line 1534
	ret	0
??$addressof@V?$basic_ostream@DU?$char_traits@D@std@@@std@@@std@@YAPEAV?$basic_ostream@DU?$char_traits@D@std@@@0@AEAV10@@Z ENDP ; std::addressof<std::basic_ostream<char,std::char_traits<char> > >
_TEXT	ENDS
; Function compile flags: /Ogtpy
;	COMDAT ??$forward@V?$allocator@D@std@@@std@@YA$$QEAV?$allocator@D@0@AEAV10@@Z
_TEXT	SEGMENT
_Arg$ = 8
??$forward@V?$allocator@D@std@@@std@@YA$$QEAV?$allocator@D@0@AEAV10@@Z PROC ; std::forward<std::allocator<char> >, COMDAT
; File C:\Program Files\Microsoft Visual Studio\18\Community\VC\Tools\MSVC\14.50.35717\include\type_traits
; Line 1510
	mov	rax, rcx
; Line 1511
	ret	0
??$forward@V?$allocator@D@std@@@std@@YA$$QEAV?$allocator@D@0@AEAV10@@Z ENDP ; std::forward<std::allocator<char> >
_TEXT	ENDS
; Function compile flags: /Ogtpy
;	COMDAT ??$_Traits_copy_batch@U?$char_traits@D@std@@D@std@@YAXQEADQEBD_K@Z
_TEXT	SEGMENT
_First1$ = 8
_First2$ = 16
_Count$ = 24
??$_Traits_copy_batch@U?$char_traits@D@std@@D@std@@YAXQEADQEBD_K@Z PROC ; std::_Traits_copy_batch<std::char_traits<char>,char>, COMDAT
; File C:\Program Files\Microsoft Visual Studio\18\Community\VC\Tools\MSVC\14.50.35717\include\xstring
; File C:\Program Files\Microsoft Visual Studio\18\Community\VC\Tools\MSVC\14.50.35717\include\__msvc_string_view.hpp
; Line 200
	jmp	memcpy
??$_Traits_copy_batch@U?$char_traits@D@std@@D@std@@YAXQEADQEBD_K@Z ENDP ; std::_Traits_copy_batch<std::char_traits<char>,char>
_TEXT	ENDS
; Function compile flags: /Ogtpy
;	COMDAT ??$_Traits_move_batch@U?$char_traits@D@std@@D@std@@YAXQEADQEBD_K@Z
_TEXT	SEGMENT
_First1$ = 8
_First2$ = 16
_Count$ = 24
??$_Traits_move_batch@U?$char_traits@D@std@@D@std@@YAXQEADQEBD_K@Z PROC ; std::_Traits_move_batch<std::char_traits<char>,char>, COMDAT
; File C:\Program Files\Microsoft Visual Studio\18\Community\VC\Tools\MSVC\14.50.35717\include\xstring
; File C:\Program Files\Microsoft Visual Studio\18\Community\VC\Tools\MSVC\14.50.35717\include\__msvc_string_view.hpp
; Line 253
	jmp	memmove
??$_Traits_move_batch@U?$char_traits@D@std@@D@std@@YAXQEADQEBD_K@Z ENDP ; std::_Traits_move_batch<std::char_traits<char>,char>
_TEXT	ENDS
; Function compile flags: /Ogtpy
;	COMDAT ??$max@_K@std@@YAAEB_KAEB_K0@Z
_TEXT	SEGMENT
_Left$ = 8
_Right$ = 16
??$max@_K@std@@YAAEB_KAEB_K0@Z PROC			; std::max<unsigned __int64>, COMDAT
; File C:\Program Files\Microsoft Visual Studio\18\Community\VC\Tools\MSVC\14.50.35717\include\utility
; Line 77
	mov	rax, QWORD PTR [rdx]
	cmp	QWORD PTR [rcx], rax
	cmovb	rcx, rdx
	mov	rax, rcx
; Line 78
	ret	0
??$max@_K@std@@YAAEB_KAEB_K0@Z ENDP			; std::max<unsigned __int64>
_TEXT	ENDS
; Function compile flags: /Ogtpy
;	COMDAT ??$_Construct_in_place@PEADAEBQEAD@std@@YAXAEAPEADAEBQEAD@Z
_TEXT	SEGMENT
_Obj$ = 8
<_Args_0>$ = 16
??$_Construct_in_place@PEADAEBQEAD@std@@YAXAEAPEADAEBQEAD@Z PROC ; std::_Construct_in_place<char *,char * const &>, COMDAT
; File C:\Program Files\Microsoft Visual Studio\18\Community\VC\Tools\MSVC\14.50.35717\include\xutility
; Line 524
	mov	rax, QWORD PTR [rdx]
	mov	QWORD PTR [rcx], rax
	ret	0
??$_Construct_in_place@PEADAEBQEAD@std@@YAXAEAPEADAEBQEAD@Z ENDP ; std::_Construct_in_place<char *,char * const &>
_TEXT	ENDS
; Function compile flags: /Ogtpy
;	COMDAT ??$construct_at@D$$V@std@@YAPEADQEAD@Z
_TEXT	SEGMENT
_Location$ = 8
??$construct_at@D$$V@std@@YAPEADQEAD@Z PROC		; std::construct_at<char>, COMDAT
; File C:\Program Files\Microsoft Visual Studio\18\Community\VC\Tools\MSVC\14.50.35717\include\xutility
; Line 509
	xor	eax, eax
	mov	BYTE PTR [rcx], al
	mov	rax, rcx
; Line 510
	ret	0
??$construct_at@D$$V@std@@YAPEADQEAD@Z ENDP		; std::construct_at<char>
_TEXT	ENDS
; Function compile flags: /Ogtpy
;	COMDAT ??$_Allocate_at_least_helper@V?$allocator@D@std@@@std@@YAPEADAEAV?$allocator@D@0@AEA_K@Z
_TEXT	SEGMENT
_Al$ = 48
_Count$ = 56
??$_Allocate_at_least_helper@V?$allocator@D@std@@@std@@YAPEADAEAV?$allocator@D@0@AEA_K@Z PROC ; std::_Allocate_at_least_helper<std::allocator<char> >, COMDAT
; File C:\Program Files\Microsoft Visual Studio\18\Community\VC\Tools\MSVC\14.50.35717\include\xmemory
; Line 2314
$LN26:
	sub	rsp, 40					; 00000028H
; Line 2323
	mov	rcx, QWORD PTR [rdx]
; Line 231
	test	rcx, rcx
	jne	SHORT $LN6@Allocate_a
; Line 232
	xor	eax, eax
; Line 2325
	add	rsp, 40					; 00000028H
	ret	0
$LN6@Allocate_a:
; Line 255
	cmp	rcx, 4096				; 00001000H
	jb	SHORT $LN8@Allocate_a
; Line 188
	lea	rax, QWORD PTR [rcx+39]
; Line 189
	cmp	rax, rcx
	jbe	SHORT $LN25@Allocate_a
; Line 140
	mov	rcx, rax
	call	??2@YAPEAX_K@Z				; operator new
	mov	rcx, rax
; Line 194
	test	rax, rax
	jne	SHORT $LN14@Allocate_a
	mov	ecx, 5
	int	41					; 00000029H
$LN14@Allocate_a:
; Line 195
	add	rax, 39					; 00000027H
	and	rax, -32				; ffffffffffffffe0H
; Line 196
	mov	QWORD PTR [rax-8], rcx
; Line 2325
	add	rsp, 40					; 00000028H
	ret	0
$LN8@Allocate_a:
	add	rsp, 40					; 00000028H
; Line 140
	jmp	??2@YAPEAX_K@Z				; operator new
$LN25@Allocate_a:
; Line 190
	call	?_Throw_bad_array_new_length@std@@YAXXZ	; std::_Throw_bad_array_new_length
	int	3
$LN23@Allocate_a:
??$_Allocate_at_least_helper@V?$allocator@D@std@@@std@@YAPEADAEAV?$allocator@D@0@AEA_K@Z ENDP ; std::_Allocate_at_least_helper<std::allocator<char> >
_TEXT	ENDS
; Function compile flags: /Ogtpy
;	COMDAT ??$_Allocate_for_capacity@$0A@@?$basic_string@DU?$char_traits@D@std@@V?$allocator@D@2@@std@@CAPEADAEAV?$allocator@D@1@AEA_K@Z
_TEXT	SEGMENT
_Al$ = 48
_Capacity$ = 56
??$_Allocate_for_capacity@$0A@@?$basic_string@DU?$char_traits@D@std@@V?$allocator@D@2@@std@@CAPEADAEAV?$allocator@D@1@AEA_K@Z PROC ; std::basic_string<char,std::char_traits<char>,std::allocator<char> >::_Allocate_for_capacity<0>, COMDAT
; File C:\Program Files\Microsoft Visual Studio\18\Community\VC\Tools\MSVC\14.50.35717\include\xstring
; Line 873
$LN46:
	push	rbx
	sub	rsp, 32					; 00000020H
; Line 875
	add	QWORD PTR [rdx], 1
	mov	rbx, rdx
	mov	rcx, QWORD PTR [rdx]
; File C:\Program Files\Microsoft Visual Studio\18\Community\VC\Tools\MSVC\14.50.35717\include\xmemory
; Line 231
	jne	SHORT $LN12@Allocate_f
; Line 232
	xor	eax, eax
; File C:\Program Files\Microsoft Visual Studio\18\Community\VC\Tools\MSVC\14.50.35717\include\xstring
; Line 895
	dec	QWORD PTR [rdx]
; Line 897
	add	rsp, 32					; 00000020H
	pop	rbx
	ret	0
$LN12@Allocate_f:
; File C:\Program Files\Microsoft Visual Studio\18\Community\VC\Tools\MSVC\14.50.35717\include\xmemory
; Line 255
	cmp	rcx, 4096				; 00001000H
	jb	SHORT $LN14@Allocate_f
; Line 188
	lea	rax, QWORD PTR [rcx+39]
; Line 189
	cmp	rax, rcx
	jbe	SHORT $LN44@Allocate_f
; Line 140
	mov	rcx, rax
	call	??2@YAPEAX_K@Z				; operator new
	mov	rcx, rax
; Line 194
	test	rax, rax
	jne	SHORT $LN20@Allocate_f
	mov	ecx, 5
	int	41					; 00000029H
$LN20@Allocate_f:
; Line 195
	add	rax, 39					; 00000027H
	and	rax, -32				; ffffffffffffffe0H
; Line 196
	mov	QWORD PTR [rax-8], rcx
; File C:\Program Files\Microsoft Visual Studio\18\Community\VC\Tools\MSVC\14.50.35717\include\xstring
; Line 895
	dec	QWORD PTR [rbx]
; Line 897
	add	rsp, 32					; 00000020H
	pop	rbx
	ret	0
$LN14@Allocate_f:
; File C:\Program Files\Microsoft Visual Studio\18\Community\VC\Tools\MSVC\14.50.35717\include\xmemory
; Line 140
	call	??2@YAPEAX_K@Z				; operator new
; File C:\Program Files\Microsoft Visual Studio\18\Community\VC\Tools\MSVC\14.50.35717\include\xstring
; Line 895
	dec	QWORD PTR [rbx]
; Line 897
	add	rsp, 32					; 00000020H
	pop	rbx
	ret	0
$LN44@Allocate_f:
; File C:\Program Files\Microsoft Visual Studio\18\Community\VC\Tools\MSVC\14.50.35717\include\xmemory
; Line 190
	call	?_Throw_bad_array_new_length@std@@YAXXZ	; std::_Throw_bad_array_new_length
	int	3
$LN42@Allocate_f:
??$_Allocate_for_capacity@$0A@@?$basic_string@DU?$char_traits@D@std@@V?$allocator@D@2@@std@@CAPEADAEAV?$allocator@D@1@AEA_K@Z ENDP ; std::basic_string<char,std::char_traits<char>,std::allocator<char> >::_Allocate_for_capacity<0>
_TEXT	ENDS
; Function compile flags: /Ogtpy
;	COMDAT ??$_Construct@$01PEBD@?$basic_string@DU?$char_traits@D@std@@V?$allocator@D@2@@std@@AEAAXQEBD_K@Z
_TEXT	SEGMENT
this$ = 80
_Arg$ = 88
_Count$ = 96
??$_Construct@$01PEBD@?$basic_string@DU?$char_traits@D@std@@V?$allocator@D@2@@std@@AEAAXQEBD_K@Z PROC ; std::basic_string<char,std::char_traits<char>,std::allocator<char> >::_Construct<2,char const *>, COMDAT
; File C:\Program Files\Microsoft Visual Studio\18\Community\VC\Tools\MSVC\14.50.35717\include\xstring
; Line 921
$LN101:
	push	rbx
	push	rbp
	push	rsi
	push	rdi
	sub	rsp, 40					; 00000028H
; Line 931
	mov	rbx, 9223372036854775807		; 7fffffffffffffffH
	mov	rdi, r8
	mov	rbp, rdx
	mov	rsi, rcx
	cmp	r8, rbx
	ja	$LN98@Construct
; Line 939
	cmp	r8, 15
	ja	SHORT $LN3@Construct
; Line 940
	mov	QWORD PTR [rcx+16], r8
; Line 941
	mov	QWORD PTR [rcx+24], 15
; File C:\Program Files\Microsoft Visual Studio\18\Community\VC\Tools\MSVC\14.50.35717\include\__msvc_string_view.hpp
; Line 200
	movups	xmm0, XMMWORD PTR [rdx]
	movups	XMMWORD PTR [rcx], xmm0
; File C:\Program Files\Microsoft Visual Studio\18\Community\VC\Tools\MSVC\14.50.35717\include\xstring
; Line 979
	add	rsp, 40					; 00000028H
	pop	rdi
	pop	rsi
	pop	rbp
	pop	rbx
	ret	0
$LN3@Construct:
; Line 2885
	mov	rax, rdi
	or	rax, 15
; Line 2886
	cmp	rax, rbx
	jbe	SHORT $LN16@Construct
; Line 2887
	mov	rax, -9223372036854775769		; 8000000000000027H
$LN41@Construct:
; File C:\Program Files\Microsoft Visual Studio\18\Community\VC\Tools\MSVC\14.50.35717\include\xmemory
; Line 140
	mov	rcx, rax
	call	??2@YAPEAX_K@Z				; operator new
	mov	rcx, rax
; Line 194
	test	rax, rax
	jne	SHORT $LN42@Construct
	mov	ecx, 5
	int	41					; 00000029H
$LN16@Construct:
; File C:\Program Files\Microsoft Visual Studio\18\Community\VC\Tools\MSVC\14.50.35717\include\utility
; Line 77
	mov	ecx, 22
	mov	rbx, rax
	cmp	rax, rcx
	cmovb	rbx, rcx
; File C:\Program Files\Microsoft Visual Studio\18\Community\VC\Tools\MSVC\14.50.35717\include\xstring
; Line 875
	lea	rcx, QWORD PTR [rbx+1]
; File C:\Program Files\Microsoft Visual Studio\18\Community\VC\Tools\MSVC\14.50.35717\include\xmemory
; Line 231
	test	rcx, rcx
	jne	SHORT $LN34@Construct
; Line 232
	xor	eax, eax
	jmp	SHORT $LN33@Construct
$LN34@Construct:
; Line 255
	cmp	rcx, 4096				; 00001000H
	jb	SHORT $LN36@Construct
; Line 188
	lea	rax, QWORD PTR [rcx+39]
; Line 189
	cmp	rax, rcx
	jbe	SHORT $LN99@Construct
	jmp	SHORT $LN41@Construct
$LN42@Construct:
; Line 195
	add	rax, 39					; 00000027H
	and	rax, -32				; ffffffffffffffe0H
; Line 196
	mov	QWORD PTR [rax-8], rcx
; Line 257
	jmp	SHORT $LN33@Construct
$LN36@Construct:
; Line 140
	call	??2@YAPEAX_K@Z				; operator new
$LN33@Construct:
; File C:\Program Files\Microsoft Visual Studio\18\Community\VC\Tools\MSVC\14.50.35717\include\xstring
; Line 974
	lea	r8, QWORD PTR [rdi+1]
	mov	QWORD PTR [rsi], rax
; File C:\Program Files\Microsoft Visual Studio\18\Community\VC\Tools\MSVC\14.50.35717\include\__msvc_string_view.hpp
; Line 200
	mov	rdx, rbp
; File C:\Program Files\Microsoft Visual Studio\18\Community\VC\Tools\MSVC\14.50.35717\include\xstring
; Line 965
	mov	QWORD PTR [rsi+16], rdi
; File C:\Program Files\Microsoft Visual Studio\18\Community\VC\Tools\MSVC\14.50.35717\include\__msvc_string_view.hpp
; Line 200
	mov	rcx, rax
; File C:\Program Files\Microsoft Visual Studio\18\Community\VC\Tools\MSVC\14.50.35717\include\xstring
; Line 966
	mov	QWORD PTR [rsi+24], rbx
; Line 979
	add	rsp, 40					; 00000028H
	pop	rdi
	pop	rsi
	pop	rbp
	pop	rbx
; File C:\Program Files\Microsoft Visual Studio\18\Community\VC\Tools\MSVC\14.50.35717\include\__msvc_string_view.hpp
; Line 200
	jmp	memcpy
$LN98@Construct:
; File C:\Program Files\Microsoft Visual Studio\18\Community\VC\Tools\MSVC\14.50.35717\include\xstring
; Line 932
	call	?_Xlen_string@std@@YAXXZ		; std::_Xlen_string
	int	3
$LN99@Construct:
; File C:\Program Files\Microsoft Visual Studio\18\Community\VC\Tools\MSVC\14.50.35717\include\xmemory
; Line 190
	call	?_Throw_bad_array_new_length@std@@YAXXZ	; std::_Throw_bad_array_new_length
	int	3
$LN96@Construct:
??$_Construct@$01PEBD@?$basic_string@DU?$char_traits@D@std@@V?$allocator@D@2@@std@@AEAAXQEBD_K@Z ENDP ; std::basic_string<char,std::char_traits<char>,std::allocator<char> >::_Construct<2,char const *>
_TEXT	ENDS
; Function compile flags: /Ogtpy
;	COMDAT ??$_Construct@$00PEBD@?$basic_string@DU?$char_traits@D@std@@V?$allocator@D@2@@std@@AEAAXQEBD_K@Z
_TEXT	SEGMENT
this$ = 80
_Arg$ = 88
_Count$ = 96
??$_Construct@$00PEBD@?$basic_string@DU?$char_traits@D@std@@V?$allocator@D@2@@std@@AEAAXQEBD_K@Z PROC ; std::basic_string<char,std::char_traits<char>,std::allocator<char> >::_Construct<1,char const *>, COMDAT
; File C:\Program Files\Microsoft Visual Studio\18\Community\VC\Tools\MSVC\14.50.35717\include\xstring
; Line 921
$LN108:
	push	rbx
	push	rbp
	push	rsi
	push	r14
	sub	rsp, 40					; 00000028H
; Line 931
	mov	rsi, 9223372036854775807		; 7fffffffffffffffH
	mov	rbx, r8
	mov	rbp, rdx
	mov	r14, rcx
	cmp	r8, rsi
	ja	$LN105@Construct
; Line 939
	cmp	rbx, 15
	ja	SHORT $LN3@Construct
; Line 940
	mov	QWORD PTR [rcx+16], rbx
; Line 941
	mov	QWORD PTR [rcx+24], 15
; File C:\Program Files\Microsoft Visual Studio\18\Community\VC\Tools\MSVC\14.50.35717\include\__msvc_string_view.hpp
; Line 200
	call	memcpy
; File C:\Program Files\Microsoft Visual Studio\18\Community\VC\Tools\MSVC\14.50.35717\include\xstring
; Line 948
	mov	BYTE PTR [rbx+r14], 0
; Line 979
	add	rsp, 40					; 00000028H
	pop	r14
	pop	rsi
	pop	rbp
	pop	rbx
	ret	0
$LN3@Construct:
; Line 2885
	mov	rax, rbx
	mov	QWORD PTR [rsp+80], rdi
	or	rax, 15
; Line 2886
	cmp	rax, rsi
	jbe	SHORT $LN19@Construct
; Line 2887
	mov	rax, -9223372036854775769		; 8000000000000027H
$LN44@Construct:
; File C:\Program Files\Microsoft Visual Studio\18\Community\VC\Tools\MSVC\14.50.35717\include\xmemory
; Line 140
	mov	rcx, rax
	call	??2@YAPEAX_K@Z				; operator new
; Line 194
	test	rax, rax
	jne	SHORT $LN45@Construct
	mov	ecx, 5
	int	41					; 00000029H
$LN19@Construct:
; File C:\Program Files\Microsoft Visual Studio\18\Community\VC\Tools\MSVC\14.50.35717\include\utility
; Line 77
	mov	ecx, 22
	mov	rsi, rax
	cmp	rax, rcx
	cmovb	rsi, rcx
; File C:\Program Files\Microsoft Visual Studio\18\Community\VC\Tools\MSVC\14.50.35717\include\xstring
; Line 875
	lea	rcx, QWORD PTR [rsi+1]
; File C:\Program Files\Microsoft Visual Studio\18\Community\VC\Tools\MSVC\14.50.35717\include\xmemory
; Line 231
	test	rcx, rcx
	jne	SHORT $LN37@Construct
; Line 232
	xor	edi, edi
	jmp	SHORT $LN36@Construct
$LN37@Construct:
; Line 255
	cmp	rcx, 4096				; 00001000H
	jb	SHORT $LN39@Construct
; Line 188
	lea	rax, QWORD PTR [rcx+39]
; Line 189
	cmp	rax, rcx
	jbe	SHORT $LN106@Construct
	jmp	SHORT $LN44@Construct
$LN45@Construct:
; Line 195
	lea	rdi, QWORD PTR [rax+39]
	and	rdi, -32				; ffffffffffffffe0H
; Line 196
	mov	QWORD PTR [rdi-8], rax
; Line 257
	jmp	SHORT $LN36@Construct
$LN39@Construct:
; Line 140
	call	??2@YAPEAX_K@Z				; operator new
	mov	rdi, rax
$LN36@Construct:
; File C:\Program Files\Microsoft Visual Studio\18\Community\VC\Tools\MSVC\14.50.35717\include\__msvc_string_view.hpp
; Line 200
	mov	r8, rbx
; File C:\Program Files\Microsoft Visual Studio\18\Community\VC\Tools\MSVC\14.50.35717\include\xstring
; Line 963
	mov	QWORD PTR [r14], rdi
; File C:\Program Files\Microsoft Visual Studio\18\Community\VC\Tools\MSVC\14.50.35717\include\__msvc_string_view.hpp
; Line 200
	mov	rdx, rbp
; File C:\Program Files\Microsoft Visual Studio\18\Community\VC\Tools\MSVC\14.50.35717\include\xstring
; Line 965
	mov	QWORD PTR [r14+16], rbx
; File C:\Program Files\Microsoft Visual Studio\18\Community\VC\Tools\MSVC\14.50.35717\include\__msvc_string_view.hpp
; Line 200
	mov	rcx, rdi
; File C:\Program Files\Microsoft Visual Studio\18\Community\VC\Tools\MSVC\14.50.35717\include\xstring
; Line 966
	mov	QWORD PTR [r14+24], rsi
; File C:\Program Files\Microsoft Visual Studio\18\Community\VC\Tools\MSVC\14.50.35717\include\__msvc_string_view.hpp
; Line 200
	call	memcpy
; File C:\Program Files\Microsoft Visual Studio\18\Community\VC\Tools\MSVC\14.50.35717\include\xstring
; Line 972
	mov	BYTE PTR [rdi+rbx], 0
	mov	rdi, QWORD PTR [rsp+80]
; Line 979
	add	rsp, 40					; 00000028H
	pop	r14
	pop	rsi
	pop	rbp
	pop	rbx
	ret	0
$LN105@Construct:
; Line 932
	call	?_Xlen_string@std@@YAXXZ		; std::_Xlen_string
	int	3
$LN106@Construct:
; File C:\Program Files\Microsoft Visual Studio\18\Community\VC\Tools\MSVC\14.50.35717\include\xmemory
; Line 190
	call	?_Throw_bad_array_new_length@std@@YAXXZ	; std::_Throw_bad_array_new_length
	int	3
$LN103@Construct:
??$_Construct@$00PEBD@?$basic_string@DU?$char_traits@D@std@@V?$allocator@D@2@@std@@AEAAXQEBD_K@Z ENDP ; std::basic_string<char,std::char_traits<char>,std::allocator<char> >::_Construct<1,char const *>
_TEXT	ENDS
; Function compile flags: /Ogtpy
;	COMDAT ??$?0$$V@?$_Compressed_pair@V?$allocator@D@std@@V?$_String_val@U?$_Simple_types@D@std@@@2@$00@std@@QEAA@U_Zero_then_variadic_args_t@1@@Z
_TEXT	SEGMENT
this$ = 8
__formal$ = 16
??$?0$$V@?$_Compressed_pair@V?$allocator@D@std@@V?$_String_val@U?$_Simple_types@D@std@@@2@$00@std@@QEAA@U_Zero_then_variadic_args_t@1@@Z PROC ; std::_Compressed_pair<std::allocator<char>,std::_String_val<std::_Simple_types<char> >,1>::_Compressed_pair<std::allocator<char>,std::_String_val<std::_Simple_types<char> >,1><>, COMDAT
; File C:\Program Files\Microsoft Visual Studio\18\Community\VC\Tools\MSVC\14.50.35717\include\xmemory
; File C:\Program Files\Microsoft Visual Studio\18\Community\VC\Tools\MSVC\14.50.35717\include\xstring
; Line 517
	xor	eax, eax
	xorps	xmm0, xmm0
; Line 493
	movups	XMMWORD PTR [rcx], xmm0
; Line 517
	mov	QWORD PTR [rcx+16], rax
; Line 518
	mov	QWORD PTR [rcx+24], rax
; File C:\Program Files\Microsoft Visual Studio\18\Community\VC\Tools\MSVC\14.50.35717\include\xmemory
; Line 1551
	mov	rax, rcx
	ret	0
??$?0$$V@?$_Compressed_pair@V?$allocator@D@std@@V?$_String_val@U?$_Simple_types@D@std@@@2@$00@std@@QEAA@U_Zero_then_variadic_args_t@1@@Z ENDP ; std::_Compressed_pair<std::allocator<char>,std::_String_val<std::_Simple_types<char> >,1>::_Compressed_pair<std::allocator<char>,std::_String_val<std::_Simple_types<char> >,1><>
_TEXT	ENDS
; Function compile flags: /Ogtpy
;	COMDAT ??$_Get_proxy_allocator@V?$allocator@D@std@@@std@@YA?AU_Fake_allocator@0@AEBV?$allocator@D@0@@Z
_TEXT	SEGMENT
__formal$ = 8
??$_Get_proxy_allocator@V?$allocator@D@std@@@std@@YA?AU_Fake_allocator@0@AEBV?$allocator@D@0@@Z PROC ; std::_Get_proxy_allocator<std::allocator<char> >, COMDAT
; File C:\Program Files\Microsoft Visual Studio\18\Community\VC\Tools\MSVC\14.50.35717\include\xmemory
; Line 1517
	xor	al, al
; Line 1518
	ret	0
??$_Get_proxy_allocator@V?$allocator@D@std@@@std@@YA?AU_Fake_allocator@0@AEBV?$allocator@D@0@@Z ENDP ; std::_Get_proxy_allocator<std::allocator<char> >
_TEXT	ENDS
; Function compile flags: /Ogtpy
;	COMDAT ??$?0V?$allocator@D@std@@$$V@?$_Compressed_pair@V?$allocator@D@std@@V?$_String_val@U?$_Simple_types@D@std@@@2@$00@std@@QEAA@U_One_then_variadic_args_t@1@$$QEAV?$allocator@D@1@@Z
_TEXT	SEGMENT
this$ = 8
__formal$ = 16
_Val1$ = 24
??$?0V?$allocator@D@std@@$$V@?$_Compressed_pair@V?$allocator@D@std@@V?$_String_val@U?$_Simple_types@D@std@@@2@$00@std@@QEAA@U_One_then_variadic_args_t@1@$$QEAV?$allocator@D@1@@Z PROC ; std::_Compressed_pair<std::allocator<char>,std::_String_val<std::_Simple_types<char> >,1>::_Compressed_pair<std::allocator<char>,std::_String_val<std::_Simple_types<char> >,1><std::allocator<char> >, COMDAT
; File C:\Program Files\Microsoft Visual Studio\18\Community\VC\Tools\MSVC\14.50.35717\include\xmemory
; File C:\Program Files\Microsoft Visual Studio\18\Community\VC\Tools\MSVC\14.50.35717\include\xstring
; Line 517
	xor	eax, eax
	xorps	xmm0, xmm0
; Line 493
	movups	XMMWORD PTR [rcx], xmm0
; Line 517
	mov	QWORD PTR [rcx+16], rax
; Line 518
	mov	QWORD PTR [rcx+24], rax
; File C:\Program Files\Microsoft Visual Studio\18\Community\VC\Tools\MSVC\14.50.35717\include\xmemory
; Line 1556
	mov	rax, rcx
	ret	0
??$?0V?$allocator@D@std@@$$V@?$_Compressed_pair@V?$allocator@D@std@@V?$_String_val@U?$_Simple_types@D@std@@@2@$00@std@@QEAA@U_One_then_variadic_args_t@1@$$QEAV?$allocator@D@1@@Z ENDP ; std::_Compressed_pair<std::allocator<char>,std::_String_val<std::_Simple_types<char> >,1>::_Compressed_pair<std::allocator<char>,std::_String_val<std::_Simple_types<char> >,1><std::allocator<char> >
_TEXT	ENDS
; Function compile flags: /Ogtpy
;	COMDAT ??$_Convert_size@_K_K@std@@YA_K_K@Z
_TEXT	SEGMENT
_Len$ = 8
??$_Convert_size@_K_K@std@@YA_K_K@Z PROC		; std::_Convert_size<unsigned __int64,unsigned __int64>, COMDAT
; File C:\Program Files\Microsoft Visual Studio\18\Community\VC\Tools\MSVC\14.50.35717\include\xmemory
; Line 1143
	mov	rax, rcx
; Line 1144
	ret	0
??$_Convert_size@_K_K@std@@YA_K_K@Z ENDP		; std::_Convert_size<unsigned __int64,unsigned __int64>
_TEXT	ENDS
; Function compile flags: /Ogtpy
;	COMDAT ??$_Unfancy@D@std@@YAPEADPEAD@Z
_TEXT	SEGMENT
_Ptr$ = 8
??$_Unfancy@D@std@@YAPEADPEAD@Z PROC			; std::_Unfancy<char>, COMDAT
; File C:\Program Files\Microsoft Visual Studio\18\Community\VC\Tools\MSVC\14.50.35717\include\xmemory
; Line 73
	mov	rax, rcx
; Line 74
	ret	0
??$_Unfancy@D@std@@YAPEADPEAD@Z ENDP			; std::_Unfancy<char>
_TEXT	ENDS
; Function compile flags: /Ogtpy
;	COMDAT ??$typeMatch@VPxRigidDynamic@physx@@@PxBase@physx@@IEBA_NXZ
_TEXT	SEGMENT
this$ = 8
??$typeMatch@VPxRigidDynamic@physx@@@PxBase@physx@@IEBA_NXZ PROC ; physx::PxBase::typeMatch<physx::PxRigidDynamic>, COMDAT
; File C:\Users\RedDragon\Documents\Recubin\include\PhysX\common\PxBase.h
; Line 184
	cmp	WORD PTR [rcx+8], 7
	sete	al
; Line 186
	ret	0
??$typeMatch@VPxRigidDynamic@physx@@@PxBase@physx@@IEBA_NXZ ENDP ; physx::PxBase::typeMatch<physx::PxRigidDynamic>
_TEXT	ENDS
; Function compile flags: /Ogtpy
;	COMDAT ??$is@VPxRigidDynamic@physx@@@PxBase@physx@@QEAAPEAVPxRigidDynamic@1@XZ
_TEXT	SEGMENT
this$ = 8
??$is@VPxRigidDynamic@physx@@@PxBase@physx@@QEAAPEAVPxRigidDynamic@1@XZ PROC ; physx::PxBase::is<physx::PxRigidDynamic>, COMDAT
; File C:\Users\RedDragon\Documents\Recubin\include\PhysX\common\PxBase.h
; Line 101
	xor	eax, eax
	cmp	WORD PTR [rcx+8], 7
	cmove	rax, rcx
	ret	0
??$is@VPxRigidDynamic@physx@@@PxBase@physx@@QEAAPEAVPxRigidDynamic@1@XZ ENDP ; physx::PxBase::is<physx::PxRigidDynamic>
_TEXT	ENDS
; Function compile flags: /Ogtpy
;	COMDAT ??$endl@DU?$char_traits@D@std@@@std@@YAAEAV?$basic_ostream@DU?$char_traits@D@std@@@0@AEAV10@@Z
_TEXT	SEGMENT
_Ostr$ = 48
??$endl@DU?$char_traits@D@std@@@std@@YAAEAV?$basic_ostream@DU?$char_traits@D@std@@@0@AEAV10@@Z PROC ; std::endl<char,std::char_traits<char> >, COMDAT
; File C:\Program Files\Microsoft Visual Studio\18\Community\VC\Tools\MSVC\14.50.35717\include\__msvc_ostream.hpp
; Line 1012
$LN4:
	push	rbx
	sub	rsp, 32					; 00000020H
; Line 1013
	mov	rax, QWORD PTR [rcx]
	mov	rbx, rcx
	mov	dl, 10
	movsxd	rcx, DWORD PTR [rax+4]
	add	rcx, rbx
	call	QWORD PTR __imp_?widen@?$basic_ios@DU?$char_traits@D@std@@@std@@QEBADD@Z
	movzx	edx, al
	mov	rcx, rbx
	call	QWORD PTR __imp_?put@?$basic_ostream@DU?$char_traits@D@std@@@std@@QEAAAEAV12@D@Z
; Line 1014
	mov	rcx, rbx
	call	QWORD PTR __imp_?flush@?$basic_ostream@DU?$char_traits@D@std@@@std@@QEAAAEAV12@XZ
; Line 1015
	mov	rax, rbx
; Line 1016
	add	rsp, 32					; 00000020H
	pop	rbx
	ret	0
??$endl@DU?$char_traits@D@std@@@std@@YAAEAV?$basic_ostream@DU?$char_traits@D@std@@@0@AEAV10@@Z ENDP ; std::endl<char,std::char_traits<char> >
_TEXT	ENDS
; Function compile flags: /Ogtpy
;	COMDAT ??$?6U?$char_traits@D@std@@@std@@YAAEAV?$basic_ostream@DU?$char_traits@D@std@@@0@AEAV10@PEBD@Z
_TEXT	SEGMENT
_Ok$ = 32
_Ostr$ = 96
_Val$ = 104
_State$ = 112
??$?6U?$char_traits@D@std@@@std@@YAAEAV?$basic_ostream@DU?$char_traits@D@std@@@0@AEAV10@PEBD@Z PROC ; std::operator<<<std::char_traits<char> >, COMDAT
; File C:\Program Files\Microsoft Visual Studio\18\Community\VC\Tools\MSVC\14.50.35717\include\__msvc_ostream.hpp
; Line 768
$LN74:
	mov	QWORD PTR [rsp+16], rbx
	mov	QWORD PTR [rsp+32], rsi
	mov	QWORD PTR [rsp+8], rcx
	push	rdi
	push	r12
	push	r13
	push	r14
	push	r15
	sub	rsp, 48					; 00000030H
	mov	r13, rdx
	mov	rsi, rcx
; Line 773
	xor	ebx, ebx
	mov	DWORD PTR _State$[rsp], ebx
; File C:\Program Files\Microsoft Visual Studio\18\Community\VC\Tools\MSVC\14.50.35717\include\__msvc_string_view.hpp
; Line 530
	mov	rcx, rdx
	call	strlen
	mov	r12, rax
; File C:\Program Files\Microsoft Visual Studio\18\Community\VC\Tools\MSVC\14.50.35717\include\__msvc_ostream.hpp
; Line 775
	mov	r8, QWORD PTR [rsi]
	movsxd	rcx, DWORD PTR [r8+4]
	add	rcx, rsi
	call	QWORD PTR __imp_?width@ios_base@std@@QEBA_JXZ
	test	rax, rax
	jle	SHORT $LN17@operator
	mov	rcx, QWORD PTR [rsi]
	movsxd	rcx, DWORD PTR [rcx+4]
	add	rcx, rsi
	call	QWORD PTR __imp_?width@ios_base@std@@QEBA_JXZ
	cmp	rax, r12
	jle	SHORT $LN17@operator
	mov	rax, QWORD PTR [rsi]
	movsxd	rcx, DWORD PTR [rax+4]
	add	rcx, rsi
	call	QWORD PTR __imp_?width@ios_base@std@@QEBA_JXZ
	mov	r14, rax
	sub	r14, r12
	jmp	SHORT $LN18@operator
$LN17@operator:
	xor	r14d, r14d
$LN18@operator:
; Line 69
	mov	r15, rsi
	mov	QWORD PTR _Ok$[rsp], rsi
; Line 70
	mov	rax, QWORD PTR [rsi]
	movsxd	rcx, DWORD PTR [rax+4]
	add	rcx, rsi
	call	QWORD PTR __imp_?rdbuf@?$basic_ios@DU?$char_traits@D@std@@@std@@QEBAPEAV?$basic_streambuf@DU?$char_traits@D@std@@@2@XZ
; Line 71
	test	rax, rax
	je	SHORT $LN34@operator
; Line 72
	mov	rdx, QWORD PTR [rax]
	mov	rcx, rax
	call	QWORD PTR [rdx+8]
	npad	1
$LN34@operator:
; Line 91
	mov	rax, QWORD PTR [rsi]
	movsxd	rcx, DWORD PTR [rax+4]
	add	rcx, rsi
	call	QWORD PTR __imp_?good@ios_base@std@@QEBA_NXZ
	test	al, al
	jne	SHORT $LN28@operator
; Line 92
	mov	BYTE PTR _Ok$[rsp+8], al
; Line 93
	jmp	SHORT $LN27@operator
$LN28@operator:
; Line 96
	mov	rax, QWORD PTR [rsi]
	movsxd	rcx, DWORD PTR [rax+4]
	add	rcx, rsi
	call	QWORD PTR __imp_?tie@?$basic_ios@DU?$char_traits@D@std@@@std@@QEBAPEAV?$basic_ostream@DU?$char_traits@D@std@@@2@XZ
; Line 97
	test	rax, rax
	je	SHORT $LN30@operator
	cmp	rax, rsi
	je	SHORT $LN30@operator
; Line 102
	mov	rcx, rax
	call	QWORD PTR __imp_?flush@?$basic_ostream@DU?$char_traits@D@std@@@std@@QEAAAEAV12@XZ
; Line 103
	mov	rax, QWORD PTR [rsi]
	movsxd	rcx, DWORD PTR [rax+4]
	add	rcx, rsi
	call	QWORD PTR __imp_?good@ios_base@std@@QEBA_NXZ
	mov	BYTE PTR _Ok$[rsp+8], al
	jmp	SHORT $LN27@operator
$LN30@operator:
; Line 98
	mov	BYTE PTR _Ok$[rsp+8], 1
	mov	al, 1
$LN27@operator:
; Line 778
	test	al, al
	jne	SHORT $LN8@operator
; Line 779
	mov	ebx, 4
; Line 780
	jmp	$LN22@operator
$LN8@operator:
; Line 782
	mov	rax, QWORD PTR [rsi]
	movsxd	rcx, DWORD PTR [rax+4]
	add	rcx, rsi
	call	QWORD PTR __imp_?flags@ios_base@std@@QEBAHXZ
	and	eax, 448				; 000001c0H
	cmp	eax, 64					; 00000040H
	je	SHORT $LN64@operator
$LL4@operator:
; Line 783
	test	r14, r14
	jle	SHORT $LN64@operator
; Line 784
	mov	rax, QWORD PTR [rsi]
	movsxd	rcx, DWORD PTR [rax+4]
	add	rcx, rsi
	call	QWORD PTR __imp_?rdbuf@?$basic_ios@DU?$char_traits@D@std@@@std@@QEBAPEAV?$basic_streambuf@DU?$char_traits@D@std@@@2@XZ
	mov	rdi, rax
	mov	rcx, QWORD PTR [rsi]
	movsxd	rcx, DWORD PTR [rcx+4]
	add	rcx, rsi
	call	QWORD PTR __imp_?fill@?$basic_ios@DU?$char_traits@D@std@@@std@@QEBADXZ
	movzx	edx, al
	mov	rcx, rdi
	call	QWORD PTR __imp_?sputc@?$basic_streambuf@DU?$char_traits@D@std@@@std@@QEAAHD@Z
	cmp	eax, -1
	je	SHORT $LN71@operator
; Line 783
	dec	r14
	jmp	SHORT $LL4@operator
$LN64@operator:
; Line 791
	mov	rax, QWORD PTR [rsi]
	movsxd	rcx, DWORD PTR [rax+4]
	add	rcx, rsi
	call	QWORD PTR __imp_?rdbuf@?$basic_ios@DU?$char_traits@D@std@@@std@@QEBAPEAV?$basic_streambuf@DU?$char_traits@D@std@@@2@XZ
	mov	r8, r12
	mov	rdx, r13
	mov	rcx, rax
	call	QWORD PTR __imp_?sputn@?$basic_streambuf@DU?$char_traits@D@std@@@std@@QEAA_JPEBD_J@Z
	cmp	rax, r12
	jne	SHORT $LN71@operator
$LL7@operator:
; Line 796
	test	r14, r14
	jle	SHORT $LN6@operator
; Line 797
	mov	rax, QWORD PTR [rsi]
	movsxd	rcx, DWORD PTR [rax+4]
	add	rcx, rsi
	call	QWORD PTR __imp_?rdbuf@?$basic_ios@DU?$char_traits@D@std@@@std@@QEBAPEAV?$basic_streambuf@DU?$char_traits@D@std@@@2@XZ
	mov	rdi, rax
	mov	rcx, QWORD PTR [rsi]
	movsxd	rcx, DWORD PTR [rcx+4]
	add	rcx, rsi
	call	QWORD PTR __imp_?fill@?$basic_ios@DU?$char_traits@D@std@@@std@@QEBADXZ
	movzx	edx, al
	mov	rcx, rdi
	call	QWORD PTR __imp_?sputc@?$basic_streambuf@DU?$char_traits@D@std@@@std@@QEAAHD@Z
	cmp	eax, -1
	je	SHORT $LN71@operator
; Line 796
	dec	r14
	jmp	SHORT $LL7@operator
$LN71@operator:
; Line 804
	mov	ebx, 4
	mov	DWORD PTR _State$[rsp], ebx
$LN6@operator:
	mov	rax, QWORD PTR [rsi]
	movsxd	rcx, DWORD PTR [rax+4]
	add	rcx, rsi
	xor	edx, edx
	call	QWORD PTR __imp_?width@ios_base@std@@QEAA_J_J@Z
	npad	1
	jmp	SHORT $LN22@operator
$LN23@operator:
	mov	rsi, QWORD PTR _Ostr$[rsp]
	mov	ebx, DWORD PTR _State$[rsp]
	mov	r15, QWORD PTR _Ok$[rsp]
$LN22@operator:
; Line 808
	mov	rax, QWORD PTR [rsi]
	movsxd	rcx, DWORD PTR [rax+4]
	add	rcx, rsi
	xor	r8d, r8d
	mov	edx, ebx
	call	QWORD PTR __imp_?setstate@?$basic_ios@DU?$char_traits@D@std@@@std@@QEAAXH_N@Z
	npad	1
; Line 113
	call	?uncaught_exceptions@std@@YAHXZ		; std::uncaught_exceptions
; Line 116
	test	eax, eax
	jne	SHORT $LN43@operator
; Line 117
	mov	rcx, r15
	call	QWORD PTR __imp_?_Osfx@?$basic_ostream@DU?$char_traits@D@std@@@std@@QEAAXXZ
	npad	1
$LN43@operator:
; Line 77
	mov	rax, QWORD PTR [r15]
	movsxd	rcx, DWORD PTR [rax+4]
	add	rcx, r15
	call	QWORD PTR __imp_?rdbuf@?$basic_ios@DU?$char_traits@D@std@@@std@@QEBAPEAV?$basic_streambuf@DU?$char_traits@D@std@@@2@XZ
; Line 78
	test	rax, rax
	je	SHORT $LN69@operator
; Line 79
	mov	rdx, QWORD PTR [rax]
	mov	rcx, rax
	call	QWORD PTR [rdx+16]
	npad	1
$LN69@operator:
; Line 810
	mov	rax, rsi
	mov	rbx, QWORD PTR [rsp+104]
	mov	rsi, QWORD PTR [rsp+120]
	add	rsp, 48					; 00000030H
	pop	r15
	pop	r14
	pop	r13
	pop	r12
	pop	rdi
	ret	0
??$?6U?$char_traits@D@std@@@std@@YAAEAV?$basic_ostream@DU?$char_traits@D@std@@@0@AEAV10@PEBD@Z ENDP ; std::operator<<<std::char_traits<char> >
_TEXT	ENDS
; Function compile flags: /Ogtpy
;	COMDAT text$x
text$x	SEGMENT
_Ok$ = 32
_Ostr$ = 96
_Val$ = 104
_State$ = 112
?dtor$1@?0???$?6U?$char_traits@D@std@@@std@@YAAEAV?$basic_ostream@DU?$char_traits@D@std@@@0@AEAV10@PEBD@Z@4HA PROC ; `std::operator<<<std::char_traits<char> >'::`1'::dtor$1
	lea	rcx, QWORD PTR _Ok$[rdx]
	jmp	??1_Sentry_base@?$basic_ostream@DU?$char_traits@D@std@@@std@@QEAA@XZ ; std::basic_ostream<char,std::char_traits<char> >::_Sentry_base::~_Sentry_base
?dtor$1@?0???$?6U?$char_traits@D@std@@@std@@YAAEAV?$basic_ostream@DU?$char_traits@D@std@@@0@AEAV10@PEBD@Z@4HA ENDP ; `std::operator<<<std::char_traits<char> >'::`1'::dtor$1
text$x	ENDS
; Function compile flags: /Ogtpy
;	COMDAT text$x
text$x	SEGMENT
_Ok$ = 32
_Ostr$ = 96
_Val$ = 104
_State$ = 112
?dtor$0@?0???$?6U?$char_traits@D@std@@@std@@YAAEAV?$basic_ostream@DU?$char_traits@D@std@@@0@AEAV10@PEBD@Z@4HA PROC ; `std::operator<<<std::char_traits<char> >'::`1'::dtor$0
	lea	rcx, QWORD PTR _Ok$[rdx]
	jmp	??1sentry@?$basic_ostream@DU?$char_traits@D@std@@@std@@QEAA@XZ ; std::basic_ostream<char,std::char_traits<char> >::sentry::~sentry
?dtor$0@?0???$?6U?$char_traits@D@std@@@std@@YAAEAV?$basic_ostream@DU?$char_traits@D@std@@@0@AEAV10@PEBD@Z@4HA ENDP ; `std::operator<<<std::char_traits<char> >'::`1'::dtor$0
text$x	ENDS
; Function compile flags: /Ogtpy
;	COMDAT text$x
text$x	SEGMENT
_Ok$ = 32
_Ostr$ = 96
_Val$ = 104
_State$ = 112
?catch$4@?0???$?6U?$char_traits@D@std@@@std@@YAAEAV?$basic_ostream@DU?$char_traits@D@std@@@0@AEAV10@PEBD@Z@4HA PROC ; `std::operator<<<std::char_traits<char> >'::`1'::catch$4
; Line 805
	mov	QWORD PTR [rsp+16], rdx
	push	rbp
	sub	rsp, 32					; 00000020H
	mov	rbp, rdx
__catch$??$?6U?$char_traits@D@std@@@std@@YAAEAV?$basic_ostream@DU?$char_traits@D@std@@@0@AEAV10@PEBD@Z$0:
	mov	rdx, QWORD PTR _Ostr$[rbp]
	mov	rax, QWORD PTR [rdx]
	movsxd	rcx, DWORD PTR [rax+4]
	add	rcx, rdx
	mov	r8b, 1
	mov	edx, 4
	call	QWORD PTR __imp_?setstate@?$basic_ios@DU?$char_traits@D@std@@@std@@QEAAXH_N@Z
	npad	1
	mov	rax, 0
	add	rsp, 32					; 00000020H
	pop	rbp
	ret	0
	int	3
?catch$4@?0???$?6U?$char_traits@D@std@@@std@@YAAEAV?$basic_ostream@DU?$char_traits@D@std@@@0@AEAV10@PEBD@Z@4HA ENDP ; `std::operator<<<std::char_traits<char> >'::`1'::catch$4
text$x	ENDS
; Function compile flags: /Ogtpy
;	COMDAT ?spawnCharacter@User@@QEAAXXZ
_TEXT	SEGMENT
$T15 = 32
$T16 = 32
$T17 = 32
$T18 = 32
$T19 = 32
$T20 = 32
$T21 = 32
$T22 = 48
$T23 = 48
$T24 = 48
$T25 = 48
$T26 = 48
$T27 = 48
$T28 = 48
$T29 = 64
$T30 = 96
this$ = 208
$T31 = 208
$T32 = 208
$T33 = 208
$T34 = 208
$T35 = 208
$T36 = 208
$T37 = 208
$T38 = 208
$T39 = 216
?spawnCharacter@User@@QEAAXXZ PROC			; User::spawnCharacter, COMDAT
; File C:\Users\RedDragon\Documents\Recubin\src\Core\User.cpp
; Line 215
$LN254:
	mov	rax, rsp
	mov	QWORD PTR [rax+32], rbx
	push	rbp
	push	rsi
	push	rdi
	lea	rbp, QWORD PTR [rax-95]
	sub	rsp, 176				; 000000b0H
	movaps	XMMWORD PTR [rax-40], xmm6
	movaps	XMMWORD PTR [rax-56], xmm7
	movaps	XMMWORD PTR [rax-72], xmm8
	mov	rsi, rcx
; Line 216
	cmp	QWORD PTR [rcx+96], 0
	jne	$LN1@spawnChara
; Line 218
	mov	ecx, 168				; 000000a8H
	call	??2@YAPEAX_K@Z				; operator new
	mov	rbx, rax
	mov	QWORD PTR $T31[rbp-105], rax
	movss	xmm8, DWORD PTR __real@3f800000
	test	rax, rax
	je	$LN4@spawnChara
	xorps	xmm0, xmm0
; File C:\Program Files\Microsoft Visual Studio\18\Community\VC\Tools\MSVC\14.50.35717\include\xstring
; Line 493
	movups	XMMWORD PTR $T29[rbp-105], xmm0
; Line 940
	mov	QWORD PTR $T29[rbp-89], 5
; Line 941
	mov	QWORD PTR $T29[rbp-81], 15
; File C:\Program Files\Microsoft Visual Studio\18\Community\VC\Tools\MSVC\14.50.35717\include\__msvc_string_view.hpp
; Line 200
	mov	eax, DWORD PTR ??_C@_05NFIJOKEG@Model@
	mov	DWORD PTR $T29[rbp-105], eax
	movzx	eax, BYTE PTR ??_C@_05NFIJOKEG@Model@+4
	mov	BYTE PTR $T29[rbp-101], al
; File C:\Program Files\Microsoft Visual Studio\18\Community\VC\Tools\MSVC\14.50.35717\include\xstring
; Line 948
	mov	BYTE PTR $T29[rbp-100], 0
; File C:\Users\RedDragon\Documents\Recubin\include\Instances\Model.hpp
; Line 6
	lea	rax, QWORD PTR $T29[rbp-105]
	mov	QWORD PTR $T39[rbp-105], rax
	movss	xmm7, DWORD PTR __real@40a00000
	movss	xmm6, DWORD PTR __real@41200000
; File C:\Users\RedDragon\Documents\Recubin\include\Instances\Spatial.hpp
; Line 18
	lea	rdx, QWORD PTR $T29[rbp-105]
	lea	rcx, QWORD PTR $T30[rbp-105]
	call	??0?$basic_string@DU?$char_traits@D@std@@V?$allocator@D@2@@std@@QEAA@AEBV01@@Z ; std::basic_string<char,std::char_traits<char>,std::allocator<char> >::basic_string<char,std::char_traits<char>,std::allocator<char> >
	mov	rdx, rax
	mov	rcx, rbx
	call	??0Instance@@QEAA@V?$basic_string@DU?$char_traits@D@std@@V?$allocator@D@2@@std@@@Z ; Instance::Instance
; Line 19
	lea	rax, OFFSET FLAT:??_7Spatial@@6B@
	mov	QWORD PTR [rbx], rax
; Line 18
	lea	rcx, QWORD PTR [rbx+112]
; File C:\Users\RedDragon\Documents\Recubin\include\Math\CFrame.hpp
; Line 12
	movaps	xmm0, xmm7
	unpcklps xmm0, xmm6
	movsd	QWORD PTR [rcx], xmm0
	movss	DWORD PTR [rcx+8], xmm7
; File C:\Users\RedDragon\Documents\Recubin\include\Math\Quaternion.hpp
; Line 8
	mov	QWORD PTR [rcx+12], 1065353216		; 3f800000H
	xor	edi, edi
	mov	QWORD PTR [rcx+20], rdi
; File C:\Users\RedDragon\Documents\Recubin\include\Instances\Spatial.hpp
; Line 18
	movaps	xmm0, xmm8
	unpcklps xmm0, xmm8
	movsd	QWORD PTR [rbx+140], xmm0
	movss	DWORD PTR [rbx+148], xmm8
; Line 19
	mov	QWORD PTR [rbx+152], rcx
	lea	rax, QWORD PTR [rbx+124]
	mov	QWORD PTR [rbx+160], rax
; File C:\Program Files\Microsoft Visual Studio\18\Community\VC\Tools\MSVC\14.50.35717\include\xstring
; Line 1433
	lea	rcx, QWORD PTR $T29[rbp-105]
	call	?_Tidy_deallocate@?$basic_string@DU?$char_traits@D@std@@V?$allocator@D@2@@std@@AEAAXXZ ; std::basic_string<char,std::char_traits<char>,std::allocator<char> >::_Tidy_deallocate
; File C:\Users\RedDragon\Documents\Recubin\include\Instances\Model.hpp
; Line 6
	lea	rax, OFFSET FLAT:??_7Model@@6B@
	mov	QWORD PTR [rbx], rax
; File C:\Users\RedDragon\Documents\Recubin\src\Core\User.cpp
; Line 218
	jmp	SHORT $LN5@spawnChara
$LN4@spawnChara:
	xor	edi, edi
	mov	ebx, edi
$LN5@spawnChara:
	mov	QWORD PTR [rsi+96], rbx
; Line 219
	mov	rax, QWORD PTR [rbx+152]
	movsd	xmm6, QWORD PTR [rax]
	mov	ebx, DWORD PTR [rax+8]
; Line 222
	mov	ecx, 240				; 000000f0H
	call	??2@YAPEAX_K@Z				; operator new
	mov	QWORD PTR $T32[rbp-105], rax
	test	rax, rax
	je	SHORT $LN6@spawnChara
	mov	DWORD PTR $T15[rbp-105], 1073741824	; 40000000H
	mov	DWORD PTR $T15[rbp-101], 1082130432	; 40800000H
	mov	DWORD PTR $T15[rbp-97], 1065353216	; 3f800000H
	movsd	QWORD PTR $T22[rbp-105], xmm6
	mov	DWORD PTR $T22[rbp-97], ebx
	xor	r9d, r9d
	lea	r8, QWORD PTR $T15[rbp-105]
	lea	rdx, QWORD PTR $T22[rbp-105]
	mov	rcx, rax
	call	??0Cube@@QEAA@UVector3@@0I@Z		; Cube::Cube
	jmp	SHORT $LN7@spawnChara
$LN6@spawnChara:
	mov	rax, rdi
$LN7@spawnChara:
	mov	QWORD PTR [rsi+104], rax
; Line 223
	mov	ecx, 240				; 000000f0H
	call	??2@YAPEAX_K@Z				; operator new
	mov	QWORD PTR $T33[rbp-105], rax
	test	rax, rax
	je	SHORT $LN8@spawnChara
	mov	DWORD PTR $T16[rbp-105], 1065353216	; 3f800000H
	mov	DWORD PTR $T16[rbp-101], 1065353216	; 3f800000H
	mov	DWORD PTR $T16[rbp-97], 1065353216	; 3f800000H
	movsd	QWORD PTR $T23[rbp-105], xmm6
	mov	DWORD PTR $T23[rbp-97], ebx
	xor	r9d, r9d
	lea	r8, QWORD PTR $T16[rbp-105]
	lea	rdx, QWORD PTR $T23[rbp-105]
	mov	rcx, rax
	call	??0Cube@@QEAA@UVector3@@0I@Z		; Cube::Cube
	jmp	SHORT $LN9@spawnChara
$LN8@spawnChara:
	mov	rax, rdi
$LN9@spawnChara:
	mov	QWORD PTR [rsi+120], rax
; Line 224
	mov	ecx, 240				; 000000f0H
	call	??2@YAPEAX_K@Z				; operator new
	mov	QWORD PTR $T34[rbp-105], rax
	test	rax, rax
	je	SHORT $LN10@spawnChara
	mov	DWORD PTR $T17[rbp-105], 1073741824	; 40000000H
	mov	DWORD PTR $T17[rbp-101], 1073741824	; 40000000H
	mov	DWORD PTR $T17[rbp-97], 1065353216	; 3f800000H
	movsd	QWORD PTR $T24[rbp-105], xmm6
	mov	DWORD PTR $T24[rbp-97], ebx
	xor	r9d, r9d
	lea	r8, QWORD PTR $T17[rbp-105]
	lea	rdx, QWORD PTR $T24[rbp-105]
	mov	rcx, rax
	call	??0Cube@@QEAA@UVector3@@0I@Z		; Cube::Cube
	jmp	SHORT $LN11@spawnChara
$LN10@spawnChara:
	mov	rax, rdi
$LN11@spawnChara:
	mov	QWORD PTR [rsi+112], rax
; Line 225
	mov	ecx, 240				; 000000f0H
	call	??2@YAPEAX_K@Z				; operator new
	mov	QWORD PTR $T35[rbp-105], rax
	test	rax, rax
	je	SHORT $LN12@spawnChara
	mov	DWORD PTR $T18[rbp-105], 1065353216	; 3f800000H
	mov	DWORD PTR $T18[rbp-101], 1073741824	; 40000000H
	mov	DWORD PTR $T18[rbp-97], 1065353216	; 3f800000H
	movsd	QWORD PTR $T25[rbp-105], xmm6
	mov	DWORD PTR $T25[rbp-97], ebx
	xor	r9d, r9d
	lea	r8, QWORD PTR $T18[rbp-105]
	lea	rdx, QWORD PTR $T25[rbp-105]
	mov	rcx, rax
	call	??0Cube@@QEAA@UVector3@@0I@Z		; Cube::Cube
	jmp	SHORT $LN13@spawnChara
$LN12@spawnChara:
	mov	rax, rdi
$LN13@spawnChara:
	mov	QWORD PTR [rsi+128], rax
; Line 226
	mov	ecx, 240				; 000000f0H
	call	??2@YAPEAX_K@Z				; operator new
	mov	QWORD PTR $T36[rbp-105], rax
	test	rax, rax
	je	SHORT $LN14@spawnChara
	mov	DWORD PTR $T19[rbp-105], 1065353216	; 3f800000H
	mov	DWORD PTR $T19[rbp-101], 1073741824	; 40000000H
	mov	DWORD PTR $T19[rbp-97], 1065353216	; 3f800000H
	movsd	QWORD PTR $T26[rbp-105], xmm6
	mov	DWORD PTR $T26[rbp-97], ebx
	xor	r9d, r9d
	lea	r8, QWORD PTR $T19[rbp-105]
	lea	rdx, QWORD PTR $T26[rbp-105]
	mov	rcx, rax
	call	??0Cube@@QEAA@UVector3@@0I@Z		; Cube::Cube
	jmp	SHORT $LN15@spawnChara
$LN14@spawnChara:
	mov	rax, rdi
$LN15@spawnChara:
	mov	QWORD PTR [rsi+136], rax
; Line 227
	mov	ecx, 240				; 000000f0H
	call	??2@YAPEAX_K@Z				; operator new
	mov	QWORD PTR $T37[rbp-105], rax
	test	rax, rax
	je	SHORT $LN16@spawnChara
	mov	DWORD PTR $T20[rbp-105], 1065353216	; 3f800000H
	mov	DWORD PTR $T20[rbp-101], 1073741824	; 40000000H
	mov	DWORD PTR $T20[rbp-97], 1065353216	; 3f800000H
	movsd	QWORD PTR $T27[rbp-105], xmm6
	mov	DWORD PTR $T27[rbp-97], ebx
	xor	r9d, r9d
	lea	r8, QWORD PTR $T20[rbp-105]
	lea	rdx, QWORD PTR $T27[rbp-105]
	mov	rcx, rax
	call	??0Cube@@QEAA@UVector3@@0I@Z		; Cube::Cube
	jmp	SHORT $LN17@spawnChara
$LN16@spawnChara:
	mov	rax, rdi
$LN17@spawnChara:
	mov	QWORD PTR [rsi+144], rax
; Line 228
	mov	ecx, 240				; 000000f0H
	call	??2@YAPEAX_K@Z				; operator new
	mov	QWORD PTR $T38[rbp-105], rax
	test	rax, rax
	je	SHORT $LN18@spawnChara
	mov	DWORD PTR $T21[rbp-105], 1065353216	; 3f800000H
	mov	DWORD PTR $T21[rbp-101], 1073741824	; 40000000H
	mov	DWORD PTR $T21[rbp-97], 1065353216	; 3f800000H
	movsd	QWORD PTR $T28[rbp-105], xmm6
	mov	DWORD PTR $T28[rbp-97], ebx
	xor	r9d, r9d
	lea	r8, QWORD PTR $T21[rbp-105]
	lea	rdx, QWORD PTR $T28[rbp-105]
	mov	rcx, rax
	call	??0Cube@@QEAA@UVector3@@0I@Z		; Cube::Cube
	jmp	SHORT $LN19@spawnChara
$LN18@spawnChara:
	mov	rax, rdi
$LN19@spawnChara:
	mov	QWORD PTR [rsi+152], rax
; Line 231
	mov	rcx, QWORD PTR [rsi+104]
	add	rcx, 8
; File C:\Program Files\Microsoft Visual Studio\18\Community\VC\Tools\MSVC\14.50.35717\include\xstring
; Line 1654
	mov	r8d, 4
	lea	rdx, OFFSET FLAT:??_C@_04BAJDEDPD@Root@
	call	??$_Assign@D@?$basic_string@DU?$char_traits@D@std@@V?$allocator@D@2@@std@@AEAAAEAV01@QEBD_K@Z ; std::basic_string<char,std::char_traits<char>,std::allocator<char> >::_Assign<char>
; File C:\Users\RedDragon\Documents\Recubin\src\Core\User.cpp
; Line 232
	mov	rcx, QWORD PTR [rsi+120]
	add	rcx, 8
; File C:\Program Files\Microsoft Visual Studio\18\Community\VC\Tools\MSVC\14.50.35717\include\xstring
; Line 1654
	mov	r8d, 4
	lea	rdx, OFFSET FLAT:??_C@_04BFCCBDOP@Head@
	call	??$_Assign@D@?$basic_string@DU?$char_traits@D@std@@V?$allocator@D@2@@std@@AEAAAEAV01@QEBD_K@Z ; std::basic_string<char,std::char_traits<char>,std::allocator<char> >::_Assign<char>
; File C:\Users\RedDragon\Documents\Recubin\src\Core\User.cpp
; Line 233
	mov	rcx, QWORD PTR [rsi+112]
	add	rcx, 8
; File C:\Program Files\Microsoft Visual Studio\18\Community\VC\Tools\MSVC\14.50.35717\include\xstring
; Line 1654
	mov	r8d, 5
	lea	rdx, OFFSET FLAT:??_C@_05LHKEDNFH@Torso@
	call	??$_Assign@D@?$basic_string@DU?$char_traits@D@std@@V?$allocator@D@2@@std@@AEAAAEAV01@QEBD_K@Z ; std::basic_string<char,std::char_traits<char>,std::allocator<char> >::_Assign<char>
; File C:\Users\RedDragon\Documents\Recubin\src\Core\User.cpp
; Line 234
	mov	rcx, QWORD PTR [rsi+128]
	add	rcx, 8
; File C:\Program Files\Microsoft Visual Studio\18\Community\VC\Tools\MSVC\14.50.35717\include\xstring
; Line 1654
	mov	r8d, 7
	lea	rdx, OFFSET FLAT:??_C@_07ELBAKILC@LeftArm@
	call	??$_Assign@D@?$basic_string@DU?$char_traits@D@std@@V?$allocator@D@2@@std@@AEAAAEAV01@QEBD_K@Z ; std::basic_string<char,std::char_traits<char>,std::allocator<char> >::_Assign<char>
; File C:\Users\RedDragon\Documents\Recubin\src\Core\User.cpp
; Line 235
	mov	rcx, QWORD PTR [rsi+136]
	add	rcx, 8
; File C:\Program Files\Microsoft Visual Studio\18\Community\VC\Tools\MSVC\14.50.35717\include\xstring
; Line 1654
	mov	r8d, 8
	lea	rdx, OFFSET FLAT:??_C@_08IIJMBGOO@RightArm@
	call	??$_Assign@D@?$basic_string@DU?$char_traits@D@std@@V?$allocator@D@2@@std@@AEAAAEAV01@QEBD_K@Z ; std::basic_string<char,std::char_traits<char>,std::allocator<char> >::_Assign<char>
; File C:\Users\RedDragon\Documents\Recubin\src\Core\User.cpp
; Line 236
	mov	rcx, QWORD PTR [rsi+144]
	add	rcx, 8
; File C:\Program Files\Microsoft Visual Studio\18\Community\VC\Tools\MSVC\14.50.35717\include\xstring
; Line 1654
	mov	r8d, 7
	lea	rdx, OFFSET FLAT:??_C@_07FKPMCNBA@LeftLeg@
	call	??$_Assign@D@?$basic_string@DU?$char_traits@D@std@@V?$allocator@D@2@@std@@AEAAAEAV01@QEBD_K@Z ; std::basic_string<char,std::char_traits<char>,std::allocator<char> >::_Assign<char>
; File C:\Users\RedDragon\Documents\Recubin\src\Core\User.cpp
; Line 237
	mov	rcx, QWORD PTR [rsi+152]
	add	rcx, 8
; File C:\Program Files\Microsoft Visual Studio\18\Community\VC\Tools\MSVC\14.50.35717\include\xstring
; Line 1654
	mov	r8d, 8
	lea	rdx, OFFSET FLAT:??_C@_08JJHAJDEM@RightLeg@
	call	??$_Assign@D@?$basic_string@DU?$char_traits@D@std@@V?$allocator@D@2@@std@@AEAAAEAV01@QEBD_K@Z ; std::basic_string<char,std::char_traits<char>,std::allocator<char> >::_Assign<char>
; File C:\Users\RedDragon\Documents\Recubin\src\Core\User.cpp
; Line 240
	mov	rax, QWORD PTR [rsi+120]
	mov	BYTE PTR [rax+168], 1
; Line 241
	mov	rax, QWORD PTR [rsi+112]
	mov	BYTE PTR [rax+168], 1
; Line 242
	mov	rax, QWORD PTR [rsi+128]
	mov	BYTE PTR [rax+168], 1
; Line 243
	mov	rax, QWORD PTR [rsi+136]
	mov	BYTE PTR [rax+168], 1
; Line 244
	mov	rax, QWORD PTR [rsi+144]
	mov	BYTE PTR [rax+168], 1
; Line 245
	mov	rax, QWORD PTR [rsi+152]
	mov	BYTE PTR [rax+168], 1
; File C:\Users\RedDragon\Documents\Recubin\include\PhysX\foundation\PxFlags.h
; Line 220
	mov	rax, QWORD PTR [rsi+104]
	mov	BYTE PTR [rax+200], 40			; 00000028H
; File C:\Users\RedDragon\Documents\Recubin\src\Core\User.cpp
; Line 248
	mov	rax, QWORD PTR [rsi+104]
	mov	DWORD PTR [rax+172], 1065353216		; 3f800000H
	mov	DWORD PTR [rax+176], 1056964608		; 3f000000H
	mov	QWORD PTR [rax+180], 1056964608		; 3f000000H
; Line 249
	mov	rax, QWORD PTR [rsi+112]
	mov	DWORD PTR [rax+172], edi
	mov	DWORD PTR [rax+176], 1041272977		; 3e109091H
	mov	DWORD PTR [rax+180], 1050845859		; 3ea2a2a3H
	mov	DWORD PTR [rax+184], 1065353216		; 3f800000H
; Line 251
	mov	rax, QWORD PTR [rsi+120]
	mov	DWORD PTR [rax+172], 1061997773		; 3f4ccccdH
	mov	QWORD PTR [rax+176], 1065353216		; 3f800000H
	mov	DWORD PTR [rax+184], 1065353216		; 3f800000H
; Line 252
	mov	rax, QWORD PTR [rsi+128]
	mov	DWORD PTR [rax+172], 1061997773		; 3f4ccccdH
	mov	QWORD PTR [rax+176], 1065353216		; 3f800000H
	mov	DWORD PTR [rax+184], 1065353216		; 3f800000H
; Line 253
	mov	rax, QWORD PTR [rsi+136]
	mov	DWORD PTR [rax+172], 1061997773		; 3f4ccccdH
	mov	QWORD PTR [rax+176], 1065353216		; 3f800000H
	mov	DWORD PTR [rax+184], 1065353216		; 3f800000H
; Line 255
	mov	rax, QWORD PTR [rsi+144]
	mov	DWORD PTR [rax+172], edi
	mov	DWORD PTR [rax+176], 1065353216		; 3f800000H
	mov	DWORD PTR [rax+180], 1056997505		; 3f008081H
	mov	DWORD PTR [rax+184], 1065353216		; 3f800000H
; Line 256
	mov	rax, QWORD PTR [rsi+152]
	mov	DWORD PTR [rax+172], edi
	mov	DWORD PTR [rax+176], 1065353216		; 3f800000H
	mov	DWORD PTR [rax+180], 1056997505		; 3f008081H
	mov	DWORD PTR [rax+184], 1065353216		; 3f800000H
; Line 259
	mov	rcx, QWORD PTR [rsi+96]
	mov	rax, QWORD PTR [rcx]
	mov	rdx, QWORD PTR [rsi+104]
	call	QWORD PTR [rax+32]
; Line 260
	mov	rcx, QWORD PTR [rsi+96]
	mov	rax, QWORD PTR [rcx]
	mov	rdx, QWORD PTR [rsi+120]
	call	QWORD PTR [rax+32]
; Line 261
	mov	rcx, QWORD PTR [rsi+96]
	mov	rax, QWORD PTR [rcx]
	mov	rdx, QWORD PTR [rsi+112]
	call	QWORD PTR [rax+32]
; Line 262
	mov	rcx, QWORD PTR [rsi+96]
	mov	rax, QWORD PTR [rcx]
	mov	rdx, QWORD PTR [rsi+128]
	call	QWORD PTR [rax+32]
; Line 263
	mov	rcx, QWORD PTR [rsi+96]
	mov	rax, QWORD PTR [rcx]
	mov	rdx, QWORD PTR [rsi+136]
	call	QWORD PTR [rax+32]
; Line 264
	mov	rcx, QWORD PTR [rsi+96]
	mov	rax, QWORD PTR [rcx]
	mov	rdx, QWORD PTR [rsi+144]
	call	QWORD PTR [rax+32]
; Line 265
	mov	rcx, QWORD PTR [rsi+96]
	mov	rax, QWORD PTR [rcx]
	mov	rdx, QWORD PTR [rsi+152]
	call	QWORD PTR [rax+32]
; Line 267
	lea	rdx, OFFSET FLAT:??_C@_0O@DFEEAMDI@?$FLRCBN_DEBUG?$FN?5@
	mov	rcx, QWORD PTR __imp_?cout@std@@3V?$basic_ostream@DU?$char_traits@D@std@@@1@A
	call	??$?6U?$char_traits@D@std@@@std@@YAAEAV?$basic_ostream@DU?$char_traits@D@std@@@0@AEAV10@PEBD@Z ; std::operator<<<std::char_traits<char> >
	mov	rcx, rax
	lea	rdx, OFFSET FLAT:??_C@_0BG@ONKMLAAM@Spawning?5character?4?4?4@
	call	??$?6U?$char_traits@D@std@@@std@@YAAEAV?$basic_ostream@DU?$char_traits@D@std@@@0@AEAV10@PEBD@Z ; std::operator<<<std::char_traits<char> >
	lea	rdx, OFFSET FLAT:??$endl@DU?$char_traits@D@std@@@std@@YAAEAV?$basic_ostream@DU?$char_traits@D@std@@@0@AEAV10@@Z ; std::endl<char,std::char_traits<char> >
	mov	rcx, rax
	call	QWORD PTR __imp_??6?$basic_ostream@DU?$char_traits@D@std@@@std@@QEAAAEAV01@P6AAEAV01@AEAV01@@Z@Z
$LN1@spawnChara:
; Line 268
	lea	r11, QWORD PTR [rsp+176]
	mov	rbx, QWORD PTR [r11+56]
	movaps	xmm6, XMMWORD PTR [r11-16]
	movaps	xmm7, XMMWORD PTR [r11-32]
	movaps	xmm8, XMMWORD PTR [r11-48]
	mov	rsp, r11
	pop	rdi
	pop	rsi
	pop	rbp
	ret	0
?spawnCharacter@User@@QEAAXXZ ENDP			; User::spawnCharacter
_TEXT	ENDS
; Function compile flags: /Ogtpy
;	COMDAT text$x
text$x	SEGMENT
$T15 = 32
$T16 = 32
$T17 = 32
$T18 = 32
$T19 = 32
$T20 = 32
$T21 = 32
$T22 = 48
$T23 = 48
$T24 = 48
$T25 = 48
$T26 = 48
$T27 = 48
$T28 = 48
$T29 = 64
$T30 = 96
this$ = 208
$T31 = 208
$T32 = 208
$T33 = 208
$T34 = 208
$T35 = 208
$T36 = 208
$T37 = 208
$T38 = 208
$T39 = 216
?dtor$0@?0??spawnCharacter@User@@QEAAXXZ@4HA PROC	; `User::spawnCharacter'::`1'::dtor$0
	push	rbp
	sub	rsp, 32					; 00000020H
	mov	rbp, rdx
	mov	edx, 168				; 000000a8H
	mov	rcx, QWORD PTR $T31[rbp]
	call	??3@YAXPEAX_K@Z				; operator delete
	add	rsp, 32					; 00000020H
	pop	rbp
	ret	0
?dtor$0@?0??spawnCharacter@User@@QEAAXXZ@4HA ENDP	; `User::spawnCharacter'::`1'::dtor$0
text$x	ENDS
; Function compile flags: /Ogtpy
;	COMDAT text$x
text$x	SEGMENT
$T15 = 32
$T16 = 32
$T17 = 32
$T18 = 32
$T19 = 32
$T20 = 32
$T21 = 32
$T22 = 48
$T23 = 48
$T24 = 48
$T25 = 48
$T26 = 48
$T27 = 48
$T28 = 48
$T29 = 64
$T30 = 96
this$ = 208
$T31 = 208
$T32 = 208
$T33 = 208
$T34 = 208
$T35 = 208
$T36 = 208
$T37 = 208
$T38 = 208
$T39 = 216
?dtor$12@?0??spawnCharacter@User@@QEAAXXZ@4HA PROC	; `User::spawnCharacter'::`1'::dtor$12
	mov	rcx, QWORD PTR $T39[rdx]
	jmp	??1?$basic_string@DU?$char_traits@D@std@@V?$allocator@D@2@@std@@QEAA@XZ ; std::basic_string<char,std::char_traits<char>,std::allocator<char> >::~basic_string<char,std::char_traits<char>,std::allocator<char> >
?dtor$12@?0??spawnCharacter@User@@QEAAXXZ@4HA ENDP	; `User::spawnCharacter'::`1'::dtor$12
text$x	ENDS
; Function compile flags: /Ogtpy
;	COMDAT text$x
text$x	SEGMENT
$T15 = 32
$T16 = 32
$T17 = 32
$T18 = 32
$T19 = 32
$T20 = 32
$T21 = 32
$T22 = 48
$T23 = 48
$T24 = 48
$T25 = 48
$T26 = 48
$T27 = 48
$T28 = 48
$T29 = 64
$T30 = 96
this$ = 208
$T31 = 208
$T32 = 208
$T33 = 208
$T34 = 208
$T35 = 208
$T36 = 208
$T37 = 208
$T38 = 208
$T39 = 216
?dtor$1@?0??spawnCharacter@User@@QEAAXXZ@4HA PROC	; `User::spawnCharacter'::`1'::dtor$1
	push	rbp
	sub	rsp, 32					; 00000020H
	mov	rbp, rdx
	mov	edx, 240				; 000000f0H
	mov	rcx, QWORD PTR $T32[rbp]
	call	??3@YAXPEAX_K@Z				; operator delete
	add	rsp, 32					; 00000020H
	pop	rbp
	ret	0
?dtor$1@?0??spawnCharacter@User@@QEAAXXZ@4HA ENDP	; `User::spawnCharacter'::`1'::dtor$1
text$x	ENDS
; Function compile flags: /Ogtpy
;	COMDAT text$x
text$x	SEGMENT
$T15 = 32
$T16 = 32
$T17 = 32
$T18 = 32
$T19 = 32
$T20 = 32
$T21 = 32
$T22 = 48
$T23 = 48
$T24 = 48
$T25 = 48
$T26 = 48
$T27 = 48
$T28 = 48
$T29 = 64
$T30 = 96
this$ = 208
$T31 = 208
$T32 = 208
$T33 = 208
$T34 = 208
$T35 = 208
$T36 = 208
$T37 = 208
$T38 = 208
$T39 = 216
?dtor$2@?0??spawnCharacter@User@@QEAAXXZ@4HA PROC	; `User::spawnCharacter'::`1'::dtor$2
	push	rbp
	sub	rsp, 32					; 00000020H
	mov	rbp, rdx
	mov	edx, 240				; 000000f0H
	mov	rcx, QWORD PTR $T33[rbp]
	call	??3@YAXPEAX_K@Z				; operator delete
	add	rsp, 32					; 00000020H
	pop	rbp
	ret	0
?dtor$2@?0??spawnCharacter@User@@QEAAXXZ@4HA ENDP	; `User::spawnCharacter'::`1'::dtor$2
text$x	ENDS
; Function compile flags: /Ogtpy
;	COMDAT text$x
text$x	SEGMENT
$T15 = 32
$T16 = 32
$T17 = 32
$T18 = 32
$T19 = 32
$T20 = 32
$T21 = 32
$T22 = 48
$T23 = 48
$T24 = 48
$T25 = 48
$T26 = 48
$T27 = 48
$T28 = 48
$T29 = 64
$T30 = 96
this$ = 208
$T31 = 208
$T32 = 208
$T33 = 208
$T34 = 208
$T35 = 208
$T36 = 208
$T37 = 208
$T38 = 208
$T39 = 216
?dtor$3@?0??spawnCharacter@User@@QEAAXXZ@4HA PROC	; `User::spawnCharacter'::`1'::dtor$3
	push	rbp
	sub	rsp, 32					; 00000020H
	mov	rbp, rdx
	mov	edx, 240				; 000000f0H
	mov	rcx, QWORD PTR $T34[rbp]
	call	??3@YAXPEAX_K@Z				; operator delete
	add	rsp, 32					; 00000020H
	pop	rbp
	ret	0
?dtor$3@?0??spawnCharacter@User@@QEAAXXZ@4HA ENDP	; `User::spawnCharacter'::`1'::dtor$3
text$x	ENDS
; Function compile flags: /Ogtpy
;	COMDAT text$x
text$x	SEGMENT
$T15 = 32
$T16 = 32
$T17 = 32
$T18 = 32
$T19 = 32
$T20 = 32
$T21 = 32
$T22 = 48
$T23 = 48
$T24 = 48
$T25 = 48
$T26 = 48
$T27 = 48
$T28 = 48
$T29 = 64
$T30 = 96
this$ = 208
$T31 = 208
$T32 = 208
$T33 = 208
$T34 = 208
$T35 = 208
$T36 = 208
$T37 = 208
$T38 = 208
$T39 = 216
?dtor$4@?0??spawnCharacter@User@@QEAAXXZ@4HA PROC	; `User::spawnCharacter'::`1'::dtor$4
	push	rbp
	sub	rsp, 32					; 00000020H
	mov	rbp, rdx
	mov	edx, 240				; 000000f0H
	mov	rcx, QWORD PTR $T35[rbp]
	call	??3@YAXPEAX_K@Z				; operator delete
	add	rsp, 32					; 00000020H
	pop	rbp
	ret	0
?dtor$4@?0??spawnCharacter@User@@QEAAXXZ@4HA ENDP	; `User::spawnCharacter'::`1'::dtor$4
text$x	ENDS
; Function compile flags: /Ogtpy
;	COMDAT text$x
text$x	SEGMENT
$T15 = 32
$T16 = 32
$T17 = 32
$T18 = 32
$T19 = 32
$T20 = 32
$T21 = 32
$T22 = 48
$T23 = 48
$T24 = 48
$T25 = 48
$T26 = 48
$T27 = 48
$T28 = 48
$T29 = 64
$T30 = 96
this$ = 208
$T31 = 208
$T32 = 208
$T33 = 208
$T34 = 208
$T35 = 208
$T36 = 208
$T37 = 208
$T38 = 208
$T39 = 216
?dtor$5@?0??spawnCharacter@User@@QEAAXXZ@4HA PROC	; `User::spawnCharacter'::`1'::dtor$5
	push	rbp
	sub	rsp, 32					; 00000020H
	mov	rbp, rdx
	mov	edx, 240				; 000000f0H
	mov	rcx, QWORD PTR $T36[rbp]
	call	??3@YAXPEAX_K@Z				; operator delete
	add	rsp, 32					; 00000020H
	pop	rbp
	ret	0
?dtor$5@?0??spawnCharacter@User@@QEAAXXZ@4HA ENDP	; `User::spawnCharacter'::`1'::dtor$5
text$x	ENDS
; Function compile flags: /Ogtpy
;	COMDAT text$x
text$x	SEGMENT
$T15 = 32
$T16 = 32
$T17 = 32
$T18 = 32
$T19 = 32
$T20 = 32
$T21 = 32
$T22 = 48
$T23 = 48
$T24 = 48
$T25 = 48
$T26 = 48
$T27 = 48
$T28 = 48
$T29 = 64
$T30 = 96
this$ = 208
$T31 = 208
$T32 = 208
$T33 = 208
$T34 = 208
$T35 = 208
$T36 = 208
$T37 = 208
$T38 = 208
$T39 = 216
?dtor$6@?0??spawnCharacter@User@@QEAAXXZ@4HA PROC	; `User::spawnCharacter'::`1'::dtor$6
	push	rbp
	sub	rsp, 32					; 00000020H
	mov	rbp, rdx
	mov	edx, 240				; 000000f0H
	mov	rcx, QWORD PTR $T37[rbp]
	call	??3@YAXPEAX_K@Z				; operator delete
	add	rsp, 32					; 00000020H
	pop	rbp
	ret	0
?dtor$6@?0??spawnCharacter@User@@QEAAXXZ@4HA ENDP	; `User::spawnCharacter'::`1'::dtor$6
text$x	ENDS
; Function compile flags: /Ogtpy
;	COMDAT text$x
text$x	SEGMENT
$T15 = 32
$T16 = 32
$T17 = 32
$T18 = 32
$T19 = 32
$T20 = 32
$T21 = 32
$T22 = 48
$T23 = 48
$T24 = 48
$T25 = 48
$T26 = 48
$T27 = 48
$T28 = 48
$T29 = 64
$T30 = 96
this$ = 208
$T31 = 208
$T32 = 208
$T33 = 208
$T34 = 208
$T35 = 208
$T36 = 208
$T37 = 208
$T38 = 208
$T39 = 216
?dtor$7@?0??spawnCharacter@User@@QEAAXXZ@4HA PROC	; `User::spawnCharacter'::`1'::dtor$7
	push	rbp
	sub	rsp, 32					; 00000020H
	mov	rbp, rdx
	mov	edx, 240				; 000000f0H
	mov	rcx, QWORD PTR $T38[rbp]
	call	??3@YAXPEAX_K@Z				; operator delete
	add	rsp, 32					; 00000020H
	pop	rbp
	ret	0
?dtor$7@?0??spawnCharacter@User@@QEAAXXZ@4HA ENDP	; `User::spawnCharacter'::`1'::dtor$7
text$x	ENDS
; Function compile flags: /Ogtpy
;	COMDAT ?processInput@User@@QEAAXXZ
_TEXT	SEGMENT
$T5 = 32
$T6 = 32
$T7 = 32
$T8 = 32
$T9 = 32
$T10 = 32
$T11 = 32
$T12 = 32
$T13 = 32
$T14 = 32
$T15 = 32
$T16 = 32
$T17 = 32
flatRight$18 = 32
$T19 = 32
$T20 = 64
$T21 = 64
$T22 = 64
$T23 = 64
$T24 = 64
$T25 = 64
$T26 = 64
$T27 = 64
$T28 = 64
pose$29 = 64
$T30 = 64
$T31 = 64
$T32 = 64
$T33 = 64
$T34 = 64
$T35 = 64
$T36 = 64
targetMoveDir$37 = 96
$T38 = 112
$T39 = 112
$T40 = 112
$T41 = 112
flatForward$42 = 112
currentVel$43 = 112
jointCF$44 = 112
jointCF$45 = 112
jointCF$46 = 112
currentVel$47 = 112
jointCF$48 = 112
$T49 = 144
$T50 = 144
$T51 = 156
$T52 = 156
$T53 = 156
$T54 = 156
$T55 = 184
$T56 = 184
$T57 = 184
$T58 = 184
this$ = 448
tv3783 = 448
tv3782 = 456
tv3781 = 464
tv3780 = 472
?processInput@User@@QEAAXXZ PROC			; User::processInput, COMDAT
; File C:\Users\RedDragon\Documents\Recubin\src\Core\User.cpp
; Line 46
$LN469:
	mov	rax, rsp
	push	rbp
	push	rdi
	lea	rbp, QWORD PTR [rax-184]
	sub	rsp, 424				; 000001a8H
	mov	rdi, rcx
; Line 47
	mov	rcx, QWORD PTR [rcx]
	test	rcx, rcx
	je	$LN46@processInp
	mov	QWORD PTR [rax-24], rbx
; Line 53
	mov	edx, 263				; 00000107H
	mov	QWORD PTR [rax-32], rsi
	mov	QWORD PTR [rax-40], r12
	mov	QWORD PTR [rax-48], r14
	movaps	XMMWORD PTR [rax-88], xmm7
	movaps	XMMWORD PTR [rax-104], xmm8
	movaps	XMMWORD PTR [rax-120], xmm9
	movaps	XMMWORD PTR [rax-136], xmm10
	movaps	XMMWORD PTR [rax-152], xmm11
	movaps	XMMWORD PTR [rax-168], xmm12
	movaps	XMMWORD PTR [rax-184], xmm13
	movaps	XMMWORD PTR [rax-200], xmm14
	movaps	XMMWORD PTR [rax-72], xmm6
	call	glfwGetKey
	movss	xmm8, DWORD PTR __real@3c567750
	xorps	xmm11, xmm11
	cmp	eax, 1
	jne	SHORT $LN393@processInp
; File C:\Program Files\Microsoft Visual Studio\18\Community\VC\Tools\MSVC\14.50.35717\include\cmath
; Line 257
	movaps	xmm0, xmm8
	call	sinf
	movaps	xmm6, xmm0
; Line 89
	movaps	xmm0, xmm8
	call	cosf
; File C:\Users\RedDragon\Documents\Recubin\src\Core\User.cpp
; Line 54
	mov	rbx, QWORD PTR [rdi+80]
	lea	rdx, QWORD PTR $T38[rsp]
; File C:\Program Files\Microsoft Visual Studio\18\Community\VC\Tools\MSVC\14.50.35717\include\cmath
; Line 89
	movss	DWORD PTR $T6[rsp], xmm0
; File C:\Users\RedDragon\Documents\Recubin\src\Core\User.cpp
; Line 54
	lea	rcx, QWORD PTR $T6[rsp]
; File C:\Users\RedDragon\Documents\Recubin\include\Math\Quaternion.hpp
; Line 14
	movaps	xmm0, xmm6
; Line 9
	movss	DWORD PTR $T6[rsp+8], xmm6
; Line 14
	mulss	xmm0, xmm11
; File C:\Users\RedDragon\Documents\Recubin\src\Core\User.cpp
; Line 54
	mov	r8, rbx
; File C:\Users\RedDragon\Documents\Recubin\include\Math\Quaternion.hpp
; Line 9
	movss	DWORD PTR $T6[rsp+4], xmm0
	movss	DWORD PTR $T6[rsp+12], xmm0
; File C:\Users\RedDragon\Documents\Recubin\src\Core\User.cpp
; Line 54
	call	??DQuaternion@@QEBA?AU0@AEBU0@@Z	; Quaternion::operator*
; Line 55
	mov	r12b, 1
	movups	xmm0, XMMWORD PTR [rax]
	movups	XMMWORD PTR [rbx], xmm0
	jmp	SHORT $LN3@processInp
$LN393@processInp:
; Line 50
	xor	r12b, r12b
$LN3@processInp:
; Line 57
	mov	rcx, QWORD PTR [rdi]
	mov	edx, 262				; 00000106H
	call	glfwGetKey
	movss	xmm7, DWORD PTR __real@bc567750
	cmp	eax, 1
	jne	SHORT $LN405@processInp
; File C:\Program Files\Microsoft Visual Studio\18\Community\VC\Tools\MSVC\14.50.35717\include\cmath
; Line 257
	movaps	xmm0, xmm7
	call	sinf
	movaps	xmm6, xmm0
; Line 89
	movaps	xmm0, xmm7
	call	cosf
; File C:\Users\RedDragon\Documents\Recubin\src\Core\User.cpp
; Line 58
	mov	rbx, QWORD PTR [rdi+80]
	lea	rdx, QWORD PTR $T39[rsp]
; File C:\Program Files\Microsoft Visual Studio\18\Community\VC\Tools\MSVC\14.50.35717\include\cmath
; Line 89
	movss	DWORD PTR $T8[rsp], xmm0
; File C:\Users\RedDragon\Documents\Recubin\src\Core\User.cpp
; Line 58
	lea	rcx, QWORD PTR $T8[rsp]
; File C:\Users\RedDragon\Documents\Recubin\include\Math\Quaternion.hpp
; Line 14
	movaps	xmm0, xmm6
; Line 9
	movss	DWORD PTR $T8[rsp+8], xmm6
; Line 14
	mulss	xmm0, xmm11
; File C:\Users\RedDragon\Documents\Recubin\src\Core\User.cpp
; Line 58
	mov	r8, rbx
; File C:\Users\RedDragon\Documents\Recubin\include\Math\Quaternion.hpp
; Line 9
	movss	DWORD PTR $T8[rsp+4], xmm0
	movss	DWORD PTR $T8[rsp+12], xmm0
; File C:\Users\RedDragon\Documents\Recubin\src\Core\User.cpp
; Line 58
	call	??DQuaternion@@QEBA?AU0@AEBU0@@Z	; Quaternion::operator*
; Line 59
	mov	r12b, 1
	movups	xmm1, XMMWORD PTR [rax]
	movups	XMMWORD PTR [rbx], xmm1
$LN405@processInp:
; Line 61
	mov	rcx, QWORD PTR [rdi]
	mov	edx, 265				; 00000109H
	call	glfwGetKey
	cmp	eax, 1
	jne	SHORT $LN5@processInp
; File C:\Program Files\Microsoft Visual Studio\18\Community\VC\Tools\MSVC\14.50.35717\include\cmath
; Line 257
	movaps	xmm0, xmm8
	call	sinf
	movaps	xmm6, xmm0
; Line 89
	movaps	xmm0, xmm8
	call	cosf
; File C:\Users\RedDragon\Documents\Recubin\src\Core\User.cpp
; Line 62
	mov	rbx, QWORD PTR [rdi+80]
	lea	r8, QWORD PTR $T10[rsp]
; File C:\Users\RedDragon\Documents\Recubin\include\Math\Quaternion.hpp
; Line 9
	movss	DWORD PTR $T10[rsp+4], xmm6
; File C:\Users\RedDragon\Documents\Recubin\src\Core\User.cpp
; Line 62
	lea	rdx, QWORD PTR $T40[rsp]
; File C:\Users\RedDragon\Documents\Recubin\include\Math\Quaternion.hpp
; Line 14
	mulss	xmm6, xmm11
; File C:\Users\RedDragon\Documents\Recubin\src\Core\User.cpp
; Line 62
	mov	rcx, rbx
; File C:\Program Files\Microsoft Visual Studio\18\Community\VC\Tools\MSVC\14.50.35717\include\cmath
; Line 89
	movss	DWORD PTR $T10[rsp], xmm0
; File C:\Users\RedDragon\Documents\Recubin\include\Math\Quaternion.hpp
; Line 9
	movss	DWORD PTR $T10[rsp+8], xmm6
	movss	DWORD PTR $T10[rsp+12], xmm6
; File C:\Users\RedDragon\Documents\Recubin\src\Core\User.cpp
; Line 62
	call	??DQuaternion@@QEBA?AU0@AEBU0@@Z	; Quaternion::operator*
; Line 63
	mov	r12b, 1
	movups	xmm1, XMMWORD PTR [rax]
	movups	XMMWORD PTR [rbx], xmm1
$LN5@processInp:
; Line 65
	mov	rcx, QWORD PTR [rdi]
	mov	edx, 264				; 00000108H
	call	glfwGetKey
	cmp	eax, 1
	jne	SHORT $LN6@processInp
; File C:\Program Files\Microsoft Visual Studio\18\Community\VC\Tools\MSVC\14.50.35717\include\cmath
; Line 257
	movaps	xmm0, xmm7
	call	sinf
	movaps	xmm6, xmm0
; Line 89
	movaps	xmm0, xmm7
	call	cosf
; File C:\Users\RedDragon\Documents\Recubin\src\Core\User.cpp
; Line 66
	mov	rbx, QWORD PTR [rdi+80]
	lea	r8, QWORD PTR $T5[rsp]
; File C:\Users\RedDragon\Documents\Recubin\include\Math\Quaternion.hpp
; Line 9
	movss	DWORD PTR $T5[rsp+4], xmm6
; File C:\Users\RedDragon\Documents\Recubin\src\Core\User.cpp
; Line 66
	lea	rdx, QWORD PTR $T41[rsp]
; File C:\Users\RedDragon\Documents\Recubin\include\Math\Quaternion.hpp
; Line 14
	mulss	xmm6, xmm11
; File C:\Users\RedDragon\Documents\Recubin\src\Core\User.cpp
; Line 66
	mov	rcx, rbx
; File C:\Program Files\Microsoft Visual Studio\18\Community\VC\Tools\MSVC\14.50.35717\include\cmath
; Line 89
	movss	DWORD PTR $T5[rsp], xmm0
; File C:\Users\RedDragon\Documents\Recubin\include\Math\Quaternion.hpp
; Line 9
	movss	DWORD PTR $T5[rsp+8], xmm6
	movss	DWORD PTR $T5[rsp+12], xmm6
; File C:\Users\RedDragon\Documents\Recubin\src\Core\User.cpp
; Line 66
	call	??DQuaternion@@QEBA?AU0@AEBU0@@Z	; Quaternion::operator*
; Line 67
	mov	r12b, 1
	movups	xmm0, XMMWORD PTR [rax]
	movups	XMMWORD PTR [rbx], xmm0
; Line 70
	jmp	SHORT $LN403@processInp
$LN6@processInp:
	test	r12b, r12b
	je	SHORT $LN7@processInp
$LN403@processInp:
; Line 71
	mov	rcx, rdi
	call	?updateVectors@User@@QEAAXXZ		; User::updateVectors
$LN7@processInp:
; Line 75
	mov	rcx, QWORD PTR [rdi]
	mov	edx, 73					; 00000049H
	call	glfwGetKey
	movss	xmm1, DWORD PTR __real@40000000
	cmp	eax, 1
	jne	SHORT $LN9@processInp
; Line 76
	movss	xmm0, DWORD PTR [rdi+20]
	subss	xmm0, DWORD PTR [rdi+24]
; Line 77
	comiss	xmm1, xmm0
	movss	DWORD PTR [rdi+20], xmm0
	jbe	SHORT $LN9@processInp
	mov	DWORD PTR [rdi+20], 1073741824		; 40000000H
$LN9@processInp:
; Line 79
	mov	rcx, QWORD PTR [rdi]
	mov	edx, 79					; 0000004fH
	call	glfwGetKey
	cmp	eax, 1
	jne	SHORT $LN409@processInp
; Line 80
	movss	xmm0, DWORD PTR [rdi+24]
	addss	xmm0, DWORD PTR [rdi+20]
	movss	DWORD PTR [rdi+20], xmm0
$LN409@processInp:
; Line 83
	mov	eax, DWORD PTR [rdi+160]
	movss	xmm10, DWORD PTR __xmm@80000000800000008000000080000000
	movss	xmm14, DWORD PTR __real@43340000
	movss	xmm13, DWORD PTR __real@40490fdb
	movss	xmm12, DWORD PTR __real@3f000000
	mov	QWORD PTR [rsp+384], r15
	test	eax, eax
	jne	$LN11@processInp
; Line 84
	mov	rcx, QWORD PTR [rdi]
	mov	edx, 87					; 00000057H
	call	glfwGetKey
	lea	rbx, QWORD PTR [rdi+88]
	lea	rsi, QWORD PTR [rdi+8]
	cmp	eax, 1
	jne	SHORT $LN13@processInp
	movss	xmm2, DWORD PTR [rsi]
	mov	rax, QWORD PTR [rbx]
; File C:\Users\RedDragon\Documents\Recubin\include\Math\Vector3.hpp
; Line 12
	movaps	xmm1, xmm2
	mulss	xmm1, DWORD PTR [rdi+168]
	movaps	xmm0, xmm2
	mulss	xmm2, DWORD PTR [rdi+164]
	mulss	xmm0, DWORD PTR [rdi+172]
; Line 10
	addss	xmm2, DWORD PTR [rax]
	addss	xmm1, DWORD PTR [rax+4]
	addss	xmm0, DWORD PTR [rax+8]
; File C:\Users\RedDragon\Documents\Recubin\src\Core\User.cpp
; Line 84
	movss	DWORD PTR [rax], xmm2
	movss	DWORD PTR [rax+4], xmm1
	movss	DWORD PTR [rax+8], xmm0
$LN13@processInp:
; Line 85
	mov	rcx, QWORD PTR [rdi]
	mov	edx, 83					; 00000053H
	call	glfwGetKey
	cmp	eax, 1
	jne	SHORT $LN14@processInp
	movss	xmm3, DWORD PTR [rsi]
	mov	rax, QWORD PTR [rbx]
; File C:\Users\RedDragon\Documents\Recubin\include\Math\Vector3.hpp
; Line 12
	movaps	xmm0, xmm3
	mulss	xmm0, DWORD PTR [rdi+168]
; Line 11
	movss	xmm2, DWORD PTR [rax+4]
	movss	xmm1, DWORD PTR [rax+8]
	subss	xmm2, xmm0
; Line 12
	movaps	xmm0, xmm3
	mulss	xmm3, DWORD PTR [rdi+164]
	mulss	xmm0, DWORD PTR [rdi+172]
; Line 11
	subss	xmm1, xmm0
	movss	xmm0, DWORD PTR [rax]
	subss	xmm0, xmm3
; File C:\Users\RedDragon\Documents\Recubin\src\Core\User.cpp
; Line 85
	movss	DWORD PTR [rax], xmm0
	movss	DWORD PTR [rax+4], xmm2
	movss	DWORD PTR [rax+8], xmm1
$LN14@processInp:
; Line 86
	mov	rcx, QWORD PTR [rdi]
	mov	edx, 65					; 00000041H
	call	glfwGetKey
	cmp	eax, 1
	jne	SHORT $LN407@processInp
	movss	xmm3, DWORD PTR [rsi]
	lea	r14, QWORD PTR [rdi+88]
	mov	rax, QWORD PTR [rbx]
	lea	r15, QWORD PTR [rdi+8]
; File C:\Users\RedDragon\Documents\Recubin\include\Math\Vector3.hpp
; Line 12
	movaps	xmm0, xmm3
	mulss	xmm0, DWORD PTR [rdi+180]
; Line 11
	movss	xmm2, DWORD PTR [rax+4]
	movss	xmm1, DWORD PTR [rax+8]
	subss	xmm2, xmm0
; Line 12
	movaps	xmm0, xmm3
	mulss	xmm0, DWORD PTR [rdi+184]
	mulss	xmm3, DWORD PTR [rdi+176]
; Line 11
	subss	xmm1, xmm0
	movss	xmm0, DWORD PTR [rax]
	subss	xmm0, xmm3
; File C:\Users\RedDragon\Documents\Recubin\src\Core\User.cpp
; Line 86
	movss	DWORD PTR [rax], xmm0
	movss	DWORD PTR [rax+4], xmm2
	movss	DWORD PTR [rax+8], xmm1
	jmp	SHORT $LN15@processInp
$LN407@processInp:
	mov	r14, rbx
	mov	r15, rsi
$LN15@processInp:
; Line 87
	mov	rcx, QWORD PTR [rdi]
	mov	edx, 68					; 00000044H
	call	glfwGetKey
	cmp	eax, 1
	jne	SHORT $LN16@processInp
	movss	xmm2, DWORD PTR [rsi]
	mov	rax, QWORD PTR [rbx]
; File C:\Users\RedDragon\Documents\Recubin\include\Math\Vector3.hpp
; Line 12
	movaps	xmm1, xmm2
	mulss	xmm1, DWORD PTR [rdi+180]
	movaps	xmm0, xmm2
	mulss	xmm2, DWORD PTR [rdi+176]
	mulss	xmm0, DWORD PTR [rdi+184]
; Line 10
	addss	xmm2, DWORD PTR [rax]
	addss	xmm1, DWORD PTR [rax+4]
	addss	xmm0, DWORD PTR [rax+8]
; File C:\Users\RedDragon\Documents\Recubin\src\Core\User.cpp
; Line 87
	movss	DWORD PTR [rax], xmm2
	movss	DWORD PTR [rax+4], xmm1
	movss	DWORD PTR [rax+8], xmm0
$LN16@processInp:
; Line 88
	mov	rcx, QWORD PTR [rdi]
	mov	edx, 81					; 00000051H
	call	glfwGetKey
	cmp	eax, 1
	jne	SHORT $LN408@processInp
	movss	xmm3, DWORD PTR [r15]
	mov	rax, QWORD PTR [r14]
; File C:\Users\RedDragon\Documents\Recubin\include\Math\Vector3.hpp
; Line 12
	movaps	xmm0, xmm3
	mulss	xmm0, DWORD PTR [rdi+192]
; Line 11
	movss	xmm2, DWORD PTR [rax+4]
	movss	xmm1, DWORD PTR [rax+8]
	subss	xmm2, xmm0
; Line 12
	movaps	xmm0, xmm3
	mulss	xmm3, DWORD PTR [rdi+188]
	mulss	xmm0, DWORD PTR [rdi+196]
; Line 11
	subss	xmm1, xmm0
	movss	xmm0, DWORD PTR [rax]
	subss	xmm0, xmm3
; File C:\Users\RedDragon\Documents\Recubin\src\Core\User.cpp
; Line 88
	movss	DWORD PTR [rax], xmm0
	movss	DWORD PTR [rax+4], xmm2
	movss	DWORD PTR [rax+8], xmm1
$LN408@processInp:
; Line 89
	mov	rcx, QWORD PTR [rdi]
	mov	edx, 69					; 00000045H
	call	glfwGetKey
	cmp	eax, 1
	jne	$LN20@processInp
	movss	xmm2, DWORD PTR [r15]
	mov	rax, QWORD PTR [r14]
; File C:\Users\RedDragon\Documents\Recubin\include\Math\Vector3.hpp
; Line 12
	movaps	xmm1, xmm2
	mulss	xmm1, DWORD PTR [rdi+192]
	movaps	xmm0, xmm2
	mulss	xmm2, DWORD PTR [rdi+188]
	mulss	xmm0, DWORD PTR [rdi+196]
; Line 10
	addss	xmm2, DWORD PTR [rax]
	addss	xmm1, DWORD PTR [rax+4]
	addss	xmm0, DWORD PTR [rax+8]
; File C:\Users\RedDragon\Documents\Recubin\src\Core\User.cpp
; Line 89
	movss	DWORD PTR [rax], xmm2
	movss	DWORD PTR [rax+4], xmm1
	movss	DWORD PTR [rax+8], xmm0
; Line 90
	jmp	$LN20@processInp
$LN11@processInp:
; Line 91
	cmp	eax, 1
	jne	$LN20@processInp
	cmp	QWORD PTR [rdi+96], 0
	je	$LN20@processInp
	mov	rax, QWORD PTR [rdi+104]
	test	rax, rax
	je	$LN20@processInp
; Line 92
	mov	rax, QWORD PTR [rax+208]
	test	rax, rax
	je	$LN20@processInp
; File C:\Users\RedDragon\Documents\Recubin\include\PhysX\common\PxBase.h
; Line 101
	xor	ebx, ebx
	cmp	WORD PTR [rax+8], 7
	cmove	rbx, rax
; File C:\Users\RedDragon\Documents\Recubin\src\Core\User.cpp
; Line 94
	test	rbx, rbx
	je	$LN29@processInp
; File C:\Users\RedDragon\Documents\Recubin\include\Math\Vector3.hpp
; Line 39
	movss	xmm0, DWORD PTR [rdi+164]
; File C:\Users\RedDragon\Documents\Recubin\src\Core\User.cpp
; Line 98
	lea	rdx, QWORD PTR flatForward$42[rsp]
; File C:\Users\RedDragon\Documents\Recubin\include\Math\Vector3.hpp
; Line 41
	movss	xmm1, DWORD PTR [rdi+172]
; File C:\Users\RedDragon\Documents\Recubin\src\Core\User.cpp
; Line 98
	lea	rcx, QWORD PTR $T49[rbp-256]
	xorps	xmm7, xmm7
; File C:\Users\RedDragon\Documents\Recubin\include\Math\Vector3.hpp
; Line 39
	movss	DWORD PTR $T49[rbp-256], xmm0
	xorps	xmm6, xmm6
	movss	DWORD PTR targetMoveDir$37[rsp], xmm7
	xorps	xmm8, xmm8
; Line 40
	movss	DWORD PTR targetMoveDir$37[rsp+4], xmm6
; Line 41
	movss	DWORD PTR targetMoveDir$37[rsp+8], xmm8
; File C:\Users\RedDragon\Documents\Recubin\src\Core\User.cpp
; Line 96
	xor	sil, sil
; File C:\Users\RedDragon\Documents\Recubin\include\Math\Vector3.hpp
; Line 41
	movss	DWORD PTR $T49[rbp-248], xmm1
; File C:\Users\RedDragon\Documents\Recubin\src\Core\User.cpp
; Line 94
	movaps	XMMWORD PTR [rsp+224], xmm15
; File C:\Users\RedDragon\Documents\Recubin\include\Math\Vector3.hpp
; Line 40
	mov	DWORD PTR $T49[rbp-252], 0
; File C:\Users\RedDragon\Documents\Recubin\src\Core\User.cpp
; Line 98
	call	?normalize@Vector3@@QEBA?AU1@XZ		; Vector3::normalize
; File C:\Users\RedDragon\Documents\Recubin\include\Math\Vector3.hpp
; Line 39
	movss	xmm0, DWORD PTR [rdi+176]
; File C:\Users\RedDragon\Documents\Recubin\src\Core\User.cpp
; Line 99
	lea	rdx, QWORD PTR flatRight$18[rsp]
; File C:\Users\RedDragon\Documents\Recubin\include\Math\Vector3.hpp
; Line 41
	movss	xmm1, DWORD PTR [rdi+184]
; File C:\Users\RedDragon\Documents\Recubin\src\Core\User.cpp
; Line 99
	lea	rcx, QWORD PTR $T50[rbp-256]
; File C:\Users\RedDragon\Documents\Recubin\include\Math\Vector3.hpp
; Line 39
	movss	DWORD PTR $T50[rbp-256], xmm0
; Line 41
	movss	DWORD PTR $T50[rbp-248], xmm1
	mov	DWORD PTR $T50[rbp-252], 0
; File C:\Users\RedDragon\Documents\Recubin\src\Core\User.cpp
; Line 99
	call	?normalize@Vector3@@QEBA?AU1@XZ		; Vector3::normalize
; Line 101
	mov	rcx, QWORD PTR [rdi]
	mov	edx, 87					; 00000057H
	call	glfwGetKey
	movss	xmm9, DWORD PTR flatForward$42[rsp+8]
	movss	xmm10, DWORD PTR flatForward$42[rsp+4]
	movss	xmm12, DWORD PTR flatForward$42[rsp]
	cmp	eax, 1
	jne	SHORT $LN22@processInp
; File C:\Users\RedDragon\Documents\Recubin\include\Math\Vector3.hpp
; Line 10
	movaps	xmm7, xmm12
; Line 39
	movaps	xmm6, xmm10
; Line 40
	movaps	xmm8, xmm9
; Line 10
	addss	xmm7, xmm11
; Line 39
	addss	xmm6, xmm11
; File C:\Users\RedDragon\Documents\Recubin\src\Core\User.cpp
; Line 101
	movzx	esi, al
; File C:\Users\RedDragon\Documents\Recubin\include\Math\Vector3.hpp
; Line 40
	addss	xmm8, xmm11
; File C:\Users\RedDragon\Documents\Recubin\src\Core\User.cpp
; Line 101
	movss	DWORD PTR targetMoveDir$37[rsp], xmm7
	movss	DWORD PTR targetMoveDir$37[rsp+4], xmm6
	movss	DWORD PTR targetMoveDir$37[rsp+8], xmm8
$LN22@processInp:
; Line 102
	mov	rcx, QWORD PTR [rdi]
	mov	edx, 83					; 00000053H
	call	glfwGetKey
	cmp	eax, 1
	jne	SHORT $LN23@processInp
	subss	xmm7, xmm12
	movzx	esi, al
	subss	xmm6, xmm10
	subss	xmm8, xmm9
	movss	DWORD PTR targetMoveDir$37[rsp], xmm7
	movss	DWORD PTR targetMoveDir$37[rsp+4], xmm6
	movss	DWORD PTR targetMoveDir$37[rsp+8], xmm8
$LN23@processInp:
; Line 103
	mov	rcx, QWORD PTR [rdi]
	mov	edx, 65					; 00000041H
	call	glfwGetKey
	movss	xmm9, DWORD PTR flatRight$18[rsp+8]
	movss	xmm10, DWORD PTR flatRight$18[rsp+4]
	movss	xmm12, DWORD PTR flatRight$18[rsp]
	cmp	eax, 1
	jne	SHORT $LN24@processInp
	subss	xmm7, xmm12
	movzx	esi, al
	subss	xmm6, xmm10
	subss	xmm8, xmm9
	movss	DWORD PTR targetMoveDir$37[rsp], xmm7
	movss	DWORD PTR targetMoveDir$37[rsp+4], xmm6
	movss	DWORD PTR targetMoveDir$37[rsp+8], xmm8
$LN24@processInp:
; Line 104
	mov	rcx, QWORD PTR [rdi]
	mov	edx, 68					; 00000044H
	call	glfwGetKey
	cmp	eax, 1
	jne	SHORT $LN25@processInp
	addss	xmm7, xmm12
	movzx	esi, al
	addss	xmm6, xmm10
	addss	xmm8, xmm9
	movss	DWORD PTR targetMoveDir$37[rsp], xmm7
	movss	DWORD PTR targetMoveDir$37[rsp+4], xmm6
	movss	DWORD PTR targetMoveDir$37[rsp+8], xmm8
; Line 106
	jmp	SHORT $LN404@processInp
$LN25@processInp:
	test	sil, sil
	je	SHORT $LN26@processInp
$LN404@processInp:
	lea	rdx, QWORD PTR $T12[rsp]
	lea	rcx, QWORD PTR targetMoveDir$37[rsp]
	call	?normalize@Vector3@@QEBA?AU1@XZ		; Vector3::normalize
	movsd	xmm7, QWORD PTR [rax]
	movss	xmm8, DWORD PTR [rax+8]
	movaps	xmm0, xmm7
	shufps	xmm0, xmm0, 85				; 00000055H
	movaps	xmm6, xmm0
$LN26@processInp:
; File C:\Users\RedDragon\Documents\Recubin\include\Math\Vector3.hpp
; Line 12
	movss	xmm15, DWORD PTR __real@3e19999a
; Line 11
	movaps	xmm2, xmm8
	movaps	xmm0, xmm7
	subss	xmm2, DWORD PTR [rdi+40]
	subss	xmm0, DWORD PTR [rdi+32]
; Line 12
	mulss	xmm2, xmm15
	mulss	xmm0, xmm15
; Line 10
	addss	xmm2, DWORD PTR [rdi+40]
	addss	xmm0, DWORD PTR [rdi+32]
; File C:\Users\RedDragon\Documents\Recubin\src\Core\User.cpp
; Line 108
	movss	DWORD PTR [rdi+32], xmm0
; File C:\Users\RedDragon\Documents\Recubin\include\Math\Vector3.hpp
; Line 11
	subss	xmm6, DWORD PTR [rdi+36]
; Line 12
	mulss	xmm6, xmm15
; Line 10
	addss	xmm6, DWORD PTR [rdi+36]
; File C:\Users\RedDragon\Documents\Recubin\src\Core\User.cpp
; Line 108
	movss	DWORD PTR [rdi+36], xmm6
	movss	DWORD PTR [rdi+40], xmm2
; Line 110
	mov	rax, QWORD PTR [rdi+104]
	mov	r14, QWORD PTR [rax+160]
	movss	xmm2, DWORD PTR [r14]
	movss	xmm3, DWORD PTR [r14+4]
	movss	xmm4, DWORD PTR [r14+8]
	movss	xmm5, DWORD PTR [r14+12]
	movss	DWORD PTR tv3783[rbp-256], xmm2
	movss	DWORD PTR tv3782[rbp-256], xmm3
	movss	DWORD PTR tv3781[rbp-256], xmm4
	movss	DWORD PTR tv3780[rbp-256], xmm5
; Line 111
	test	sil, sil
	je	SHORT $LN415@processInp
; File C:\Program Files\Microsoft Visual Studio\18\Community\VC\Tools\MSVC\14.50.35717\include\cmath
; Line 61
	movaps	xmm1, xmm8
	movaps	xmm0, xmm7
	call	atan2f
	movaps	xmm6, xmm0
; File C:\Users\RedDragon\Documents\Recubin\src\Core\User.cpp
; Line 112
	mulss	xmm6, xmm14
	divss	xmm6, xmm13
; File C:\Users\RedDragon\Documents\Recubin\include\Math\Quaternion.hpp
; Line 12
	mulss	xmm6, xmm13
	divss	xmm6, xmm14
	mulss	xmm6, DWORD PTR __real@3f000000
; File C:\Program Files\Microsoft Visual Studio\18\Community\VC\Tools\MSVC\14.50.35717\include\cmath
; Line 257
	movaps	xmm0, xmm6
	call	sinf
; File C:\Users\RedDragon\Documents\Recubin\include\Math\Quaternion.hpp
; Line 14
	movaps	xmm10, xmm0
; File C:\Program Files\Microsoft Visual Studio\18\Community\VC\Tools\MSVC\14.50.35717\include\cmath
; Line 257
	movaps	xmm12, xmm0
; Line 89
	movaps	xmm0, xmm6
; File C:\Users\RedDragon\Documents\Recubin\include\Math\Quaternion.hpp
; Line 14
	mulss	xmm10, xmm11
; File C:\Program Files\Microsoft Visual Studio\18\Community\VC\Tools\MSVC\14.50.35717\include\cmath
; Line 89
	call	cosf
; File C:\Users\RedDragon\Documents\Recubin\src\Core\User.cpp
; Line 127
	movss	xmm2, DWORD PTR tv3783[rbp-256]
; File C:\Program Files\Microsoft Visual Studio\18\Community\VC\Tools\MSVC\14.50.35717\include\cmath
; Line 89
	movaps	xmm13, xmm0
; File C:\Users\RedDragon\Documents\Recubin\src\Core\User.cpp
; Line 127
	movss	xmm3, DWORD PTR tv3782[rbp-256]
	movaps	xmm14, xmm10
	movss	xmm4, DWORD PTR tv3781[rbp-256]
	movss	xmm5, DWORD PTR tv3780[rbp-256]
	jmp	SHORT $LN27@processInp
$LN415@processInp:
; Line 110
	movaps	xmm10, xmm3
	movaps	xmm12, xmm4
	movaps	xmm14, xmm5
	movaps	xmm13, xmm2
$LN27@processInp:
; File C:\Users\RedDragon\Documents\Recubin\include\Math\Quaternion.hpp
; Line 76
	movaps	xmm0, xmm13
	movaps	xmm9, xmm10
	mulss	xmm9, xmm3
	movaps	xmm1, xmm12
	mulss	xmm0, xmm2
	mulss	xmm1, xmm4
	addss	xmm9, xmm0
	movaps	xmm0, xmm14
	mulss	xmm0, xmm5
	addss	xmm9, xmm1
	addss	xmm9, xmm0
; Line 78
	comiss	xmm11, xmm9
	jbe	SHORT $LN402@processInp
; Line 79
	movss	xmm0, DWORD PTR __xmm@80000000800000008000000080000000
	xorps	xmm9, xmm0
; Line 80
	xorps	xmm13, xmm0
	xorps	xmm10, xmm0
	xorps	xmm12, xmm0
	xorps	xmm14, xmm0
$LN402@processInp:
; Line 82
	comiss	xmm9, DWORD PTR __real@3f7fdf3b
	jbe	SHORT $LN315@processInp
; Line 9
	subss	xmm12, xmm4
	subss	xmm14, xmm5
; Line 83
	subss	xmm13, xmm2
; Line 9
	subss	xmm10, xmm3
; Line 83
	mulss	xmm12, xmm15
	mulss	xmm14, xmm15
	addss	xmm12, xmm4
	mulss	xmm13, xmm15
	addss	xmm14, xmm5
	mulss	xmm10, xmm15
	addss	xmm13, xmm2
; Line 9
	movss	DWORD PTR $T7[rsp+8], xmm12
; Line 83
	addss	xmm10, xmm3
; Line 9
	movss	DWORD PTR $T7[rsp+12], xmm14
; Line 83
	jmp	$LN464@processInp
$LN315@processInp:
; File C:\Program Files\Microsoft Visual Studio\18\Community\VC\Tools\MSVC\14.50.35717\include\cmath
; Line 37
	movaps	xmm0, xmm9
	call	acosf
; File C:\Users\RedDragon\Documents\Recubin\include\Math\Quaternion.hpp
; Line 86
	movaps	xmm7, xmm0
; File C:\Program Files\Microsoft Visual Studio\18\Community\VC\Tools\MSVC\14.50.35717\include\cmath
; Line 37
	movaps	xmm6, xmm0
; File C:\Users\RedDragon\Documents\Recubin\include\Math\Quaternion.hpp
; Line 86
	mulss	xmm7, xmm15
; File C:\Program Files\Microsoft Visual Studio\18\Community\VC\Tools\MSVC\14.50.35717\include\cmath
; Line 257
	movaps	xmm0, xmm7
	call	sinf
	movaps	xmm8, xmm0
	movaps	xmm0, xmm6
	call	sinf
	movaps	xmm6, xmm0
; Line 89
	movaps	xmm0, xmm7
	call	cosf
	movaps	xmm2, xmm0
; File C:\Users\RedDragon\Documents\Recubin\include\Math\Quaternion.hpp
; Line 89
	mulss	xmm9, xmm8
; Line 90
	divss	xmm8, xmm6
	divss	xmm9, xmm6
; Line 91
	mulss	xmm13, xmm8
	subss	xmm2, xmm9
	mulss	xmm12, xmm8
	mulss	xmm14, xmm8
	mulss	xmm10, xmm8
	movaps	xmm1, xmm2
	movaps	xmm0, xmm2
	mulss	xmm1, DWORD PTR [r14]
	mulss	xmm0, DWORD PTR [r14+4]
	addss	xmm13, xmm1
	movaps	xmm1, xmm2
	mulss	xmm1, DWORD PTR [r14+8]
	mulss	xmm2, DWORD PTR [r14+12]
	addss	xmm10, xmm0
	addss	xmm1, xmm12
	addss	xmm2, xmm14
; Line 9
	movss	DWORD PTR $T7[rsp+8], xmm1
	movss	DWORD PTR $T7[rsp+12], xmm2
$LN464@processInp:
; File C:\Users\RedDragon\Documents\Recubin\src\Core\User.cpp
; Line 117
	movss	DWORD PTR $T7[rsp+4], xmm10
; Line 119
	lea	rdx, QWORD PTR pose$29[rsp]
	movss	DWORD PTR $T7[rsp], xmm13
	mov	rcx, rbx
	movups	xmm0, XMMWORD PTR $T7[rsp]
	movups	XMMWORD PTR [r14], xmm0
	mov	rax, QWORD PTR [rbx]
	call	QWORD PTR [rax+168]
; Line 120
	mov	rax, QWORD PTR [rdi+104]
; Line 121
	lea	rdx, QWORD PTR pose$29[rsp]
	mov	r8b, 1
	mov	rcx, QWORD PTR [rax+160]
	mov	rax, QWORD PTR [rbx]
	movss	xmm1, DWORD PTR [rcx+8]
	movss	xmm2, DWORD PTR [rcx+12]
	movss	xmm3, DWORD PTR [rcx]
; File C:\Users\RedDragon\Documents\Recubin\include\PhysX\foundation\PxQuat.h
; Line 340
	movss	xmm0, DWORD PTR [rcx+4]
; File C:\Users\RedDragon\Documents\Recubin\src\Core\User.cpp
; Line 121
	mov	rcx, rbx
; File C:\Users\RedDragon\Documents\Recubin\include\PhysX\foundation\PxQuat.h
; Line 340
	movss	DWORD PTR pose$29[rsp], xmm0
; Line 341
	movss	DWORD PTR pose$29[rsp+4], xmm1
; Line 342
	movss	DWORD PTR pose$29[rsp+8], xmm2
; Line 343
	movss	DWORD PTR pose$29[rsp+12], xmm3
; File C:\Users\RedDragon\Documents\Recubin\src\Core\User.cpp
; Line 121
	call	QWORD PTR [rax+176]
; File C:\Users\RedDragon\Documents\Recubin\include\Math\Vector3.hpp
; Line 15
	movss	xmm10, DWORD PTR [rdi+32]
	movss	xmm9, DWORD PTR [rdi+40]
	movaps	xmm0, xmm10
	movss	xmm2, DWORD PTR [rdi+36]
	movaps	xmm1, xmm9
; File C:\Users\RedDragon\Documents\Recubin\src\Core\User.cpp
; Line 123
	movss	xmm6, DWORD PTR [rdi+28]
; File C:\Users\RedDragon\Documents\Recubin\include\Math\Vector3.hpp
; Line 15
	mulss	xmm0, xmm10
	mulss	xmm2, xmm2
	mulss	xmm1, xmm9
	addss	xmm2, xmm0
	xorps	xmm0, xmm0
	addss	xmm2, xmm1
; File C:\Program Files\Microsoft Visual Studio\18\Community\VC\Tools\MSVC\14.50.35717\include\cmath
; Line 265
	ucomiss	xmm0, xmm2
	ja	SHORT $LN416@processInp
	xorps	xmm0, xmm0
	sqrtss	xmm0, xmm2
	jmp	SHORT $LN417@processInp
$LN416@processInp:
	movaps	xmm0, xmm2
	call	sqrtf
$LN417@processInp:
; File C:\Users\RedDragon\Documents\Recubin\src\Core\User.cpp
; Line 123
	comiss	xmm0, DWORD PTR __real@3c23d70a
	movss	xmm13, DWORD PTR __real@40490fdb
	jbe	SHORT $LN28@processInp
; Line 124
	movss	xmm7, DWORD PTR [rdi+12]
; File C:\Users\RedDragon\Documents\Recubin\include\Math\Vector3.hpp
; Line 12
	movaps	xmm8, xmm7
	mulss	xmm7, xmm9
	mulss	xmm8, xmm10
; File C:\Users\RedDragon\Documents\Recubin\src\Core\User.cpp
; Line 127
	test	sil, sil
	jne	SHORT $LN413@processInp
; File C:\Program Files\Microsoft Visual Studio\18\Community\VC\Tools\MSVC\14.50.35717\include\cmath
; Line 147
	movaps	xmm1, xmm13
	movaps	xmm0, xmm6
	call	fmodf
; File C:\Users\RedDragon\Documents\Recubin\src\Core\User.cpp
; Line 132
	comiss	xmm0, xmm15
	jbe	SHORT $LN32@processInp
$LN413@processInp:
	addss	xmm6, xmm15
	movss	DWORD PTR [rdi+28], xmm6
$LN32@processInp:
; Line 135
	mov	rax, QWORD PTR [rbx]
	lea	rdx, QWORD PTR currentVel$43[rsp]
	mov	rcx, rbx
	call	QWORD PTR [rax+328]
; File C:\Users\RedDragon\Documents\Recubin\include\PhysX\foundation\PxVec3.h
; Line 83
	movss	DWORD PTR $T13[rsp], xmm8
	movss	DWORD PTR $T13[rsp+8], xmm7
; File C:\Users\RedDragon\Documents\Recubin\src\Core\User.cpp
; Line 137
	jmp	SHORT $LN465@processInp
$LN28@processInp:
; File C:\Program Files\Microsoft Visual Studio\18\Community\VC\Tools\MSVC\14.50.35717\include\cmath
; Line 147
	movaps	xmm1, xmm13
	movaps	xmm0, xmm6
	call	fmodf
; File C:\Users\RedDragon\Documents\Recubin\src\Core\User.cpp
; Line 141
	comiss	xmm0, xmm15
	jbe	SHORT $LN33@processInp
	addss	xmm6, xmm15
	movss	DWORD PTR [rdi+28], xmm6
$LN33@processInp:
; Line 143
	mov	rax, QWORD PTR [rbx]
	lea	rdx, QWORD PTR currentVel$47[rsp]
	mov	rcx, rbx
	call	QWORD PTR [rax+328]
; File C:\Users\RedDragon\Documents\Recubin\include\PhysX\foundation\PxVec3.h
; Line 83
	mov	DWORD PTR $T15[rsp], 0
	mov	DWORD PTR $T15[rsp+8], 0
$LN465@processInp:
	movss	xmm0, DWORD PTR currentVel$47[rsp+4]
; File C:\Users\RedDragon\Documents\Recubin\src\Core\User.cpp
; Line 144
	lea	rdx, QWORD PTR $T15[rsp]
	mov	rax, QWORD PTR [rbx]
	mov	r8b, 1
	mov	rcx, rbx
; File C:\Users\RedDragon\Documents\Recubin\include\PhysX\foundation\PxVec3.h
; Line 83
	movss	DWORD PTR $T15[rsp+4], xmm0
; File C:\Users\RedDragon\Documents\Recubin\src\Core\User.cpp
; Line 144
	call	QWORD PTR [rax+640]
	movss	xmm12, DWORD PTR __real@3f000000
	movss	xmm14, DWORD PTR __real@43340000
	movss	xmm10, DWORD PTR __xmm@80000000800000008000000080000000
	movaps	xmm15, XMMWORD PTR [rsp+224]
$LN29@processInp:
; Line 149
	movss	xmm2, DWORD PTR [rdi+20]
	mov	rax, QWORD PTR [rdi+104]
; File C:\Users\RedDragon\Documents\Recubin\include\Math\Vector3.hpp
; Line 12
	movaps	xmm0, xmm2
	mulss	xmm0, DWORD PTR [rdi+168]
; File C:\Users\RedDragon\Documents\Recubin\src\Core\User.cpp
; Line 149
	mov	rcx, QWORD PTR [rax+152]
	mov	rax, QWORD PTR [rdi+88]
; File C:\Users\RedDragon\Documents\Recubin\include\Math\Vector3.hpp
; Line 10
	movss	xmm3, DWORD PTR [rcx+4]
	addss	xmm3, DWORD PTR __real@40000000
	movss	xmm1, DWORD PTR [rcx+8]
	addss	xmm1, xmm11
; Line 11
	subss	xmm3, xmm0
; Line 12
	movaps	xmm0, xmm2
	mulss	xmm0, DWORD PTR [rdi+172]
	mulss	xmm2, DWORD PTR [rdi+164]
; Line 11
	subss	xmm1, xmm0
; Line 10
	movss	xmm0, DWORD PTR [rcx]
	addss	xmm0, xmm11
; Line 11
	subss	xmm0, xmm2
; File C:\Users\RedDragon\Documents\Recubin\src\Core\User.cpp
; Line 149
	movss	DWORD PTR [rax], xmm0
	movss	DWORD PTR [rax+4], xmm3
	movss	DWORD PTR [rax+8], xmm1
$LN20@processInp:
; Line 154
	mov	rsi, QWORD PTR [rdi+112]
	lea	rbx, QWORD PTR [rdi+104]
	mov	r15, QWORD PTR [rsp+384]
	test	rsi, rsi
	je	SHORT $LN34@processInp
; File C:\Users\RedDragon\Documents\Recubin\include\Math\Vector3.hpp
; Line 39
	movdqa	xmm0, XMMWORD PTR __xmm@3f800000000000003f80000000000000
; File C:\Users\RedDragon\Documents\Recubin\src\Core\User.cpp
; Line 155
	lea	r8, QWORD PTR $T31[rsp]
	mov	rcx, QWORD PTR [rbx]
	lea	rdx, QWORD PTR $T17[rsp]
	add	rcx, 112				; 00000070H
; File C:\Users\RedDragon\Documents\Recubin\include\Math\Quaternion.hpp
; Line 8
	mov	QWORD PTR $T31[rsp+16], 0
; File C:\Users\RedDragon\Documents\Recubin\include\Math\Vector3.hpp
; Line 39
	movups	XMMWORD PTR $T31[rsp], xmm0
; File C:\Users\RedDragon\Documents\Recubin\include\Math\Quaternion.hpp
; Line 8
	mov	DWORD PTR $T31[rsp+24], 0
; File C:\Users\RedDragon\Documents\Recubin\src\Core\User.cpp
; Line 155
	call	??DCFrame@@QEBA?AU0@AEBU0@@Z		; CFrame::operator*
	movups	xmm0, XMMWORD PTR [rax]
	movups	xmm1, XMMWORD PTR [rax+12]
	movups	XMMWORD PTR $T32[rsp], xmm0
	movups	XMMWORD PTR $T32[rsp+12], xmm1
	movups	xmm0, XMMWORD PTR $T32[rsp]
	movups	XMMWORD PTR [rsi+112], xmm0
	movups	XMMWORD PTR [rsi+124], xmm1
$LN34@processInp:
; Line 157
	mov	rsi, QWORD PTR [rdi+120]
	test	rsi, rsi
	je	SHORT $LN35@processInp
; File C:\Users\RedDragon\Documents\Recubin\include\Math\Vector3.hpp
; Line 39
	movdqa	xmm0, XMMWORD PTR __xmm@3f800000000000004020000000000000
; File C:\Users\RedDragon\Documents\Recubin\src\Core\User.cpp
; Line 158
	lea	r8, QWORD PTR $T33[rsp]
	mov	rcx, QWORD PTR [rbx]
	lea	rdx, QWORD PTR $T11[rsp]
	add	rcx, 112				; 00000070H
; File C:\Users\RedDragon\Documents\Recubin\include\Math\Quaternion.hpp
; Line 8
	mov	QWORD PTR $T33[rsp+16], 0
; File C:\Users\RedDragon\Documents\Recubin\include\Math\Vector3.hpp
; Line 39
	movups	XMMWORD PTR $T33[rsp], xmm0
; File C:\Users\RedDragon\Documents\Recubin\include\Math\Quaternion.hpp
; Line 8
	mov	DWORD PTR $T33[rsp+24], 0
; File C:\Users\RedDragon\Documents\Recubin\src\Core\User.cpp
; Line 158
	call	??DCFrame@@QEBA?AU0@AEBU0@@Z		; CFrame::operator*
	movups	xmm0, XMMWORD PTR [rax]
	movups	xmm1, XMMWORD PTR [rax+12]
	movups	XMMWORD PTR $T34[rsp], xmm0
	movups	XMMWORD PTR $T34[rsp+12], xmm1
	movups	xmm0, XMMWORD PTR $T34[rsp]
	movups	XMMWORD PTR [rsi+112], xmm0
	movups	XMMWORD PTR [rsi+124], xmm1
$LN35@processInp:
; File C:\Program Files\Microsoft Visual Studio\18\Community\VC\Tools\MSVC\14.50.35717\include\cmath
; Line 257
	movss	xmm0, DWORD PTR [rdi+28]
	call	sinf
; File C:\Users\RedDragon\Documents\Recubin\src\Core\User.cpp
; Line 163
	mov	rsi, QWORD PTR [rdi+128]
; File C:\Program Files\Microsoft Visual Studio\18\Community\VC\Tools\MSVC\14.50.35717\include\cmath
; Line 257
	movaps	xmm9, xmm0
; File C:\Users\RedDragon\Documents\Recubin\src\Core\User.cpp
; Line 161
	mulss	xmm9, DWORD PTR __real@420c0000
; Line 163
	mov	r14, rbx
	test	rsi, rsi
	je	$LN412@processInp
; File C:\Users\RedDragon\Documents\Recubin\include\Math\Vector3.hpp
; Line 39
	movdqa	xmm0, XMMWORD PTR __xmm@3f8000000000000040000000bfc00000
; File C:\Users\RedDragon\Documents\Recubin\src\Core\User.cpp
; Line 165
	lea	r8, QWORD PTR $T35[rsp]
	mov	rcx, QWORD PTR [rbx]
	lea	rdx, QWORD PTR jointCF$45[rsp]
	add	rcx, 112				; 00000070H
; File C:\Users\RedDragon\Documents\Recubin\include\Math\Quaternion.hpp
; Line 8
	mov	QWORD PTR $T35[rsp+16], 0
; File C:\Users\RedDragon\Documents\Recubin\include\Math\Vector3.hpp
; Line 39
	movups	XMMWORD PTR $T35[rsp], xmm0
; File C:\Users\RedDragon\Documents\Recubin\include\Math\Quaternion.hpp
; Line 8
	mov	DWORD PTR $T35[rsp+24], 0
; File C:\Users\RedDragon\Documents\Recubin\src\Core\User.cpp
; Line 165
	call	??DCFrame@@QEBA?AU0@AEBU0@@Z		; CFrame::operator*
; File C:\Users\RedDragon\Documents\Recubin\include\Math\Quaternion.hpp
; Line 12
	movaps	xmm8, xmm9
	mulss	xmm8, xmm13
	divss	xmm8, xmm14
	mulss	xmm8, xmm12
; File C:\Program Files\Microsoft Visual Studio\18\Community\VC\Tools\MSVC\14.50.35717\include\cmath
; Line 257
	movaps	xmm0, xmm8
	call	sinf
; File C:\Users\RedDragon\Documents\Recubin\include\Math\Quaternion.hpp
; Line 9
	movaps	xmm7, xmm0
; File C:\Users\RedDragon\Documents\Recubin\include\Math\CFrame.hpp
; Line 11
	mov	QWORD PTR $T16[rsp], 0
; File C:\Program Files\Microsoft Visual Studio\18\Community\VC\Tools\MSVC\14.50.35717\include\cmath
; Line 257
	movaps	xmm6, xmm0
; File C:\Users\RedDragon\Documents\Recubin\include\Math\Quaternion.hpp
; Line 9
	mulss	xmm7, xmm11
; File C:\Users\RedDragon\Documents\Recubin\include\Math\CFrame.hpp
; Line 11
	mov	DWORD PTR $T16[rsp+8], 0
; File C:\Program Files\Microsoft Visual Studio\18\Community\VC\Tools\MSVC\14.50.35717\include\cmath
; Line 89
	movaps	xmm0, xmm8
	call	cosf
; File C:\Users\RedDragon\Documents\Recubin\src\Core\User.cpp
; Line 166
	lea	r8, QWORD PTR $T16[rsp]
; File C:\Program Files\Microsoft Visual Studio\18\Community\VC\Tools\MSVC\14.50.35717\include\cmath
; Line 89
	movss	DWORD PTR $T16[rsp+12], xmm0
; File C:\Users\RedDragon\Documents\Recubin\src\Core\User.cpp
; Line 166
	lea	rdx, QWORD PTR $T54[rbp-256]
; File C:\Users\RedDragon\Documents\Recubin\include\Math\CFrame.hpp
; Line 11
	movss	DWORD PTR $T16[rsp+16], xmm6
; File C:\Users\RedDragon\Documents\Recubin\src\Core\User.cpp
; Line 166
	lea	rcx, QWORD PTR jointCF$45[rsp]
; File C:\Users\RedDragon\Documents\Recubin\include\Math\CFrame.hpp
; Line 11
	movss	DWORD PTR $T16[rsp+20], xmm7
	movss	DWORD PTR $T16[rsp+24], xmm7
; File C:\Users\RedDragon\Documents\Recubin\src\Core\User.cpp
; Line 166
	call	??DCFrame@@QEBA?AU0@AEBU0@@Z		; CFrame::operator*
; File C:\Users\RedDragon\Documents\Recubin\include\Math\Vector3.hpp
; Line 39
	movdqa	xmm0, XMMWORD PTR __xmm@3f80000000000000bf80000000000000
; File C:\Users\RedDragon\Documents\Recubin\src\Core\User.cpp
; Line 166
	lea	r8, QWORD PTR $T36[rsp]
	lea	rdx, QWORD PTR $T57[rbp-256]
; File C:\Users\RedDragon\Documents\Recubin\include\Math\Quaternion.hpp
; Line 8
	mov	QWORD PTR $T36[rsp+16], 0
; File C:\Users\RedDragon\Documents\Recubin\src\Core\User.cpp
; Line 166
	mov	rcx, rax
; File C:\Users\RedDragon\Documents\Recubin\include\Math\Quaternion.hpp
; Line 8
	mov	DWORD PTR $T36[rsp+24], 0
; File C:\Users\RedDragon\Documents\Recubin\include\Math\Vector3.hpp
; Line 39
	movups	XMMWORD PTR $T36[rsp], xmm0
; File C:\Users\RedDragon\Documents\Recubin\src\Core\User.cpp
; Line 166
	call	??DCFrame@@QEBA?AU0@AEBU0@@Z		; CFrame::operator*
	lea	r14, QWORD PTR [rdi+104]
	movups	xmm0, XMMWORD PTR [rax]
	movups	xmm1, XMMWORD PTR [rax+12]
	movups	XMMWORD PTR $T20[rsp], xmm0
	movups	XMMWORD PTR $T20[rsp+12], xmm1
	movups	xmm0, XMMWORD PTR $T20[rsp]
	movups	XMMWORD PTR [rsi+112], xmm0
	movups	XMMWORD PTR [rsi+124], xmm1
$LN412@processInp:
; Line 168
	mov	rsi, QWORD PTR [rdi+136]
	test	rsi, rsi
	je	$LN411@processInp
; File C:\Users\RedDragon\Documents\Recubin\include\Math\Vector3.hpp
; Line 39
	movdqa	xmm0, XMMWORD PTR __xmm@3f80000000000000400000003fc00000
; File C:\Users\RedDragon\Documents\Recubin\src\Core\User.cpp
; Line 170
	lea	r8, QWORD PTR $T21[rsp]
	mov	rcx, QWORD PTR [rbx]
	lea	rdx, QWORD PTR jointCF$48[rsp]
	add	rcx, 112				; 00000070H
; File C:\Users\RedDragon\Documents\Recubin\include\Math\Quaternion.hpp
; Line 8
	mov	QWORD PTR $T21[rsp+16], 0
; File C:\Users\RedDragon\Documents\Recubin\include\Math\Vector3.hpp
; Line 39
	movups	XMMWORD PTR $T21[rsp], xmm0
; File C:\Users\RedDragon\Documents\Recubin\include\Math\Quaternion.hpp
; Line 8
	mov	DWORD PTR $T21[rsp+24], 0
; File C:\Users\RedDragon\Documents\Recubin\src\Core\User.cpp
; Line 170
	call	??DCFrame@@QEBA?AU0@AEBU0@@Z		; CFrame::operator*
; Line 171
	movaps	xmm8, xmm9
	xorps	xmm8, xmm10
; File C:\Users\RedDragon\Documents\Recubin\include\Math\Quaternion.hpp
; Line 12
	mulss	xmm8, xmm13
	divss	xmm8, xmm14
	mulss	xmm8, xmm12
; File C:\Program Files\Microsoft Visual Studio\18\Community\VC\Tools\MSVC\14.50.35717\include\cmath
; Line 257
	movaps	xmm0, xmm8
	call	sinf
; File C:\Users\RedDragon\Documents\Recubin\include\Math\Quaternion.hpp
; Line 9
	movaps	xmm7, xmm0
; File C:\Users\RedDragon\Documents\Recubin\include\Math\CFrame.hpp
; Line 11
	mov	QWORD PTR $T19[rsp], 0
; File C:\Program Files\Microsoft Visual Studio\18\Community\VC\Tools\MSVC\14.50.35717\include\cmath
; Line 257
	movaps	xmm6, xmm0
; File C:\Users\RedDragon\Documents\Recubin\include\Math\Quaternion.hpp
; Line 9
	mulss	xmm7, xmm11
; File C:\Users\RedDragon\Documents\Recubin\include\Math\CFrame.hpp
; Line 11
	mov	DWORD PTR $T19[rsp+8], 0
; File C:\Program Files\Microsoft Visual Studio\18\Community\VC\Tools\MSVC\14.50.35717\include\cmath
; Line 89
	movaps	xmm0, xmm8
	call	cosf
; File C:\Users\RedDragon\Documents\Recubin\src\Core\User.cpp
; Line 171
	lea	r8, QWORD PTR $T19[rsp]
; File C:\Program Files\Microsoft Visual Studio\18\Community\VC\Tools\MSVC\14.50.35717\include\cmath
; Line 89
	movss	DWORD PTR $T19[rsp+12], xmm0
; File C:\Users\RedDragon\Documents\Recubin\src\Core\User.cpp
; Line 171
	lea	rdx, QWORD PTR $T56[rbp-256]
; File C:\Users\RedDragon\Documents\Recubin\include\Math\CFrame.hpp
; Line 11
	movss	DWORD PTR $T19[rsp+16], xmm6
; File C:\Users\RedDragon\Documents\Recubin\src\Core\User.cpp
; Line 171
	lea	rcx, QWORD PTR jointCF$48[rsp]
; File C:\Users\RedDragon\Documents\Recubin\include\Math\CFrame.hpp
; Line 11
	movss	DWORD PTR $T19[rsp+20], xmm7
	movss	DWORD PTR $T19[rsp+24], xmm7
; File C:\Users\RedDragon\Documents\Recubin\src\Core\User.cpp
; Line 171
	call	??DCFrame@@QEBA?AU0@AEBU0@@Z		; CFrame::operator*
; File C:\Users\RedDragon\Documents\Recubin\include\Math\Vector3.hpp
; Line 39
	movdqa	xmm0, XMMWORD PTR __xmm@3f80000000000000bf80000000000000
; File C:\Users\RedDragon\Documents\Recubin\src\Core\User.cpp
; Line 171
	lea	r8, QWORD PTR $T22[rsp]
	lea	rdx, QWORD PTR $T52[rbp-256]
; File C:\Users\RedDragon\Documents\Recubin\include\Math\Quaternion.hpp
; Line 8
	mov	QWORD PTR $T22[rsp+16], 0
; File C:\Users\RedDragon\Documents\Recubin\src\Core\User.cpp
; Line 171
	mov	rcx, rax
; File C:\Users\RedDragon\Documents\Recubin\include\Math\Quaternion.hpp
; Line 8
	mov	DWORD PTR $T22[rsp+24], 0
; File C:\Users\RedDragon\Documents\Recubin\include\Math\Vector3.hpp
; Line 39
	movups	XMMWORD PTR $T22[rsp], xmm0
; File C:\Users\RedDragon\Documents\Recubin\src\Core\User.cpp
; Line 171
	call	??DCFrame@@QEBA?AU0@AEBU0@@Z		; CFrame::operator*
	mov	rbx, r14
	movups	xmm0, XMMWORD PTR [rax]
	movups	xmm1, XMMWORD PTR [rax+12]
	movups	XMMWORD PTR $T23[rsp], xmm0
	movups	XMMWORD PTR $T23[rsp+12], xmm1
	movups	xmm0, XMMWORD PTR $T23[rsp]
	movups	XMMWORD PTR [rsi+112], xmm0
	movups	XMMWORD PTR [rsi+124], xmm1
$LN411@processInp:
; Line 173
	mov	rsi, QWORD PTR [rdi+144]
	mov	r14, QWORD PTR [rsp+392]
	test	rsi, rsi
	je	$LN38@processInp
; File C:\Users\RedDragon\Documents\Recubin\include\Math\Vector3.hpp
; Line 39
	movdqa	xmm0, XMMWORD PTR __xmm@3f8000000000000000000000bf000000
; File C:\Users\RedDragon\Documents\Recubin\src\Core\User.cpp
; Line 175
	lea	r8, QWORD PTR $T24[rsp]
	mov	rcx, QWORD PTR [rbx]
	lea	rdx, QWORD PTR jointCF$44[rsp]
	add	rcx, 112				; 00000070H
; File C:\Users\RedDragon\Documents\Recubin\include\Math\Quaternion.hpp
; Line 8
	mov	QWORD PTR $T24[rsp+16], 0
; File C:\Users\RedDragon\Documents\Recubin\include\Math\Vector3.hpp
; Line 39
	movups	XMMWORD PTR $T24[rsp], xmm0
; File C:\Users\RedDragon\Documents\Recubin\include\Math\Quaternion.hpp
; Line 8
	mov	DWORD PTR $T24[rsp+24], 0
; File C:\Users\RedDragon\Documents\Recubin\src\Core\User.cpp
; Line 175
	call	??DCFrame@@QEBA?AU0@AEBU0@@Z		; CFrame::operator*
; Line 176
	movaps	xmm8, xmm9
	xorps	xmm8, xmm10
; File C:\Users\RedDragon\Documents\Recubin\include\Math\Quaternion.hpp
; Line 12
	mulss	xmm8, xmm13
	divss	xmm8, xmm14
	mulss	xmm8, xmm12
; File C:\Program Files\Microsoft Visual Studio\18\Community\VC\Tools\MSVC\14.50.35717\include\cmath
; Line 257
	movaps	xmm0, xmm8
	call	sinf
; File C:\Users\RedDragon\Documents\Recubin\include\Math\Quaternion.hpp
; Line 9
	movaps	xmm7, xmm0
; File C:\Users\RedDragon\Documents\Recubin\include\Math\CFrame.hpp
; Line 11
	mov	QWORD PTR $T9[rsp], 0
; File C:\Program Files\Microsoft Visual Studio\18\Community\VC\Tools\MSVC\14.50.35717\include\cmath
; Line 257
	movaps	xmm6, xmm0
; File C:\Users\RedDragon\Documents\Recubin\include\Math\Quaternion.hpp
; Line 9
	mulss	xmm7, xmm11
; File C:\Users\RedDragon\Documents\Recubin\include\Math\CFrame.hpp
; Line 11
	mov	DWORD PTR $T9[rsp+8], 0
; File C:\Program Files\Microsoft Visual Studio\18\Community\VC\Tools\MSVC\14.50.35717\include\cmath
; Line 89
	movaps	xmm0, xmm8
	call	cosf
; File C:\Users\RedDragon\Documents\Recubin\src\Core\User.cpp
; Line 176
	lea	r8, QWORD PTR $T9[rsp]
; File C:\Program Files\Microsoft Visual Studio\18\Community\VC\Tools\MSVC\14.50.35717\include\cmath
; Line 89
	movss	DWORD PTR $T9[rsp+12], xmm0
; File C:\Users\RedDragon\Documents\Recubin\src\Core\User.cpp
; Line 176
	lea	rdx, QWORD PTR $T55[rbp-256]
; File C:\Users\RedDragon\Documents\Recubin\include\Math\CFrame.hpp
; Line 11
	movss	DWORD PTR $T9[rsp+16], xmm6
; File C:\Users\RedDragon\Documents\Recubin\src\Core\User.cpp
; Line 176
	lea	rcx, QWORD PTR jointCF$44[rsp]
; File C:\Users\RedDragon\Documents\Recubin\include\Math\CFrame.hpp
; Line 11
	movss	DWORD PTR $T9[rsp+20], xmm7
	movss	DWORD PTR $T9[rsp+24], xmm7
; File C:\Users\RedDragon\Documents\Recubin\src\Core\User.cpp
; Line 176
	call	??DCFrame@@QEBA?AU0@AEBU0@@Z		; CFrame::operator*
; File C:\Users\RedDragon\Documents\Recubin\include\Math\Vector3.hpp
; Line 39
	movdqa	xmm0, XMMWORD PTR __xmm@3f80000000000000bf80000000000000
; File C:\Users\RedDragon\Documents\Recubin\src\Core\User.cpp
; Line 176
	lea	r8, QWORD PTR $T25[rsp]
	lea	rdx, QWORD PTR $T51[rbp-256]
; File C:\Users\RedDragon\Documents\Recubin\include\Math\Quaternion.hpp
; Line 8
	mov	QWORD PTR $T25[rsp+16], 0
; File C:\Users\RedDragon\Documents\Recubin\src\Core\User.cpp
; Line 176
	mov	rcx, rax
; File C:\Users\RedDragon\Documents\Recubin\include\Math\Quaternion.hpp
; Line 8
	mov	DWORD PTR $T25[rsp+24], 0
; File C:\Users\RedDragon\Documents\Recubin\include\Math\Vector3.hpp
; Line 39
	movups	XMMWORD PTR $T25[rsp], xmm0
; File C:\Users\RedDragon\Documents\Recubin\src\Core\User.cpp
; Line 176
	call	??DCFrame@@QEBA?AU0@AEBU0@@Z		; CFrame::operator*
	movups	xmm0, XMMWORD PTR [rax]
	movups	xmm1, XMMWORD PTR [rax+12]
	movups	XMMWORD PTR $T26[rsp], xmm0
	movups	XMMWORD PTR $T26[rsp+12], xmm1
	movups	xmm0, XMMWORD PTR $T26[rsp]
	movups	XMMWORD PTR [rsi+112], xmm0
	movups	XMMWORD PTR [rsi+124], xmm1
$LN38@processInp:
; Line 178
	mov	rsi, QWORD PTR [rdi+152]
	movaps	xmm10, XMMWORD PTR [rsp+304]
	movaps	xmm8, XMMWORD PTR [rsp+336]
	test	rsi, rsi
	je	$LN39@processInp
; File C:\Users\RedDragon\Documents\Recubin\include\Math\Vector3.hpp
; Line 39
	movdqa	xmm0, XMMWORD PTR __xmm@3f80000000000000000000003f000000
; File C:\Users\RedDragon\Documents\Recubin\src\Core\User.cpp
; Line 180
	lea	r8, QWORD PTR $T27[rsp]
	mov	rcx, QWORD PTR [rbx]
	lea	rdx, QWORD PTR jointCF$46[rsp]
	add	rcx, 112				; 00000070H
; File C:\Users\RedDragon\Documents\Recubin\include\Math\Quaternion.hpp
; Line 8
	mov	QWORD PTR $T27[rsp+16], 0
; File C:\Users\RedDragon\Documents\Recubin\include\Math\Vector3.hpp
; Line 39
	movups	XMMWORD PTR $T27[rsp], xmm0
; File C:\Users\RedDragon\Documents\Recubin\include\Math\Quaternion.hpp
; Line 8
	mov	DWORD PTR $T27[rsp+24], 0
; File C:\Users\RedDragon\Documents\Recubin\src\Core\User.cpp
; Line 180
	call	??DCFrame@@QEBA?AU0@AEBU0@@Z		; CFrame::operator*
; File C:\Users\RedDragon\Documents\Recubin\include\Math\Quaternion.hpp
; Line 12
	mulss	xmm9, xmm13
	divss	xmm9, xmm14
	mulss	xmm9, xmm12
; File C:\Program Files\Microsoft Visual Studio\18\Community\VC\Tools\MSVC\14.50.35717\include\cmath
; Line 257
	movaps	xmm0, xmm9
	call	sinf
; File C:\Users\RedDragon\Documents\Recubin\include\Math\Quaternion.hpp
; Line 9
	movaps	xmm7, xmm0
; File C:\Users\RedDragon\Documents\Recubin\include\Math\CFrame.hpp
; Line 11
	mov	QWORD PTR $T14[rsp], 0
; File C:\Program Files\Microsoft Visual Studio\18\Community\VC\Tools\MSVC\14.50.35717\include\cmath
; Line 257
	movaps	xmm6, xmm0
; File C:\Users\RedDragon\Documents\Recubin\include\Math\Quaternion.hpp
; Line 9
	mulss	xmm7, xmm11
; File C:\Users\RedDragon\Documents\Recubin\include\Math\CFrame.hpp
; Line 11
	mov	DWORD PTR $T14[rsp+8], 0
; File C:\Program Files\Microsoft Visual Studio\18\Community\VC\Tools\MSVC\14.50.35717\include\cmath
; Line 89
	movaps	xmm0, xmm9
	call	cosf
; File C:\Users\RedDragon\Documents\Recubin\src\Core\User.cpp
; Line 181
	lea	r8, QWORD PTR $T14[rsp]
; File C:\Program Files\Microsoft Visual Studio\18\Community\VC\Tools\MSVC\14.50.35717\include\cmath
; Line 89
	movss	DWORD PTR $T14[rsp+12], xmm0
; File C:\Users\RedDragon\Documents\Recubin\src\Core\User.cpp
; Line 181
	lea	rdx, QWORD PTR $T58[rbp-256]
; File C:\Users\RedDragon\Documents\Recubin\include\Math\CFrame.hpp
; Line 11
	movss	DWORD PTR $T14[rsp+16], xmm6
; File C:\Users\RedDragon\Documents\Recubin\src\Core\User.cpp
; Line 181
	lea	rcx, QWORD PTR jointCF$46[rsp]
; File C:\Users\RedDragon\Documents\Recubin\include\Math\CFrame.hpp
; Line 11
	movss	DWORD PTR $T14[rsp+20], xmm7
	movss	DWORD PTR $T14[rsp+24], xmm7
; File C:\Users\RedDragon\Documents\Recubin\src\Core\User.cpp
; Line 181
	call	??DCFrame@@QEBA?AU0@AEBU0@@Z		; CFrame::operator*
; File C:\Users\RedDragon\Documents\Recubin\include\Math\Vector3.hpp
; Line 39
	movdqa	xmm0, XMMWORD PTR __xmm@3f80000000000000bf80000000000000
; File C:\Users\RedDragon\Documents\Recubin\src\Core\User.cpp
; Line 181
	lea	r8, QWORD PTR $T28[rsp]
	lea	rdx, QWORD PTR $T53[rbp-256]
; File C:\Users\RedDragon\Documents\Recubin\include\Math\Quaternion.hpp
; Line 8
	mov	QWORD PTR $T28[rsp+16], 0
; File C:\Users\RedDragon\Documents\Recubin\src\Core\User.cpp
; Line 181
	mov	rcx, rax
; File C:\Users\RedDragon\Documents\Recubin\include\Math\Quaternion.hpp
; Line 8
	mov	DWORD PTR $T28[rsp+24], 0
; File C:\Users\RedDragon\Documents\Recubin\include\Math\Vector3.hpp
; Line 39
	movups	XMMWORD PTR $T28[rsp], xmm0
; File C:\Users\RedDragon\Documents\Recubin\src\Core\User.cpp
; Line 181
	call	??DCFrame@@QEBA?AU0@AEBU0@@Z		; CFrame::operator*
	movups	xmm0, XMMWORD PTR [rax]
	movups	xmm1, XMMWORD PTR [rax+12]
	movups	XMMWORD PTR $T30[rsp], xmm0
	movups	XMMWORD PTR $T30[rsp+12], xmm1
	movups	xmm0, XMMWORD PTR $T30[rsp]
	movups	XMMWORD PTR [rsi+112], xmm0
	movups	XMMWORD PTR [rsi+124], xmm1
$LN39@processInp:
; Line 185
	movaps	xmm14, XMMWORD PTR [rsp+240]
	test	r12b, r12b
	mov	r12, QWORD PTR [rsp+400]
	movaps	xmm13, XMMWORD PTR [rsp+256]
	movaps	xmm12, XMMWORD PTR [rsp+272]
	movaps	xmm11, XMMWORD PTR [rsp+288]
	movaps	xmm9, XMMWORD PTR [rsp+320]
	movaps	xmm7, XMMWORD PTR [rsp+352]
	movaps	xmm6, XMMWORD PTR [rsp+368]
	mov	rsi, QWORD PTR [rsp+408]
	je	SHORT $LN40@processInp
; Line 186
	mov	rcx, rdi
	call	?updateVectors@User@@QEAAXXZ		; User::updateVectors
$LN40@processInp:
; Line 189
	mov	rcx, QWORD PTR [rdi]
	mov	edx, 256				; 00000100H
	call	glfwGetKey
	cmp	eax, 1
	jne	SHORT $LN41@processInp
; Line 190
	mov	BYTE PTR [rdi+200], al
$LN41@processInp:
; Line 193
	mov	rcx, QWORD PTR [rdi]
	mov	edx, 70					; 00000046H
	call	glfwGetKey
	cmp	eax, 1
	sete	bl
; Line 194
	jne	SHORT $LN44@processInp
	cmp	BYTE PTR [rdi+44], 0
	jne	SHORT $LN44@processInp
; Line 196
	cmp	DWORD PTR [rdi+160], 0
	lea	rdx, OFFSET FLAT:??_C@_0O@DFEEAMDI@?$FLRCBN_DEBUG?$FN?5@
	jne	SHORT $LN43@processInp
; Line 197
	mov	DWORD PTR [rdi+160], 1
; Line 198
	mov	rcx, QWORD PTR __imp_?cout@std@@3V?$basic_ostream@DU?$char_traits@D@std@@@1@A
	call	??$?6U?$char_traits@D@std@@@std@@YAAEAV?$basic_ostream@DU?$char_traits@D@std@@@0@AEAV10@PEBD@Z ; std::operator<<<std::char_traits<char> >
	lea	rdx, OFFSET FLAT:??_C@_0BI@IIFFLJEA@Control?5Mode?3?5Character@
; Line 199
	jmp	SHORT $LN466@processInp
$LN43@processInp:
; Line 200
	mov	DWORD PTR [rdi+160], 0
; Line 201
	mov	rcx, QWORD PTR __imp_?cout@std@@3V?$basic_ostream@DU?$char_traits@D@std@@@1@A
	call	??$?6U?$char_traits@D@std@@@std@@YAAEAV?$basic_ostream@DU?$char_traits@D@std@@@0@AEAV10@PEBD@Z ; std::operator<<<std::char_traits<char> >
	lea	rdx, OFFSET FLAT:??_C@_0BD@PEHIFBAP@Control?5Mode?3?5Free@
$LN466@processInp:
; Line 204
	mov	rcx, rax
	call	??$?6U?$char_traits@D@std@@@std@@YAAEAV?$basic_ostream@DU?$char_traits@D@std@@@0@AEAV10@PEBD@Z ; std::operator<<<std::char_traits<char> >
	lea	rdx, OFFSET FLAT:??$endl@DU?$char_traits@D@std@@@std@@YAAEAV?$basic_ostream@DU?$char_traits@D@std@@@0@AEAV10@@Z ; std::endl<char,std::char_traits<char> >
	mov	rcx, rax
	call	QWORD PTR __imp_??6?$basic_ostream@DU?$char_traits@D@std@@@std@@QEAAAEAV01@P6AAEAV01@AEAV01@@Z@Z
$LN44@processInp:
; Line 206
	mov	rcx, QWORD PTR [rdi]
	mov	edx, 80					; 00000050H
	mov	BYTE PTR [rdi+44], bl
	call	glfwGetKey
	mov	rbx, QWORD PTR [rsp+416]
	cmp	eax, 1
	jne	$LN46@processInp
; Line 207
	mov	rcx, QWORD PTR __imp_?cout@std@@3V?$basic_ostream@DU?$char_traits@D@std@@@1@A
	lea	rdx, OFFSET FLAT:??_C@_0BD@OMPOOLFM@Camera?5Position?3?5?$CI@
	call	??$?6U?$char_traits@D@std@@@std@@YAAEAV?$basic_ostream@DU?$char_traits@D@std@@@0@AEAV10@PEBD@Z ; std::operator<<<std::char_traits<char> >
	mov	rcx, QWORD PTR [rdi+88]
	movss	xmm1, DWORD PTR [rcx]
	mov	rcx, rax
	call	QWORD PTR __imp_??6?$basic_ostream@DU?$char_traits@D@std@@@std@@QEAAAEAV01@M@Z
	mov	rcx, rax
	lea	rdx, OFFSET FLAT:??_C@_02KEGNLNML@?0?5@
	call	??$?6U?$char_traits@D@std@@@std@@YAAEAV?$basic_ostream@DU?$char_traits@D@std@@@0@AEAV10@PEBD@Z ; std::operator<<<std::char_traits<char> >
	mov	rcx, QWORD PTR [rdi+88]
	movss	xmm1, DWORD PTR [rcx+4]
	mov	rcx, rax
	call	QWORD PTR __imp_??6?$basic_ostream@DU?$char_traits@D@std@@@std@@QEAAAEAV01@M@Z
	mov	rcx, rax
	lea	rdx, OFFSET FLAT:??_C@_02KEGNLNML@?0?5@
	call	??$?6U?$char_traits@D@std@@@std@@YAAEAV?$basic_ostream@DU?$char_traits@D@std@@@0@AEAV10@PEBD@Z ; std::operator<<<std::char_traits<char> >
	mov	rcx, QWORD PTR [rdi+88]
	movss	xmm1, DWORD PTR [rcx+8]
	mov	rcx, rax
	call	QWORD PTR __imp_??6?$basic_ostream@DU?$char_traits@D@std@@@std@@QEAAAEAV01@M@Z
	mov	rcx, rax
	lea	rdx, OFFSET FLAT:??_C@_02MNMNLDAI@?$CJ?6@
	call	??$?6U?$char_traits@D@std@@@std@@YAAEAV?$basic_ostream@DU?$char_traits@D@std@@@0@AEAV10@PEBD@Z ; std::operator<<<std::char_traits<char> >
; Line 208
	cmp	QWORD PTR [rdi+104], 0
	je	$LN46@processInp
; Line 209
	mov	rcx, QWORD PTR __imp_?cout@std@@3V?$basic_ostream@DU?$char_traits@D@std@@@1@A
	lea	rdx, OFFSET FLAT:??_C@_0BN@ODBIAHJF@Character?5?$CIRoot?$CJ?5Position?3?5?$CI@
	call	??$?6U?$char_traits@D@std@@@std@@YAAEAV?$basic_ostream@DU?$char_traits@D@std@@@0@AEAV10@PEBD@Z ; std::operator<<<std::char_traits<char> >
	mov	rcx, QWORD PTR [rdi+104]
	mov	r8, QWORD PTR [rcx+152]
	mov	rcx, rax
	movss	xmm1, DWORD PTR [r8]
	call	QWORD PTR __imp_??6?$basic_ostream@DU?$char_traits@D@std@@@std@@QEAAAEAV01@M@Z
	mov	rcx, rax
	lea	rdx, OFFSET FLAT:??_C@_02KEGNLNML@?0?5@
	call	??$?6U?$char_traits@D@std@@@std@@YAAEAV?$basic_ostream@DU?$char_traits@D@std@@@0@AEAV10@PEBD@Z ; std::operator<<<std::char_traits<char> >
	mov	rcx, QWORD PTR [rdi+104]
	mov	r8, QWORD PTR [rcx+152]
	mov	rcx, rax
	movss	xmm1, DWORD PTR [r8+4]
	call	QWORD PTR __imp_??6?$basic_ostream@DU?$char_traits@D@std@@@std@@QEAAAEAV01@M@Z
	mov	rcx, rax
	lea	rdx, OFFSET FLAT:??_C@_02KEGNLNML@?0?5@
	call	??$?6U?$char_traits@D@std@@@std@@YAAEAV?$basic_ostream@DU?$char_traits@D@std@@@0@AEAV10@PEBD@Z ; std::operator<<<std::char_traits<char> >
	mov	rcx, QWORD PTR [rdi+104]
	mov	r8, QWORD PTR [rcx+152]
	mov	rcx, rax
	movss	xmm1, DWORD PTR [r8+8]
	call	QWORD PTR __imp_??6?$basic_ostream@DU?$char_traits@D@std@@@std@@QEAAAEAV01@M@Z
	mov	rcx, rax
	lea	rdx, OFFSET FLAT:??_C@_02MNMNLDAI@?$CJ?6@
	call	??$?6U?$char_traits@D@std@@@std@@YAAEAV?$basic_ostream@DU?$char_traits@D@std@@@0@AEAV10@PEBD@Z ; std::operator<<<std::char_traits<char> >
$LN46@processInp:
; Line 213
	add	rsp, 424				; 000001a8H
	pop	rdi
	pop	rbp
	ret	0
?processInput@User@@QEAAXXZ ENDP			; User::processInput
_TEXT	ENDS
; Function compile flags: /Ogtpy
;	COMDAT ?updateVectors@User@@QEAAXXZ
_TEXT	SEGMENT
$T1 = 32
$T2 = 32
$T3 = 44
$T4 = 44
$T5 = 44
this$ = 112
?updateVectors@User@@QEAAXXZ PROC			; User::updateVectors, COMDAT
; File C:\Users\RedDragon\Documents\Recubin\src\Core\User.cpp
; Line 39
$LN16:
	mov	rax, rsp
	mov	QWORD PTR [rax+8], rbx
	push	rdi
	sub	rsp, 96					; 00000060H
; Line 41
	mov	rbx, QWORD PTR [rcx+80]
; File C:\Users\RedDragon\Documents\Recubin\include\Math\Quaternion.hpp
; Line 72
	lea	rdx, QWORD PTR [rax-60]
	movaps	XMMWORD PTR [rax-24], xmm6
; File C:\Users\RedDragon\Documents\Recubin\src\Core\User.cpp
; Line 39
	mov	rdi, rcx
	movaps	XMMWORD PTR [rax-40], xmm7
; File C:\Users\RedDragon\Documents\Recubin\include\Math\Quaternion.hpp
; Line 72
	lea	rcx, QWORD PTR [rax-72]
	movss	xmm7, DWORD PTR __real@3f800000
	movss	xmm5, DWORD PTR [rbx+8]
	movss	xmm3, DWORD PTR [rbx+12]
	movaps	xmm0, xmm5
	mulss	xmm0, DWORD PTR [rbx]
	movaps	xmm1, xmm3
	movss	xmm6, DWORD PTR [rbx+4]
	mulss	xmm1, xmm6
	mulss	xmm3, xmm5
	addss	xmm1, xmm0
	mulss	xmm5, xmm5
	movaps	xmm0, xmm6
	mulss	xmm6, xmm6
	mulss	xmm0, DWORD PTR [rbx]
	mulss	xmm1, DWORD PTR __real@c0000000
	addss	xmm6, xmm5
	subss	xmm3, xmm0
	movaps	xmm0, xmm7
; File C:\Users\RedDragon\Documents\Recubin\include\Math\Vector3.hpp
; Line 39
	movss	DWORD PTR [rax-72], xmm1
; File C:\Users\RedDragon\Documents\Recubin\include\Math\Quaternion.hpp
; Line 72
	addss	xmm6, xmm6
	mulss	xmm3, DWORD PTR __real@c0000000
	subss	xmm0, xmm6
; File C:\Users\RedDragon\Documents\Recubin\include\Math\Vector3.hpp
; Line 40
	movss	DWORD PTR [rax-68], xmm3
; File C:\Users\RedDragon\Documents\Recubin\include\Math\Quaternion.hpp
; Line 72
	xorps	xmm0, DWORD PTR __xmm@80000000800000008000000080000000
; File C:\Users\RedDragon\Documents\Recubin\include\Math\Vector3.hpp
; Line 41
	movss	DWORD PTR [rax-64], xmm0
; File C:\Users\RedDragon\Documents\Recubin\include\Math\Quaternion.hpp
; Line 72
	call	?normalize@Vector3@@QEBA?AU1@XZ		; Vector3::normalize
; File C:\Users\RedDragon\Documents\Recubin\src\Core\User.cpp
; Line 41
	movsd	xmm0, QWORD PTR $T3[rsp]
; File C:\Users\RedDragon\Documents\Recubin\include\Math\Quaternion.hpp
; Line 64
	lea	rdx, QWORD PTR $T4[rsp]
; File C:\Users\RedDragon\Documents\Recubin\src\Core\User.cpp
; Line 41
	mov	eax, DWORD PTR $T3[rsp+8]
; File C:\Users\RedDragon\Documents\Recubin\include\Math\Quaternion.hpp
; Line 64
	lea	rcx, QWORD PTR $T1[rsp]
; File C:\Users\RedDragon\Documents\Recubin\src\Core\User.cpp
; Line 41
	movsd	QWORD PTR [rdi+164], xmm0
	mov	DWORD PTR [rdi+172], eax
; File C:\Users\RedDragon\Documents\Recubin\include\Math\Quaternion.hpp
; Line 64
	movss	xmm5, DWORD PTR [rbx+8]
	movss	xmm4, DWORD PTR [rbx+12]
	movaps	xmm0, xmm5
	movss	xmm2, DWORD PTR [rbx]
	movaps	xmm1, xmm4
	movss	xmm3, DWORD PTR [rbx+4]
	mulss	xmm1, xmm4
	mulss	xmm0, xmm5
	addss	xmm1, xmm0
	movaps	xmm0, xmm7
	addss	xmm1, xmm1
	subss	xmm0, xmm1
	movaps	xmm1, xmm2
	mulss	xmm1, xmm4
	mulss	xmm2, xmm5
; File C:\Users\RedDragon\Documents\Recubin\include\Math\Vector3.hpp
; Line 39
	movss	DWORD PTR $T1[rsp], xmm0
; File C:\Users\RedDragon\Documents\Recubin\include\Math\Quaternion.hpp
; Line 64
	movaps	xmm0, xmm3
	mulss	xmm3, xmm4
	mulss	xmm0, xmm5
	subss	xmm3, xmm2
	addss	xmm1, xmm0
	addss	xmm3, xmm3
	addss	xmm1, xmm1
; File C:\Users\RedDragon\Documents\Recubin\include\Math\Vector3.hpp
; Line 41
	movss	DWORD PTR $T1[rsp+8], xmm3
	movss	DWORD PTR $T1[rsp+4], xmm1
; File C:\Users\RedDragon\Documents\Recubin\include\Math\Quaternion.hpp
; Line 64
	call	?normalize@Vector3@@QEBA?AU1@XZ		; Vector3::normalize
; File C:\Users\RedDragon\Documents\Recubin\src\Core\User.cpp
; Line 42
	movsd	xmm0, QWORD PTR $T4[rsp]
	mov	eax, DWORD PTR $T4[rsp+8]
	movsd	QWORD PTR [rdi+176], xmm0
	mov	DWORD PTR [rdi+184], eax
; File C:\Users\RedDragon\Documents\Recubin\include\Math\Quaternion.hpp
; Line 68
	movss	xmm5, DWORD PTR [rbx+4]
	movss	xmm3, DWORD PTR [rbx+12]
	movaps	xmm2, xmm5
	movss	xmm6, DWORD PTR [rbx+8]
	movaps	xmm0, xmm3
	mulss	xmm0, DWORD PTR [rbx]
	movaps	xmm1, xmm6
	mulss	xmm1, xmm5
	mulss	xmm2, xmm5
	subss	xmm1, xmm0
	movaps	xmm0, xmm3
	addss	xmm1, xmm1
; File C:\Users\RedDragon\Documents\Recubin\include\Math\Vector3.hpp
; Line 39
	movss	DWORD PTR $T2[rsp], xmm1
; File C:\Users\RedDragon\Documents\Recubin\include\Math\Quaternion.hpp
; Line 68
	mulss	xmm5, DWORD PTR [rbx]
	lea	rdx, QWORD PTR $T5[rsp]
	lea	rcx, QWORD PTR $T2[rsp]
	mulss	xmm6, xmm3
	mulss	xmm0, xmm3
	addss	xmm6, xmm5
	addss	xmm2, xmm0
	addss	xmm6, xmm6
	addss	xmm2, xmm2
; File C:\Users\RedDragon\Documents\Recubin\include\Math\Vector3.hpp
; Line 41
	movss	DWORD PTR $T2[rsp+8], xmm6
; File C:\Users\RedDragon\Documents\Recubin\include\Math\Quaternion.hpp
; Line 68
	subss	xmm7, xmm2
; File C:\Users\RedDragon\Documents\Recubin\include\Math\Vector3.hpp
; Line 40
	movss	DWORD PTR $T2[rsp+4], xmm7
; File C:\Users\RedDragon\Documents\Recubin\include\Math\Quaternion.hpp
; Line 68
	call	?normalize@Vector3@@QEBA?AU1@XZ		; Vector3::normalize
; File C:\Users\RedDragon\Documents\Recubin\src\Core\User.cpp
; Line 43
	movsd	xmm0, QWORD PTR $T5[rsp]
	mov	eax, DWORD PTR $T5[rsp+8]
; Line 44
	mov	rbx, QWORD PTR [rsp+112]
	movaps	xmm6, XMMWORD PTR [rsp+80]
	movaps	xmm7, XMMWORD PTR [rsp+64]
	movsd	QWORD PTR [rdi+188], xmm0
	mov	DWORD PTR [rdi+196], eax
	add	rsp, 96					; 00000060H
	pop	rdi
	ret	0
?updateVectors@User@@QEAAXXZ ENDP			; User::updateVectors
_TEXT	ENDS
; Function compile flags: /Ogtpy
;	COMDAT ??1User@@QEAA@XZ
_TEXT	SEGMENT
this$ = 48
??1User@@QEAA@XZ PROC					; User::~User, COMDAT
; File C:\Users\RedDragon\Documents\Recubin\src\Core\User.cpp
; Line 18
$LN11:
	push	rbx
	sub	rsp, 32					; 00000020H
	mov	rbx, rcx
; Line 19
	mov	rax, QWORD PTR [rcx+96]
	test	rax, rax
	je	$LN2@User
; Line 21
	lea	rdx, OFFSET FLAT:??_C@_0O@DFEEAMDI@?$FLRCBN_DEBUG?$FN?5@
	mov	rcx, QWORD PTR __imp_?cout@std@@3V?$basic_ostream@DU?$char_traits@D@std@@@1@A
	cmp	QWORD PTR [rax+40], 0
	jne	SHORT $LN3@User
; Line 22
	call	??$?6U?$char_traits@D@std@@@std@@YAAEAV?$basic_ostream@DU?$char_traits@D@std@@@0@AEAV10@PEBD@Z ; std::operator<<<std::char_traits<char> >
	mov	rcx, rax
	lea	rdx, OFFSET FLAT:??_C@_0DA@MEOPJHDA@User?5Destructor?3?5Cleaning?5up?5or@
	call	??$?6U?$char_traits@D@std@@@std@@YAAEAV?$basic_ostream@DU?$char_traits@D@std@@@0@AEAV10@PEBD@Z ; std::operator<<<std::char_traits<char> >
	lea	rdx, OFFSET FLAT:??$endl@DU?$char_traits@D@std@@@std@@YAAEAV?$basic_ostream@DU?$char_traits@D@std@@@0@AEAV10@@Z ; std::endl<char,std::char_traits<char> >
	mov	rcx, rax
	call	QWORD PTR __imp_??6?$basic_ostream@DU?$char_traits@D@std@@@std@@QEAAAEAV01@P6AAEAV01@AEAV01@@Z@Z
; Line 23
	mov	rcx, QWORD PTR [rbx+96]
	test	rcx, rcx
	je	SHORT $LN4@User
	mov	rax, QWORD PTR [rcx]
	mov	edx, 1
	call	QWORD PTR [rax+40]
; Line 24
	jmp	SHORT $LN4@User
$LN3@User:
; Line 25
	call	??$?6U?$char_traits@D@std@@@std@@YAAEAV?$basic_ostream@DU?$char_traits@D@std@@@0@AEAV10@PEBD@Z ; std::operator<<<std::char_traits<char> >
	mov	rcx, rax
	lea	rdx, OFFSET FLAT:??_C@_0EJ@CEKEGHCO@User?5Destructor?3?5Character?5is?5o@
	call	??$?6U?$char_traits@D@std@@@std@@YAAEAV?$basic_ostream@DU?$char_traits@D@std@@@0@AEAV10@PEBD@Z ; std::operator<<<std::char_traits<char> >
	lea	rdx, OFFSET FLAT:??$endl@DU?$char_traits@D@std@@@std@@YAAEAV?$basic_ostream@DU?$char_traits@D@std@@@0@AEAV10@@Z ; std::endl<char,std::char_traits<char> >
	mov	rcx, rax
	call	QWORD PTR __imp_??6?$basic_ostream@DU?$char_traits@D@std@@@std@@QEAAAEAV01@P6AAEAV01@AEAV01@@Z@Z
$LN4@User:
; Line 27
	xor	eax, eax
	mov	QWORD PTR [rbx+96], rax
; Line 28
	mov	QWORD PTR [rbx+104], rax
; Line 29
	mov	QWORD PTR [rbx+112], rax
; Line 30
	mov	QWORD PTR [rbx+120], rax
; Line 31
	mov	QWORD PTR [rbx+128], rax
; Line 32
	mov	QWORD PTR [rbx+136], rax
; Line 33
	mov	QWORD PTR [rbx+144], rax
; Line 34
	mov	QWORD PTR [rbx+152], rax
$LN2@User:
; Line 36
	add	rsp, 32					; 00000020H
	pop	rbx
	ret	0
??1User@@QEAA@XZ ENDP					; User::~User
_TEXT	ENDS
; Function compile flags: /Ogtpy
;	COMDAT ??0User@@QEAA@PEAUGLFWwindow@@@Z
_TEXT	SEGMENT
this$ = 48
win$ = 56
??0User@@QEAA@PEAUGLFWwindow@@@Z PROC			; User::User, COMDAT
; File C:\Users\RedDragon\Documents\Recubin\src\Core\User.cpp
; Line 13
$LN18:
	push	rbx
	sub	rsp, 32					; 00000020H
	mov	rbx, rcx
; Line 5
	mov	QWORD PTR [rcx], rdx
; File C:\Users\RedDragon\Documents\Recubin\include\Core\User.hpp
; Line 26
	xor	edx, edx
	mov	DWORD PTR [rcx+8], 1028443341		; 3d4ccccdH
; File C:\Users\RedDragon\Documents\Recubin\include\Math\Vector3.hpp
; Line 39
	mov	QWORD PTR [rcx+32], rdx
; Line 41
	mov	DWORD PTR [rcx+40], edx
; File C:\Users\RedDragon\Documents\Recubin\src\Core\User.cpp
; Line 12
	mov	BYTE PTR [rcx+44], dl
	mov	DWORD PTR [rcx+12], 1084227584		; 40a00000H
	mov	DWORD PTR [rcx+16], 1065353216		; 3f800000H
	mov	DWORD PTR [rcx+20], 1092616192		; 41200000H
	mov	QWORD PTR [rcx+24], 1036831949		; 3dcccccdH
; Line 13
	add	rcx, 48					; 00000030H
	lea	rax, QWORD PTR [rcx+16]
; Line 6
	mov	QWORD PTR [rbx+80], rcx
; File C:\Users\RedDragon\Documents\Recubin\include\Math\Vector3.hpp
; Line 39
	mov	DWORD PTR [rax], edx
; Line 40
	mov	DWORD PTR [rax+4], -1073741824		; c0000000H
; File C:\Users\RedDragon\Documents\Recubin\include\Math\Quaternion.hpp
; Line 8
	mov	QWORD PTR [rcx], 1065353216		; 3f800000H
	mov	QWORD PTR [rcx+8], rdx
; File C:\Users\RedDragon\Documents\Recubin\src\Core\User.cpp
; Line 14
	mov	rcx, rbx
; File C:\Users\RedDragon\Documents\Recubin\include\Math\Vector3.hpp
; Line 41
	mov	DWORD PTR [rax+8], 1084227584		; 40a00000H
; File C:\Users\RedDragon\Documents\Recubin\src\Core\User.cpp
; Line 7
	mov	QWORD PTR [rbx+88], rax
; File C:\Users\RedDragon\Documents\Recubin\include\Core\User.hpp
; Line 33
	mov	QWORD PTR [rbx+96], rdx
; Line 34
	mov	QWORD PTR [rbx+104], rdx
; Line 35
	mov	QWORD PTR [rbx+112], rdx
; Line 36
	mov	QWORD PTR [rbx+120], rdx
; Line 37
	mov	QWORD PTR [rbx+128], rdx
; Line 38
	mov	QWORD PTR [rbx+136], rdx
; Line 39
	mov	QWORD PTR [rbx+144], rdx
; Line 40
	mov	QWORD PTR [rbx+152], rdx
; Line 45
	mov	QWORD PTR [rbx+160], rdx
; File C:\Users\RedDragon\Documents\Recubin\include\Math\Vector3.hpp
; Line 40
	mov	DWORD PTR [rbx+168], edx
; Line 41
	mov	DWORD PTR [rbx+172], -1082130432	; bf800000H
; Line 39
	mov	QWORD PTR [rbx+176], 1065353216		; 3f800000H
; Line 41
	mov	QWORD PTR [rbx+184], rdx
; Line 40
	mov	QWORD PTR [rbx+192], 1065353216		; 3f800000H
; File C:\Users\RedDragon\Documents\Recubin\include\Core\User.hpp
; Line 51
	mov	BYTE PTR [rbx+200], dl
; File C:\Users\RedDragon\Documents\Recubin\src\Core\User.cpp
; Line 14
	call	?updateVectors@User@@QEAAXXZ		; User::updateVectors
; Line 15
	mov	rax, rbx
	add	rsp, 32					; 00000020H
	pop	rbx
	ret	0
??0User@@QEAA@PEAUGLFWwindow@@@Z ENDP			; User::User
_TEXT	ENDS
; Function compile flags: /Ogtpy
;	COMDAT ??0camera@@QEAA@XZ
_TEXT	SEGMENT
this$ = 8
??0camera@@QEAA@XZ PROC					; camera::camera, COMDAT
; File C:\Users\RedDragon\Documents\Recubin\include\Math\Quaternion.hpp
; Line 8
	xor	eax, eax
	mov	QWORD PTR [rcx], 1065353216		; 3f800000H
	mov	QWORD PTR [rcx+8], rax
; File C:\Users\RedDragon\Documents\Recubin\include\Math\Vector3.hpp
; Line 39
	mov	DWORD PTR [rcx+16], eax
	mov	rax, rcx
; Line 40
	mov	DWORD PTR [rcx+20], -1073741824		; c0000000H
; Line 41
	mov	DWORD PTR [rcx+24], 1084227584		; 40a00000H
	ret	0
??0camera@@QEAA@XZ ENDP					; camera::camera
_TEXT	ENDS
; Function compile flags: /Ogtpy
;	COMDAT ??$?8DU?$char_traits@D@std@@V?$allocator@D@1@@std@@YA_NAEBV?$basic_string@DU?$char_traits@D@std@@V?$allocator@D@2@@0@QEBD@Z
_TEXT	SEGMENT
_Left$ = 48
_Right$ = 56
??$?8DU?$char_traits@D@std@@V?$allocator@D@1@@std@@YA_NAEBV?$basic_string@DU?$char_traits@D@std@@V?$allocator@D@2@@0@QEBD@Z PROC ; std::operator==<char,std::char_traits<char>,std::allocator<char> >, COMDAT
; File C:\Program Files\Microsoft Visual Studio\18\Community\VC\Tools\MSVC\14.50.35717\include\xstring
; Line 3352
$LN31:
	mov	QWORD PTR [rsp+8], rbx
	push	rdi
	sub	rsp, 32					; 00000020H
	mov	rbx, rcx
	mov	rdi, rdx
; File C:\Program Files\Microsoft Visual Studio\18\Community\VC\Tools\MSVC\14.50.35717\include\__msvc_string_view.hpp
; Line 530
	mov	rcx, rdx
	call	strlen
; File C:\Program Files\Microsoft Visual Studio\18\Community\VC\Tools\MSVC\14.50.35717\include\xstring
; Line 445
	cmp	QWORD PTR [rbx+24], 15
; Line 2761
	mov	r8, QWORD PTR [rbx+16]
; Line 445
	jbe	SHORT $LN25@operator
; Line 446
	mov	rbx, QWORD PTR [rbx]
$LN25@operator:
; File C:\Program Files\Microsoft Visual Studio\18\Community\VC\Tools\MSVC\14.50.35717\include\__msvc_string_view.hpp
; Line 673
	cmp	r8, rax
	je	SHORT $LN18@operator
; File C:\Program Files\Microsoft Visual Studio\18\Community\VC\Tools\MSVC\14.50.35717\include\xstring
; Line 3353
	xor	al, al
; Line 3354
	mov	rbx, QWORD PTR [rsp+48]
	add	rsp, 32					; 00000020H
	pop	rdi
	ret	0
$LN18@operator:
; File C:\Program Files\Microsoft Visual Studio\18\Community\VC\Tools\MSVC\14.50.35717\include\__msvc_string_view.hpp
; Line 677
	test	r8, r8
	jne	SHORT $LN19@operator
; File C:\Program Files\Microsoft Visual Studio\18\Community\VC\Tools\MSVC\14.50.35717\include\xstring
; Line 3353
	mov	al, 1
; Line 3354
	mov	rbx, QWORD PTR [rsp+48]
	add	rsp, 32					; 00000020H
	pop	rdi
	ret	0
$LN19@operator:
; File C:\Program Files\Microsoft Visual Studio\18\Community\VC\Tools\MSVC\14.50.35717\include\__msvc_string_view.hpp
; Line 511
	mov	rdx, rdi
	mov	rcx, rbx
	call	memcmp
; File C:\Program Files\Microsoft Visual Studio\18\Community\VC\Tools\MSVC\14.50.35717\include\xstring
; Line 3354
	mov	rbx, QWORD PTR [rsp+48]
; File C:\Program Files\Microsoft Visual Studio\18\Community\VC\Tools\MSVC\14.50.35717\include\__msvc_string_view.hpp
; Line 681
	test	eax, eax
	sete	al
; File C:\Program Files\Microsoft Visual Studio\18\Community\VC\Tools\MSVC\14.50.35717\include\xstring
; Line 3354
	add	rsp, 32					; 00000020H
	pop	rdi
	ret	0
??$?8DU?$char_traits@D@std@@V?$allocator@D@1@@std@@YA_NAEBV?$basic_string@DU?$char_traits@D@std@@V?$allocator@D@2@@0@QEBD@Z ENDP ; std::operator==<char,std::char_traits<char>,std::allocator<char> >
_TEXT	ENDS
; Function compile flags: /Ogtpy
;	COMDAT ??_GModel@@UEAAPEAXI@Z
_TEXT	SEGMENT
this$ = 48
__flags$ = 56
??_GModel@@UEAAPEAXI@Z PROC				; Model::`scalar deleting destructor', COMDAT
$LN19:
	mov	QWORD PTR [rsp+8], rbx
	push	rdi
	sub	rsp, 32					; 00000020H
	mov	ebx, edx
	mov	rdi, rcx
	call	??1Instance@@UEAA@XZ			; Instance::~Instance
	test	bl, 1
	je	SHORT $LN15@scalar
	mov	edx, 168				; 000000a8H
	mov	rcx, rdi
	call	??3@YAXPEAX_K@Z				; operator delete
$LN15@scalar:
	mov	rbx, QWORD PTR [rsp+48]
	mov	rax, rdi
	add	rsp, 32					; 00000020H
	pop	rdi
	ret	0
??_GModel@@UEAAPEAXI@Z ENDP				; Model::`scalar deleting destructor'
_TEXT	ENDS
; Function compile flags: /Ogtpy
;	COMDAT ??1Model@@UEAA@XZ
_TEXT	SEGMENT
this$ = 8
??1Model@@UEAA@XZ PROC					; Model::~Model, COMDAT
	jmp	??1Instance@@UEAA@XZ			; Instance::~Instance
??1Model@@UEAA@XZ ENDP					; Model::~Model
_TEXT	ENDS
; Function compile flags: /Ogtpy
;	COMDAT ?IsA@Model@@UEAA_NV?$basic_string@DU?$char_traits@D@std@@V?$allocator@D@2@@std@@@Z
_TEXT	SEGMENT
$T1 = 40
name$GSCopy$ = 72
__$ArrayPad$ = 80
this$ = 112
name$ = 120
?IsA@Model@@UEAA_NV?$basic_string@DU?$char_traits@D@std@@V?$allocator@D@2@@std@@@Z PROC ; Model::IsA, COMDAT
; File C:\Users\RedDragon\Documents\Recubin\include\Instances\Model.hpp
; Line 8
$LN44:
	mov	QWORD PTR [rsp+24], rbx
	push	rdi
	sub	rsp, 96					; 00000060H
	mov	rax, QWORD PTR __security_cookie
	xor	rax, rsp
	mov	QWORD PTR __$ArrayPad$[rsp], rax
	mov	rdi, rdx
	mov	rbx, rcx
	mov	QWORD PTR name$GSCopy$[rsp], rdx
; File C:\Program Files\Microsoft Visual Studio\18\Community\VC\Tools\MSVC\14.50.35717\include\xstring
; Line 445
	cmp	QWORD PTR [rdx+24], 15
	jbe	SHORT $LN40@IsA
; Line 446
	mov	rax, QWORD PTR [rdx]
	jmp	SHORT $LN16@IsA
$LN40@IsA:
; Line 444
	mov	rax, rdi
$LN16@IsA:
; File C:\Program Files\Microsoft Visual Studio\18\Community\VC\Tools\MSVC\14.50.35717\include\__msvc_string_view.hpp
; Line 673
	cmp	QWORD PTR [rdx+16], 5
	jne	SHORT $LN2@IsA
; Line 511
	mov	ecx, DWORD PTR [rax]
	sub	ecx, 1701080909				; 65646f4dH
	jne	SHORT $LN41@IsA
	movzx	ecx, BYTE PTR [rax+4]
	sub	ecx, 108				; 0000006cH
$LN41@IsA:
; Line 681
	test	ecx, ecx
; File C:\Users\RedDragon\Documents\Recubin\include\Instances\Model.hpp
; Line 9
	jne	SHORT $LN2@IsA
; File C:\Program Files\Microsoft Visual Studio\18\Community\VC\Tools\MSVC\14.50.35717\include\xstring
; Line 1433
	mov	rcx, rdi
	call	?_Tidy_deallocate@?$basic_string@DU?$char_traits@D@std@@V?$allocator@D@2@@std@@AEAAXXZ ; std::basic_string<char,std::char_traits<char>,std::allocator<char> >::_Tidy_deallocate
; File C:\Users\RedDragon\Documents\Recubin\include\Instances\Model.hpp
; Line 9
	mov	al, 1
	jmp	SHORT $LN1@IsA
$LN2@IsA:
; Line 10
	lea	rcx, QWORD PTR $T1[rsp]
	call	??0?$basic_string@DU?$char_traits@D@std@@V?$allocator@D@2@@std@@QEAA@AEBV01@@Z ; std::basic_string<char,std::char_traits<char>,std::allocator<char> >::basic_string<char,std::char_traits<char>,std::allocator<char> >
	mov	rdx, rax
	mov	rcx, rbx
	call	?IsA@Spatial@@UEAA_NV?$basic_string@DU?$char_traits@D@std@@V?$allocator@D@2@@std@@@Z ; Spatial::IsA
	movzx	ebx, al
; File C:\Program Files\Microsoft Visual Studio\18\Community\VC\Tools\MSVC\14.50.35717\include\xstring
; Line 1433
	mov	rcx, rdi
	call	?_Tidy_deallocate@?$basic_string@DU?$char_traits@D@std@@V?$allocator@D@2@@std@@AEAAXXZ ; std::basic_string<char,std::char_traits<char>,std::allocator<char> >::_Tidy_deallocate
; File C:\Users\RedDragon\Documents\Recubin\include\Instances\Model.hpp
; Line 10
	movzx	eax, bl
$LN1@IsA:
; Line 11
	mov	rcx, QWORD PTR __$ArrayPad$[rsp]
	xor	rcx, rsp
	call	__security_check_cookie
	mov	rbx, QWORD PTR [rsp+128]
	add	rsp, 96					; 00000060H
	pop	rdi
	ret	0
?IsA@Model@@UEAA_NV?$basic_string@DU?$char_traits@D@std@@V?$allocator@D@2@@std@@@Z ENDP ; Model::IsA
_TEXT	ENDS
; Function compile flags: /Ogtpy
;	COMDAT text$x
text$x	SEGMENT
$T1 = 40
name$GSCopy$ = 72
__$ArrayPad$ = 80
this$ = 112
name$ = 120
?dtor$0@?0??IsA@Model@@UEAA_NV?$basic_string@DU?$char_traits@D@std@@V?$allocator@D@2@@std@@@Z@4HA PROC ; `Model::IsA'::`1'::dtor$0
	mov	rcx, QWORD PTR name$GSCopy$[rdx]
