; Listing generated by Microsoft (R) Optimizing Compiler Version 19.50.35727.0 

include listing.inc

INCLUDELIB MSVCRT
INCLUDELIB OLDNAMES

PUBLIC	_Avx2WmemEnabledWeakValue
;	COMDAT _Avx2WmemEnabledWeakValue
_BSS	SEGMENT
_Avx2WmemEnabledWeakValue DD 01H DUP (?)
_BSS	ENDS
PUBLIC	??2@YAPEAX_KPEAX@Z				; operator new
PUBLIC	?is_constant_evaluated@std@@YA_NXZ		; std::is_constant_evaluated
PUBLIC	wmemcpy
PUBLIC	?copy@?$_Char_traits@DH@std@@SAPEADQEADQEBD_K@Z	; std::_Char_traits<char,int>::copy
PUBLIC	?compare@?$_Narrow_char_traits@DH@std@@SAHQEBD0_K@Z ; std::_Narrow_char_traits<char,int>::compare
PUBLIC	?length@?$_Narrow_char_traits@DH@std@@SA_KQEBD@Z ; std::_Narrow_char_traits<char,int>::length
PUBLIC	?assign@?$_Narrow_char_traits@DH@std@@SAXAEADAEBD@Z ; std::_Narrow_char_traits<char,int>::assign
PUBLIC	??$min@_K@std@@YAAEB_KAEB_K0@Z			; std::min<unsigned __int64>
PUBLIC	??0exception@std@@QEAA@QEBDH@Z			; std::exception::exception
PUBLIC	??0exception@std@@QEAA@AEBV01@@Z		; std::exception::exception
PUBLIC	??1exception@std@@UEAA@XZ			; std::exception::~exception
PUBLIC	?what@exception@std@@UEBAPEBDXZ			; std::exception::what
PUBLIC	??_Gexception@std@@UEAAPEAXI@Z			; std::exception::`scalar deleting destructor'
PUBLIC	??0bad_alloc@std@@AEAA@QEBD@Z			; std::bad_alloc::bad_alloc
PUBLIC	??1bad_alloc@std@@UEAA@XZ			; std::bad_alloc::~bad_alloc
PUBLIC	??0bad_alloc@std@@QEAA@AEBV01@@Z		; std::bad_alloc::bad_alloc
PUBLIC	??_Gbad_alloc@std@@UEAAPEAXI@Z			; std::bad_alloc::`scalar deleting destructor'
PUBLIC	??0bad_array_new_length@std@@QEAA@XZ		; std::bad_array_new_length::bad_array_new_length
PUBLIC	??1bad_array_new_length@std@@UEAA@XZ		; std::bad_array_new_length::~bad_array_new_length
PUBLIC	??0bad_array_new_length@std@@QEAA@AEBV01@@Z	; std::bad_array_new_length::bad_array_new_length
PUBLIC	??_Gbad_array_new_length@std@@UEAAPEAXI@Z	; std::bad_array_new_length::`scalar deleting destructor'
PUBLIC	?_Throw_bad_array_new_length@std@@YAXXZ		; std::_Throw_bad_array_new_length
PUBLIC	?_Allocate@_Default_allocate_traits@std@@SAPEAX_K@Z ; std::_Default_allocate_traits::_Allocate
PUBLIC	?_Adjust_manually_vector_aligned@std@@YAXAEAPEAXAEA_K@Z ; std::_Adjust_manually_vector_aligned
PUBLIC	?_Orphan_all@_Container_base0@std@@QEAAXXZ	; std::_Container_base0::_Orphan_all
PUBLIC	?_Alloc_proxy@_Container_base0@std@@QEAAXAEBU_Fake_allocator@2@@Z ; std::_Container_base0::_Alloc_proxy
PUBLIC	?_Adopt@_Iterator_base0@std@@QEAAXPEBX@Z	; std::_Iterator_base0::_Adopt
PUBLIC	??0_Fake_proxy_ptr_impl@std@@QEAA@AEBU_Fake_allocator@1@AEBU_Container_base0@1@@Z ; std::_Fake_proxy_ptr_impl::_Fake_proxy_ptr_impl
PUBLIC	?_Release@_Fake_proxy_ptr_impl@std@@QEAAXXZ	; std::_Fake_proxy_ptr_impl::_Release
PUBLIC	?_Xlen_string@std@@YAXXZ			; std::_Xlen_string
PUBLIC	??0?$allocator@D@std@@QEAA@XZ			; std::allocator<char>::allocator<char>
PUBLIC	?deallocate@?$allocator@D@std@@QEAAXQEAD_K@Z	; std::allocator<char>::deallocate
PUBLIC	?allocate@?$allocator@D@std@@QEAAPEAD_K@Z	; std::allocator<char>::allocate
PUBLIC	?max_size@?$_Default_allocator_traits@V?$allocator@D@std@@@std@@SA_KAEBV?$allocator@D@2@@Z ; std::_Default_allocator_traits<std::allocator<char> >::max_size
PUBLIC	?select_on_container_copy_construction@?$_Default_allocator_traits@V?$allocator@D@std@@@std@@SA?AV?$allocator@D@2@AEBV32@@Z ; std::_Default_allocator_traits<std::allocator<char> >::select_on_container_copy_construction
PUBLIC	??0?$_String_val@U?$_Simple_types@D@std@@@std@@QEAA@XZ ; std::_String_val<std::_Simple_types<char> >::_String_val<std::_Simple_types<char> >
PUBLIC	?_Myptr@?$_String_val@U?$_Simple_types@D@std@@@std@@QEBAPEBDXZ ; std::_String_val<std::_Simple_types<char> >::_Myptr
PUBLIC	?_Large_mode_engaged@?$_String_val@U?$_Simple_types@D@std@@@std@@QEBA_NXZ ; std::_String_val<std::_Simple_types<char> >::_Large_mode_engaged
PUBLIC	??0_Bxty@?$_String_val@U?$_Simple_types@D@std@@@std@@QEAA@XZ ; std::_String_val<std::_Simple_types<char> >::_Bxty::_Bxty
PUBLIC	??1_Bxty@?$_String_val@U?$_Simple_types@D@std@@@std@@QEAA@XZ ; std::_String_val<std::_Simple_types<char> >::_Bxty::~_Bxty
PUBLIC	?_Switch_to_buf@_Bxty@?$_String_val@U?$_Simple_types@D@std@@@std@@QEAAXXZ ; std::_String_val<std::_Simple_types<char> >::_Bxty::_Switch_to_buf
PUBLIC	??1?$_String_val@U?$_Simple_types@D@std@@@std@@QEAA@XZ ; std::_String_val<std::_Simple_types<char> >::~_String_val<std::_Simple_types<char> >
PUBLIC	??0?$basic_string@DU?$char_traits@D@std@@V?$allocator@D@2@@std@@QEAA@AEBV01@@Z ; std::basic_string<char,std::char_traits<char>,std::allocator<char> >::basic_string<char,std::char_traits<char>,std::allocator<char> >
PUBLIC	??0?$basic_string@DU?$char_traits@D@std@@V?$allocator@D@2@@std@@QEAA@QEBD@Z ; std::basic_string<char,std::char_traits<char>,std::allocator<char> >::basic_string<char,std::char_traits<char>,std::allocator<char> >
PUBLIC	?_Deallocate_for_capacity@?$basic_string@DU?$char_traits@D@std@@V?$allocator@D@2@@std@@CAXAEAV?$allocator@D@2@QEAD_K@Z ; std::basic_string<char,std::char_traits<char>,std::allocator<char> >::_Deallocate_for_capacity
PUBLIC	??1?$basic_string@DU?$char_traits@D@std@@V?$allocator@D@2@@std@@QEAA@XZ ; std::basic_string<char,std::char_traits<char>,std::allocator<char> >::~basic_string<char,std::char_traits<char>,std::allocator<char> >
PUBLIC	?max_size@?$basic_string@DU?$char_traits@D@std@@V?$allocator@D@2@@std@@QEBA_KXZ ; std::basic_string<char,std::char_traits<char>,std::allocator<char> >::max_size
PUBLIC	?_Equal@?$basic_string@DU?$char_traits@D@std@@V?$allocator@D@2@@std@@QEBA_NQEBD@Z ; std::basic_string<char,std::char_traits<char>,std::allocator<char> >::_Equal
PUBLIC	?_Calculate_growth@?$basic_string@DU?$char_traits@D@std@@V?$allocator@D@2@@std@@CA_K_K00@Z ; std::basic_string<char,std::char_traits<char>,std::allocator<char> >::_Calculate_growth
PUBLIC	?_Tidy_deallocate@?$basic_string@DU?$char_traits@D@std@@V?$allocator@D@2@@std@@AEAAXXZ ; std::basic_string<char,std::char_traits<char>,std::allocator<char> >::_Tidy_deallocate
PUBLIC	?_Getal@?$basic_string@DU?$char_traits@D@std@@V?$allocator@D@2@@std@@AEAAAEAV?$allocator@D@2@XZ ; std::basic_string<char,std::char_traits<char>,std::allocator<char> >::_Getal
PUBLIC	?_Getal@?$basic_string@DU?$char_traits@D@std@@V?$allocator@D@2@@std@@AEBAAEBV?$allocator@D@2@XZ ; std::basic_string<char,std::char_traits<char>,std::allocator<char> >::_Getal
PUBLIC	?_Get_first@?$_Compressed_pair@V?$allocator@D@std@@V?$_String_val@U?$_Simple_types@D@std@@@2@$00@std@@QEAAAEAV?$allocator@D@2@XZ ; std::_Compressed_pair<std::allocator<char>,std::_String_val<std::_Simple_types<char> >,1>::_Get_first
PUBLIC	?_Get_first@?$_Compressed_pair@V?$allocator@D@std@@V?$_String_val@U?$_Simple_types@D@std@@@2@$00@std@@QEBAAEBV?$allocator@D@2@XZ ; std::_Compressed_pair<std::allocator<char>,std::_String_val<std::_Simple_types<char> >,1>::_Get_first
PUBLIC	??1?$_Compressed_pair@V?$allocator@D@std@@V?$_String_val@U?$_Simple_types@D@std@@@2@$00@std@@QEAA@XZ ; std::_Compressed_pair<std::allocator<char>,std::_String_val<std::_Simple_types<char> >,1>::~_Compressed_pair<std::allocator<char>,std::_String_val<std::_Simple_types<char> >,1>
PUBLIC	?_Maklocwcs@std@@YAPEA_WPEB_W@Z			; std::_Maklocwcs
PUBLIC	??$_Max_limit@_J@std@@YA_JXZ			; std::_Max_limit<__int64>
PUBLIC	??$_Getvals@_W@?$time_get@DV?$istreambuf_iterator@DU?$char_traits@D@std@@@std@@@std@@IEAAX_WAEBV_Locinfo@1@@Z ; std::time_get<char,std::istreambuf_iterator<char,std::char_traits<char> > >::_Getvals<wchar_t>
PUBLIC	??$_Getvals@_W@?$time_get@_WV?$istreambuf_iterator@_WU?$char_traits@_W@std@@@std@@@std@@IEAAX_WAEBV_Locinfo@1@@Z ; std::time_get<wchar_t,std::istreambuf_iterator<wchar_t,std::char_traits<wchar_t> > >::_Getvals<wchar_t>
PUBLIC	?registerScript@Workspace@@AEAAXPEAVInstance@@@Z ; Workspace::registerScript
PUBLIC	?unregisterScript@Workspace@@AEAAXPEAVInstance@@@Z ; Workspace::unregisterScript
PUBLIC	?registerCube@Workspace@@AEAAXPEAVInstance@@@Z	; Workspace::registerCube
PUBLIC	??0?$allocator@PEAVInstance@@@std@@QEAA@XZ	; std::allocator<Instance *>::allocator<Instance *>
PUBLIC	?deallocate@?$allocator@PEAVInstance@@@std@@QEAAXQEAPEAVInstance@@_K@Z ; std::allocator<Instance *>::deallocate
PUBLIC	?allocate@?$allocator@PEAVInstance@@@std@@QEAAPEAPEAVInstance@@_K@Z ; std::allocator<Instance *>::allocate
PUBLIC	?max_size@?$_Default_allocator_traits@V?$allocator@PEAVInstance@@@std@@@std@@SA_KAEBV?$allocator@PEAVInstance@@@2@@Z ; std::_Default_allocator_traits<std::allocator<Instance *> >::max_size
PUBLIC	??0?$vector@PEAVInstance@@V?$allocator@PEAVInstance@@@std@@@std@@QEAA@XZ ; std::vector<Instance *,std::allocator<Instance *> >::vector<Instance *,std::allocator<Instance *> >
PUBLIC	??1?$vector@PEAVInstance@@V?$allocator@PEAVInstance@@@std@@@std@@QEAA@XZ ; std::vector<Instance *,std::allocator<Instance *> >::~vector<Instance *,std::allocator<Instance *> >
PUBLIC	?push_back@?$vector@PEAVInstance@@V?$allocator@PEAVInstance@@@std@@@std@@QEAAXAEBQEAVInstance@@@Z ; std::vector<Instance *,std::allocator<Instance *> >::push_back
PUBLIC	?erase@?$vector@PEAVInstance@@V?$allocator@PEAVInstance@@@std@@@std@@QEAA?AV?$_Vector_iterator@V?$_Vector_val@U?$_Simple_types@PEAVInstance@@@std@@@std@@@2@V?$_Vector_const_iterator@V?$_Vector_val@U?$_Simple_types@PEAVInstance@@@std@@@std@@@2@0@Z ; std::vector<Instance *,std::allocator<Instance *> >::erase
PUBLIC	?begin@?$vector@PEAVInstance@@V?$allocator@PEAVInstance@@@std@@@std@@QEAA?AV?$_Vector_iterator@V?$_Vector_val@U?$_Simple_types@PEAVInstance@@@std@@@std@@@2@XZ ; std::vector<Instance *,std::allocator<Instance *> >::begin
PUBLIC	?end@?$vector@PEAVInstance@@V?$allocator@PEAVInstance@@@std@@@std@@QEAA?AV?$_Vector_iterator@V?$_Vector_val@U?$_Simple_types@PEAVInstance@@@std@@@std@@@2@XZ ; std::vector<Instance *,std::allocator<Instance *> >::end
PUBLIC	?max_size@?$vector@PEAVInstance@@V?$allocator@PEAVInstance@@@std@@@std@@QEBA_KXZ ; std::vector<Instance *,std::allocator<Instance *> >::max_size
PUBLIC	?capacity@?$vector@PEAVInstance@@V?$allocator@PEAVInstance@@@std@@@std@@QEBA_KXZ ; std::vector<Instance *,std::allocator<Instance *> >::capacity
PUBLIC	?_Calculate_growth@?$vector@PEAVInstance@@V?$allocator@PEAVInstance@@@std@@@std@@AEBA_K_K@Z ; std::vector<Instance *,std::allocator<Instance *> >::_Calculate_growth
PUBLIC	?_Change_array@?$vector@PEAVInstance@@V?$allocator@PEAVInstance@@@std@@@std@@AEAAXQEAPEAVInstance@@_K1@Z ; std::vector<Instance *,std::allocator<Instance *> >::_Change_array
PUBLIC	?_Tidy@?$vector@PEAVInstance@@V?$allocator@PEAVInstance@@@std@@@std@@AEAAXXZ ; std::vector<Instance *,std::allocator<Instance *> >::_Tidy
PUBLIC	?_Xlength@?$vector@PEAVInstance@@V?$allocator@PEAVInstance@@@std@@@std@@CAXXZ ; std::vector<Instance *,std::allocator<Instance *> >::_Xlength
PUBLIC	?_Orphan_range@?$vector@PEAVInstance@@V?$allocator@PEAVInstance@@@std@@@std@@AEBAXPEAPEAVInstance@@0@Z ; std::vector<Instance *,std::allocator<Instance *> >::_Orphan_range
PUBLIC	?_Getal@?$vector@PEAVInstance@@V?$allocator@PEAVInstance@@@std@@@std@@AEAAAEAV?$allocator@PEAVInstance@@@2@XZ ; std::vector<Instance *,std::allocator<Instance *> >::_Getal
PUBLIC	?_Getal@?$vector@PEAVInstance@@V?$allocator@PEAVInstance@@@std@@@std@@AEBAAEBV?$allocator@PEAVInstance@@@2@XZ ; std::vector<Instance *,std::allocator<Instance *> >::_Getal
PUBLIC	??0?$_Vector_val@U?$_Simple_types@PEAVInstance@@@std@@@std@@QEAA@XZ ; std::_Vector_val<std::_Simple_types<Instance *> >::_Vector_val<std::_Simple_types<Instance *> >
PUBLIC	?_Get_first@?$_Compressed_pair@V?$allocator@PEAVInstance@@@std@@V?$_Vector_val@U?$_Simple_types@PEAVInstance@@@std@@@2@$00@std@@QEAAAEAV?$allocator@PEAVInstance@@@2@XZ ; std::_Compressed_pair<std::allocator<Instance *>,std::_Vector_val<std::_Simple_types<Instance *> >,1>::_Get_first
PUBLIC	?_Get_first@?$_Compressed_pair@V?$allocator@PEAVInstance@@@std@@V?$_Vector_val@U?$_Simple_types@PEAVInstance@@@std@@@2@$00@std@@QEBAAEBV?$allocator@PEAVInstance@@@2@XZ ; std::_Compressed_pair<std::allocator<Instance *>,std::_Vector_val<std::_Simple_types<Instance *> >,1>::_Get_first
PUBLIC	??0Workspace@@QEAA@XZ				; Workspace::Workspace
PUBLIC	?GetClassName@Workspace@@UEAA?AV?$basic_string@DU?$char_traits@D@std@@V?$allocator@D@2@@std@@XZ ; Workspace::GetClassName
PUBLIC	?IsA@Workspace@@UEAA_NV?$basic_string@DU?$char_traits@D@std@@V?$allocator@D@2@@std@@@Z ; Workspace::IsA
PUBLIC	?buildTestSpace@Workspace@@QEAAXXZ		; Workspace::buildTestSpace
PUBLIC	??1Workspace@@UEAA@XZ				; Workspace::~Workspace
PUBLIC	??_GWorkspace@@UEAAPEAXI@Z			; Workspace::`scalar deleting destructor'
PUBLIC	??0?$_Vector_const_iterator@V?$_Vector_val@U?$_Simple_types@PEAVInstance@@@std@@@std@@@std@@QEAA@PEAPEAVInstance@@PEBU_Container_base0@1@@Z ; std::_Vector_const_iterator<std::_Vector_val<std::_Simple_types<Instance *> > >::_Vector_const_iterator<std::_Vector_val<std::_Simple_types<Instance *> > >
PUBLIC	?_Seek_to@?$_Vector_const_iterator@V?$_Vector_val@U?$_Simple_types@PEAVInstance@@@std@@@std@@@std@@QEAAXPEBQEAVInstance@@@Z ; std::_Vector_const_iterator<std::_Vector_val<std::_Simple_types<Instance *> > >::_Seek_to
PUBLIC	?_Unwrapped@?$_Vector_iterator@V?$_Vector_val@U?$_Simple_types@PEAVInstance@@@std@@@std@@@std@@QEBAPEAPEAVInstance@@XZ ; std::_Vector_iterator<std::_Vector_val<std::_Simple_types<Instance *> > >::_Unwrapped
PUBLIC	??0?$_Vector_iterator@V?$_Vector_val@U?$_Simple_types@PEAVInstance@@@std@@@std@@@std@@QEAA@PEAPEAVInstance@@PEBU_Container_base0@1@@Z ; std::_Vector_iterator<std::_Vector_val<std::_Simple_types<Instance *> > >::_Vector_iterator<std::_Vector_val<std::_Simple_types<Instance *> > >
PUBLIC	??$remove@V?$_Vector_iterator@V?$_Vector_val@U?$_Simple_types@PEAVInstance@@@std@@@std@@@std@@PEAVInstance@@@std@@YA?AV?$_Vector_iterator@V?$_Vector_val@U?$_Simple_types@PEAVInstance@@@std@@@std@@@0@V10@V10@AEBQEAVInstance@@@Z ; std::remove<std::_Vector_iterator<std::_Vector_val<std::_Simple_types<Instance *> > >,Instance *>
PUBLIC	??$?8DU?$char_traits@D@std@@V?$allocator@D@1@@std@@YA_NAEBV?$basic_string@DU?$char_traits@D@std@@V?$allocator@D@2@@0@QEBD@Z ; std::operator==<char,std::char_traits<char>,std::allocator<char> >
PUBLIC	??$_Get_unwrapped@AEAV?$_Vector_iterator@V?$_Vector_val@U?$_Simple_types@PEAVInstance@@@std@@@std@@@std@@@std@@YA?A_TAEAV?$_Vector_iterator@V?$_Vector_val@U?$_Simple_types@PEAVInstance@@@std@@@std@@@0@@Z ; std::_Get_unwrapped<std::_Vector_iterator<std::_Vector_val<std::_Simple_types<Instance *> > > &>
PUBLIC	??$_Adl_verify_range@V?$_Vector_iterator@V?$_Vector_val@U?$_Simple_types@PEAVInstance@@@std@@@std@@@std@@V12@@std@@YAXAEBV?$_Vector_iterator@V?$_Vector_val@U?$_Simple_types@PEAVInstance@@@std@@@std@@@0@0@Z ; std::_Adl_verify_range<std::_Vector_iterator<std::_Vector_val<std::_Simple_types<Instance *> > >,std::_Vector_iterator<std::_Vector_val<std::_Simple_types<Instance *> > > >
PUBLIC	??$_Get_unwrapped@AEBV?$_Vector_iterator@V?$_Vector_val@U?$_Simple_types@PEAVInstance@@@std@@@std@@@std@@@std@@YA?A_TAEBV?$_Vector_iterator@V?$_Vector_val@U?$_Simple_types@PEAVInstance@@@std@@@std@@@0@@Z ; std::_Get_unwrapped<std::_Vector_iterator<std::_Vector_val<std::_Simple_types<Instance *> > > const &>
PUBLIC	??$_Find_unchecked@PEAPEAVInstance@@PEAV1@@std@@YAPEAPEAVInstance@@PEAPEAV1@QEAPEAV1@AEBQEAV1@@Z ; std::_Find_unchecked<Instance * *,Instance *>
PUBLIC	??$_To_address@PEAPEAVInstance@@@std@@YA?A_PAEBQEAPEAVInstance@@@Z ; std::_To_address<Instance * *>
PUBLIC	??$to_address@PEAVInstance@@@std@@YAPEAPEAVInstance@@QEAPEAV1@@Z ; std::to_address<Instance *>
PUBLIC	??$_Remove_vectorized@PEAVInstance@@PEAV1@@std@@YAPEAPEAVInstance@@QEAPEAV1@0QEAV1@@Z ; std::_Remove_vectorized<Instance *,Instance *>
PUBLIC	??$_Seek_wrapped@V?$_Vector_iterator@V?$_Vector_val@U?$_Simple_types@PEAVInstance@@@std@@@std@@@std@@AEAPEAPEAVInstance@@@std@@YAXAEAV?$_Vector_iterator@V?$_Vector_val@U?$_Simple_types@PEAVInstance@@@std@@@std@@@0@AEAPEAPEAVInstance@@@Z ; std::_Seek_wrapped<std::_Vector_iterator<std::_Vector_val<std::_Simple_types<Instance *> > >,Instance * * &>
PUBLIC	??$move@AEAPEAVInstance@@@std@@YA$$QEAPEAVInstance@@AEAPEAV1@@Z ; std::move<Instance * &>
PUBLIC	??$addressof@V?$_Vector_val@U?$_Simple_types@PEAVInstance@@@std@@@std@@@std@@YAPEAV?$_Vector_val@U?$_Simple_types@PEAVInstance@@@std@@@0@AEAV10@@Z ; std::addressof<std::_Vector_val<std::_Simple_types<Instance *> > >
PUBLIC	??$_Move_unchecked@PEAPEAVInstance@@PEAPEAV1@@std@@YAPEAPEAVInstance@@PEAPEAV1@00@Z ; std::_Move_unchecked<Instance * *,Instance * *>
PUBLIC	??$_Destroy_range@V?$allocator@PEAVInstance@@@std@@@std@@YAXPEAPEAVInstance@@QEAPEAV1@AEAV?$allocator@PEAVInstance@@@0@@Z ; std::_Destroy_range<std::allocator<Instance *> >
PUBLIC	??$_Emplace_one_at_back@AEBQEAVInstance@@@?$vector@PEAVInstance@@V?$allocator@PEAVInstance@@@std@@@std@@AEAAAEAPEAVInstance@@AEBQEAV2@@Z ; std::vector<Instance *,std::allocator<Instance *> >::_Emplace_one_at_back<Instance * const &>
PUBLIC	??$?0$$V@?$_Compressed_pair@V?$allocator@PEAVInstance@@@std@@V?$_Vector_val@U?$_Simple_types@PEAVInstance@@@std@@@2@$00@std@@QEAA@U_Zero_then_variadic_args_t@1@@Z ; std::_Compressed_pair<std::allocator<Instance *>,std::_Vector_val<std::_Simple_types<Instance *> >,1>::_Compressed_pair<std::allocator<Instance *>,std::_Vector_val<std::_Simple_types<Instance *> >,1><>
PUBLIC	??$_Get_proxy_allocator@V?$allocator@PEAVInstance@@@std@@@std@@YA?AU_Fake_allocator@0@AEBV?$allocator@PEAVInstance@@@0@@Z ; std::_Get_proxy_allocator<std::allocator<Instance *> >
PUBLIC	??$_Unfancy@D@std@@YAPEADPEAD@Z			; std::_Unfancy<char>
PUBLIC	??$_Convert_size@_K_K@std@@YA_K_K@Z		; std::_Convert_size<unsigned __int64,unsigned __int64>
PUBLIC	??$?0V?$allocator@D@std@@$$V@?$_Compressed_pair@V?$allocator@D@std@@V?$_String_val@U?$_Simple_types@D@std@@@2@$00@std@@QEAA@U_One_then_variadic_args_t@1@$$QEAV?$allocator@D@1@@Z ; std::_Compressed_pair<std::allocator<char>,std::_String_val<std::_Simple_types<char> >,1>::_Compressed_pair<std::allocator<char>,std::_String_val<std::_Simple_types<char> >,1><std::allocator<char> >
PUBLIC	??$_Get_proxy_allocator@V?$allocator@D@std@@@std@@YA?AU_Fake_allocator@0@AEBV?$allocator@D@0@@Z ; std::_Get_proxy_allocator<std::allocator<char> >
PUBLIC	??$?0$$V@?$_Compressed_pair@V?$allocator@D@std@@V?$_String_val@U?$_Simple_types@D@std@@@2@$00@std@@QEAA@U_Zero_then_variadic_args_t@1@@Z ; std::_Compressed_pair<std::allocator<char>,std::_String_val<std::_Simple_types<char> >,1>::_Compressed_pair<std::allocator<char>,std::_String_val<std::_Simple_types<char> >,1><>
PUBLIC	??$_Construct@$00PEBD@?$basic_string@DU?$char_traits@D@std@@V?$allocator@D@2@@std@@AEAAXQEBD_K@Z ; std::basic_string<char,std::char_traits<char>,std::allocator<char> >::_Construct<1,char const *>
PUBLIC	??$_Construct@$01PEBD@?$basic_string@DU?$char_traits@D@std@@V?$allocator@D@2@@std@@AEAAXQEBD_K@Z ; std::basic_string<char,std::char_traits<char>,std::allocator<char> >::_Construct<2,char const *>
PUBLIC	??$_Allocate_for_capacity@$0A@@?$basic_string@DU?$char_traits@D@std@@V?$allocator@D@2@@std@@CAPEADAEAV?$allocator@D@1@AEA_K@Z ; std::basic_string<char,std::char_traits<char>,std::allocator<char> >::_Allocate_for_capacity<0>
PUBLIC	??$_Allocate_at_least_helper@V?$allocator@D@std@@@std@@YAPEADAEAV?$allocator@D@0@AEA_K@Z ; std::_Allocate_at_least_helper<std::allocator<char> >
PUBLIC	??$construct_at@D$$V@std@@YAPEADQEAD@Z		; std::construct_at<char>
PUBLIC	??$_Construct_in_place@PEADAEBQEAD@std@@YAXAEAPEADAEBQEAD@Z ; std::_Construct_in_place<char *,char * const &>
PUBLIC	??$max@_K@std@@YAAEB_KAEB_K0@Z			; std::max<unsigned __int64>
PUBLIC	??$_Could_compare_equal_to_value_type@PEAPEAVInstance@@PEAV1@@std@@YA_NAEBQEAVInstance@@@Z ; std::_Could_compare_equal_to_value_type<Instance * *,Instance *>
PUBLIC	??$_Find_vectorized@PEAVInstance@@PEAV1@@std@@YAPEAPEAVInstance@@QEAPEAV1@0QEAV1@@Z ; std::_Find_vectorized<Instance *,Instance *>
PUBLIC	??$forward@AEAPEAPEAVInstance@@@std@@YAAEAPEAPEAVInstance@@AEAPEAPEAV1@@Z ; std::forward<Instance * * &>
PUBLIC	??$_Copy_memmove@PEAPEAVInstance@@PEAPEAV1@@std@@YAPEAPEAVInstance@@PEAPEAV1@00@Z ; std::_Copy_memmove<Instance * *,Instance * *>
PUBLIC	??$forward@AEBQEAVInstance@@@std@@YAAEBQEAVInstance@@AEBQEAV1@@Z ; std::forward<Instance * const &>
PUBLIC	??$_Emplace_back_with_unused_capacity@AEBQEAVInstance@@@?$vector@PEAVInstance@@V?$allocator@PEAVInstance@@@std@@@std@@AEAAAEAPEAVInstance@@AEBQEAV2@@Z ; std::vector<Instance *,std::allocator<Instance *> >::_Emplace_back_with_unused_capacity<Instance * const &>
PUBLIC	??$_Emplace_reallocate@AEBQEAVInstance@@@?$vector@PEAVInstance@@V?$allocator@PEAVInstance@@@std@@@std@@AEAAPEAPEAVInstance@@QEAPEAV2@AEBQEAV2@@Z ; std::vector<Instance *,std::allocator<Instance *> >::_Emplace_reallocate<Instance * const &>
PUBLIC	??$_Traits_copy_batch@U?$char_traits@D@std@@D@std@@YAXQEADQEBD_K@Z ; std::_Traits_copy_batch<std::char_traits<char>,char>
PUBLIC	??$forward@V?$allocator@D@std@@@std@@YA$$QEAV?$allocator@D@0@AEAV10@@Z ; std::forward<std::allocator<char> >
PUBLIC	??$_Unfancy_maybe_null@PEAVInstance@@@std@@YAPEAPEAVInstance@@PEAPEAV1@@Z ; std::_Unfancy_maybe_null<Instance *>
PUBLIC	??$_Traits_equal@U?$char_traits@D@std@@@std@@YA_NQEBD_K01@Z ; std::_Traits_equal<std::char_traits<char> >
PUBLIC	??$addressof@PEAD@std@@YAPEAPEADAEAPEAD@Z	; std::addressof<char *>
PUBLIC	??$forward@AEBQEAD@std@@YAAEBQEADAEBQEAD@Z	; std::forward<char * const &>
PUBLIC	??$construct_at@PEADAEBQEAD@std@@YAPEAPEADQEAPEADAEBQEAD@Z ; std::construct_at<char *,char * const &>
PUBLIC	??$move@AEAPEAPEAVInstance@@@std@@YA$$QEAPEAPEAVInstance@@AEAPEAPEAV1@@Z ; std::move<Instance * * &>
PUBLIC	??$_Copy_memmove_tail@PEAPEAVInstance@@@std@@YAPEAPEAVInstance@@QEBDQEAPEAV1@_K2@Z ; std::_Copy_memmove_tail<Instance * *>
PUBLIC	??$_Construct_in_place@PEAVInstance@@AEBQEAV1@@std@@YAXAEAPEAVInstance@@AEBQEAV1@@Z ; std::_Construct_in_place<Instance *,Instance * const &>
PUBLIC	??$_Allocate_at_least_helper@V?$allocator@PEAVInstance@@@std@@@std@@YAPEAPEAVInstance@@AEAV?$allocator@PEAVInstance@@@0@AEA_K@Z ; std::_Allocate_at_least_helper<std::allocator<Instance *> >
PUBLIC	??1_Reallocation_guard@?$vector@PEAVInstance@@V?$allocator@PEAVInstance@@@std@@@std@@QEAA@XZ ; std::vector<Instance *,std::allocator<Instance *> >::_Reallocation_guard::~_Reallocation_guard
PUBLIC	??$_Unfancy@PEAVInstance@@@std@@YAPEAPEAVInstance@@PEAPEAV1@@Z ; std::_Unfancy<Instance *>
PUBLIC	??$construct@PEAVInstance@@AEBQEAV1@@?$_Default_allocator_traits@V?$allocator@PEAVInstance@@@std@@@std@@SAXAEAV?$allocator@PEAVInstance@@@1@QEAPEAVInstance@@AEBQEAV3@@Z ; std::_Default_allocator_traits<std::allocator<Instance *> >::construct<Instance *,Instance * const &>
PUBLIC	??$_Uninitialized_move@PEAPEAVInstance@@V?$allocator@PEAVInstance@@@std@@@std@@YAPEAPEAVInstance@@QEAPEAV1@0PEAPEAV1@AEAV?$allocator@PEAVInstance@@@0@@Z ; std::_Uninitialized_move<Instance * *,std::allocator<Instance *> >
PUBLIC	??$_Refancy_maybe_null@PEAPEAVInstance@@$0A@@std@@YAPEAPEAVInstance@@PEAPEAV1@@Z ; std::_Refancy_maybe_null<Instance * *,0>
PUBLIC	??$_Deallocate@$0BA@@std@@YAXPEAX_K@Z		; std::_Deallocate<16>
PUBLIC	??$_Destroy_in_place@PEAD@std@@YAXAEAPEAD@Z	; std::_Destroy_in_place<char *>
PUBLIC	??$addressof@PEAVInstance@@@std@@YAPEAPEAVInstance@@AEAPEAV1@@Z ; std::addressof<Instance *>
PUBLIC	??$construct_at@PEAVInstance@@AEBQEAV1@@std@@YAPEAPEAVInstance@@QEAPEAV1@AEBQEAV1@@Z ; std::construct_at<Instance *,Instance * const &>
PUBLIC	??$_Get_unwrapped@AEBQEAPEAVInstance@@@std@@YA?A_TAEBQEAPEAVInstance@@@Z ; std::_Get_unwrapped<Instance * * const &>
PUBLIC	??0?$_Uninitialized_backout_al@V?$allocator@PEAVInstance@@@std@@@std@@QEAA@PEAPEAVInstance@@AEAV?$allocator@PEAVInstance@@@1@@Z ; std::_Uninitialized_backout_al<std::allocator<Instance *> >::_Uninitialized_backout_al<std::allocator<Instance *> >
PUBLIC	??1?$_Uninitialized_backout_al@V?$allocator@PEAVInstance@@@std@@@std@@QEAA@XZ ; std::_Uninitialized_backout_al<std::allocator<Instance *> >::~_Uninitialized_backout_al<std::allocator<Instance *> >
PUBLIC	?_Release@?$_Uninitialized_backout_al@V?$allocator@PEAVInstance@@@std@@@std@@QEAAPEAPEAVInstance@@XZ ; std::_Uninitialized_backout_al<std::allocator<Instance *> >::_Release
PUBLIC	??$_Emplace_back@PEAVInstance@@@?$_Uninitialized_backout_al@V?$allocator@PEAVInstance@@@std@@@std@@QEAAX$$QEAPEAVInstance@@@Z ; std::_Uninitialized_backout_al<std::allocator<Instance *> >::_Emplace_back<Instance *>
PUBLIC	??$_Allocate@$0BA@U_Default_allocate_traits@std@@@std@@YAPEAX_K@Z ; std::_Allocate<16,std::_Default_allocate_traits>
PUBLIC	??$_Get_size_of_n@$00@std@@YA_K_K@Z		; std::_Get_size_of_n<1>
PUBLIC	??$forward@PEAVInstance@@@std@@YA$$QEAPEAVInstance@@AEAPEAV1@@Z ; std::forward<Instance *>
PUBLIC	??$construct@PEAVInstance@@PEAV1@@?$_Default_allocator_traits@V?$allocator@PEAVInstance@@@std@@@std@@SAXAEAV?$allocator@PEAVInstance@@@1@QEAPEAVInstance@@$$QEAPEAV3@@Z ; std::_Default_allocator_traits<std::allocator<Instance *> >::construct<Instance *,Instance *>
PUBLIC	??$_Allocate_manually_vector_aligned@U_Default_allocate_traits@std@@@std@@YAPEAX_K@Z ; std::_Allocate_manually_vector_aligned<std::_Default_allocate_traits>
PUBLIC	??$_Get_size_of_n@$07@std@@YA_K_K@Z		; std::_Get_size_of_n<8>
PUBLIC	??$construct_at@PEAVInstance@@PEAV1@@std@@YAPEAPEAVInstance@@QEAPEAV1@$$QEAPEAV1@@Z ; std::construct_at<Instance *,Instance *>
PUBLIC	??_7exception@std@@6B@				; std::exception::`vftable'
PUBLIC	??_C@_0BC@EOODALEL@Unknown?5exception@		; `string'
PUBLIC	??_7bad_alloc@std@@6B@				; std::bad_alloc::`vftable'
PUBLIC	??_7bad_array_new_length@std@@6B@		; std::bad_array_new_length::`vftable'
PUBLIC	??_C@_0BF@KINCDENJ@bad?5array?5new?5length@	; `string'
PUBLIC	??_R0?AVexception@std@@@8			; std::exception `RTTI Type Descriptor'
PUBLIC	_CT??_R0?AVexception@std@@@8??0exception@std@@QEAA@AEBV01@@Z24
PUBLIC	_TI3?AVbad_array_new_length@std@@
PUBLIC	_CTA3?AVbad_array_new_length@std@@
PUBLIC	??_R0?AVbad_array_new_length@std@@@8		; std::bad_array_new_length `RTTI Type Descriptor'
PUBLIC	_CT??_R0?AVbad_array_new_length@std@@@8??0bad_array_new_length@std@@QEAA@AEBV01@@Z24
PUBLIC	??_R0?AVbad_alloc@std@@@8			; std::bad_alloc `RTTI Type Descriptor'
PUBLIC	_CT??_R0?AVbad_alloc@std@@@8??0bad_alloc@std@@QEAA@AEBV01@@Z24
PUBLIC	??_C@_0BA@JFNIOLAK@string?5too?5long@		; `string'
PUBLIC	??_7Workspace@@6B@				; Workspace::`vftable'
PUBLIC	??_C@_09GEGCPGC@Workspace@			; `string'
PUBLIC	??_C@_1BK@MHIKGOKE@?$AA?3?$AAA?$AAM?$AA?3?$AAa?$AAm?$AA?3?$AAP?$AAM?$AA?3?$AAp?$AAm@ ; `string'
PUBLIC	??_C@_0BA@FOIKENOD@vector?5too?5long@		; `string'
PUBLIC	??_R4exception@std@@6B@				; std::exception::`RTTI Complete Object Locator'
PUBLIC	??_R3exception@std@@8				; std::exception::`RTTI Class Hierarchy Descriptor'
PUBLIC	??_R2exception@std@@8				; std::exception::`RTTI Base Class Array'
PUBLIC	??_R1A@?0A@EA@exception@std@@8			; std::exception::`RTTI Base Class Descriptor at (0,-1,0,64)'
PUBLIC	??_R4bad_array_new_length@std@@6B@		; std::bad_array_new_length::`RTTI Complete Object Locator'
PUBLIC	??_R3bad_array_new_length@std@@8		; std::bad_array_new_length::`RTTI Class Hierarchy Descriptor'
PUBLIC	??_R2bad_array_new_length@std@@8		; std::bad_array_new_length::`RTTI Base Class Array'
PUBLIC	??_R1A@?0A@EA@bad_array_new_length@std@@8	; std::bad_array_new_length::`RTTI Base Class Descriptor at (0,-1,0,64)'
PUBLIC	??_R1A@?0A@EA@bad_alloc@std@@8			; std::bad_alloc::`RTTI Base Class Descriptor at (0,-1,0,64)'
PUBLIC	??_R3bad_alloc@std@@8				; std::bad_alloc::`RTTI Class Hierarchy Descriptor'
PUBLIC	??_R2bad_alloc@std@@8				; std::bad_alloc::`RTTI Base Class Array'
PUBLIC	??_R4bad_alloc@std@@6B@				; std::bad_alloc::`RTTI Complete Object Locator'
PUBLIC	??_R4Workspace@@6B@				; Workspace::`RTTI Complete Object Locator'
PUBLIC	??_R0?AVWorkspace@@@8				; Workspace `RTTI Type Descriptor'
PUBLIC	??_R3Workspace@@8				; Workspace::`RTTI Class Hierarchy Descriptor'
PUBLIC	??_R2Workspace@@8				; Workspace::`RTTI Base Class Array'
PUBLIC	??_R1A@?0A@EA@Workspace@@8			; Workspace::`RTTI Base Class Descriptor at (0,-1,0,64)'
PUBLIC	??_R1A@?0A@EA@Instance@@8			; Instance::`RTTI Base Class Descriptor at (0,-1,0,64)'
PUBLIC	??_R0?AVInstance@@@8				; Instance `RTTI Type Descriptor'
PUBLIC	??_R3Instance@@8				; Instance::`RTTI Class Hierarchy Descriptor'
PUBLIC	??_R2Instance@@8				; Instance::`RTTI Base Class Array'
EXTRN	??2@YAPEAX_K@Z:PROC				; operator new
EXTRN	??3@YAXPEAX_K@Z:PROC				; operator delete
EXTRN	__imp_calloc:PROC
EXTRN	__std_find_trivial_8:PROC
EXTRN	?_Xbad_alloc@std@@YAXXZ:PROC			; std::_Xbad_alloc
EXTRN	?_Xlength_error@std@@YAXPEBD@Z:PROC		; std::_Xlength_error
EXTRN	__std_exception_copy:PROC
EXTRN	__std_exception_destroy:PROC
EXTRN	??_Eexception@std@@UEAAPEAXI@Z:PROC		; std::exception::`vector deleting destructor'
EXTRN	??_Ebad_alloc@std@@UEAAPEAXI@Z:PROC		; std::bad_alloc::`vector deleting destructor'
EXTRN	??_Ebad_array_new_length@std@@UEAAPEAXI@Z:PROC	; std::bad_array_new_length::`vector deleting destructor'
EXTRN	__std_remove_8:PROC
EXTRN	__imp_?_Getcvt@_Locinfo@std@@QEBA?AU_Cvtvec@@XZ:PROC
EXTRN	__imp_?_W_Getdays@_Locinfo@std@@QEBAPEBGXZ:PROC
EXTRN	__imp_?_W_Getmonths@_Locinfo@std@@QEBAPEBGXZ:PROC
EXTRN	?onAncestorChanged@Instance@@UEAAXXZ:PROC	; Instance::onAncestorChanged
EXTRN	?setParent@Instance@@UEAAXPEAV1@@Z:PROC		; Instance::setParent
EXTRN	??0Instance@@QEAA@V?$basic_string@DU?$char_traits@D@std@@V?$allocator@D@2@@std@@@Z:PROC ; Instance::Instance
EXTRN	?IsA@Instance@@UEAA_NV?$basic_string@DU?$char_traits@D@std@@V?$allocator@D@2@@std@@@Z:PROC ; Instance::IsA
EXTRN	?addChild@Instance@@UEAAXPEAV1@@Z:PROC		; Instance::addChild
EXTRN	??1Instance@@UEAA@XZ:PROC			; Instance::~Instance
EXTRN	??_EWorkspace@@UEAAPEAXI@Z:PROC			; Workspace::`vector deleting destructor'
EXTRN	_CxxThrowException:PROC
EXTRN	__GSHandlerCheck:PROC
EXTRN	__GSHandlerCheck_EH4:PROC
EXTRN	__security_check_cookie:PROC
EXTRN	memcmp:PROC
EXTRN	memcpy:PROC
EXTRN	memmove:PROC
EXTRN	strlen:PROC
EXTRN	wcslen:PROC
EXTRN	??_7type_info@@6B@:BYTE				; type_info::`vftable'
EXTRN	__security_cookie:QWORD
;	COMDAT pdata
pdata	SEGMENT
$pdata$?copy@?$_Char_traits@DH@std@@SAPEADQEADQEBD_K@Z DD imagerel $LN20
	DD	imagerel $LN20+23
	DD	imagerel $unwind$?copy@?$_Char_traits@DH@std@@SAPEADQEADQEBD_K@Z
pdata	ENDS
;	COMDAT pdata
pdata	SEGMENT
$pdata$??0exception@std@@QEAA@AEBV01@@Z DD imagerel $LN6
	DD	imagerel $LN6+50
	DD	imagerel $unwind$??0exception@std@@QEAA@AEBV01@@Z
pdata	ENDS
;	COMDAT pdata
pdata	SEGMENT
$pdata$??_Gexception@std@@UEAAPEAXI@Z DD imagerel $LN12
	DD	imagerel $LN12+66
	DD	imagerel $unwind$??_Gexception@std@@UEAAPEAXI@Z
pdata	ENDS
;	COMDAT pdata
pdata	SEGMENT
$pdata$??0bad_alloc@std@@QEAA@AEBV01@@Z DD imagerel $LN9
	DD	imagerel $LN9+60
	DD	imagerel $unwind$??0bad_alloc@std@@QEAA@AEBV01@@Z
pdata	ENDS
;	COMDAT pdata
pdata	SEGMENT
$pdata$??_Gbad_alloc@std@@UEAAPEAXI@Z DD imagerel $LN17
	DD	imagerel $LN17+66
	DD	imagerel $unwind$??_Gbad_alloc@std@@UEAAPEAXI@Z
pdata	ENDS
;	COMDAT pdata
pdata	SEGMENT
$pdata$??0bad_array_new_length@std@@QEAA@AEBV01@@Z DD imagerel $LN14
	DD	imagerel $LN14+60
	DD	imagerel $unwind$??0bad_array_new_length@std@@QEAA@AEBV01@@Z
pdata	ENDS
;	COMDAT pdata
pdata	SEGMENT
$pdata$??_Gbad_array_new_length@std@@UEAAPEAXI@Z DD imagerel $LN22
	DD	imagerel $LN22+66
	DD	imagerel $unwind$??_Gbad_array_new_length@std@@UEAAPEAXI@Z
pdata	ENDS
;	COMDAT pdata
pdata	SEGMENT
$pdata$?_Throw_bad_array_new_length@std@@YAXXZ DD imagerel $LN4
	DD	imagerel $LN4+32
	DD	imagerel $unwind$?_Throw_bad_array_new_length@std@@YAXXZ
pdata	ENDS
;	COMDAT pdata
pdata	SEGMENT
$pdata$?_Xlen_string@std@@YAXXZ DD imagerel $LN4
	DD	imagerel $LN4+17
	DD	imagerel $unwind$?_Xlen_string@std@@YAXXZ
pdata	ENDS
;	COMDAT pdata
pdata	SEGMENT
$pdata$?allocate@?$allocator@D@std@@QEAAPEAD_K@Z DD imagerel $LN23
	DD	imagerel $LN23+89
	DD	imagerel $unwind$?allocate@?$allocator@D@std@@QEAAPEAD_K@Z
pdata	ENDS
;	COMDAT pdata
pdata	SEGMENT
$pdata$??0?$basic_string@DU?$char_traits@D@std@@V?$allocator@D@2@@std@@QEAA@AEBV01@@Z DD imagerel $LN126
	DD	imagerel $LN126+267
	DD	imagerel $unwind$??0?$basic_string@DU?$char_traits@D@std@@V?$allocator@D@2@@std@@QEAA@AEBV01@@Z
pdata	ENDS
;	COMDAT pdata
pdata	SEGMENT
$pdata$??0?$basic_string@DU?$char_traits@D@std@@V?$allocator@D@2@@std@@QEAA@QEBD@Z DD imagerel $LN21
	DD	imagerel $LN21+68
	DD	imagerel $unwind$??0?$basic_string@DU?$char_traits@D@std@@V?$allocator@D@2@@std@@QEAA@QEBD@Z
pdata	ENDS
;	COMDAT pdata
pdata	SEGMENT
$pdata$?_Equal@?$basic_string@DU?$char_traits@D@std@@V?$allocator@D@2@@std@@QEBA_NQEBD@Z DD imagerel $LN28
	DD	imagerel $LN28+101
	DD	imagerel $unwind$?_Equal@?$basic_string@DU?$char_traits@D@std@@V?$allocator@D@2@@std@@QEBA_NQEBD@Z
pdata	ENDS
;	COMDAT pdata
pdata	SEGMENT
$pdata$?_Tidy_deallocate@?$basic_string@DU?$char_traits@D@std@@V?$allocator@D@2@@std@@AEAAXXZ DD imagerel $LN34
	DD	imagerel $LN34+97
	DD	imagerel $unwind$?_Tidy_deallocate@?$basic_string@DU?$char_traits@D@std@@V?$allocator@D@2@@std@@AEAAXXZ
pdata	ENDS
;	COMDAT pdata
pdata	SEGMENT
$pdata$?_Maklocwcs@std@@YAPEA_WPEB_W@Z DD imagerel $LN10
	DD	imagerel $LN10+89
	DD	imagerel $unwind$?_Maklocwcs@std@@YAPEA_WPEB_W@Z
pdata	ENDS
;	COMDAT pdata
pdata	SEGMENT
$pdata$??$_Getvals@_W@?$time_get@DV?$istreambuf_iterator@DU?$char_traits@D@std@@@std@@@std@@IEAAX_WAEBV_Locinfo@1@@Z DD imagerel $LN27
	DD	imagerel $LN27+308
	DD	imagerel $unwind$??$_Getvals@_W@?$time_get@DV?$istreambuf_iterator@DU?$char_traits@D@std@@@std@@@std@@IEAAX_WAEBV_Locinfo@1@@Z
pdata	ENDS
;	COMDAT pdata
pdata	SEGMENT
$pdata$??$_Getvals@_W@?$time_get@_WV?$istreambuf_iterator@_WU?$char_traits@_W@std@@@std@@@std@@IEAAX_WAEBV_Locinfo@1@@Z DD imagerel $LN27
	DD	imagerel $LN27+308
	DD	imagerel $unwind$??$_Getvals@_W@?$time_get@_WV?$istreambuf_iterator@_WU?$char_traits@_W@std@@@std@@@std@@IEAAX_WAEBV_Locinfo@1@@Z
pdata	ENDS
;	COMDAT pdata
pdata	SEGMENT
$pdata$?registerScript@Workspace@@AEAAXPEAVInstance@@@Z DD imagerel $LN11
	DD	imagerel $LN11+57
	DD	imagerel $unwind$?registerScript@Workspace@@AEAAXPEAVInstance@@@Z
pdata	ENDS
;	COMDAT pdata
pdata	SEGMENT
$pdata$?unregisterScript@Workspace@@AEAAXPEAVInstance@@@Z DD imagerel $LN96
	DD	imagerel $LN96+54
	DD	imagerel $unwind$?unregisterScript@Workspace@@AEAAXPEAVInstance@@@Z
pdata	ENDS
;	COMDAT pdata
pdata	SEGMENT
$pdata$0$?unregisterScript@Workspace@@AEAAXPEAVInstance@@@Z DD imagerel $LN96+54
	DD	imagerel $LN96+118
	DD	imagerel $chain$0$?unregisterScript@Workspace@@AEAAXPEAVInstance@@@Z
pdata	ENDS
;	COMDAT pdata
pdata	SEGMENT
$pdata$1$?unregisterScript@Workspace@@AEAAXPEAVInstance@@@Z DD imagerel $LN96+118
	DD	imagerel $LN96+134
	DD	imagerel $chain$1$?unregisterScript@Workspace@@AEAAXPEAVInstance@@@Z
pdata	ENDS
;	COMDAT pdata
pdata	SEGMENT
$pdata$?registerCube@Workspace@@AEAAXPEAVInstance@@@Z DD imagerel $LN11
	DD	imagerel $LN11+54
	DD	imagerel $unwind$?registerCube@Workspace@@AEAAXPEAVInstance@@@Z
pdata	ENDS
;	COMDAT pdata
pdata	SEGMENT
$pdata$?allocate@?$allocator@PEAVInstance@@@std@@QEAAPEAPEAVInstance@@_K@Z DD imagerel $LN27
	DD	imagerel $LN27+112
	DD	imagerel $unwind$?allocate@?$allocator@PEAVInstance@@@std@@QEAAPEAPEAVInstance@@_K@Z
pdata	ENDS
;	COMDAT pdata
pdata	SEGMENT
$pdata$??1?$vector@PEAVInstance@@V?$allocator@PEAVInstance@@@std@@@std@@QEAA@XZ DD imagerel $LN31
	DD	imagerel $LN31+104
	DD	imagerel $unwind$??1?$vector@PEAVInstance@@V?$allocator@PEAVInstance@@@std@@@std@@QEAA@XZ
pdata	ENDS
;	COMDAT pdata
pdata	SEGMENT
$pdata$?erase@?$vector@PEAVInstance@@V?$allocator@PEAVInstance@@@std@@@std@@QEAA?AV?$_Vector_iterator@V?$_Vector_val@U?$_Simple_types@PEAVInstance@@@std@@@std@@@2@V?$_Vector_const_iterator@V?$_Vector_val@U?$_Simple_types@PEAVInstance@@@std@@@std@@@2@0@Z DD imagerel $LN34
	DD	imagerel $LN34+29
	DD	imagerel $unwind$?erase@?$vector@PEAVInstance@@V?$allocator@PEAVInstance@@@std@@@std@@QEAA?AV?$_Vector_iterator@V?$_Vector_val@U?$_Simple_types@PEAVInstance@@@std@@@std@@@2@V?$_Vector_const_iterator@V?$_Vector_val@U?$_Simple_types@PEAVInstance@@@std@@@std@@@2@0@Z
pdata	ENDS
;	COMDAT pdata
pdata	SEGMENT
$pdata$0$?erase@?$vector@PEAVInstance@@V?$allocator@PEAVInstance@@@std@@@std@@QEAA?AV?$_Vector_iterator@V?$_Vector_val@U?$_Simple_types@PEAVInstance@@@std@@@std@@@2@V?$_Vector_const_iterator@V?$_Vector_val@U?$_Simple_types@PEAVInstance@@@std@@@std@@@2@0@Z DD imagerel $LN34+29
	DD	imagerel $LN34+90
	DD	imagerel $chain$0$?erase@?$vector@PEAVInstance@@V?$allocator@PEAVInstance@@@std@@@std@@QEAA?AV?$_Vector_iterator@V?$_Vector_val@U?$_Simple_types@PEAVInstance@@@std@@@std@@@2@V?$_Vector_const_iterator@V?$_Vector_val@U?$_Simple_types@PEAVInstance@@@std@@@std@@@2@0@Z
pdata	ENDS
;	COMDAT pdata
pdata	SEGMENT
$pdata$1$?erase@?$vector@PEAVInstance@@V?$allocator@PEAVInstance@@@std@@@std@@QEAA?AV?$_Vector_iterator@V?$_Vector_val@U?$_Simple_types@PEAVInstance@@@std@@@std@@@2@V?$_Vector_const_iterator@V?$_Vector_val@U?$_Simple_types@PEAVInstance@@@std@@@std@@@2@0@Z DD imagerel $LN34+90
	DD	imagerel $LN34+112
	DD	imagerel $chain$1$?erase@?$vector@PEAVInstance@@V?$allocator@PEAVInstance@@@std@@@std@@QEAA?AV?$_Vector_iterator@V?$_Vector_val@U?$_Simple_types@PEAVInstance@@@std@@@std@@@2@V?$_Vector_const_iterator@V?$_Vector_val@U?$_Simple_types@PEAVInstance@@@std@@@std@@@2@0@Z
pdata	ENDS
;	COMDAT pdata
pdata	SEGMENT
$pdata$?_Change_array@?$vector@PEAVInstance@@V?$allocator@PEAVInstance@@@std@@@std@@AEAAXQEAPEAVInstance@@_K1@Z DD imagerel $LN27
	DD	imagerel $LN27+123
	DD	imagerel $unwind$?_Change_array@?$vector@PEAVInstance@@V?$allocator@PEAVInstance@@@std@@@std@@AEAAXQEAPEAVInstance@@_K1@Z
pdata	ENDS
;	COMDAT pdata
pdata	SEGMENT
$pdata$?_Tidy@?$vector@PEAVInstance@@V?$allocator@PEAVInstance@@@std@@@std@@AEAAXXZ DD imagerel $LN27
	DD	imagerel $LN27+104
	DD	imagerel $unwind$?_Tidy@?$vector@PEAVInstance@@V?$allocator@PEAVInstance@@@std@@@std@@AEAAXXZ
pdata	ENDS
;	COMDAT pdata
pdata	SEGMENT
$pdata$?_Xlength@?$vector@PEAVInstance@@V?$allocator@PEAVInstance@@@std@@@std@@CAXXZ DD imagerel $LN4
	DD	imagerel $LN4+17
	DD	imagerel $unwind$?_Xlength@?$vector@PEAVInstance@@V?$allocator@PEAVInstance@@@std@@@std@@CAXXZ
pdata	ENDS
;	COMDAT pdata
pdata	SEGMENT
$pdata$??0Workspace@@QEAA@XZ DD imagerel $LN149
	DD	imagerel $LN149+139
	DD	imagerel $unwind$??0Workspace@@QEAA@XZ
pdata	ENDS
;	COMDAT pdata
pdata	SEGMENT
$pdata$?GetClassName@Workspace@@UEAA?AV?$basic_string@DU?$char_traits@D@std@@V?$allocator@D@2@@std@@XZ DD imagerel $LN123
	DD	imagerel $LN123+60
	DD	imagerel $unwind$?GetClassName@Workspace@@UEAA?AV?$basic_string@DU?$char_traits@D@std@@V?$allocator@D@2@@std@@XZ
pdata	ENDS
;	COMDAT pdata
pdata	SEGMENT
$pdata$?IsA@Workspace@@UEAA_NV?$basic_string@DU?$char_traits@D@std@@V?$allocator@D@2@@std@@@Z DD imagerel $LN44
	DD	imagerel $LN44+173
	DD	imagerel $unwind$?IsA@Workspace@@UEAA_NV?$basic_string@DU?$char_traits@D@std@@V?$allocator@D@2@@std@@@Z
pdata	ENDS
;	COMDAT pdata
pdata	SEGMENT
$pdata$??1Workspace@@UEAA@XZ DD imagerel $LN6
	DD	imagerel $LN6+43
	DD	imagerel $unwind$??1Workspace@@UEAA@XZ
pdata	ENDS
;	COMDAT pdata
pdata	SEGMENT
$pdata$??_GWorkspace@@UEAAPEAXI@Z DD imagerel $LN14
	DD	imagerel $LN14+76
	DD	imagerel $unwind$??_GWorkspace@@UEAAPEAXI@Z
pdata	ENDS
;	COMDAT pdata
pdata	SEGMENT
$pdata$??$remove@V?$_Vector_iterator@V?$_Vector_val@U?$_Simple_types@PEAVInstance@@@std@@@std@@@std@@PEAVInstance@@@std@@YA?AV?$_Vector_iterator@V?$_Vector_val@U?$_Simple_types@PEAVInstance@@@std@@@std@@@0@V10@V10@AEBQEAVInstance@@@Z DD imagerel $LN35
	DD	imagerel $LN35+82
	DD	imagerel $unwind$??$remove@V?$_Vector_iterator@V?$_Vector_val@U?$_Simple_types@PEAVInstance@@@std@@@std@@@std@@PEAVInstance@@@std@@YA?AV?$_Vector_iterator@V?$_Vector_val@U?$_Simple_types@PEAVInstance@@@std@@@std@@@0@V10@V10@AEBQEAVInstance@@@Z
pdata	ENDS
;	COMDAT pdata
pdata	SEGMENT
$pdata$??$?8DU?$char_traits@D@std@@V?$allocator@D@1@@std@@YA_NAEBV?$basic_string@DU?$char_traits@D@std@@V?$allocator@D@2@@0@QEBD@Z DD imagerel $LN31
	DD	imagerel $LN31+101
	DD	imagerel $unwind$??$?8DU?$char_traits@D@std@@V?$allocator@D@1@@std@@YA_NAEBV?$basic_string@DU?$char_traits@D@std@@V?$allocator@D@2@@0@QEBD@Z
pdata	ENDS
;	COMDAT pdata
pdata	SEGMENT
$pdata$??$_Move_unchecked@PEAPEAVInstance@@PEAPEAV1@@std@@YAPEAPEAVInstance@@PEAPEAV1@00@Z DD imagerel $LN20
	DD	imagerel $LN20+48
	DD	imagerel $unwind$??$_Move_unchecked@PEAPEAVInstance@@PEAPEAV1@@std@@YAPEAPEAVInstance@@PEAPEAV1@00@Z
pdata	ENDS
;	COMDAT pdata
pdata	SEGMENT
$pdata$??$_Construct@$00PEBD@?$basic_string@DU?$char_traits@D@std@@V?$allocator@D@2@@std@@AEAAXQEBD_K@Z DD imagerel $LN108
	DD	imagerel $LN108+79
	DD	imagerel $unwind$??$_Construct@$00PEBD@?$basic_string@DU?$char_traits@D@std@@V?$allocator@D@2@@std@@AEAAXQEBD_K@Z
pdata	ENDS
;	COMDAT pdata
pdata	SEGMENT
$pdata$0$??$_Construct@$00PEBD@?$basic_string@DU?$char_traits@D@std@@V?$allocator@D@2@@std@@AEAAXQEBD_K@Z DD imagerel $LN108+79
	DD	imagerel $LN108+237
	DD	imagerel $chain$0$??$_Construct@$00PEBD@?$basic_string@DU?$char_traits@D@std@@V?$allocator@D@2@@std@@AEAAXQEBD_K@Z
pdata	ENDS
;	COMDAT pdata
pdata	SEGMENT
$pdata$1$??$_Construct@$00PEBD@?$basic_string@DU?$char_traits@D@std@@V?$allocator@D@2@@std@@AEAAXQEBD_K@Z DD imagerel $LN108+237
	DD	imagerel $LN108+243
	DD	imagerel $chain$1$??$_Construct@$00PEBD@?$basic_string@DU?$char_traits@D@std@@V?$allocator@D@2@@std@@AEAAXQEBD_K@Z
pdata	ENDS
;	COMDAT pdata
pdata	SEGMENT
$pdata$2$??$_Construct@$00PEBD@?$basic_string@DU?$char_traits@D@std@@V?$allocator@D@2@@std@@AEAAXQEBD_K@Z DD imagerel $LN108+243
	DD	imagerel $LN108+249
	DD	imagerel $chain$2$??$_Construct@$00PEBD@?$basic_string@DU?$char_traits@D@std@@V?$allocator@D@2@@std@@AEAAXQEBD_K@Z
pdata	ENDS
;	COMDAT pdata
pdata	SEGMENT
$pdata$??$_Construct@$01PEBD@?$basic_string@DU?$char_traits@D@std@@V?$allocator@D@2@@std@@AEAAXQEBD_K@Z DD imagerel $LN101
	DD	imagerel $LN101+228
	DD	imagerel $unwind$??$_Construct@$01PEBD@?$basic_string@DU?$char_traits@D@std@@V?$allocator@D@2@@std@@AEAAXQEBD_K@Z
pdata	ENDS
;	COMDAT pdata
pdata	SEGMENT
$pdata$??$_Allocate_for_capacity@$0A@@?$basic_string@DU?$char_traits@D@std@@V?$allocator@D@2@@std@@CAPEADAEAV?$allocator@D@1@AEA_K@Z DD imagerel $LN46
	DD	imagerel $LN46+111
	DD	imagerel $unwind$??$_Allocate_for_capacity@$0A@@?$basic_string@DU?$char_traits@D@std@@V?$allocator@D@2@@std@@CAPEADAEAV?$allocator@D@1@AEA_K@Z
pdata	ENDS
;	COMDAT pdata
pdata	SEGMENT
$pdata$??$_Allocate_at_least_helper@V?$allocator@D@std@@@std@@YAPEADAEAV?$allocator@D@0@AEA_K@Z DD imagerel $LN26
	DD	imagerel $LN26+92
	DD	imagerel $unwind$??$_Allocate_at_least_helper@V?$allocator@D@std@@@std@@YAPEADAEAV?$allocator@D@0@AEA_K@Z
pdata	ENDS
;	COMDAT pdata
pdata	SEGMENT
$pdata$??$_Copy_memmove@PEAPEAVInstance@@PEAPEAV1@@std@@YAPEAPEAVInstance@@PEAPEAV1@00@Z DD imagerel $LN6
	DD	imagerel $LN6+48
	DD	imagerel $unwind$??$_Copy_memmove@PEAPEAVInstance@@PEAPEAV1@@std@@YAPEAPEAVInstance@@PEAPEAV1@00@Z
pdata	ENDS
;	COMDAT pdata
pdata	SEGMENT
$pdata$??$_Emplace_reallocate@AEBQEAVInstance@@@?$vector@PEAVInstance@@V?$allocator@PEAVInstance@@@std@@@std@@AEAAPEAPEAVInstance@@QEAPEAV2@AEBQEAV2@@Z DD imagerel $LN166
	DD	imagerel $LN166+60
	DD	imagerel $unwind$??$_Emplace_reallocate@AEBQEAVInstance@@@?$vector@PEAVInstance@@V?$allocator@PEAVInstance@@@std@@@std@@AEAAPEAPEAVInstance@@QEAPEAV2@AEBQEAV2@@Z
pdata	ENDS
;	COMDAT pdata
pdata	SEGMENT
$pdata$3$??$_Emplace_reallocate@AEBQEAVInstance@@@?$vector@PEAVInstance@@V?$allocator@PEAVInstance@@@std@@@std@@AEAAPEAPEAVInstance@@QEAPEAV2@AEBQEAV2@@Z DD imagerel $LN166+60
	DD	imagerel $LN166+411
	DD	imagerel $chain$3$??$_Emplace_reallocate@AEBQEAVInstance@@@?$vector@PEAVInstance@@V?$allocator@PEAVInstance@@@std@@@std@@AEAAPEAPEAVInstance@@QEAPEAV2@AEBQEAV2@@Z
pdata	ENDS
;	COMDAT pdata
pdata	SEGMENT
$pdata$4$??$_Emplace_reallocate@AEBQEAVInstance@@@?$vector@PEAVInstance@@V?$allocator@PEAVInstance@@@std@@@std@@AEAAPEAPEAVInstance@@QEAPEAV2@AEBQEAV2@@Z DD imagerel $LN166+411
	DD	imagerel $LN166+417
	DD	imagerel $chain$4$??$_Emplace_reallocate@AEBQEAVInstance@@@?$vector@PEAVInstance@@V?$allocator@PEAVInstance@@@std@@@std@@AEAAPEAPEAVInstance@@QEAPEAV2@AEBQEAV2@@Z
pdata	ENDS
;	COMDAT pdata
pdata	SEGMENT
$pdata$5$??$_Emplace_reallocate@AEBQEAVInstance@@@?$vector@PEAVInstance@@V?$allocator@PEAVInstance@@@std@@@std@@AEAAPEAPEAVInstance@@QEAPEAV2@AEBQEAV2@@Z DD imagerel $LN166+417
	DD	imagerel $LN166+423
	DD	imagerel $chain$5$??$_Emplace_reallocate@AEBQEAVInstance@@@?$vector@PEAVInstance@@V?$allocator@PEAVInstance@@@std@@@std@@AEAAPEAPEAVInstance@@QEAPEAV2@AEBQEAV2@@Z
pdata	ENDS
;	COMDAT pdata
pdata	SEGMENT
$pdata$??$_Traits_equal@U?$char_traits@D@std@@@std@@YA_NQEBD_K01@Z DD imagerel $LN11
	DD	imagerel $LN11+52
	DD	imagerel $unwind$??$_Traits_equal@U?$char_traits@D@std@@@std@@YA_NQEBD_K01@Z
pdata	ENDS
;	COMDAT pdata
pdata	SEGMENT
$pdata$??$_Copy_memmove_tail@PEAPEAVInstance@@@std@@YAPEAPEAVInstance@@QEBDQEAPEAV1@_K2@Z DD imagerel $LN4
	DD	imagerel $LN4+42
	DD	imagerel $unwind$??$_Copy_memmove_tail@PEAPEAVInstance@@@std@@YAPEAPEAVInstance@@QEBDQEAPEAV1@_K2@Z
pdata	ENDS
;	COMDAT pdata
pdata	SEGMENT
$pdata$??$_Allocate_at_least_helper@V?$allocator@PEAVInstance@@@std@@@std@@YAPEAPEAVInstance@@AEAV?$allocator@PEAVInstance@@@0@AEA_K@Z DD imagerel $LN30
	DD	imagerel $LN30+115
	DD	imagerel $unwind$??$_Allocate_at_least_helper@V?$allocator@PEAVInstance@@@std@@@std@@YAPEAPEAVInstance@@AEAV?$allocator@PEAVInstance@@@0@AEA_K@Z
pdata	ENDS
;	COMDAT pdata
pdata	SEGMENT
$pdata$??$_Uninitialized_move@PEAPEAVInstance@@V?$allocator@PEAVInstance@@@std@@@std@@YAPEAPEAVInstance@@QEAPEAV1@0PEAPEAV1@AEAV?$allocator@PEAVInstance@@@0@@Z DD imagerel $LN24
	DD	imagerel $LN24+52
	DD	imagerel $unwind$??$_Uninitialized_move@PEAPEAVInstance@@V?$allocator@PEAVInstance@@@std@@@std@@YAPEAPEAVInstance@@QEAPEAV1@0PEAPEAV1@AEAV?$allocator@PEAVInstance@@@0@@Z
pdata	ENDS
;	COMDAT pdata
pdata	SEGMENT
$pdata$??$_Allocate@$0BA@U_Default_allocate_traits@std@@@std@@YAPEAX_K@Z DD imagerel $LN20
	DD	imagerel $LN20+89
	DD	imagerel $unwind$??$_Allocate@$0BA@U_Default_allocate_traits@std@@@std@@YAPEAX_K@Z
pdata	ENDS
;	COMDAT pdata
pdata	SEGMENT
$pdata$??$_Allocate_manually_vector_aligned@U_Default_allocate_traits@std@@@std@@YAPEAX_K@Z DD imagerel $LN10
	DD	imagerel $LN10+59
	DD	imagerel $unwind$??$_Allocate_manually_vector_aligned@U_Default_allocate_traits@std@@@std@@YAPEAX_K@Z
pdata	ENDS
;	COMDAT pdata
pdata	SEGMENT
$pdata$??$_Get_size_of_n@$07@std@@YA_K_K@Z DD imagerel $LN7
	DD	imagerel $LN7+38
	DD	imagerel $unwind$??$_Get_size_of_n@$07@std@@YA_K_K@Z
pdata	ENDS
;	COMDAT ??_R2Instance@@8
rdata$r	SEGMENT
??_R2Instance@@8 DD imagerel ??_R1A@?0A@EA@Instance@@8	; Instance::`RTTI Base Class Array'
	ORG $+3
rdata$r	ENDS
;	COMDAT ??_R3Instance@@8
rdata$r	SEGMENT
??_R3Instance@@8 DD 00H					; Instance::`RTTI Class Hierarchy Descriptor'
	DD	00H
	DD	01H
	DD	imagerel ??_R2Instance@@8
rdata$r	ENDS
;	COMDAT ??_R0?AVInstance@@@8
data$rs	SEGMENT
??_R0?AVInstance@@@8 DQ FLAT:??_7type_info@@6B@		; Instance `RTTI Type Descriptor'
	DQ	0000000000000000H
	DB	'.?AVInstance@@', 00H
data$rs	ENDS
;	COMDAT ??_R1A@?0A@EA@Instance@@8
rdata$r	SEGMENT
??_R1A@?0A@EA@Instance@@8 DD imagerel ??_R0?AVInstance@@@8 ; Instance::`RTTI Base Class Descriptor at (0,-1,0,64)'
	DD	00H
	DD	00H
	DD	0ffffffffH
	DD	00H
	DD	040H
	DD	imagerel ??_R3Instance@@8
rdata$r	ENDS
;	COMDAT ??_R1A@?0A@EA@Workspace@@8
rdata$r	SEGMENT
??_R1A@?0A@EA@Workspace@@8 DD imagerel ??_R0?AVWorkspace@@@8 ; Workspace::`RTTI Base Class Descriptor at (0,-1,0,64)'
	DD	01H
	DD	00H
	DD	0ffffffffH
	DD	00H
	DD	040H
	DD	imagerel ??_R3Workspace@@8
rdata$r	ENDS
;	COMDAT ??_R2Workspace@@8
rdata$r	SEGMENT
??_R2Workspace@@8 DD imagerel ??_R1A@?0A@EA@Workspace@@8 ; Workspace::`RTTI Base Class Array'
	DD	imagerel ??_R1A@?0A@EA@Instance@@8
	ORG $+3
rdata$r	ENDS
;	COMDAT ??_R3Workspace@@8
rdata$r	SEGMENT
??_R3Workspace@@8 DD 00H				; Workspace::`RTTI Class Hierarchy Descriptor'
	DD	00H
	DD	02H
	DD	imagerel ??_R2Workspace@@8
rdata$r	ENDS
;	COMDAT ??_R0?AVWorkspace@@@8
data$rs	SEGMENT
??_R0?AVWorkspace@@@8 DQ FLAT:??_7type_info@@6B@	; Workspace `RTTI Type Descriptor'
	DQ	0000000000000000H
	DB	'.?AVWorkspace@@', 00H
data$rs	ENDS
;	COMDAT ??_R4Workspace@@6B@
rdata$r	SEGMENT
??_R4Workspace@@6B@ DD 01H				; Workspace::`RTTI Complete Object Locator'
	DD	00H
	DD	00H
	DD	imagerel ??_R0?AVWorkspace@@@8
	DD	imagerel ??_R3Workspace@@8
	DD	imagerel ??_R4Workspace@@6B@
rdata$r	ENDS
;	COMDAT ??_R4bad_alloc@std@@6B@
rdata$r	SEGMENT
??_R4bad_alloc@std@@6B@ DD 01H				; std::bad_alloc::`RTTI Complete Object Locator'
	DD	00H
	DD	00H
	DD	imagerel ??_R0?AVbad_alloc@std@@@8
	DD	imagerel ??_R3bad_alloc@std@@8
	DD	imagerel ??_R4bad_alloc@std@@6B@
rdata$r	ENDS
;	COMDAT ??_R2bad_alloc@std@@8
rdata$r	SEGMENT
??_R2bad_alloc@std@@8 DD imagerel ??_R1A@?0A@EA@bad_alloc@std@@8 ; std::bad_alloc::`RTTI Base Class Array'
	DD	imagerel ??_R1A@?0A@EA@exception@std@@8
	ORG $+3
rdata$r	ENDS
;	COMDAT ??_R3bad_alloc@std@@8
rdata$r	SEGMENT
??_R3bad_alloc@std@@8 DD 00H				; std::bad_alloc::`RTTI Class Hierarchy Descriptor'
	DD	00H
	DD	02H
	DD	imagerel ??_R2bad_alloc@std@@8
rdata$r	ENDS
;	COMDAT ??_R1A@?0A@EA@bad_alloc@std@@8
rdata$r	SEGMENT
??_R1A@?0A@EA@bad_alloc@std@@8 DD imagerel ??_R0?AVbad_alloc@std@@@8 ; std::bad_alloc::`RTTI Base Class Descriptor at (0,-1,0,64)'
	DD	01H
	DD	00H
	DD	0ffffffffH
	DD	00H
	DD	040H
	DD	imagerel ??_R3bad_alloc@std@@8
rdata$r	ENDS
;	COMDAT ??_R1A@?0A@EA@bad_array_new_length@std@@8
rdata$r	SEGMENT
??_R1A@?0A@EA@bad_array_new_length@std@@8 DD imagerel ??_R0?AVbad_array_new_length@std@@@8 ; std::bad_array_new_length::`RTTI Base Class Descriptor at (0,-1,0,64)'
	DD	02H
	DD	00H
	DD	0ffffffffH
	DD	00H
	DD	040H
	DD	imagerel ??_R3bad_array_new_length@std@@8
rdata$r	ENDS
;	COMDAT ??_R2bad_array_new_length@std@@8
rdata$r	SEGMENT
??_R2bad_array_new_length@std@@8 DD imagerel ??_R1A@?0A@EA@bad_array_new_length@std@@8 ; std::bad_array_new_length::`RTTI Base Class Array'
	DD	imagerel ??_R1A@?0A@EA@bad_alloc@std@@8
	DD	imagerel ??_R1A@?0A@EA@exception@std@@8
	ORG $+3
rdata$r	ENDS
;	COMDAT ??_R3bad_array_new_length@std@@8
rdata$r	SEGMENT
??_R3bad_array_new_length@std@@8 DD 00H			; std::bad_array_new_length::`RTTI Class Hierarchy Descriptor'
	DD	00H
	DD	03H
	DD	imagerel ??_R2bad_array_new_length@std@@8
rdata$r	ENDS
;	COMDAT ??_R4bad_array_new_length@std@@6B@
rdata$r	SEGMENT
??_R4bad_array_new_length@std@@6B@ DD 01H		; std::bad_array_new_length::`RTTI Complete Object Locator'
	DD	00H
	DD	00H
	DD	imagerel ??_R0?AVbad_array_new_length@std@@@8
	DD	imagerel ??_R3bad_array_new_length@std@@8
	DD	imagerel ??_R4bad_array_new_length@std@@6B@
rdata$r	ENDS
;	COMDAT ??_R1A@?0A@EA@exception@std@@8
rdata$r	SEGMENT
??_R1A@?0A@EA@exception@std@@8 DD imagerel ??_R0?AVexception@std@@@8 ; std::exception::`RTTI Base Class Descriptor at (0,-1,0,64)'
	DD	00H
	DD	00H
	DD	0ffffffffH
	DD	00H
	DD	040H
	DD	imagerel ??_R3exception@std@@8
rdata$r	ENDS
;	COMDAT ??_R2exception@std@@8
rdata$r	SEGMENT
??_R2exception@std@@8 DD imagerel ??_R1A@?0A@EA@exception@std@@8 ; std::exception::`RTTI Base Class Array'
	ORG $+3
rdata$r	ENDS
;	COMDAT ??_R3exception@std@@8
rdata$r	SEGMENT
??_R3exception@std@@8 DD 00H				; std::exception::`RTTI Class Hierarchy Descriptor'
	DD	00H
	DD	01H
	DD	imagerel ??_R2exception@std@@8
rdata$r	ENDS
;	COMDAT ??_R4exception@std@@6B@
rdata$r	SEGMENT
??_R4exception@std@@6B@ DD 01H				; std::exception::`RTTI Complete Object Locator'
	DD	00H
	DD	00H
	DD	imagerel ??_R0?AVexception@std@@@8
	DD	imagerel ??_R3exception@std@@8
	DD	imagerel ??_R4exception@std@@6B@
rdata$r	ENDS
;	COMDAT ??_C@_0BA@FOIKENOD@vector?5too?5long@
CONST	SEGMENT
??_C@_0BA@FOIKENOD@vector?5too?5long@ DB 'vector too long', 00H ; `string'
CONST	ENDS
;	COMDAT ??_C@_1BK@MHIKGOKE@?$AA?3?$AAA?$AAM?$AA?3?$AAa?$AAm?$AA?3?$AAP?$AAM?$AA?3?$AAp?$AAm@
CONST	SEGMENT
??_C@_1BK@MHIKGOKE@?$AA?3?$AAA?$AAM?$AA?3?$AAa?$AAm?$AA?3?$AAP?$AAM?$AA?3?$AAp?$AAm@ DB ':'
	DB	00H, 'A', 00H, 'M', 00H, ':', 00H, 'a', 00H, 'm', 00H, ':', 00H
	DB	'P', 00H, 'M', 00H, ':', 00H, 'p', 00H, 'm', 00H, 00H, 00H ; `string'
CONST	ENDS
;	COMDAT ??_C@_09GEGCPGC@Workspace@
CONST	SEGMENT
??_C@_09GEGCPGC@Workspace@ DB 'Workspace', 00H		; `string'
CONST	ENDS
;	COMDAT ??_7Workspace@@6B@
CONST	SEGMENT
??_7Workspace@@6B@ DQ FLAT:??_R4Workspace@@6B@		; Workspace::`vftable'
	DQ	FLAT:?onAncestorChanged@Instance@@UEAAXXZ
	DQ	FLAT:?setParent@Instance@@UEAAXPEAV1@@Z
	DQ	FLAT:?GetClassName@Workspace@@UEAA?AV?$basic_string@DU?$char_traits@D@std@@V?$allocator@D@2@@std@@XZ
	DQ	FLAT:?IsA@Workspace@@UEAA_NV?$basic_string@DU?$char_traits@D@std@@V?$allocator@D@2@@std@@@Z
	DQ	FLAT:?addChild@Instance@@UEAAXPEAV1@@Z
	DQ	FLAT:??_EWorkspace@@UEAAPEAXI@Z
CONST	ENDS
;	COMDAT ??_C@_0BA@JFNIOLAK@string?5too?5long@
CONST	SEGMENT
??_C@_0BA@JFNIOLAK@string?5too?5long@ DB 'string too long', 00H ; `string'
CONST	ENDS
;	COMDAT _CT??_R0?AVbad_alloc@std@@@8??0bad_alloc@std@@QEAA@AEBV01@@Z24
xdata$x	SEGMENT
_CT??_R0?AVbad_alloc@std@@@8??0bad_alloc@std@@QEAA@AEBV01@@Z24 DD 010H
	DD	imagerel ??_R0?AVbad_alloc@std@@@8
	DD	00H
	DD	0ffffffffH
	ORG $+4
	DD	018H
	DD	imagerel ??0bad_alloc@std@@QEAA@AEBV01@@Z
xdata$x	ENDS
;	COMDAT ??_R0?AVbad_alloc@std@@@8
data$r	SEGMENT
??_R0?AVbad_alloc@std@@@8 DQ FLAT:??_7type_info@@6B@	; std::bad_alloc `RTTI Type Descriptor'
	DQ	0000000000000000H
	DB	'.?AVbad_alloc@std@@', 00H
data$r	ENDS
;	COMDAT _CT??_R0?AVbad_array_new_length@std@@@8??0bad_array_new_length@std@@QEAA@AEBV01@@Z24
xdata$x	SEGMENT
_CT??_R0?AVbad_array_new_length@std@@@8??0bad_array_new_length@std@@QEAA@AEBV01@@Z24 DD 00H
	DD	imagerel ??_R0?AVbad_array_new_length@std@@@8
	DD	00H
	DD	0ffffffffH
	ORG $+4
	DD	018H
	DD	imagerel ??0bad_array_new_length@std@@QEAA@AEBV01@@Z
xdata$x	ENDS
;	COMDAT ??_R0?AVbad_array_new_length@std@@@8
data$r	SEGMENT
??_R0?AVbad_array_new_length@std@@@8 DQ FLAT:??_7type_info@@6B@ ; std::bad_array_new_length `RTTI Type Descriptor'
	DQ	0000000000000000H
	DB	'.?AVbad_array_new_length@std@@', 00H
data$r	ENDS
;	COMDAT _CTA3?AVbad_array_new_length@std@@
xdata$x	SEGMENT
_CTA3?AVbad_array_new_length@std@@ DD 03H
	DD	imagerel _CT??_R0?AVbad_array_new_length@std@@@8??0bad_array_new_length@std@@QEAA@AEBV01@@Z24
	DD	imagerel _CT??_R0?AVbad_alloc@std@@@8??0bad_alloc@std@@QEAA@AEBV01@@Z24
	DD	imagerel _CT??_R0?AVexception@std@@@8??0exception@std@@QEAA@AEBV01@@Z24
xdata$x	ENDS
;	COMDAT _TI3?AVbad_array_new_length@std@@
xdata$x	SEGMENT
_TI3?AVbad_array_new_length@std@@ DD 00H
	DD	imagerel ??1bad_array_new_length@std@@UEAA@XZ
	DD	00H
	DD	imagerel _CTA3?AVbad_array_new_length@std@@
xdata$x	ENDS
;	COMDAT _CT??_R0?AVexception@std@@@8??0exception@std@@QEAA@AEBV01@@Z24
xdata$x	SEGMENT
_CT??_R0?AVexception@std@@@8??0exception@std@@QEAA@AEBV01@@Z24 DD 00H
	DD	imagerel ??_R0?AVexception@std@@@8
	DD	00H
	DD	0ffffffffH
	ORG $+4
	DD	018H
	DD	imagerel ??0exception@std@@QEAA@AEBV01@@Z
xdata$x	ENDS
;	COMDAT ??_R0?AVexception@std@@@8
data$r	SEGMENT
??_R0?AVexception@std@@@8 DQ FLAT:??_7type_info@@6B@	; std::exception `RTTI Type Descriptor'
	DQ	0000000000000000H
	DB	'.?AVexception@std@@', 00H
data$r	ENDS
;	COMDAT ??_C@_0BF@KINCDENJ@bad?5array?5new?5length@
CONST	SEGMENT
??_C@_0BF@KINCDENJ@bad?5array?5new?5length@ DB 'bad array new length', 00H ; `string'
CONST	ENDS
;	COMDAT ??_7bad_array_new_length@std@@6B@
CONST	SEGMENT
??_7bad_array_new_length@std@@6B@ DQ FLAT:??_R4bad_array_new_length@std@@6B@ ; std::bad_array_new_length::`vftable'
	DQ	FLAT:??_Ebad_array_new_length@std@@UEAAPEAXI@Z
	DQ	FLAT:?what@exception@std@@UEBAPEBDXZ
CONST	ENDS
;	COMDAT ??_7bad_alloc@std@@6B@
CONST	SEGMENT
??_7bad_alloc@std@@6B@ DQ FLAT:??_R4bad_alloc@std@@6B@	; std::bad_alloc::`vftable'
	DQ	FLAT:??_Ebad_alloc@std@@UEAAPEAXI@Z
	DQ	FLAT:?what@exception@std@@UEBAPEBDXZ
CONST	ENDS
;	COMDAT ??_C@_0BC@EOODALEL@Unknown?5exception@
CONST	SEGMENT
??_C@_0BC@EOODALEL@Unknown?5exception@ DB 'Unknown exception', 00H ; `string'
CONST	ENDS
;	COMDAT ??_7exception@std@@6B@
CONST	SEGMENT
??_7exception@std@@6B@ DQ FLAT:??_R4exception@std@@6B@	; std::exception::`vftable'
	DQ	FLAT:??_Eexception@std@@UEAAPEAXI@Z
	DQ	FLAT:?what@exception@std@@UEBAPEBDXZ
CONST	ENDS
;	COMDAT xdata
xdata	SEGMENT
$unwind$??$_Get_size_of_n@$07@std@@YA_K_K@Z DD 010401H
	DD	04204H
xdata	ENDS
;	COMDAT xdata
xdata	SEGMENT
$unwind$??$_Allocate_manually_vector_aligned@U_Default_allocate_traits@std@@@std@@YAPEAX_K@Z DD 010401H
	DD	04204H
xdata	ENDS
;	COMDAT xdata
xdata	SEGMENT
$unwind$??$_Allocate@$0BA@U_Default_allocate_traits@std@@@std@@YAPEAX_K@Z DD 010401H
	DD	04204H
xdata	ENDS
;	COMDAT xdata
xdata	SEGMENT
$unwind$??$_Uninitialized_move@PEAPEAVInstance@@V?$allocator@PEAVInstance@@@std@@@std@@YAPEAPEAVInstance@@QEAPEAV1@0PEAPEAV1@AEAV?$allocator@PEAVInstance@@@0@@Z DD 040a01H
	DD	06340aH
	DD	07006320aH
xdata	ENDS
;	COMDAT xdata
xdata	SEGMENT
$unwind$??$_Allocate_at_least_helper@V?$allocator@PEAVInstance@@@std@@@std@@YAPEAPEAVInstance@@AEAV?$allocator@PEAVInstance@@@0@AEA_K@Z DD 010401H
	DD	04204H
xdata	ENDS
;	COMDAT xdata
xdata	SEGMENT
$unwind$??$_Copy_memmove_tail@PEAPEAVInstance@@@std@@YAPEAPEAVInstance@@QEBDQEAPEAV1@_K2@Z DD 040a01H
	DD	06340aH
	DD	07006320aH
xdata	ENDS
;	COMDAT xdata
xdata	SEGMENT
$unwind$??$_Traits_equal@U?$char_traits@D@std@@@std@@YA_NQEBD_K01@Z DD 010401H
	DD	04204H
xdata	ENDS
;	COMDAT xdata
xdata	SEGMENT
$chain$5$??$_Emplace_reallocate@AEBQEAVInstance@@@?$vector@PEAVInstance@@V?$allocator@PEAVInstance@@@std@@@std@@AEAAPEAPEAVInstance@@QEAPEAV2@AEBQEAV2@@Z DD 080021H
	DD	04f400H
	DD	0cc400H
	DD	0b6400H
	DD	0a3400H
	DD	imagerel $LN166
	DD	imagerel $LN166+60
	DD	imagerel $unwind$??$_Emplace_reallocate@AEBQEAVInstance@@@?$vector@PEAVInstance@@V?$allocator@PEAVInstance@@@std@@@std@@AEAAPEAPEAVInstance@@QEAPEAV2@AEBQEAV2@@Z
xdata	ENDS
;	COMDAT xdata
xdata	SEGMENT
$chain$4$??$_Emplace_reallocate@AEBQEAVInstance@@@?$vector@PEAVInstance@@V?$allocator@PEAVInstance@@@std@@@std@@AEAAPEAPEAVInstance@@QEAPEAV2@AEBQEAV2@@Z DD 021H
	DD	imagerel $LN166
	DD	imagerel $LN166+60
	DD	imagerel $unwind$??$_Emplace_reallocate@AEBQEAVInstance@@@?$vector@PEAVInstance@@V?$allocator@PEAVInstance@@@std@@@std@@AEAAPEAPEAVInstance@@QEAPEAV2@AEBQEAV2@@Z
xdata	ENDS
;	COMDAT xdata
xdata	SEGMENT
$chain$3$??$_Emplace_reallocate@AEBQEAVInstance@@@?$vector@PEAVInstance@@V?$allocator@PEAVInstance@@@std@@@std@@AEAAPEAPEAVInstance@@QEAPEAV2@AEBQEAV2@@Z DD 082421H
	DD	04f424H
	DD	0cc41fH
	DD	0b6411H
	DD	0a3405H
	DD	imagerel $LN166
	DD	imagerel $LN166+60
	DD	imagerel $unwind$??$_Emplace_reallocate@AEBQEAVInstance@@@?$vector@PEAVInstance@@V?$allocator@PEAVInstance@@@std@@@std@@AEAAPEAPEAVInstance@@QEAPEAV2@AEBQEAV2@@Z
xdata	ENDS
;	COMDAT xdata
xdata	SEGMENT
$unwind$??$_Emplace_reallocate@AEBQEAVInstance@@@?$vector@PEAVInstance@@V?$allocator@PEAVInstance@@@std@@@std@@AEAAPEAPEAVInstance@@QEAPEAV2@AEBQEAV2@@Z DD 050b01H
	DD	0e007420bH
	DD	07003d005H
	DD	05002H
xdata	ENDS
;	COMDAT xdata
xdata	SEGMENT
$unwind$??$_Copy_memmove@PEAPEAVInstance@@PEAPEAV1@@std@@YAPEAPEAVInstance@@PEAPEAV1@00@Z DD 040a01H
	DD	06340aH
	DD	07006320aH
xdata	ENDS
;	COMDAT xdata
xdata	SEGMENT
$unwind$??$_Allocate_at_least_helper@V?$allocator@D@std@@@std@@YAPEADAEAV?$allocator@D@0@AEA_K@Z DD 010401H
	DD	04204H
xdata	ENDS
;	COMDAT xdata
xdata	SEGMENT
$unwind$??$_Allocate_for_capacity@$0A@@?$basic_string@DU?$char_traits@D@std@@V?$allocator@D@2@@std@@CAPEADAEAV?$allocator@D@1@AEA_K@Z DD 020601H
	DD	030023206H
xdata	ENDS
;	COMDAT xdata
xdata	SEGMENT
$unwind$??$_Construct@$01PEBD@?$basic_string@DU?$char_traits@D@std@@V?$allocator@D@2@@std@@AEAAXQEBD_K@Z DD 050901H
	DD	070054209H
	DD	050036004H
	DD	03002H
xdata	ENDS
;	COMDAT xdata
xdata	SEGMENT
$chain$2$??$_Construct@$00PEBD@?$basic_string@DU?$char_traits@D@std@@V?$allocator@D@2@@std@@AEAAXQEBD_K@Z DD 020021H
	DD	0a7400H
	DD	imagerel $LN108
	DD	imagerel $LN108+79
	DD	imagerel $unwind$??$_Construct@$00PEBD@?$basic_string@DU?$char_traits@D@std@@V?$allocator@D@2@@std@@AEAAXQEBD_K@Z
xdata	ENDS
;	COMDAT xdata
xdata	SEGMENT
$chain$1$??$_Construct@$00PEBD@?$basic_string@DU?$char_traits@D@std@@V?$allocator@D@2@@std@@AEAAXQEBD_K@Z DD 021H
	DD	imagerel $LN108
	DD	imagerel $LN108+79
	DD	imagerel $unwind$??$_Construct@$00PEBD@?$basic_string@DU?$char_traits@D@std@@V?$allocator@D@2@@std@@AEAAXQEBD_K@Z
xdata	ENDS
;	COMDAT xdata
xdata	SEGMENT
$chain$0$??$_Construct@$00PEBD@?$basic_string@DU?$char_traits@D@std@@V?$allocator@D@2@@std@@AEAAXQEBD_K@Z DD 020521H
	DD	0a7405H
	DD	imagerel $LN108
	DD	imagerel $LN108+79
	DD	imagerel $unwind$??$_Construct@$00PEBD@?$basic_string@DU?$char_traits@D@std@@V?$allocator@D@2@@std@@AEAAXQEBD_K@Z
xdata	ENDS
;	COMDAT xdata
xdata	SEGMENT
$unwind$??$_Construct@$00PEBD@?$basic_string@DU?$char_traits@D@std@@V?$allocator@D@2@@std@@AEAAXQEBD_K@Z DD 050a01H
	DD	0e006420aH
	DD	050036004H
	DD	03002H
xdata	ENDS
;	COMDAT xdata
xdata	SEGMENT
$unwind$??$_Move_unchecked@PEAPEAVInstance@@PEAPEAV1@@std@@YAPEAPEAVInstance@@PEAPEAV1@00@Z DD 040a01H
	DD	06340aH
	DD	07006320aH
xdata	ENDS
;	COMDAT xdata
xdata	SEGMENT
$unwind$??$?8DU?$char_traits@D@std@@V?$allocator@D@1@@std@@YA_NAEBV?$basic_string@DU?$char_traits@D@std@@V?$allocator@D@2@@0@QEBD@Z DD 040a01H
	DD	06340aH
	DD	07006320aH
xdata	ENDS
;	COMDAT xdata
xdata	SEGMENT
$unwind$??$remove@V?$_Vector_iterator@V?$_Vector_val@U?$_Simple_types@PEAVInstance@@@std@@@std@@@std@@PEAVInstance@@@std@@YA?AV?$_Vector_iterator@V?$_Vector_val@U?$_Simple_types@PEAVInstance@@@std@@@std@@@0@V10@V10@AEBQEAVInstance@@@Z DD 060f01H
	DD	07640fH
	DD	06340fH
	DD	0700b320fH
xdata	ENDS
;	COMDAT xdata
xdata	SEGMENT
$unwind$??_GWorkspace@@UEAAPEAXI@Z DD 040a01H
	DD	06340aH
	DD	07006320aH
xdata	ENDS
;	COMDAT xdata
xdata	SEGMENT
$unwind$??1Workspace@@UEAA@XZ DD 020601H
	DD	030023206H
xdata	ENDS
;	COMDAT xdata
xdata	SEGMENT
$ip2state$?IsA@Workspace@@UEAA_NV?$basic_string@DU?$char_traits@D@std@@V?$allocator@D@2@@std@@@Z DB 04H
	DB	0e8H
	DB	02H
	DB	'&'
	DB	00H
xdata	ENDS
;	COMDAT xdata
xdata	SEGMENT
$stateUnwindMap$?IsA@Workspace@@UEAA_NV?$basic_string@DU?$char_traits@D@std@@V?$allocator@D@2@@std@@@Z DB 02H
	DB	0cH
	DD	imagerel ??1?$basic_string@DU?$char_traits@D@std@@V?$allocator@D@2@@std@@QEAA@XZ
	DB	090H
xdata	ENDS
;	COMDAT xdata
xdata	SEGMENT
$cppxdata$?IsA@Workspace@@UEAA_NV?$basic_string@DU?$char_traits@D@std@@V?$allocator@D@2@@std@@@Z DB 028H
	DD	imagerel $stateUnwindMap$?IsA@Workspace@@UEAA_NV?$basic_string@DU?$char_traits@D@std@@V?$allocator@D@2@@std@@@Z
	DD	imagerel $ip2state$?IsA@Workspace@@UEAA_NV?$basic_string@DU?$char_traits@D@std@@V?$allocator@D@2@@std@@@Z
xdata	ENDS
;	COMDAT xdata
xdata	SEGMENT
$unwind$?IsA@Workspace@@UEAA_NV?$basic_string@DU?$char_traits@D@std@@V?$allocator@D@2@@std@@@Z DD 041919H
	DD	010340aH
	DD	07006b20aH
	DD	imagerel __GSHandlerCheck_EH4
	DD	imagerel $cppxdata$?IsA@Workspace@@UEAA_NV?$basic_string@DU?$char_traits@D@std@@V?$allocator@D@2@@std@@@Z
	DD	052H
xdata	ENDS
;	COMDAT xdata
xdata	SEGMENT
$unwind$?GetClassName@Workspace@@UEAA?AV?$basic_string@DU?$char_traits@D@std@@V?$allocator@D@2@@std@@XZ DD 010401H
	DD	02204H
xdata	ENDS
;	COMDAT xdata
xdata	SEGMENT
$unwind$??0Workspace@@QEAA@XZ DD 020601H
	DD	030027206H
xdata	ENDS
;	COMDAT xdata
xdata	SEGMENT
$unwind$?_Xlength@?$vector@PEAVInstance@@V?$allocator@PEAVInstance@@@std@@@std@@CAXXZ DD 010401H
	DD	04204H
xdata	ENDS
;	COMDAT xdata
xdata	SEGMENT
$unwind$?_Tidy@?$vector@PEAVInstance@@V?$allocator@PEAVInstance@@@std@@@std@@AEAAXXZ DD 020601H
	DD	030023206H
xdata	ENDS
;	COMDAT xdata
xdata	SEGMENT
$unwind$?_Change_array@?$vector@PEAVInstance@@V?$allocator@PEAVInstance@@@std@@@std@@AEAAXQEAPEAVInstance@@_K1@Z DD 050901H
	DD	070054209H
	DD	050036004H
	DD	03002H
xdata	ENDS
;	COMDAT xdata
xdata	SEGMENT
$chain$1$?erase@?$vector@PEAVInstance@@V?$allocator@PEAVInstance@@@std@@@std@@QEAA?AV?$_Vector_iterator@V?$_Vector_val@U?$_Simple_types@PEAVInstance@@@std@@@std@@@2@V?$_Vector_const_iterator@V?$_Vector_val@U?$_Simple_types@PEAVInstance@@@std@@@std@@@2@0@Z DD 021H
	DD	imagerel $LN34
	DD	imagerel $LN34+29
	DD	imagerel $unwind$?erase@?$vector@PEAVInstance@@V?$allocator@PEAVInstance@@@std@@@std@@QEAA?AV?$_Vector_iterator@V?$_Vector_val@U?$_Simple_types@PEAVInstance@@@std@@@std@@@2@V?$_Vector_const_iterator@V?$_Vector_val@U?$_Simple_types@PEAVInstance@@@std@@@std@@@2@0@Z
xdata	ENDS
;	COMDAT xdata
xdata	SEGMENT
$chain$0$?erase@?$vector@PEAVInstance@@V?$allocator@PEAVInstance@@@std@@@std@@QEAA?AV?$_Vector_iterator@V?$_Vector_val@U?$_Simple_types@PEAVInstance@@@std@@@std@@@2@V?$_Vector_const_iterator@V?$_Vector_val@U?$_Simple_types@PEAVInstance@@@std@@@std@@@2@0@Z DD 020521H
	DD	067405H
	DD	imagerel $LN34
	DD	imagerel $LN34+29
	DD	imagerel $unwind$?erase@?$vector@PEAVInstance@@V?$allocator@PEAVInstance@@@std@@@std@@QEAA?AV?$_Vector_iterator@V?$_Vector_val@U?$_Simple_types@PEAVInstance@@@std@@@std@@@2@V?$_Vector_const_iterator@V?$_Vector_val@U?$_Simple_types@PEAVInstance@@@std@@@std@@@2@0@Z
xdata	ENDS
;	COMDAT xdata
xdata	SEGMENT
$unwind$?erase@?$vector@PEAVInstance@@V?$allocator@PEAVInstance@@@std@@@std@@QEAA?AV?$_Vector_iterator@V?$_Vector_val@U?$_Simple_types@PEAVInstance@@@std@@@std@@@2@V?$_Vector_const_iterator@V?$_Vector_val@U?$_Simple_types@PEAVInstance@@@std@@@std@@@2@0@Z DD 060f01H
	DD	08540fH
	DD	07340fH
	DD	0600b320fH
xdata	ENDS
;	COMDAT xdata
xdata	SEGMENT
$unwind$??1?$vector@PEAVInstance@@V?$allocator@PEAVInstance@@@std@@@std@@QEAA@XZ DD 020601H
	DD	030023206H
xdata	ENDS
;	COMDAT xdata
xdata	SEGMENT
$unwind$?allocate@?$allocator@PEAVInstance@@@std@@QEAAPEAPEAVInstance@@_K@Z DD 010401H
	DD	04204H
xdata	ENDS
;	COMDAT xdata
xdata	SEGMENT
$unwind$?registerCube@Workspace@@AEAAXPEAVInstance@@@Z DD 010901H
	DD	04209H
xdata	ENDS
;	COMDAT xdata
xdata	SEGMENT
$chain$1$?unregisterScript@Workspace@@AEAAXPEAVInstance@@@Z DD 021H
	DD	imagerel $LN96
	DD	imagerel $LN96+54
	DD	imagerel $unwind$?unregisterScript@Workspace@@AEAAXPEAVInstance@@@Z
xdata	ENDS
;	COMDAT xdata
xdata	SEGMENT
$chain$0$?unregisterScript@Workspace@@AEAAXPEAVInstance@@@Z DD 020521H
	DD	066405H
	DD	imagerel $LN96
	DD	imagerel $LN96+54
	DD	imagerel $unwind$?unregisterScript@Workspace@@AEAAXPEAVInstance@@@Z
xdata	ENDS
;	COMDAT xdata
xdata	SEGMENT
$unwind$?unregisterScript@Workspace@@AEAAXPEAVInstance@@@Z DD 060f01H
	DD	08540fH
	DD	07340fH
	DD	0700b320fH
xdata	ENDS
;	COMDAT xdata
xdata	SEGMENT
$unwind$?registerScript@Workspace@@AEAAXPEAVInstance@@@Z DD 010901H
	DD	04209H
xdata	ENDS
;	COMDAT xdata
xdata	SEGMENT
$unwind$??$_Getvals@_W@?$time_get@_WV?$istreambuf_iterator@_WU?$char_traits@_W@std@@@std@@@std@@IEAAX_WAEBV_Locinfo@1@@Z DD 082119H
	DD	0135412H
	DD	0113412H
	DD	0e00eb212H
	DD	0600b700cH
	DD	imagerel __GSHandlerCheck
	DD	050H
xdata	ENDS
;	COMDAT xdata
xdata	SEGMENT
$unwind$??$_Getvals@_W@?$time_get@DV?$istreambuf_iterator@DU?$char_traits@D@std@@@std@@@std@@IEAAX_WAEBV_Locinfo@1@@Z DD 082119H
	DD	0135412H
	DD	0113412H
	DD	0e00eb212H
	DD	0600b700cH
	DD	imagerel __GSHandlerCheck
	DD	050H
xdata	ENDS
;	COMDAT xdata
xdata	SEGMENT
$unwind$?_Maklocwcs@std@@YAPEA_WPEB_W@Z DD 060f01H
	DD	07640fH
	DD	06340fH
	DD	0700b320fH
xdata	ENDS
;	COMDAT xdata
xdata	SEGMENT
$unwind$?_Tidy_deallocate@?$basic_string@DU?$char_traits@D@std@@V?$allocator@D@2@@std@@AEAAXXZ DD 020601H
	DD	030023206H
xdata	ENDS
;	COMDAT xdata
xdata	SEGMENT
$unwind$?_Equal@?$basic_string@DU?$char_traits@D@std@@V?$allocator@D@2@@std@@QEBA_NQEBD@Z DD 040a01H
	DD	06340aH
	DD	07006320aH
xdata	ENDS
;	COMDAT xdata
xdata	SEGMENT
$unwind$??0?$basic_string@DU?$char_traits@D@std@@V?$allocator@D@2@@std@@QEAA@QEBD@Z DD 040a01H
	DD	06340aH
	DD	07006320aH
xdata	ENDS
;	COMDAT xdata
xdata	SEGMENT
$unwind$??0?$basic_string@DU?$char_traits@D@std@@V?$allocator@D@2@@std@@QEAA@AEBV01@@Z DD 050a01H
	DD	0e006420aH
	DD	060037004H
	DD	03002H
xdata	ENDS
;	COMDAT xdata
xdata	SEGMENT
$unwind$?allocate@?$allocator@D@std@@QEAAPEAD_K@Z DD 010401H
	DD	04204H
xdata	ENDS
;	COMDAT xdata
xdata	SEGMENT
$unwind$?_Xlen_string@std@@YAXXZ DD 010401H
	DD	04204H
xdata	ENDS
;	COMDAT xdata
xdata	SEGMENT
$unwind$?_Throw_bad_array_new_length@std@@YAXXZ DD 010401H
	DD	08204H
xdata	ENDS
;	COMDAT xdata
xdata	SEGMENT
$unwind$??_Gbad_array_new_length@std@@UEAAPEAXI@Z DD 040a01H
	DD	06340aH
	DD	07006320aH
xdata	ENDS
;	COMDAT xdata
xdata	SEGMENT
$unwind$??0bad_array_new_length@std@@QEAA@AEBV01@@Z DD 020601H
	DD	030023206H
xdata	ENDS
;	COMDAT xdata
xdata	SEGMENT
$unwind$??_Gbad_alloc@std@@UEAAPEAXI@Z DD 040a01H
	DD	06340aH
	DD	07006320aH
xdata	ENDS
;	COMDAT xdata
xdata	SEGMENT
$unwind$??0bad_alloc@std@@QEAA@AEBV01@@Z DD 020601H
	DD	030023206H
xdata	ENDS
;	COMDAT xdata
xdata	SEGMENT
$unwind$??_Gexception@std@@UEAAPEAXI@Z DD 040a01H
	DD	06340aH
	DD	07006320aH
xdata	ENDS
;	COMDAT xdata
xdata	SEGMENT
$unwind$??0exception@std@@QEAA@AEBV01@@Z DD 020601H
	DD	030023206H
xdata	ENDS
;	COMDAT xdata
xdata	SEGMENT
$unwind$?copy@?$_Char_traits@DH@std@@SAPEADQEADQEBD_K@Z DD 020601H
	DD	030023206H
xdata	ENDS
; Function compile flags: /Ogtpy
;	COMDAT ??$construct_at@PEAVInstance@@PEAV1@@std@@YAPEAPEAVInstance@@QEAPEAV1@$$QEAPEAV1@@Z
_TEXT	SEGMENT
_Location$ = 8
<_Args_0>$ = 16
??$construct_at@PEAVInstance@@PEAV1@@std@@YAPEAPEAVInstance@@QEAPEAV1@$$QEAPEAV1@@Z PROC ; std::construct_at<Instance *,Instance *>, COMDAT
; File C:\Program Files\Microsoft Visual Studio\18\Community\VC\Tools\MSVC\14.50.35717\include\xutility
; Line 509
	mov	rax, QWORD PTR [rdx]
	mov	QWORD PTR [rcx], rax
	mov	rax, rcx
; Line 510
	ret	0
??$construct_at@PEAVInstance@@PEAV1@@std@@YAPEAPEAVInstance@@QEAPEAV1@$$QEAPEAV1@@Z ENDP ; std::construct_at<Instance *,Instance *>
_TEXT	ENDS
; Function compile flags: /Ogtpy
;	COMDAT ??$_Get_size_of_n@$07@std@@YA_K_K@Z
_TEXT	SEGMENT
_Count$ = 48
??$_Get_size_of_n@$07@std@@YA_K_K@Z PROC		; std::_Get_size_of_n<8>, COMDAT
; File C:\Program Files\Microsoft Visual Studio\18\Community\VC\Tools\MSVC\14.50.35717\include\xmemory
; Line 116
$LN7:
	sub	rsp, 40					; 00000028H
; Line 121
	mov	rax, 2305843009213693951		; 1fffffffffffffffH
	cmp	rcx, rax
	ja	SHORT $LN6@Get_size_o
; Line 126
	lea	rax, QWORD PTR [rcx*8]
; Line 127
	add	rsp, 40					; 00000028H
	ret	0
$LN6@Get_size_o:
; Line 122
	call	?_Throw_bad_array_new_length@std@@YAXXZ	; std::_Throw_bad_array_new_length
	int	3
$LN4@Get_size_o:
??$_Get_size_of_n@$07@std@@YA_K_K@Z ENDP		; std::_Get_size_of_n<8>
_TEXT	ENDS
; Function compile flags: /Ogtpy
;	COMDAT ??$_Allocate_manually_vector_aligned@U_Default_allocate_traits@std@@@std@@YAPEAX_K@Z
_TEXT	SEGMENT
_Bytes$ = 48
??$_Allocate_manually_vector_aligned@U_Default_allocate_traits@std@@@std@@YAPEAX_K@Z PROC ; std::_Allocate_manually_vector_aligned<std::_Default_allocate_traits>, COMDAT
; File C:\Program Files\Microsoft Visual Studio\18\Community\VC\Tools\MSVC\14.50.35717\include\xmemory
; Line 186
$LN10:
	sub	rsp, 40					; 00000028H
; Line 188
	lea	rax, QWORD PTR [rcx+39]
; Line 189
	cmp	rax, rcx
	jbe	SHORT $LN9@Allocate_m
; Line 140
	mov	rcx, rax
	call	??2@YAPEAX_K@Z				; operator new
	mov	rcx, rax
; Line 194
	test	rax, rax
	jne	SHORT $LN3@Allocate_m
	mov	ecx, 5
	int	41					; 00000029H
$LN3@Allocate_m:
; Line 195
	add	rax, 39					; 00000027H
	and	rax, -32				; ffffffffffffffe0H
; Line 196
	mov	QWORD PTR [rax-8], rcx
; Line 202
	add	rsp, 40					; 00000028H
	ret	0
$LN9@Allocate_m:
; Line 190
	call	?_Throw_bad_array_new_length@std@@YAXXZ	; std::_Throw_bad_array_new_length
	int	3
$LN7@Allocate_m:
??$_Allocate_manually_vector_aligned@U_Default_allocate_traits@std@@@std@@YAPEAX_K@Z ENDP ; std::_Allocate_manually_vector_aligned<std::_Default_allocate_traits>
_TEXT	ENDS
; Function compile flags: /Ogtpy
;	COMDAT ??$construct@PEAVInstance@@PEAV1@@?$_Default_allocator_traits@V?$allocator@PEAVInstance@@@std@@@std@@SAXAEAV?$allocator@PEAVInstance@@@1@QEAPEAVInstance@@$$QEAPEAV3@@Z
_TEXT	SEGMENT
__formal$ = 8
_Ptr$ = 16
<_Args_0>$ = 24
??$construct@PEAVInstance@@PEAV1@@?$_Default_allocator_traits@V?$allocator@PEAVInstance@@@std@@@std@@SAXAEAV?$allocator@PEAVInstance@@@1@QEAPEAVInstance@@$$QEAPEAV3@@Z PROC ; std::_Default_allocator_traits<std::allocator<Instance *> >::construct<Instance *,Instance *>, COMDAT
; File C:\Program Files\Microsoft Visual Studio\18\Community\VC\Tools\MSVC\14.50.35717\include\xmemory
; File C:\Program Files\Microsoft Visual Studio\18\Community\VC\Tools\MSVC\14.50.35717\include\xutility
; Line 509
	mov	rax, QWORD PTR [r8]
	mov	QWORD PTR [rdx], rax
; File C:\Program Files\Microsoft Visual Studio\18\Community\VC\Tools\MSVC\14.50.35717\include\xmemory
; Line 738
	ret	0
??$construct@PEAVInstance@@PEAV1@@?$_Default_allocator_traits@V?$allocator@PEAVInstance@@@std@@@std@@SAXAEAV?$allocator@PEAVInstance@@@1@QEAPEAVInstance@@$$QEAPEAV3@@Z ENDP ; std::_Default_allocator_traits<std::allocator<Instance *> >::construct<Instance *,Instance *>
_TEXT	ENDS
; Function compile flags: /Ogtpy
;	COMDAT ??$forward@PEAVInstance@@@std@@YA$$QEAPEAVInstance@@AEAPEAV1@@Z
_TEXT	SEGMENT
_Arg$ = 8
??$forward@PEAVInstance@@@std@@YA$$QEAPEAVInstance@@AEAPEAV1@@Z PROC ; std::forward<Instance *>, COMDAT
; File C:\Program Files\Microsoft Visual Studio\18\Community\VC\Tools\MSVC\14.50.35717\include\type_traits
; Line 1510
	mov	rax, rcx
; Line 1511
	ret	0
??$forward@PEAVInstance@@@std@@YA$$QEAPEAVInstance@@AEAPEAV1@@Z ENDP ; std::forward<Instance *>
_TEXT	ENDS
; Function compile flags: /Ogtpy
;	COMDAT ??$_Get_size_of_n@$00@std@@YA_K_K@Z
_TEXT	SEGMENT
_Count$ = 8
??$_Get_size_of_n@$00@std@@YA_K_K@Z PROC		; std::_Get_size_of_n<1>, COMDAT
; File C:\Program Files\Microsoft Visual Studio\18\Community\VC\Tools\MSVC\14.50.35717\include\xmemory
; Line 126
	mov	rax, rcx
; Line 127
	ret	0
??$_Get_size_of_n@$00@std@@YA_K_K@Z ENDP		; std::_Get_size_of_n<1>
_TEXT	ENDS
; Function compile flags: /Ogtpy
;	COMDAT ??$_Allocate@$0BA@U_Default_allocate_traits@std@@@std@@YAPEAX_K@Z
_TEXT	SEGMENT
_Bytes$ = 48
??$_Allocate@$0BA@U_Default_allocate_traits@std@@@std@@YAPEAX_K@Z PROC ; std::_Allocate<16,std::_Default_allocate_traits>, COMDAT
; File C:\Program Files\Microsoft Visual Studio\18\Community\VC\Tools\MSVC\14.50.35717\include\xmemory
; Line 229
$LN20:
	sub	rsp, 40					; 00000028H
; Line 231
	test	rcx, rcx
	jne	SHORT $LN2@Allocate
; Line 232
	xor	eax, eax
; Line 262
	add	rsp, 40					; 00000028H
	ret	0
$LN2@Allocate:
; Line 255
	cmp	rcx, 4096				; 00001000H
	jb	SHORT $LN4@Allocate
; Line 188
	lea	rax, QWORD PTR [rcx+39]
; Line 189
	cmp	rax, rcx
	jbe	SHORT $LN19@Allocate
; Line 140
	mov	rcx, rax
	call	??2@YAPEAX_K@Z				; operator new
	mov	rcx, rax
; Line 194
	test	rax, rax
	jne	SHORT $LN10@Allocate
	mov	ecx, 5
	int	41					; 00000029H
$LN10@Allocate:
; Line 195
	add	rax, 39					; 00000027H
	and	rax, -32				; ffffffffffffffe0H
; Line 196
	mov	QWORD PTR [rax-8], rcx
; Line 262
	add	rsp, 40					; 00000028H
	ret	0
$LN4@Allocate:
	add	rsp, 40					; 00000028H
; Line 140
	jmp	??2@YAPEAX_K@Z				; operator new
$LN19@Allocate:
; Line 190
	call	?_Throw_bad_array_new_length@std@@YAXXZ	; std::_Throw_bad_array_new_length
	int	3
$LN17@Allocate:
??$_Allocate@$0BA@U_Default_allocate_traits@std@@@std@@YAPEAX_K@Z ENDP ; std::_Allocate<16,std::_Default_allocate_traits>
_TEXT	ENDS
; Function compile flags: /Ogtpy
;	COMDAT ??$_Emplace_back@PEAVInstance@@@?$_Uninitialized_backout_al@V?$allocator@PEAVInstance@@@std@@@std@@QEAAX$$QEAPEAVInstance@@@Z
_TEXT	SEGMENT
this$ = 8
<_Vals_0>$ = 16
??$_Emplace_back@PEAVInstance@@@?$_Uninitialized_backout_al@V?$allocator@PEAVInstance@@@std@@@std@@QEAAX$$QEAPEAVInstance@@@Z PROC ; std::_Uninitialized_backout_al<std::allocator<Instance *> >::_Emplace_back<Instance *>, COMDAT
; File C:\Program Files\Microsoft Visual Studio\18\Community\VC\Tools\MSVC\14.50.35717\include\xmemory
; Line 1864
	mov	r8, QWORD PTR [rcx+8]
	mov	rax, QWORD PTR [rdx]
	mov	QWORD PTR [r8], rax
; Line 1865
	add	QWORD PTR [rcx+8], 8
; Line 1866
	ret	0
??$_Emplace_back@PEAVInstance@@@?$_Uninitialized_backout_al@V?$allocator@PEAVInstance@@@std@@@std@@QEAAX$$QEAPEAVInstance@@@Z ENDP ; std::_Uninitialized_backout_al<std::allocator<Instance *> >::_Emplace_back<Instance *>
_TEXT	ENDS
; Function compile flags: /Ogtpy
;	COMDAT ?_Release@?$_Uninitialized_backout_al@V?$allocator@PEAVInstance@@@std@@@std@@QEAAPEAPEAVInstance@@XZ
_TEXT	SEGMENT
this$ = 8
?_Release@?$_Uninitialized_backout_al@V?$allocator@PEAVInstance@@@std@@@std@@QEAAPEAPEAVInstance@@XZ PROC ; std::_Uninitialized_backout_al<std::allocator<Instance *> >::_Release, COMDAT
; File C:\Program Files\Microsoft Visual Studio\18\Community\VC\Tools\MSVC\14.50.35717\include\xmemory
; Line 1869
	mov	rax, QWORD PTR [rcx+8]
	mov	QWORD PTR [rcx], rax
; Line 1871
	ret	0
?_Release@?$_Uninitialized_backout_al@V?$allocator@PEAVInstance@@@std@@@std@@QEAAPEAPEAVInstance@@XZ ENDP ; std::_Uninitialized_backout_al<std::allocator<Instance *> >::_Release
_TEXT	ENDS
; Function compile flags: /Ogtpy
;	COMDAT ??1?$_Uninitialized_backout_al@V?$allocator@PEAVInstance@@@std@@@std@@QEAA@XZ
_TEXT	SEGMENT
this$ = 8
??1?$_Uninitialized_backout_al@V?$allocator@PEAVInstance@@@std@@@std@@QEAA@XZ PROC ; std::_Uninitialized_backout_al<std::allocator<Instance *> >::~_Uninitialized_backout_al<std::allocator<Instance *> >, COMDAT
; File C:\Program Files\Microsoft Visual Studio\18\Community\VC\Tools\MSVC\14.50.35717\include\xmemory
; Line 1860
	ret	0
??1?$_Uninitialized_backout_al@V?$allocator@PEAVInstance@@@std@@@std@@QEAA@XZ ENDP ; std::_Uninitialized_backout_al<std::allocator<Instance *> >::~_Uninitialized_backout_al<std::allocator<Instance *> >
_TEXT	ENDS
; Function compile flags: /Ogtpy
;	COMDAT ??0?$_Uninitialized_backout_al@V?$allocator@PEAVInstance@@@std@@@std@@QEAA@PEAPEAVInstance@@AEAV?$allocator@PEAVInstance@@@1@@Z
_TEXT	SEGMENT
this$ = 8
_Dest$ = 16
_Al_$ = 24
??0?$_Uninitialized_backout_al@V?$allocator@PEAVInstance@@@std@@@std@@QEAA@PEAPEAVInstance@@AEAV?$allocator@PEAVInstance@@@1@@Z PROC ; std::_Uninitialized_backout_al<std::allocator<Instance *> >::_Uninitialized_backout_al<std::allocator<Instance *> >, COMDAT
; File C:\Program Files\Microsoft Visual Studio\18\Community\VC\Tools\MSVC\14.50.35717\include\xmemory
; Line 1853
	mov	QWORD PTR [rcx], rdx
	mov	rax, rcx
	mov	QWORD PTR [rcx+8], rdx
	mov	QWORD PTR [rcx+16], r8
	ret	0
??0?$_Uninitialized_backout_al@V?$allocator@PEAVInstance@@@std@@@std@@QEAA@PEAPEAVInstance@@AEAV?$allocator@PEAVInstance@@@1@@Z ENDP ; std::_Uninitialized_backout_al<std::allocator<Instance *> >::_Uninitialized_backout_al<std::allocator<Instance *> >
_TEXT	ENDS
; Function compile flags: /Ogtpy
;	COMDAT ??$_Get_unwrapped@AEBQEAPEAVInstance@@@std@@YA?A_TAEBQEAPEAVInstance@@@Z
_TEXT	SEGMENT
_It$ = 8
??$_Get_unwrapped@AEBQEAPEAVInstance@@@std@@YA?A_TAEBQEAPEAVInstance@@@Z PROC ; std::_Get_unwrapped<Instance * * const &>, COMDAT
; File C:\Program Files\Microsoft Visual Studio\18\Community\VC\Tools\MSVC\14.50.35717\include\xutility
; Line 1448
	mov	rax, QWORD PTR [rcx]
; Line 1454
	ret	0
??$_Get_unwrapped@AEBQEAPEAVInstance@@@std@@YA?A_TAEBQEAPEAVInstance@@@Z ENDP ; std::_Get_unwrapped<Instance * * const &>
_TEXT	ENDS
; Function compile flags: /Ogtpy
;	COMDAT ??$construct_at@PEAVInstance@@AEBQEAV1@@std@@YAPEAPEAVInstance@@QEAPEAV1@AEBQEAV1@@Z
_TEXT	SEGMENT
_Location$ = 8
<_Args_0>$ = 16
??$construct_at@PEAVInstance@@AEBQEAV1@@std@@YAPEAPEAVInstance@@QEAPEAV1@AEBQEAV1@@Z PROC ; std::construct_at<Instance *,Instance * const &>, COMDAT
; File C:\Program Files\Microsoft Visual Studio\18\Community\VC\Tools\MSVC\14.50.35717\include\xutility
; Line 509
	mov	rax, QWORD PTR [rdx]
	mov	QWORD PTR [rcx], rax
	mov	rax, rcx
; Line 510
	ret	0
??$construct_at@PEAVInstance@@AEBQEAV1@@std@@YAPEAPEAVInstance@@QEAPEAV1@AEBQEAV1@@Z ENDP ; std::construct_at<Instance *,Instance * const &>
_TEXT	ENDS
; Function compile flags: /Ogtpy
;	COMDAT ??$addressof@PEAVInstance@@@std@@YAPEAPEAVInstance@@AEAPEAV1@@Z
_TEXT	SEGMENT
_Val$ = 8
??$addressof@PEAVInstance@@@std@@YAPEAPEAVInstance@@AEAPEAV1@@Z PROC ; std::addressof<Instance *>, COMDAT
; File C:\Program Files\Microsoft Visual Studio\18\Community\VC\Tools\MSVC\14.50.35717\include\type_traits
; Line 1533
	mov	rax, rcx
; Line 1534
	ret	0
??$addressof@PEAVInstance@@@std@@YAPEAPEAVInstance@@AEAPEAV1@@Z ENDP ; std::addressof<Instance *>
_TEXT	ENDS
; Function compile flags: /Ogtpy
;	COMDAT ??$_Destroy_in_place@PEAD@std@@YAXAEAPEAD@Z
_TEXT	SEGMENT
_Obj$ = 8
??$_Destroy_in_place@PEAD@std@@YAXAEAPEAD@Z PROC	; std::_Destroy_in_place<char *>, COMDAT
; File C:\Program Files\Microsoft Visual Studio\18\Community\VC\Tools\MSVC\14.50.35717\include\xmemory
; Line 330
	ret	0
??$_Destroy_in_place@PEAD@std@@YAXAEAPEAD@Z ENDP	; std::_Destroy_in_place<char *>
_TEXT	ENDS
; Function compile flags: /Ogtpy
;	COMDAT ??$_Deallocate@$0BA@@std@@YAXPEAX_K@Z
_TEXT	SEGMENT
_Ptr$ = 8
_Bytes$ = 16
??$_Deallocate@$0BA@@std@@YAXPEAX_K@Z PROC		; std::_Deallocate<16>, COMDAT
; File C:\Program Files\Microsoft Visual Studio\18\Community\VC\Tools\MSVC\14.50.35717\include\xmemory
; Line 288
	cmp	rdx, 4096				; 00001000H
	jb	SHORT $LN9@Deallocate
; Line 209
	mov	rax, QWORD PTR [rcx-8]
; Line 223
	sub	rcx, rax
	sub	rcx, 8
	cmp	rcx, 31
	ja	SHORT $LN8@Deallocate
; Line 224
	add	rdx, 39					; 00000027H
	mov	rcx, rax
$LN9@Deallocate:
; Line 293
	jmp	??3@YAXPEAX_K@Z				; operator delete
$LN8@Deallocate:
; Line 223
	mov	ecx, 5
	int	41					; 00000029H
$LN11@Deallocate:
??$_Deallocate@$0BA@@std@@YAXPEAX_K@Z ENDP		; std::_Deallocate<16>
_TEXT	ENDS
; Function compile flags: /Ogtpy
;	COMDAT ??$_Refancy_maybe_null@PEAPEAVInstance@@$0A@@std@@YAPEAPEAVInstance@@PEAPEAV1@@Z
_TEXT	SEGMENT
_Ptr$ = 8
??$_Refancy_maybe_null@PEAPEAVInstance@@$0A@@std@@YAPEAPEAVInstance@@PEAPEAV1@@Z PROC ; std::_Refancy_maybe_null<Instance * *,0>, COMDAT
; File C:\Program Files\Microsoft Visual Studio\18\Community\VC\Tools\MSVC\14.50.35717\include\xmemory
; Line 317
	mov	rax, rcx
; Line 318
	ret	0
??$_Refancy_maybe_null@PEAPEAVInstance@@$0A@@std@@YAPEAPEAVInstance@@PEAPEAV1@@Z ENDP ; std::_Refancy_maybe_null<Instance * *,0>
_TEXT	ENDS
; Function compile flags: /Ogtpy
;	COMDAT ??$_Uninitialized_move@PEAPEAVInstance@@V?$allocator@PEAVInstance@@@std@@@std@@YAPEAPEAVInstance@@QEAPEAV1@0PEAPEAV1@AEAV?$allocator@PEAVInstance@@@0@@Z
_TEXT	SEGMENT
_First$ = 48
_Last$ = 56
_Dest$ = 64
_Al$ = 72
??$_Uninitialized_move@PEAPEAVInstance@@V?$allocator@PEAVInstance@@@std@@@std@@YAPEAPEAVInstance@@QEAPEAV1@0PEAPEAV1@AEAV?$allocator@PEAVInstance@@@0@@Z PROC ; std::_Uninitialized_move<Instance * *,std::allocator<Instance *> >, COMDAT
; File C:\Program Files\Microsoft Visual Studio\18\Community\VC\Tools\MSVC\14.50.35717\include\xmemory
; Line 1997
$LN24:
	mov	QWORD PTR [rsp+8], rbx
	push	rdi
	sub	rsp, 32					; 00000020H
	mov	rbx, rdx
	mov	rdi, r8
; File C:\Program Files\Microsoft Visual Studio\18\Community\VC\Tools\MSVC\14.50.35717\include\xutility
; Line 4880
	sub	rbx, rcx
; Line 4862
	mov	rdx, rcx
	mov	r8, rbx
	mov	rcx, rdi
	call	memmove
; File C:\Program Files\Microsoft Visual Studio\18\Community\VC\Tools\MSVC\14.50.35717\include\xmemory
; Line 2013
	sar	rbx, 3
	lea	rax, QWORD PTR [rdi+rbx*8]
; Line 2023
	mov	rbx, QWORD PTR [rsp+48]
	add	rsp, 32					; 00000020H
	pop	rdi
	ret	0
??$_Uninitialized_move@PEAPEAVInstance@@V?$allocator@PEAVInstance@@@std@@@std@@YAPEAPEAVInstance@@QEAPEAV1@0PEAPEAV1@AEAV?$allocator@PEAVInstance@@@0@@Z ENDP ; std::_Uninitialized_move<Instance * *,std::allocator<Instance *> >
_TEXT	ENDS
; Function compile flags: /Ogtpy
;	COMDAT ??$construct@PEAVInstance@@AEBQEAV1@@?$_Default_allocator_traits@V?$allocator@PEAVInstance@@@std@@@std@@SAXAEAV?$allocator@PEAVInstance@@@1@QEAPEAVInstance@@AEBQEAV3@@Z
_TEXT	SEGMENT
__formal$ = 8
_Ptr$ = 16
<_Args_0>$ = 24
??$construct@PEAVInstance@@AEBQEAV1@@?$_Default_allocator_traits@V?$allocator@PEAVInstance@@@std@@@std@@SAXAEAV?$allocator@PEAVInstance@@@1@QEAPEAVInstance@@AEBQEAV3@@Z PROC ; std::_Default_allocator_traits<std::allocator<Instance *> >::construct<Instance *,Instance * const &>, COMDAT
; File C:\Program Files\Microsoft Visual Studio\18\Community\VC\Tools\MSVC\14.50.35717\include\xmemory
; File C:\Program Files\Microsoft Visual Studio\18\Community\VC\Tools\MSVC\14.50.35717\include\xutility
; Line 509
	mov	rax, QWORD PTR [r8]
	mov	QWORD PTR [rdx], rax
; File C:\Program Files\Microsoft Visual Studio\18\Community\VC\Tools\MSVC\14.50.35717\include\xmemory
; Line 738
	ret	0
??$construct@PEAVInstance@@AEBQEAV1@@?$_Default_allocator_traits@V?$allocator@PEAVInstance@@@std@@@std@@SAXAEAV?$allocator@PEAVInstance@@@1@QEAPEAVInstance@@AEBQEAV3@@Z ENDP ; std::_Default_allocator_traits<std::allocator<Instance *> >::construct<Instance *,Instance * const &>
_TEXT	ENDS
; Function compile flags: /Ogtpy
;	COMDAT ??$_Unfancy@PEAVInstance@@@std@@YAPEAPEAVInstance@@PEAPEAV1@@Z
_TEXT	SEGMENT
_Ptr$ = 8
??$_Unfancy@PEAVInstance@@@std@@YAPEAPEAVInstance@@PEAPEAV1@@Z PROC ; std::_Unfancy<Instance *>, COMDAT
; File C:\Program Files\Microsoft Visual Studio\18\Community\VC\Tools\MSVC\14.50.35717\include\xmemory
; Line 73
	mov	rax, rcx
; Line 74
	ret	0
??$_Unfancy@PEAVInstance@@@std@@YAPEAPEAVInstance@@PEAPEAV1@@Z ENDP ; std::_Unfancy<Instance *>
_TEXT	ENDS
; Function compile flags: /Ogtpy
;	COMDAT ??1_Reallocation_guard@?$vector@PEAVInstance@@V?$allocator@PEAVInstance@@@std@@@std@@QEAA@XZ
_TEXT	SEGMENT
this$ = 8
??1_Reallocation_guard@?$vector@PEAVInstance@@V?$allocator@PEAVInstance@@@std@@@std@@QEAA@XZ PROC ; std::vector<Instance *,std::allocator<Instance *> >::_Reallocation_guard::~_Reallocation_guard, COMDAT
; File C:\Program Files\Microsoft Visual Studio\18\Community\VC\Tools\MSVC\14.50.35717\include\vector
; Line 621
	mov	rdx, QWORD PTR [rcx+8]
	test	rdx, rdx
	je	SHORT $LN8@Reallocati
; File C:\Program Files\Microsoft Visual Studio\18\Community\VC\Tools\MSVC\14.50.35717\include\xmemory
; Line 989
	mov	rax, QWORD PTR [rcx+16]
	lea	rax, QWORD PTR [rax*8]
; Line 288
	cmp	rax, 4096				; 00001000H
	jb	SHORT $LN20@Reallocati
; Line 209
	mov	rcx, QWORD PTR [rdx-8]
; Line 223
	sub	rdx, rcx
	sub	rdx, 8
	cmp	rdx, 31
	ja	SHORT $LN15@Reallocati
; Line 206
	add	rax, 39					; 00000027H
; Line 293
	mov	rdx, rax
	jmp	??3@YAXPEAX_K@Z				; operator delete
$LN15@Reallocati:
; Line 223
	mov	ecx, 5
	int	41					; 00000029H
$LN20@Reallocati:
; Line 989
	mov	rcx, rdx
; Line 293
	mov	rdx, rax
	jmp	??3@YAXPEAX_K@Z				; operator delete
$LN8@Reallocati:
; File C:\Program Files\Microsoft Visual Studio\18\Community\VC\Tools\MSVC\14.50.35717\include\vector
; Line 625
	ret	0
$LN21@Reallocati:
??1_Reallocation_guard@?$vector@PEAVInstance@@V?$allocator@PEAVInstance@@@std@@@std@@QEAA@XZ ENDP ; std::vector<Instance *,std::allocator<Instance *> >::_Reallocation_guard::~_Reallocation_guard
_TEXT	ENDS
; Function compile flags: /Ogtpy
;	COMDAT ??$_Allocate_at_least_helper@V?$allocator@PEAVInstance@@@std@@@std@@YAPEAPEAVInstance@@AEAV?$allocator@PEAVInstance@@@0@AEA_K@Z
_TEXT	SEGMENT
_Al$ = 48
_Count$ = 56
??$_Allocate_at_least_helper@V?$allocator@PEAVInstance@@@std@@@std@@YAPEAPEAVInstance@@AEAV?$allocator@PEAVInstance@@@0@AEA_K@Z PROC ; std::_Allocate_at_least_helper<std::allocator<Instance *> >, COMDAT
; File C:\Program Files\Microsoft Visual Studio\18\Community\VC\Tools\MSVC\14.50.35717\include\xmemory
; Line 2314
$LN30:
	sub	rsp, 40					; 00000028H
; Line 2323
	mov	rcx, QWORD PTR [rdx]
; Line 121
	mov	rax, 2305843009213693951		; 1fffffffffffffffH
	cmp	rcx, rax
	ja	SHORT $LN26@Allocate_a
; Line 126
	lea	rcx, QWORD PTR [rcx*8]
; Line 231
	test	rcx, rcx
	jne	SHORT $LN10@Allocate_a
; Line 232
	xor	eax, eax
; Line 2325
	add	rsp, 40					; 00000028H
	ret	0
$LN10@Allocate_a:
; Line 255
	cmp	rcx, 4096				; 00001000H
	jb	SHORT $LN12@Allocate_a
; Line 188
	lea	rax, QWORD PTR [rcx+39]
; Line 189
	cmp	rax, rcx
	jbe	SHORT $LN26@Allocate_a
; Line 140
	mov	rcx, rax
	call	??2@YAPEAX_K@Z				; operator new
	mov	rcx, rax
; Line 194
	test	rax, rax
	jne	SHORT $LN18@Allocate_a
	mov	ecx, 5
	int	41					; 00000029H
$LN18@Allocate_a:
; Line 195
	add	rax, 39					; 00000027H
	and	rax, -32				; ffffffffffffffe0H
; Line 196
	mov	QWORD PTR [rax-8], rcx
; Line 2325
	add	rsp, 40					; 00000028H
	ret	0
$LN12@Allocate_a:
	add	rsp, 40					; 00000028H
; Line 140
	jmp	??2@YAPEAX_K@Z				; operator new
$LN26@Allocate_a:
; Line 190
	call	?_Throw_bad_array_new_length@std@@YAXXZ	; std::_Throw_bad_array_new_length
	int	3
$LN28@Allocate_a:
??$_Allocate_at_least_helper@V?$allocator@PEAVInstance@@@std@@@std@@YAPEAPEAVInstance@@AEAV?$allocator@PEAVInstance@@@0@AEA_K@Z ENDP ; std::_Allocate_at_least_helper<std::allocator<Instance *> >
_TEXT	ENDS
; Function compile flags: /Ogtpy
;	COMDAT ??$_Construct_in_place@PEAVInstance@@AEBQEAV1@@std@@YAXAEAPEAVInstance@@AEBQEAV1@@Z
_TEXT	SEGMENT
_Obj$ = 8
<_Args_0>$ = 16
??$_Construct_in_place@PEAVInstance@@AEBQEAV1@@std@@YAXAEAPEAVInstance@@AEBQEAV1@@Z PROC ; std::_Construct_in_place<Instance *,Instance * const &>, COMDAT
; File C:\Program Files\Microsoft Visual Studio\18\Community\VC\Tools\MSVC\14.50.35717\include\xutility
; Line 524
	mov	rax, QWORD PTR [rdx]
	mov	QWORD PTR [rcx], rax
	ret	0
??$_Construct_in_place@PEAVInstance@@AEBQEAV1@@std@@YAXAEAPEAVInstance@@AEBQEAV1@@Z ENDP ; std::_Construct_in_place<Instance *,Instance * const &>
_TEXT	ENDS
; Function compile flags: /Ogtpy
;	COMDAT ??$_Copy_memmove_tail@PEAPEAVInstance@@@std@@YAPEAPEAVInstance@@QEBDQEAPEAV1@_K2@Z
_TEXT	SEGMENT
_First_ch$ = 48
_Dest$ = 56
_Byte_count$ = 64
_Object_count$ = 72
??$_Copy_memmove_tail@PEAPEAVInstance@@@std@@YAPEAPEAVInstance@@QEBDQEAPEAV1@_K2@Z PROC ; std::_Copy_memmove_tail<Instance * *>, COMDAT
; File C:\Program Files\Microsoft Visual Studio\18\Community\VC\Tools\MSVC\14.50.35717\include\xutility
; Line 4858
$LN4:
	mov	QWORD PTR [rsp+8], rbx
	push	rdi
	sub	rsp, 32					; 00000020H
	mov	rbx, rdx
	mov	rdi, r8
; Line 4862
	mov	rdx, rcx
	mov	rcx, rbx
	call	memmove
; Line 4866
	lea	rax, QWORD PTR [rbx+rdi]
; Line 4870
	mov	rbx, QWORD PTR [rsp+48]
	add	rsp, 32					; 00000020H
	pop	rdi
	ret	0
??$_Copy_memmove_tail@PEAPEAVInstance@@@std@@YAPEAPEAVInstance@@QEBDQEAPEAV1@_K2@Z ENDP ; std::_Copy_memmove_tail<Instance * *>
_TEXT	ENDS
; Function compile flags: /Ogtpy
;	COMDAT ??$move@AEAPEAPEAVInstance@@@std@@YA$$QEAPEAPEAVInstance@@AEAPEAPEAV1@@Z
_TEXT	SEGMENT
_Arg$ = 8
??$move@AEAPEAPEAVInstance@@@std@@YA$$QEAPEAPEAVInstance@@AEAPEAPEAV1@@Z PROC ; std::move<Instance * * &>, COMDAT
; File C:\Program Files\Microsoft Visual Studio\18\Community\VC\Tools\MSVC\14.50.35717\include\type_traits
; Line 1521
	mov	rax, rcx
; Line 1522
	ret	0
??$move@AEAPEAPEAVInstance@@@std@@YA$$QEAPEAPEAVInstance@@AEAPEAPEAV1@@Z ENDP ; std::move<Instance * * &>
_TEXT	ENDS
; Function compile flags: /Ogtpy
;	COMDAT ??$construct_at@PEADAEBQEAD@std@@YAPEAPEADQEAPEADAEBQEAD@Z
_TEXT	SEGMENT
_Location$ = 8
<_Args_0>$ = 16
??$construct_at@PEADAEBQEAD@std@@YAPEAPEADQEAPEADAEBQEAD@Z PROC ; std::construct_at<char *,char * const &>, COMDAT
; File C:\Program Files\Microsoft Visual Studio\18\Community\VC\Tools\MSVC\14.50.35717\include\xutility
; Line 509
	mov	rax, QWORD PTR [rdx]
	mov	QWORD PTR [rcx], rax
	mov	rax, rcx
; Line 510
	ret	0
??$construct_at@PEADAEBQEAD@std@@YAPEAPEADQEAPEADAEBQEAD@Z ENDP ; std::construct_at<char *,char * const &>
_TEXT	ENDS
; Function compile flags: /Ogtpy
;	COMDAT ??$forward@AEBQEAD@std@@YAAEBQEADAEBQEAD@Z
_TEXT	SEGMENT
_Arg$ = 8
??$forward@AEBQEAD@std@@YAAEBQEADAEBQEAD@Z PROC		; std::forward<char * const &>, COMDAT
; File C:\Program Files\Microsoft Visual Studio\18\Community\VC\Tools\MSVC\14.50.35717\include\type_traits
; Line 1510
	mov	rax, rcx
; Line 1511
	ret	0
??$forward@AEBQEAD@std@@YAAEBQEADAEBQEAD@Z ENDP		; std::forward<char * const &>
_TEXT	ENDS
; Function compile flags: /Ogtpy
;	COMDAT ??$addressof@PEAD@std@@YAPEAPEADAEAPEAD@Z
_TEXT	SEGMENT
_Val$ = 8
??$addressof@PEAD@std@@YAPEAPEADAEAPEAD@Z PROC		; std::addressof<char *>, COMDAT
; File C:\Program Files\Microsoft Visual Studio\18\Community\VC\Tools\MSVC\14.50.35717\include\type_traits
; Line 1533
	mov	rax, rcx
; Line 1534
	ret	0
??$addressof@PEAD@std@@YAPEAPEADAEAPEAD@Z ENDP		; std::addressof<char *>
_TEXT	ENDS
; Function compile flags: /Ogtpy
;	COMDAT ??$_Traits_equal@U?$char_traits@D@std@@@std@@YA_NQEBD_K01@Z
_TEXT	SEGMENT
_Left$ = 48
_Left_size$ = 56
_Right$ = 64
_Right_size$ = 72
??$_Traits_equal@U?$char_traits@D@std@@@std@@YA_NQEBD_K01@Z PROC ; std::_Traits_equal<std::char_traits<char> >, COMDAT
; File C:\Program Files\Microsoft Visual Studio\18\Community\VC\Tools\MSVC\14.50.35717\include\__msvc_string_view.hpp
; Line 671
$LN11:
	sub	rsp, 40					; 00000028H
	mov	rax, r8
; Line 673
	cmp	rdx, r9
	je	SHORT $LN2@Traits_equ
; Line 674
	xor	al, al
; Line 682
	add	rsp, 40					; 00000028H
	ret	0
$LN2@Traits_equ:
; Line 677
	test	rdx, rdx
	jne	SHORT $LN3@Traits_equ
; Line 678
	mov	al, 1
; Line 682
	add	rsp, 40					; 00000028H
	ret	0
$LN3@Traits_equ:
; Line 511
	mov	r8, rdx
	mov	rdx, rax
	call	memcmp
; Line 681
	test	eax, eax
	sete	al
; Line 682
	add	rsp, 40					; 00000028H
	ret	0
??$_Traits_equal@U?$char_traits@D@std@@@std@@YA_NQEBD_K01@Z ENDP ; std::_Traits_equal<std::char_traits<char> >
_TEXT	ENDS
; Function compile flags: /Ogtpy
;	COMDAT ??$_Unfancy_maybe_null@PEAVInstance@@@std@@YAPEAPEAVInstance@@PEAPEAV1@@Z
_TEXT	SEGMENT
_Ptr$ = 8
??$_Unfancy_maybe_null@PEAVInstance@@@std@@YAPEAPEAVInstance@@PEAPEAV1@@Z PROC ; std::_Unfancy_maybe_null<Instance *>, COMDAT
; File C:\Program Files\Microsoft Visual Studio\18\Community\VC\Tools\MSVC\14.50.35717\include\xmemory
; Line 84
	mov	rax, rcx
; Line 85
	ret	0
??$_Unfancy_maybe_null@PEAVInstance@@@std@@YAPEAPEAVInstance@@PEAPEAV1@@Z ENDP ; std::_Unfancy_maybe_null<Instance *>
_TEXT	ENDS
; Function compile flags: /Ogtpy
;	COMDAT ??$forward@V?$allocator@D@std@@@std@@YA$$QEAV?$allocator@D@0@AEAV10@@Z
_TEXT	SEGMENT
_Arg$ = 8
??$forward@V?$allocator@D@std@@@std@@YA$$QEAV?$allocator@D@0@AEAV10@@Z PROC ; std::forward<std::allocator<char> >, COMDAT
; File C:\Program Files\Microsoft Visual Studio\18\Community\VC\Tools\MSVC\14.50.35717\include\type_traits
; Line 1510
	mov	rax, rcx
; Line 1511
	ret	0
??$forward@V?$allocator@D@std@@@std@@YA$$QEAV?$allocator@D@0@AEAV10@@Z ENDP ; std::forward<std::allocator<char> >
_TEXT	ENDS
; Function compile flags: /Ogtpy
;	COMDAT ??$_Traits_copy_batch@U?$char_traits@D@std@@D@std@@YAXQEADQEBD_K@Z
_TEXT	SEGMENT
_First1$ = 8
_First2$ = 16
_Count$ = 24
??$_Traits_copy_batch@U?$char_traits@D@std@@D@std@@YAXQEADQEBD_K@Z PROC ; std::_Traits_copy_batch<std::char_traits<char>,char>, COMDAT
; File C:\Program Files\Microsoft Visual Studio\18\Community\VC\Tools\MSVC\14.50.35717\include\xstring
; File C:\Program Files\Microsoft Visual Studio\18\Community\VC\Tools\MSVC\14.50.35717\include\__msvc_string_view.hpp
; Line 200
	jmp	memcpy
??$_Traits_copy_batch@U?$char_traits@D@std@@D@std@@YAXQEADQEBD_K@Z ENDP ; std::_Traits_copy_batch<std::char_traits<char>,char>
_TEXT	ENDS
; Function compile flags: /Ogtpy
;	COMDAT ??$_Emplace_reallocate@AEBQEAVInstance@@@?$vector@PEAVInstance@@V?$allocator@PEAVInstance@@@std@@@std@@AEAAPEAPEAVInstance@@QEAPEAV2@AEBQEAV2@@Z
_TEXT	SEGMENT
this$ = 80
_Whereptr$ = 88
<_Val_0>$ = 96
??$_Emplace_reallocate@AEBQEAVInstance@@@?$vector@PEAVInstance@@V?$allocator@PEAVInstance@@@std@@@std@@AEAAPEAPEAVInstance@@QEAPEAV2@AEBQEAV2@@Z PROC ; std::vector<Instance *,std::allocator<Instance *> >::_Emplace_reallocate<Instance * const &>, COMDAT
; File C:\Program Files\Microsoft Visual Studio\18\Community\VC\Tools\MSVC\14.50.35717\include\vector
; Line 875
$LN166:
	push	rbp
	push	rdi
	push	r13
	push	r14
	sub	rsp, 40					; 00000028H
; Line 884
	mov	rbp, QWORD PTR [rcx]
	mov	r13, r8
; Line 885
	mov	r9, QWORD PTR [rcx+8]
; Line 887
	mov	r8, 2305843009213693951			; 1fffffffffffffffH
	sub	r9, rbp
	mov	r14, rdx
	sar	r9, 3
	mov	rdi, rcx
	cmp	r9, r8
	je	$LN164@Emplace_re
; Line 1924
	mov	rcx, QWORD PTR [rcx+16]
; Line 2011
	mov	rax, r8
	mov	QWORD PTR [rsp+80], rbx
; Line 1924
	sub	rcx, rbp
	sar	rcx, 3
	mov	QWORD PTR [rsp+88], rsi
; Line 2011
	mov	rdx, rcx
	shr	rdx, 1
	sub	rax, rdx
	mov	QWORD PTR [rsp+96], r12
	mov	QWORD PTR [rsp+32], r15
	cmp	rcx, rax
	ja	$LN142@Emplace_re
; Line 891
	lea	r12, QWORD PTR [r9+1]
; Line 2015
	lea	rax, QWORD PTR [rcx+rdx]
; File C:\Program Files\Microsoft Visual Studio\18\Community\VC\Tools\MSVC\14.50.35717\include\xmemory
; Line 121
	mov	rsi, r12
	cmp	rax, r12
	cmovae	rsi, rax
	cmp	rsi, r8
	ja	$LN142@Emplace_re
; Line 126
	lea	rsi, QWORD PTR [rsi*8]
; Line 231
	test	rsi, rsi
	jne	SHORT $LN23@Emplace_re
; Line 232
	xor	ebx, ebx
	jmp	SHORT $LN22@Emplace_re
$LN23@Emplace_re:
; Line 255
	cmp	rsi, 4096				; 00001000H
	jb	SHORT $LN25@Emplace_re
; Line 188
	lea	rcx, QWORD PTR [rsi+39]
; Line 189
	cmp	rcx, rsi
	jbe	$LN142@Emplace_re
; Line 140
	call	??2@YAPEAX_K@Z				; operator new
; Line 194
	test	rax, rax
	je	$LN102@Emplace_re
; Line 195
	lea	rbx, QWORD PTR [rax+39]
	and	rbx, -32				; ffffffffffffffe0H
; Line 196
	mov	QWORD PTR [rbx-8], rax
; Line 257
	jmp	SHORT $LN22@Emplace_re
$LN25@Emplace_re:
; Line 140
	mov	rcx, rsi
	call	??2@YAPEAX_K@Z				; operator new
	mov	rbx, rax
$LN22@Emplace_re:
; File C:\Program Files\Microsoft Visual Studio\18\Community\VC\Tools\MSVC\14.50.35717\include\vector
; Line 884
	mov	rcx, r14
	sub	rcx, rbp
	sar	rcx, 3
; Line 900
	lea	r15, QWORD PTR [rbx+rcx*8]
	mov	rcx, QWORD PTR [r13]
	mov	QWORD PTR [r15], rcx
; Line 903
	mov	rcx, rbx
	mov	r8, QWORD PTR [rdi+8]
	mov	rdx, QWORD PTR [rdi]
	cmp	r14, r8
	jne	SHORT $LN3@Emplace_re
; File C:\Program Files\Microsoft Visual Studio\18\Community\VC\Tools\MSVC\14.50.35717\include\xutility
; Line 4880
	sub	r8, rdx
; File C:\Program Files\Microsoft Visual Studio\18\Community\VC\Tools\MSVC\14.50.35717\include\vector
; Line 909
	jmp	SHORT $LN162@Emplace_re
$LN3@Emplace_re:
; File C:\Program Files\Microsoft Visual Studio\18\Community\VC\Tools\MSVC\14.50.35717\include\xutility
; Line 4880
	mov	r8, r14
	sub	r8, rdx
; Line 4862
	call	memmove
; Line 4880
	mov	r8, QWORD PTR [rdi+8]
; File C:\Program Files\Microsoft Visual Studio\18\Community\VC\Tools\MSVC\14.50.35717\include\vector
; Line 912
	lea	rcx, QWORD PTR [r15+8]
; File C:\Program Files\Microsoft Visual Studio\18\Community\VC\Tools\MSVC\14.50.35717\include\xutility
; Line 4880
	sub	r8, r14
; Line 4862
	mov	rdx, r14
$LN162@Emplace_re:
; File C:\Program Files\Microsoft Visual Studio\18\Community\VC\Tools\MSVC\14.50.35717\include\vector
; Line 2069
	call	memmove
	mov	rcx, QWORD PTR [rdi]
	test	rcx, rcx
	je	SHORT $LN95@Emplace_re
; Line 2072
	mov	rax, QWORD PTR [rdi+16]
	sub	rax, rcx
	sar	rax, 3
; File C:\Program Files\Microsoft Visual Studio\18\Community\VC\Tools\MSVC\14.50.35717\include\xmemory
; Line 989
	lea	rdx, QWORD PTR [rax*8]
; Line 288
	cmp	rdx, 4096				; 00001000H
	jb	SHORT $LN145@Emplace_re
; Line 209
	mov	rax, QWORD PTR [rcx-8]
; Line 223
	sub	rcx, rax
	sub	rcx, 8
	cmp	rcx, 31
	ja	SHORT $LN102@Emplace_re
; Line 224
	add	rdx, 39					; 00000027H
	jmp	SHORT $LN103@Emplace_re
$LN102@Emplace_re:
; Line 223
	mov	ecx, 5
	int	41					; 00000029H
$LN145@Emplace_re:
; Line 989
	mov	rax, rcx
$LN103@Emplace_re:
; Line 293
	mov	rcx, rax
	call	??3@YAXPEAX_K@Z				; operator delete
$LN95@Emplace_re:
; File C:\Program Files\Microsoft Visual Studio\18\Community\VC\Tools\MSVC\14.50.35717\include\vector
; Line 2076
	lea	rcx, QWORD PTR [rbx+r12*8]
	mov	QWORD PTR [rdi], rbx
	mov	r12, QWORD PTR [rsp+96]
; Line 917
	mov	rax, r15
	mov	r15, QWORD PTR [rsp+32]
; Line 2076
	mov	QWORD PTR [rdi+8], rcx
; Line 2077
	lea	rcx, QWORD PTR [rsi+rbx]
	mov	rsi, QWORD PTR [rsp+88]
	mov	rbx, QWORD PTR [rsp+80]
	mov	QWORD PTR [rdi+16], rcx
; Line 918
	add	rsp, 40					; 00000028H
	pop	r14
	pop	r13
	pop	rdi
	pop	rbp
	ret	0
$LN164@Emplace_re:
; Line 888
	call	?_Xlength@?$vector@PEAVInstance@@V?$allocator@PEAVInstance@@@std@@@std@@CAXXZ ; std::vector<Instance *,std::allocator<Instance *> >::_Xlength
	int	3
$LN142@Emplace_re:
; File C:\Program Files\Microsoft Visual Studio\18\Community\VC\Tools\MSVC\14.50.35717\include\xmemory
; Line 190
	call	?_Throw_bad_array_new_length@std@@YAXXZ	; std::_Throw_bad_array_new_length
	int	3
$LN161@Emplace_re:
??$_Emplace_reallocate@AEBQEAVInstance@@@?$vector@PEAVInstance@@V?$allocator@PEAVInstance@@@std@@@std@@AEAAPEAPEAVInstance@@QEAPEAV2@AEBQEAV2@@Z ENDP ; std::vector<Instance *,std::allocator<Instance *> >::_Emplace_reallocate<Instance * const &>
_TEXT	ENDS
; Function compile flags: /Ogtpy
;	COMDAT ??$_Emplace_back_with_unused_capacity@AEBQEAVInstance@@@?$vector@PEAVInstance@@V?$allocator@PEAVInstance@@@std@@@std@@AEAAAEAPEAVInstance@@AEBQEAV2@@Z
_TEXT	SEGMENT
this$ = 8
<_Val_0>$ = 16
??$_Emplace_back_with_unused_capacity@AEBQEAVInstance@@@?$vector@PEAVInstance@@V?$allocator@PEAVInstance@@@std@@@std@@AEAAAEAPEAVInstance@@AEBQEAV2@@Z PROC ; std::vector<Instance *,std::allocator<Instance *> >::_Emplace_back_with_unused_capacity<Instance * const &>, COMDAT
; File C:\Program Files\Microsoft Visual Studio\18\Community\VC\Tools\MSVC\14.50.35717\include\vector
; Line 860
	mov	rax, QWORD PTR [rdx]
	mov	r8, QWORD PTR [rcx+8]
	mov	QWORD PTR [r8], rax
; Line 868
	mov	rax, QWORD PTR [rcx+8]
; Line 869
	lea	rdx, QWORD PTR [rax+8]
	mov	QWORD PTR [rcx+8], rdx
; Line 872
	ret	0
??$_Emplace_back_with_unused_capacity@AEBQEAVInstance@@@?$vector@PEAVInstance@@V?$allocator@PEAVInstance@@@std@@@std@@AEAAAEAPEAVInstance@@AEBQEAV2@@Z ENDP ; std::vector<Instance *,std::allocator<Instance *> >::_Emplace_back_with_unused_capacity<Instance * const &>
_TEXT	ENDS
; Function compile flags: /Ogtpy
;	COMDAT ??$forward@AEBQEAVInstance@@@std@@YAAEBQEAVInstance@@AEBQEAV1@@Z
_TEXT	SEGMENT
_Arg$ = 8
??$forward@AEBQEAVInstance@@@std@@YAAEBQEAVInstance@@AEBQEAV1@@Z PROC ; std::forward<Instance * const &>, COMDAT
; File C:\Program Files\Microsoft Visual Studio\18\Community\VC\Tools\MSVC\14.50.35717\include\type_traits
; Line 1510
	mov	rax, rcx
; Line 1511
	ret	0
??$forward@AEBQEAVInstance@@@std@@YAAEBQEAVInstance@@AEBQEAV1@@Z ENDP ; std::forward<Instance * const &>
_TEXT	ENDS
; Function compile flags: /Ogtpy
;	COMDAT ??$_Copy_memmove@PEAPEAVInstance@@PEAPEAV1@@std@@YAPEAPEAVInstance@@PEAPEAV1@00@Z
_TEXT	SEGMENT
_First$ = 48
_Last$ = 56
_Dest$ = 64
??$_Copy_memmove@PEAPEAVInstance@@PEAPEAV1@@std@@YAPEAPEAVInstance@@PEAPEAV1@00@Z PROC ; std::_Copy_memmove<Instance * *,Instance * *>, COMDAT
; File C:\Program Files\Microsoft Visual Studio\18\Community\VC\Tools\MSVC\14.50.35717\include\xutility
; Line 4873
$LN6:
	mov	QWORD PTR [rsp+8], rbx
	push	rdi
	sub	rsp, 32					; 00000020H
	mov	rbx, rdx
	mov	rdi, r8
; Line 4880
	sub	rbx, rcx
; Line 4862
	mov	rdx, rcx
	mov	r8, rbx
	mov	rcx, rdi
	call	memmove
; Line 4866
	lea	rax, QWORD PTR [rbx+rdi]
; Line 4882
	mov	rbx, QWORD PTR [rsp+48]
	add	rsp, 32					; 00000020H
	pop	rdi
	ret	0
??$_Copy_memmove@PEAPEAVInstance@@PEAPEAV1@@std@@YAPEAPEAVInstance@@PEAPEAV1@00@Z ENDP ; std::_Copy_memmove<Instance * *,Instance * *>
_TEXT	ENDS
; Function compile flags: /Ogtpy
;	COMDAT ??$forward@AEAPEAPEAVInstance@@@std@@YAAEAPEAPEAVInstance@@AEAPEAPEAV1@@Z
_TEXT	SEGMENT
_Arg$ = 8
??$forward@AEAPEAPEAVInstance@@@std@@YAAEAPEAPEAVInstance@@AEAPEAPEAV1@@Z PROC ; std::forward<Instance * * &>, COMDAT
; File C:\Program Files\Microsoft Visual Studio\18\Community\VC\Tools\MSVC\14.50.35717\include\type_traits
; Line 1510
	mov	rax, rcx
; Line 1511
	ret	0
??$forward@AEAPEAPEAVInstance@@@std@@YAAEAPEAPEAVInstance@@AEAPEAPEAV1@@Z ENDP ; std::forward<Instance * * &>
_TEXT	ENDS
; Function compile flags: /Ogtpy
;	COMDAT ??$_Find_vectorized@PEAVInstance@@PEAV1@@std@@YAPEAPEAVInstance@@QEAPEAV1@0QEAV1@@Z
_TEXT	SEGMENT
_First$ = 8
_Last$ = 16
_Val$ = 24
??$_Find_vectorized@PEAVInstance@@PEAV1@@std@@YAPEAPEAVInstance@@QEAPEAV1@0QEAV1@@Z PROC ; std::_Find_vectorized<Instance *,Instance *>, COMDAT
; File C:\Program Files\Microsoft Visual Studio\18\Community\VC\Tools\MSVC\14.50.35717\include\xutility
; Line 217
	jmp	__std_find_trivial_8
??$_Find_vectorized@PEAVInstance@@PEAV1@@std@@YAPEAPEAVInstance@@QEAPEAV1@0QEAV1@@Z ENDP ; std::_Find_vectorized<Instance *,Instance *>
_TEXT	ENDS
; Function compile flags: /Ogtpy
;	COMDAT ??$_Could_compare_equal_to_value_type@PEAPEAVInstance@@PEAV1@@std@@YA_NAEBQEAVInstance@@@Z
_TEXT	SEGMENT
_Val$ = 8
??$_Could_compare_equal_to_value_type@PEAPEAVInstance@@PEAV1@@std@@YA_NAEBQEAVInstance@@@Z PROC ; std::_Could_compare_equal_to_value_type<Instance * *,Instance *>, COMDAT
; File C:\Program Files\Microsoft Visual Studio\18\Community\VC\Tools\MSVC\14.50.35717\include\xutility
; Line 6191
	mov	al, 1
; Line 6233
	ret	0
??$_Could_compare_equal_to_value_type@PEAPEAVInstance@@PEAV1@@std@@YA_NAEBQEAVInstance@@@Z ENDP ; std::_Could_compare_equal_to_value_type<Instance * *,Instance *>
_TEXT	ENDS
; Function compile flags: /Ogtpy
;	COMDAT ??$max@_K@std@@YAAEB_KAEB_K0@Z
_TEXT	SEGMENT
_Left$ = 8
_Right$ = 16
??$max@_K@std@@YAAEB_KAEB_K0@Z PROC			; std::max<unsigned __int64>, COMDAT
; File C:\Program Files\Microsoft Visual Studio\18\Community\VC\Tools\MSVC\14.50.35717\include\utility
; Line 77
	mov	rax, QWORD PTR [rdx]
	cmp	QWORD PTR [rcx], rax
	cmovb	rcx, rdx
	mov	rax, rcx
; Line 78
	ret	0
??$max@_K@std@@YAAEB_KAEB_K0@Z ENDP			; std::max<unsigned __int64>
_TEXT	ENDS
; Function compile flags: /Ogtpy
;	COMDAT ??$_Construct_in_place@PEADAEBQEAD@std@@YAXAEAPEADAEBQEAD@Z
_TEXT	SEGMENT
_Obj$ = 8
<_Args_0>$ = 16
??$_Construct_in_place@PEADAEBQEAD@std@@YAXAEAPEADAEBQEAD@Z PROC ; std::_Construct_in_place<char *,char * const &>, COMDAT
; File C:\Program Files\Microsoft Visual Studio\18\Community\VC\Tools\MSVC\14.50.35717\include\xutility
; Line 524
	mov	rax, QWORD PTR [rdx]
	mov	QWORD PTR [rcx], rax
	ret	0
??$_Construct_in_place@PEADAEBQEAD@std@@YAXAEAPEADAEBQEAD@Z ENDP ; std::_Construct_in_place<char *,char * const &>
_TEXT	ENDS
; Function compile flags: /Ogtpy
;	COMDAT ??$construct_at@D$$V@std@@YAPEADQEAD@Z
_TEXT	SEGMENT
_Location$ = 8
??$construct_at@D$$V@std@@YAPEADQEAD@Z PROC		; std::construct_at<char>, COMDAT
; File C:\Program Files\Microsoft Visual Studio\18\Community\VC\Tools\MSVC\14.50.35717\include\xutility
; Line 509
	xor	eax, eax
	mov	BYTE PTR [rcx], al
	mov	rax, rcx
; Line 510
	ret	0
??$construct_at@D$$V@std@@YAPEADQEAD@Z ENDP		; std::construct_at<char>
_TEXT	ENDS
; Function compile flags: /Ogtpy
;	COMDAT ??$_Allocate_at_least_helper@V?$allocator@D@std@@@std@@YAPEADAEAV?$allocator@D@0@AEA_K@Z
_TEXT	SEGMENT
_Al$ = 48
_Count$ = 56
??$_Allocate_at_least_helper@V?$allocator@D@std@@@std@@YAPEADAEAV?$allocator@D@0@AEA_K@Z PROC ; std::_Allocate_at_least_helper<std::allocator<char> >, COMDAT
; File C:\Program Files\Microsoft Visual Studio\18\Community\VC\Tools\MSVC\14.50.35717\include\xmemory
; Line 2314
$LN26:
	sub	rsp, 40					; 00000028H
; Line 2323
	mov	rcx, QWORD PTR [rdx]
; Line 231
	test	rcx, rcx
	jne	SHORT $LN6@Allocate_a
; Line 232
	xor	eax, eax
; Line 2325
	add	rsp, 40					; 00000028H
	ret	0
$LN6@Allocate_a:
; Line 255
	cmp	rcx, 4096				; 00001000H
	jb	SHORT $LN8@Allocate_a
; Line 188
	lea	rax, QWORD PTR [rcx+39]
; Line 189
	cmp	rax, rcx
	jbe	SHORT $LN25@Allocate_a
; Line 140
	mov	rcx, rax
	call	??2@YAPEAX_K@Z				; operator new
	mov	rcx, rax
; Line 194
	test	rax, rax
	jne	SHORT $LN14@Allocate_a
	mov	ecx, 5
	int	41					; 00000029H
$LN14@Allocate_a:
; Line 195
	add	rax, 39					; 00000027H
	and	rax, -32				; ffffffffffffffe0H
; Line 196
	mov	QWORD PTR [rax-8], rcx
; Line 2325
	add	rsp, 40					; 00000028H
	ret	0
$LN8@Allocate_a:
	add	rsp, 40					; 00000028H
; Line 140
	jmp	??2@YAPEAX_K@Z				; operator new
$LN25@Allocate_a:
; Line 190
	call	?_Throw_bad_array_new_length@std@@YAXXZ	; std::_Throw_bad_array_new_length
	int	3
$LN23@Allocate_a:
??$_Allocate_at_least_helper@V?$allocator@D@std@@@std@@YAPEADAEAV?$allocator@D@0@AEA_K@Z ENDP ; std::_Allocate_at_least_helper<std::allocator<char> >
_TEXT	ENDS
; Function compile flags: /Ogtpy
;	COMDAT ??$_Allocate_for_capacity@$0A@@?$basic_string@DU?$char_traits@D@std@@V?$allocator@D@2@@std@@CAPEADAEAV?$allocator@D@1@AEA_K@Z
_TEXT	SEGMENT
_Al$ = 48
_Capacity$ = 56
??$_Allocate_for_capacity@$0A@@?$basic_string@DU?$char_traits@D@std@@V?$allocator@D@2@@std@@CAPEADAEAV?$allocator@D@1@AEA_K@Z PROC ; std::basic_string<char,std::char_traits<char>,std::allocator<char> >::_Allocate_for_capacity<0>, COMDAT
; File C:\Program Files\Microsoft Visual Studio\18\Community\VC\Tools\MSVC\14.50.35717\include\xstring
; Line 873
$LN46:
	push	rbx
	sub	rsp, 32					; 00000020H
; Line 875
	add	QWORD PTR [rdx], 1
	mov	rbx, rdx
	mov	rcx, QWORD PTR [rdx]
; File C:\Program Files\Microsoft Visual Studio\18\Community\VC\Tools\MSVC\14.50.35717\include\xmemory
; Line 231
	jne	SHORT $LN12@Allocate_f
; Line 232
	xor	eax, eax
; File C:\Program Files\Microsoft Visual Studio\18\Community\VC\Tools\MSVC\14.50.35717\include\xstring
; Line 895
	dec	QWORD PTR [rdx]
; Line 897
	add	rsp, 32					; 00000020H
	pop	rbx
	ret	0
$LN12@Allocate_f:
; File C:\Program Files\Microsoft Visual Studio\18\Community\VC\Tools\MSVC\14.50.35717\include\xmemory
; Line 255
	cmp	rcx, 4096				; 00001000H
	jb	SHORT $LN14@Allocate_f
; Line 188
	lea	rax, QWORD PTR [rcx+39]
; Line 189
	cmp	rax, rcx
	jbe	SHORT $LN44@Allocate_f
; Line 140
	mov	rcx, rax
	call	??2@YAPEAX_K@Z				; operator new
	mov	rcx, rax
; Line 194
	test	rax, rax
	jne	SHORT $LN20@Allocate_f
	mov	ecx, 5
	int	41					; 00000029H
$LN20@Allocate_f:
; Line 195
	add	rax, 39					; 00000027H
	and	rax, -32				; ffffffffffffffe0H
; Line 196
	mov	QWORD PTR [rax-8], rcx
; File C:\Program Files\Microsoft Visual Studio\18\Community\VC\Tools\MSVC\14.50.35717\include\xstring
; Line 895
	dec	QWORD PTR [rbx]
; Line 897
	add	rsp, 32					; 00000020H
	pop	rbx
	ret	0
$LN14@Allocate_f:
; File C:\Program Files\Microsoft Visual Studio\18\Community\VC\Tools\MSVC\14.50.35717\include\xmemory
; Line 140
	call	??2@YAPEAX_K@Z				; operator new
; File C:\Program Files\Microsoft Visual Studio\18\Community\VC\Tools\MSVC\14.50.35717\include\xstring
; Line 895
	dec	QWORD PTR [rbx]
; Line 897
	add	rsp, 32					; 00000020H
	pop	rbx
	ret	0
$LN44@Allocate_f:
; File C:\Program Files\Microsoft Visual Studio\18\Community\VC\Tools\MSVC\14.50.35717\include\xmemory
; Line 190
	call	?_Throw_bad_array_new_length@std@@YAXXZ	; std::_Throw_bad_array_new_length
	int	3
$LN42@Allocate_f:
??$_Allocate_for_capacity@$0A@@?$basic_string@DU?$char_traits@D@std@@V?$allocator@D@2@@std@@CAPEADAEAV?$allocator@D@1@AEA_K@Z ENDP ; std::basic_string<char,std::char_traits<char>,std::allocator<char> >::_Allocate_for_capacity<0>
_TEXT	ENDS
; Function compile flags: /Ogtpy
;	COMDAT ??$_Construct@$01PEBD@?$basic_string@DU?$char_traits@D@std@@V?$allocator@D@2@@std@@AEAAXQEBD_K@Z
_TEXT	SEGMENT
this$ = 80
_Arg$ = 88
_Count$ = 96
??$_Construct@$01PEBD@?$basic_string@DU?$char_traits@D@std@@V?$allocator@D@2@@std@@AEAAXQEBD_K@Z PROC ; std::basic_string<char,std::char_traits<char>,std::allocator<char> >::_Construct<2,char const *>, COMDAT
; File C:\Program Files\Microsoft Visual Studio\18\Community\VC\Tools\MSVC\14.50.35717\include\xstring
; Line 921
$LN101:
	push	rbx
	push	rbp
	push	rsi
	push	rdi
	sub	rsp, 40					; 00000028H
; Line 931
	mov	rbx, 9223372036854775807		; 7fffffffffffffffH
	mov	rdi, r8
	mov	rbp, rdx
	mov	rsi, rcx
	cmp	r8, rbx
	ja	$LN98@Construct
; Line 939
	cmp	r8, 15
	ja	SHORT $LN3@Construct
; Line 940
	mov	QWORD PTR [rcx+16], r8
; Line 941
	mov	QWORD PTR [rcx+24], 15
; File C:\Program Files\Microsoft Visual Studio\18\Community\VC\Tools\MSVC\14.50.35717\include\__msvc_string_view.hpp
; Line 200
	movups	xmm0, XMMWORD PTR [rdx]
	movups	XMMWORD PTR [rcx], xmm0
; File C:\Program Files\Microsoft Visual Studio\18\Community\VC\Tools\MSVC\14.50.35717\include\xstring
; Line 979
	add	rsp, 40					; 00000028H
	pop	rdi
	pop	rsi
	pop	rbp
	pop	rbx
	ret	0
$LN3@Construct:
; Line 2885
	mov	rax, rdi
	or	rax, 15
; Line 2886
	cmp	rax, rbx
	jbe	SHORT $LN16@Construct
; Line 2887
	mov	rax, -9223372036854775769		; 8000000000000027H
$LN41@Construct:
; File C:\Program Files\Microsoft Visual Studio\18\Community\VC\Tools\MSVC\14.50.35717\include\xmemory
; Line 140
	mov	rcx, rax
	call	??2@YAPEAX_K@Z				; operator new
	mov	rcx, rax
; Line 194
	test	rax, rax
	jne	SHORT $LN42@Construct
	mov	ecx, 5
	int	41					; 00000029H
$LN16@Construct:
; File C:\Program Files\Microsoft Visual Studio\18\Community\VC\Tools\MSVC\14.50.35717\include\utility
; Line 77
	mov	ecx, 22
	mov	rbx, rax
	cmp	rax, rcx
	cmovb	rbx, rcx
; File C:\Program Files\Microsoft Visual Studio\18\Community\VC\Tools\MSVC\14.50.35717\include\xstring
; Line 875
	lea	rcx, QWORD PTR [rbx+1]
; File C:\Program Files\Microsoft Visual Studio\18\Community\VC\Tools\MSVC\14.50.35717\include\xmemory
; Line 231
	test	rcx, rcx
	jne	SHORT $LN34@Construct
; Line 232
	xor	eax, eax
	jmp	SHORT $LN33@Construct
$LN34@Construct:
; Line 255
	cmp	rcx, 4096				; 00001000H
	jb	SHORT $LN36@Construct
; Line 188
	lea	rax, QWORD PTR [rcx+39]
; Line 189
	cmp	rax, rcx
	jbe	SHORT $LN99@Construct
	jmp	SHORT $LN41@Construct
$LN42@Construct:
; Line 195
	add	rax, 39					; 00000027H
	and	rax, -32				; ffffffffffffffe0H
; Line 196
	mov	QWORD PTR [rax-8], rcx
; Line 257
	jmp	SHORT $LN33@Construct
$LN36@Construct:
; Line 140
	call	??2@YAPEAX_K@Z				; operator new
$LN33@Construct:
; File C:\Program Files\Microsoft Visual Studio\18\Community\VC\Tools\MSVC\14.50.35717\include\xstring
; Line 974
	lea	r8, QWORD PTR [rdi+1]
	mov	QWORD PTR [rsi], rax
; File C:\Program Files\Microsoft Visual Studio\18\Community\VC\Tools\MSVC\14.50.35717\include\__msvc_string_view.hpp
; Line 200
	mov	rdx, rbp
; File C:\Program Files\Microsoft Visual Studio\18\Community\VC\Tools\MSVC\14.50.35717\include\xstring
; Line 965
	mov	QWORD PTR [rsi+16], rdi
; File C:\Program Files\Microsoft Visual Studio\18\Community\VC\Tools\MSVC\14.50.35717\include\__msvc_string_view.hpp
; Line 200
	mov	rcx, rax
; File C:\Program Files\Microsoft Visual Studio\18\Community\VC\Tools\MSVC\14.50.35717\include\xstring
; Line 966
	mov	QWORD PTR [rsi+24], rbx
; Line 979
	add	rsp, 40					; 00000028H
	pop	rdi
	pop	rsi
	pop	rbp
	pop	rbx
; File C:\Program Files\Microsoft Visual Studio\18\Community\VC\Tools\MSVC\14.50.35717\include\__msvc_string_view.hpp
; Line 200
	jmp	memcpy
$LN98@Construct:
; File C:\Program Files\Microsoft Visual Studio\18\Community\VC\Tools\MSVC\14.50.35717\include\xstring
; Line 932
	call	?_Xlen_string@std@@YAXXZ		; std::_Xlen_string
	int	3
$LN99@Construct:
; File C:\Program Files\Microsoft Visual Studio\18\Community\VC\Tools\MSVC\14.50.35717\include\xmemory
; Line 190
	call	?_Throw_bad_array_new_length@std@@YAXXZ	; std::_Throw_bad_array_new_length
	int	3
$LN96@Construct:
??$_Construct@$01PEBD@?$basic_string@DU?$char_traits@D@std@@V?$allocator@D@2@@std@@AEAAXQEBD_K@Z ENDP ; std::basic_string<char,std::char_traits<char>,std::allocator<char> >::_Construct<2,char const *>
_TEXT	ENDS
; Function compile flags: /Ogtpy
;	COMDAT ??$_Construct@$00PEBD@?$basic_string@DU?$char_traits@D@std@@V?$allocator@D@2@@std@@AEAAXQEBD_K@Z
_TEXT	SEGMENT
this$ = 80
_Arg$ = 88
_Count$ = 96
??$_Construct@$00PEBD@?$basic_string@DU?$char_traits@D@std@@V?$allocator@D@2@@std@@AEAAXQEBD_K@Z PROC ; std::basic_string<char,std::char_traits<char>,std::allocator<char> >::_Construct<1,char const *>, COMDAT
; File C:\Program Files\Microsoft Visual Studio\18\Community\VC\Tools\MSVC\14.50.35717\include\xstring
; Line 921
$LN108:
	push	rbx
	push	rbp
	push	rsi
	push	r14
	sub	rsp, 40					; 00000028H
; Line 931
	mov	rsi, 9223372036854775807		; 7fffffffffffffffH
	mov	rbx, r8
	mov	rbp, rdx
	mov	r14, rcx
	cmp	r8, rsi
	ja	$LN105@Construct
; Line 939
	cmp	rbx, 15
	ja	SHORT $LN3@Construct
; Line 940
	mov	QWORD PTR [rcx+16], rbx
; Line 941
	mov	QWORD PTR [rcx+24], 15
; File C:\Program Files\Microsoft Visual Studio\18\Community\VC\Tools\MSVC\14.50.35717\include\__msvc_string_view.hpp
; Line 200
	call	memcpy
; File C:\Program Files\Microsoft Visual Studio\18\Community\VC\Tools\MSVC\14.50.35717\include\xstring
; Line 948
	mov	BYTE PTR [rbx+r14], 0
; Line 979
	add	rsp, 40					; 00000028H
	pop	r14
	pop	rsi
	pop	rbp
	pop	rbx
	ret	0
$LN3@Construct:
; Line 2885
	mov	rax, rbx
	mov	QWORD PTR [rsp+80], rdi
	or	rax, 15
; Line 2886
	cmp	rax, rsi
	jbe	SHORT $LN19@Construct
; Line 2887
	mov	rax, -9223372036854775769		; 8000000000000027H
$LN44@Construct:
; File C:\Program Files\Microsoft Visual Studio\18\Community\VC\Tools\MSVC\14.50.35717\include\xmemory
; Line 140
	mov	rcx, rax
	call	??2@YAPEAX_K@Z				; operator new
; Line 194
	test	rax, rax
	jne	SHORT $LN45@Construct
	mov	ecx, 5
	int	41					; 00000029H
$LN19@Construct:
; File C:\Program Files\Microsoft Visual Studio\18\Community\VC\Tools\MSVC\14.50.35717\include\utility
; Line 77
	mov	ecx, 22
	mov	rsi, rax
	cmp	rax, rcx
	cmovb	rsi, rcx
; File C:\Program Files\Microsoft Visual Studio\18\Community\VC\Tools\MSVC\14.50.35717\include\xstring
; Line 875
	lea	rcx, QWORD PTR [rsi+1]
; File C:\Program Files\Microsoft Visual Studio\18\Community\VC\Tools\MSVC\14.50.35717\include\xmemory
; Line 231
	test	rcx, rcx
	jne	SHORT $LN37@Construct
; Line 232
	xor	edi, edi
	jmp	SHORT $LN36@Construct
$LN37@Construct:
; Line 255
	cmp	rcx, 4096				; 00001000H
	jb	SHORT $LN39@Construct
; Line 188
	lea	rax, QWORD PTR [rcx+39]
; Line 189
	cmp	rax, rcx
	jbe	SHORT $LN106@Construct
	jmp	SHORT $LN44@Construct
$LN45@Construct:
; Line 195
	lea	rdi, QWORD PTR [rax+39]
	and	rdi, -32				; ffffffffffffffe0H
; Line 196
	mov	QWORD PTR [rdi-8], rax
; Line 257
	jmp	SHORT $LN36@Construct
$LN39@Construct:
; Line 140
	call	??2@YAPEAX_K@Z				; operator new
	mov	rdi, rax
$LN36@Construct:
; File C:\Program Files\Microsoft Visual Studio\18\Community\VC\Tools\MSVC\14.50.35717\include\__msvc_string_view.hpp
; Line 200
	mov	r8, rbx
; File C:\Program Files\Microsoft Visual Studio\18\Community\VC\Tools\MSVC\14.50.35717\include\xstring
; Line 963
	mov	QWORD PTR [r14], rdi
; File C:\Program Files\Microsoft Visual Studio\18\Community\VC\Tools\MSVC\14.50.35717\include\__msvc_string_view.hpp
; Line 200
	mov	rdx, rbp
; File C:\Program Files\Microsoft Visual Studio\18\Community\VC\Tools\MSVC\14.50.35717\include\xstring
; Line 965
	mov	QWORD PTR [r14+16], rbx
; File C:\Program Files\Microsoft Visual Studio\18\Community\VC\Tools\MSVC\14.50.35717\include\__msvc_string_view.hpp
; Line 200
	mov	rcx, rdi
; File C:\Program Files\Microsoft Visual Studio\18\Community\VC\Tools\MSVC\14.50.35717\include\xstring
; Line 966
	mov	QWORD PTR [r14+24], rsi
; File C:\Program Files\Microsoft Visual Studio\18\Community\VC\Tools\MSVC\14.50.35717\include\__msvc_string_view.hpp
; Line 200
	call	memcpy
; File C:\Program Files\Microsoft Visual Studio\18\Community\VC\Tools\MSVC\14.50.35717\include\xstring
; Line 972
	mov	BYTE PTR [rdi+rbx], 0
	mov	rdi, QWORD PTR [rsp+80]
; Line 979
	add	rsp, 40					; 00000028H
	pop	r14
	pop	rsi
	pop	rbp
	pop	rbx
	ret	0
$LN105@Construct:
; Line 932
	call	?_Xlen_string@std@@YAXXZ		; std::_Xlen_string
	int	3
$LN106@Construct:
; File C:\Program Files\Microsoft Visual Studio\18\Community\VC\Tools\MSVC\14.50.35717\include\xmemory
; Line 190
	call	?_Throw_bad_array_new_length@std@@YAXXZ	; std::_Throw_bad_array_new_length
	int	3
$LN103@Construct:
??$_Construct@$00PEBD@?$basic_string@DU?$char_traits@D@std@@V?$allocator@D@2@@std@@AEAAXQEBD_K@Z ENDP ; std::basic_string<char,std::char_traits<char>,std::allocator<char> >::_Construct<1,char const *>
_TEXT	ENDS
; Function compile flags: /Ogtpy
;	COMDAT ??$?0$$V@?$_Compressed_pair@V?$allocator@D@std@@V?$_String_val@U?$_Simple_types@D@std@@@2@$00@std@@QEAA@U_Zero_then_variadic_args_t@1@@Z
_TEXT	SEGMENT
this$ = 8
__formal$ = 16
??$?0$$V@?$_Compressed_pair@V?$allocator@D@std@@V?$_String_val@U?$_Simple_types@D@std@@@2@$00@std@@QEAA@U_Zero_then_variadic_args_t@1@@Z PROC ; std::_Compressed_pair<std::allocator<char>,std::_String_val<std::_Simple_types<char> >,1>::_Compressed_pair<std::allocator<char>,std::_String_val<std::_Simple_types<char> >,1><>, COMDAT
; File C:\Program Files\Microsoft Visual Studio\18\Community\VC\Tools\MSVC\14.50.35717\include\xmemory
; File C:\Program Files\Microsoft Visual Studio\18\Community\VC\Tools\MSVC\14.50.35717\include\xstring
; Line 517
	xor	eax, eax
	xorps	xmm0, xmm0
; Line 493
	movups	XMMWORD PTR [rcx], xmm0
; Line 517
	mov	QWORD PTR [rcx+16], rax
; Line 518
	mov	QWORD PTR [rcx+24], rax
; File C:\Program Files\Microsoft Visual Studio\18\Community\VC\Tools\MSVC\14.50.35717\include\xmemory
; Line 1551
	mov	rax, rcx
	ret	0
??$?0$$V@?$_Compressed_pair@V?$allocator@D@std@@V?$_String_val@U?$_Simple_types@D@std@@@2@$00@std@@QEAA@U_Zero_then_variadic_args_t@1@@Z ENDP ; std::_Compressed_pair<std::allocator<char>,std::_String_val<std::_Simple_types<char> >,1>::_Compressed_pair<std::allocator<char>,std::_String_val<std::_Simple_types<char> >,1><>
_TEXT	ENDS
; Function compile flags: /Ogtpy
;	COMDAT ??$_Get_proxy_allocator@V?$allocator@D@std@@@std@@YA?AU_Fake_allocator@0@AEBV?$allocator@D@0@@Z
_TEXT	SEGMENT
__formal$ = 8
??$_Get_proxy_allocator@V?$allocator@D@std@@@std@@YA?AU_Fake_allocator@0@AEBV?$allocator@D@0@@Z PROC ; std::_Get_proxy_allocator<std::allocator<char> >, COMDAT
; File C:\Program Files\Microsoft Visual Studio\18\Community\VC\Tools\MSVC\14.50.35717\include\xmemory
; Line 1517
	xor	al, al
; Line 1518
	ret	0
??$_Get_proxy_allocator@V?$allocator@D@std@@@std@@YA?AU_Fake_allocator@0@AEBV?$allocator@D@0@@Z ENDP ; std::_Get_proxy_allocator<std::allocator<char> >
_TEXT	ENDS
; Function compile flags: /Ogtpy
;	COMDAT ??$?0V?$allocator@D@std@@$$V@?$_Compressed_pair@V?$allocator@D@std@@V?$_String_val@U?$_Simple_types@D@std@@@2@$00@std@@QEAA@U_One_then_variadic_args_t@1@$$QEAV?$allocator@D@1@@Z
_TEXT	SEGMENT
this$ = 8
__formal$ = 16
_Val1$ = 24
??$?0V?$allocator@D@std@@$$V@?$_Compressed_pair@V?$allocator@D@std@@V?$_String_val@U?$_Simple_types@D@std@@@2@$00@std@@QEAA@U_One_then_variadic_args_t@1@$$QEAV?$allocator@D@1@@Z PROC ; std::_Compressed_pair<std::allocator<char>,std::_String_val<std::_Simple_types<char> >,1>::_Compressed_pair<std::allocator<char>,std::_String_val<std::_Simple_types<char> >,1><std::allocator<char> >, COMDAT
; File C:\Program Files\Microsoft Visual Studio\18\Community\VC\Tools\MSVC\14.50.35717\include\xmemory
; File C:\Program Files\Microsoft Visual Studio\18\Community\VC\Tools\MSVC\14.50.35717\include\xstring
; Line 517
	xor	eax, eax
	xorps	xmm0, xmm0
; Line 493
	movups	XMMWORD PTR [rcx], xmm0
; Line 517
	mov	QWORD PTR [rcx+16], rax
; Line 518
	mov	QWORD PTR [rcx+24], rax
; File C:\Program Files\Microsoft Visual Studio\18\Community\VC\Tools\MSVC\14.50.35717\include\xmemory
; Line 1556
	mov	rax, rcx
	ret	0
??$?0V?$allocator@D@std@@$$V@?$_Compressed_pair@V?$allocator@D@std@@V?$_String_val@U?$_Simple_types@D@std@@@2@$00@std@@QEAA@U_One_then_variadic_args_t@1@$$QEAV?$allocator@D@1@@Z ENDP ; std::_Compressed_pair<std::allocator<char>,std::_String_val<std::_Simple_types<char> >,1>::_Compressed_pair<std::allocator<char>,std::_String_val<std::_Simple_types<char> >,1><std::allocator<char> >
_TEXT	ENDS
; Function compile flags: /Ogtpy
;	COMDAT ??$_Convert_size@_K_K@std@@YA_K_K@Z
_TEXT	SEGMENT
_Len$ = 8
??$_Convert_size@_K_K@std@@YA_K_K@Z PROC		; std::_Convert_size<unsigned __int64,unsigned __int64>, COMDAT
; File C:\Program Files\Microsoft Visual Studio\18\Community\VC\Tools\MSVC\14.50.35717\include\xmemory
; Line 1143
	mov	rax, rcx
; Line 1144
	ret	0
??$_Convert_size@_K_K@std@@YA_K_K@Z ENDP		; std::_Convert_size<unsigned __int64,unsigned __int64>
_TEXT	ENDS
; Function compile flags: /Ogtpy
;	COMDAT ??$_Unfancy@D@std@@YAPEADPEAD@Z
_TEXT	SEGMENT
_Ptr$ = 8
??$_Unfancy@D@std@@YAPEADPEAD@Z PROC			; std::_Unfancy<char>, COMDAT
; File C:\Program Files\Microsoft Visual Studio\18\Community\VC\Tools\MSVC\14.50.35717\include\xmemory
; Line 73
	mov	rax, rcx
; Line 74
	ret	0
??$_Unfancy@D@std@@YAPEADPEAD@Z ENDP			; std::_Unfancy<char>
_TEXT	ENDS
; Function compile flags: /Ogtpy
;	COMDAT ??$_Get_proxy_allocator@V?$allocator@PEAVInstance@@@std@@@std@@YA?AU_Fake_allocator@0@AEBV?$allocator@PEAVInstance@@@0@@Z
_TEXT	SEGMENT
__formal$ = 8
??$_Get_proxy_allocator@V?$allocator@PEAVInstance@@@std@@@std@@YA?AU_Fake_allocator@0@AEBV?$allocator@PEAVInstance@@@0@@Z PROC ; std::_Get_proxy_allocator<std::allocator<Instance *> >, COMDAT
; File C:\Program Files\Microsoft Visual Studio\18\Community\VC\Tools\MSVC\14.50.35717\include\xmemory
; Line 1517
	xor	al, al
; Line 1518
	ret	0
??$_Get_proxy_allocator@V?$allocator@PEAVInstance@@@std@@@std@@YA?AU_Fake_allocator@0@AEBV?$allocator@PEAVInstance@@@0@@Z ENDP ; std::_Get_proxy_allocator<std::allocator<Instance *> >
_TEXT	ENDS
; Function compile flags: /Ogtpy
;	COMDAT ??$?0$$V@?$_Compressed_pair@V?$allocator@PEAVInstance@@@std@@V?$_Vector_val@U?$_Simple_types@PEAVInstance@@@std@@@2@$00@std@@QEAA@U_Zero_then_variadic_args_t@1@@Z
_TEXT	SEGMENT
this$ = 8
__formal$ = 16
??$?0$$V@?$_Compressed_pair@V?$allocator@PEAVInstance@@@std@@V?$_Vector_val@U?$_Simple_types@PEAVInstance@@@std@@@2@$00@std@@QEAA@U_Zero_then_variadic_args_t@1@@Z PROC ; std::_Compressed_pair<std::allocator<Instance *>,std::_Vector_val<std::_Simple_types<Instance *> >,1>::_Compressed_pair<std::allocator<Instance *>,std::_Vector_val<std::_Simple_types<Instance *> >,1><>, COMDAT
; File C:\Program Files\Microsoft Visual Studio\18\Community\VC\Tools\MSVC\14.50.35717\include\xmemory
; File C:\Program Files\Microsoft Visual Studio\18\Community\VC\Tools\MSVC\14.50.35717\include\vector
; Line 400
	xor	eax, eax
	mov	QWORD PTR [rcx], rax
	mov	QWORD PTR [rcx+8], rax
	mov	QWORD PTR [rcx+16], rax
; File C:\Program Files\Microsoft Visual Studio\18\Community\VC\Tools\MSVC\14.50.35717\include\xmemory
; Line 1551
	mov	rax, rcx
	ret	0
??$?0$$V@?$_Compressed_pair@V?$allocator@PEAVInstance@@@std@@V?$_Vector_val@U?$_Simple_types@PEAVInstance@@@std@@@2@$00@std@@QEAA@U_Zero_then_variadic_args_t@1@@Z ENDP ; std::_Compressed_pair<std::allocator<Instance *>,std::_Vector_val<std::_Simple_types<Instance *> >,1>::_Compressed_pair<std::allocator<Instance *>,std::_Vector_val<std::_Simple_types<Instance *> >,1><>
_TEXT	ENDS
; Function compile flags: /Ogtpy
;	COMDAT ??$_Emplace_one_at_back@AEBQEAVInstance@@@?$vector@PEAVInstance@@V?$allocator@PEAVInstance@@@std@@@std@@AEAAAEAPEAVInstance@@AEBQEAV2@@Z
_TEXT	SEGMENT
this$ = 8
<_Val_0>$ = 16
??$_Emplace_one_at_back@AEBQEAVInstance@@@?$vector@PEAVInstance@@V?$allocator@PEAVInstance@@@std@@@std@@AEAAAEAPEAVInstance@@AEBQEAV2@@Z PROC ; std::vector<Instance *,std::allocator<Instance *> >::_Emplace_one_at_back<Instance * const &>, COMDAT
; File C:\Program Files\Microsoft Visual Studio\18\Community\VC\Tools\MSVC\14.50.35717\include\vector
; Line 839
	mov	r8, rdx
; Line 844
	mov	rdx, QWORD PTR [rcx+8]
	cmp	rdx, QWORD PTR [rcx+16]
	je	SHORT $LN2@Emplace_on
; Line 860
	mov	rax, QWORD PTR [r8]
	mov	QWORD PTR [rdx], rax
; Line 868
	mov	rax, QWORD PTR [rcx+8]
; Line 869
	lea	rdx, QWORD PTR [rax+8]
	mov	QWORD PTR [rcx+8], rdx
; Line 849
	ret	0
$LN2@Emplace_on:
; Line 848
	jmp	??$_Emplace_reallocate@AEBQEAVInstance@@@?$vector@PEAVInstance@@V?$allocator@PEAVInstance@@@std@@@std@@AEAAPEAPEAVInstance@@QEAPEAV2@AEBQEAV2@@Z ; std::vector<Instance *,std::allocator<Instance *> >::_Emplace_reallocate<Instance * const &>
??$_Emplace_one_at_back@AEBQEAVInstance@@@?$vector@PEAVInstance@@V?$allocator@PEAVInstance@@@std@@@std@@AEAAAEAPEAVInstance@@AEBQEAV2@@Z ENDP ; std::vector<Instance *,std::allocator<Instance *> >::_Emplace_one_at_back<Instance * const &>
_TEXT	ENDS
; Function compile flags: /Ogtpy
;	COMDAT ??$_Destroy_range@V?$allocator@PEAVInstance@@@std@@@std@@YAXPEAPEAVInstance@@QEAPEAV1@AEAV?$allocator@PEAVInstance@@@0@@Z
_TEXT	SEGMENT
_First$ = 8
_Last$ = 16
_Al$ = 24
??$_Destroy_range@V?$allocator@PEAVInstance@@@std@@@std@@YAXPEAPEAVInstance@@QEAPEAV1@AEAV?$allocator@PEAVInstance@@@0@@Z PROC ; std::_Destroy_range<std::allocator<Instance *> >, COMDAT
; File C:\Program Files\Microsoft Visual Studio\18\Community\VC\Tools\MSVC\14.50.35717\include\xmemory
; Line 1110
	ret	0
??$_Destroy_range@V?$allocator@PEAVInstance@@@std@@@std@@YAXPEAPEAVInstance@@QEAPEAV1@AEAV?$allocator@PEAVInstance@@@0@@Z ENDP ; std::_Destroy_range<std::allocator<Instance *> >
_TEXT	ENDS
; Function compile flags: /Ogtpy
;	COMDAT ??$_Move_unchecked@PEAPEAVInstance@@PEAPEAV1@@std@@YAPEAPEAVInstance@@PEAPEAV1@00@Z
_TEXT	SEGMENT
_First$ = 48
_Last$ = 56
_Dest$ = 64
??$_Move_unchecked@PEAPEAVInstance@@PEAPEAV1@@std@@YAPEAPEAVInstance@@PEAPEAV1@00@Z PROC ; std::_Move_unchecked<Instance * *,Instance * *>, COMDAT
; File C:\Program Files\Microsoft Visual Studio\18\Community\VC\Tools\MSVC\14.50.35717\include\xutility
; Line 5247
$LN20:
	mov	QWORD PTR [rsp+8], rbx
	push	rdi
	sub	rsp, 32					; 00000020H
	mov	rbx, rdx
	mov	rdi, r8
; Line 4880
	sub	rbx, rcx
; Line 4862
	mov	rdx, rcx
	mov	r8, rbx
	mov	rcx, rdi
	call	memmove
; Line 4866
	lea	rax, QWORD PTR [rbx+rdi]
; Line 5268
	mov	rbx, QWORD PTR [rsp+48]
	add	rsp, 32					; 00000020H
	pop	rdi
	ret	0
??$_Move_unchecked@PEAPEAVInstance@@PEAPEAV1@@std@@YAPEAPEAVInstance@@PEAPEAV1@00@Z ENDP ; std::_Move_unchecked<Instance * *,Instance * *>
_TEXT	ENDS
; Function compile flags: /Ogtpy
;	COMDAT ??$addressof@V?$_Vector_val@U?$_Simple_types@PEAVInstance@@@std@@@std@@@std@@YAPEAV?$_Vector_val@U?$_Simple_types@PEAVInstance@@@std@@@0@AEAV10@@Z
_TEXT	SEGMENT
_Val$ = 8
??$addressof@V?$_Vector_val@U?$_Simple_types@PEAVInstance@@@std@@@std@@@std@@YAPEAV?$_Vector_val@U?$_Simple_types@PEAVInstance@@@std@@@0@AEAV10@@Z PROC ; std::addressof<std::_Vector_val<std::_Simple_types<Instance *> > >, COMDAT
; File C:\Program Files\Microsoft Visual Studio\18\Community\VC\Tools\MSVC\14.50.35717\include\type_traits
; Line 1533
	mov	rax, rcx
; Line 1534
	ret	0
??$addressof@V?$_Vector_val@U?$_Simple_types@PEAVInstance@@@std@@@std@@@std@@YAPEAV?$_Vector_val@U?$_Simple_types@PEAVInstance@@@std@@@0@AEAV10@@Z ENDP ; std::addressof<std::_Vector_val<std::_Simple_types<Instance *> > >
_TEXT	ENDS
; Function compile flags: /Ogtpy
;	COMDAT ??$move@AEAPEAVInstance@@@std@@YA$$QEAPEAVInstance@@AEAPEAV1@@Z
_TEXT	SEGMENT
_Arg$ = 8
??$move@AEAPEAVInstance@@@std@@YA$$QEAPEAVInstance@@AEAPEAV1@@Z PROC ; std::move<Instance * &>, COMDAT
; File C:\Program Files\Microsoft Visual Studio\18\Community\VC\Tools\MSVC\14.50.35717\include\type_traits
; Line 1521
	mov	rax, rcx
; Line 1522
	ret	0
??$move@AEAPEAVInstance@@@std@@YA$$QEAPEAVInstance@@AEAPEAV1@@Z ENDP ; std::move<Instance * &>
_TEXT	ENDS
; Function compile flags: /Ogtpy
;	COMDAT ??$_Seek_wrapped@V?$_Vector_iterator@V?$_Vector_val@U?$_Simple_types@PEAVInstance@@@std@@@std@@@std@@AEAPEAPEAVInstance@@@std@@YAXAEAV?$_Vector_iterator@V?$_Vector_val@U?$_Simple_types@PEAVInstance@@@std@@@std@@@0@AEAPEAPEAVInstance@@@Z
_TEXT	SEGMENT
_It$ = 8
_UIt$ = 16
??$_Seek_wrapped@V?$_Vector_iterator@V?$_Vector_val@U?$_Simple_types@PEAVInstance@@@std@@@std@@@std@@AEAPEAPEAVInstance@@@std@@YAXAEAV?$_Vector_iterator@V?$_Vector_val@U?$_Simple_types@PEAVInstance@@@std@@@std@@@0@AEAPEAPEAVInstance@@@Z PROC ; std::_Seek_wrapped<std::_Vector_iterator<std::_Vector_val<std::_Simple_types<Instance *> > >,Instance * * &>, COMDAT
; File C:\Program Files\Microsoft Visual Studio\18\Community\VC\Tools\MSVC\14.50.35717\include\xutility
; Line 1545
	mov	rax, QWORD PTR [rdx]
	mov	QWORD PTR [rcx], rax
; Line 1549
	ret	0
??$_Seek_wrapped@V?$_Vector_iterator@V?$_Vector_val@U?$_Simple_types@PEAVInstance@@@std@@@std@@@std@@AEAPEAPEAVInstance@@@std@@YAXAEAV?$_Vector_iterator@V?$_Vector_val@U?$_Simple_types@PEAVInstance@@@std@@@std@@@0@AEAPEAPEAVInstance@@@Z ENDP ; std::_Seek_wrapped<std::_Vector_iterator<std::_Vector_val<std::_Simple_types<Instance *> > >,Instance * * &>
_TEXT	ENDS
; Function compile flags: /Ogtpy
;	COMDAT ??$_Remove_vectorized@PEAVInstance@@PEAV1@@std@@YAPEAPEAVInstance@@QEAPEAV1@0QEAV1@@Z
_TEXT	SEGMENT
_First$ = 8
_Last$ = 16
_Val$ = 24
??$_Remove_vectorized@PEAVInstance@@PEAV1@@std@@YAPEAPEAVInstance@@QEAPEAV1@0QEAV1@@Z PROC ; std::_Remove_vectorized<Instance *,Instance *>, COMDAT
; File C:\Program Files\Microsoft Visual Studio\18\Community\VC\Tools\MSVC\14.50.35717\include\xmemory
; Line 45
	jmp	__std_remove_8
??$_Remove_vectorized@PEAVInstance@@PEAV1@@std@@YAPEAPEAVInstance@@QEAPEAV1@0QEAV1@@Z ENDP ; std::_Remove_vectorized<Instance *,Instance *>
_TEXT	ENDS
; Function compile flags: /Ogtpy
;	COMDAT ??$to_address@PEAVInstance@@@std@@YAPEAPEAVInstance@@QEAPEAV1@@Z
_TEXT	SEGMENT
_Val$ = 8
??$to_address@PEAVInstance@@@std@@YAPEAPEAVInstance@@QEAPEAV1@@Z PROC ; std::to_address<Instance *>, COMDAT
; File C:\Program Files\Microsoft Visual Studio\18\Community\VC\Tools\MSVC\14.50.35717\include\xutility
; Line 588
	mov	rax, rcx
; Line 589
	ret	0
??$to_address@PEAVInstance@@@std@@YAPEAPEAVInstance@@QEAPEAV1@@Z ENDP ; std::to_address<Instance *>
_TEXT	ENDS
; Function compile flags: /Ogtpy
;	COMDAT ??$_To_address@PEAPEAVInstance@@@std@@YA?A_PAEBQEAPEAVInstance@@@Z
_TEXT	SEGMENT
_Val$ = 8
??$_To_address@PEAPEAVInstance@@@std@@YA?A_PAEBQEAPEAVInstance@@@Z PROC ; std::_To_address<Instance * *>, COMDAT
; File C:\Program Files\Microsoft Visual Studio\18\Community\VC\Tools\MSVC\14.50.35717\include\xutility
; Line 4708
	mov	rax, QWORD PTR [rcx]
; Line 4709
	ret	0
??$_To_address@PEAPEAVInstance@@@std@@YA?A_PAEBQEAPEAVInstance@@@Z ENDP ; std::_To_address<Instance * *>
_TEXT	ENDS
; Function compile flags: /Ogtpy
;	COMDAT ??$_Find_unchecked@PEAPEAVInstance@@PEAV1@@std@@YAPEAPEAVInstance@@PEAPEAV1@QEAPEAV1@AEBQEAV1@@Z
_TEXT	SEGMENT
_First$ = 8
_Last$ = 16
_Val$ = 24
??$_Find_unchecked@PEAPEAVInstance@@PEAV1@@std@@YAPEAPEAVInstance@@PEAPEAV1@QEAPEAV1@AEBQEAV1@@Z PROC ; std::_Find_unchecked<Instance * *,Instance *>, COMDAT
; File C:\Program Files\Microsoft Visual Studio\18\Community\VC\Tools\MSVC\14.50.35717\include\xutility
; Line 217
	mov	r8, QWORD PTR [r8]
	jmp	__std_find_trivial_8
??$_Find_unchecked@PEAPEAVInstance@@PEAV1@@std@@YAPEAPEAVInstance@@PEAPEAV1@QEAPEAV1@AEBQEAV1@@Z ENDP ; std::_Find_unchecked<Instance * *,Instance *>
_TEXT	ENDS
; Function compile flags: /Ogtpy
;	COMDAT ??$_Get_unwrapped@AEBV?$_Vector_iterator@V?$_Vector_val@U?$_Simple_types@PEAVInstance@@@std@@@std@@@std@@@std@@YA?A_TAEBV?$_Vector_iterator@V?$_Vector_val@U?$_Simple_types@PEAVInstance@@@std@@@std@@@0@@Z
_TEXT	SEGMENT
_It$ = 8
??$_Get_unwrapped@AEBV?$_Vector_iterator@V?$_Vector_val@U?$_Simple_types@PEAVInstance@@@std@@@std@@@std@@@std@@YA?A_TAEBV?$_Vector_iterator@V?$_Vector_val@U?$_Simple_types@PEAVInstance@@@std@@@std@@@0@@Z PROC ; std::_Get_unwrapped<std::_Vector_iterator<std::_Vector_val<std::_Simple_types<Instance *> > > const &>, COMDAT
; File C:\Program Files\Microsoft Visual Studio\18\Community\VC\Tools\MSVC\14.50.35717\include\xutility
; Line 1450
	mov	rax, QWORD PTR [rcx]
; Line 1454
	ret	0
??$_Get_unwrapped@AEBV?$_Vector_iterator@V?$_Vector_val@U?$_Simple_types@PEAVInstance@@@std@@@std@@@std@@@std@@YA?A_TAEBV?$_Vector_iterator@V?$_Vector_val@U?$_Simple_types@PEAVInstance@@@std@@@std@@@0@@Z ENDP ; std::_Get_unwrapped<std::_Vector_iterator<std::_Vector_val<std::_Simple_types<Instance *> > > const &>
_TEXT	ENDS
; Function compile flags: /Ogtpy
;	COMDAT ??$_Adl_verify_range@V?$_Vector_iterator@V?$_Vector_val@U?$_Simple_types@PEAVInstance@@@std@@@std@@@std@@V12@@std@@YAXAEBV?$_Vector_iterator@V?$_Vector_val@U?$_Simple_types@PEAVInstance@@@std@@@std@@@0@0@Z
_TEXT	SEGMENT
_First$ = 8
_Last$ = 16
??$_Adl_verify_range@V?$_Vector_iterator@V?$_Vector_val@U?$_Simple_types@PEAVInstance@@@std@@@std@@@std@@V12@@std@@YAXAEBV?$_Vector_iterator@V?$_Vector_val@U?$_Simple_types@PEAVInstance@@@std@@@std@@@0@0@Z PROC ; std::_Adl_verify_range<std::_Vector_iterator<std::_Vector_val<std::_Simple_types<Instance *> > >,std::_Vector_iterator<std::_Vector_val<std::_Simple_types<Instance *> > > >, COMDAT
; File C:\Program Files\Microsoft Visual Studio\18\Community\VC\Tools\MSVC\14.50.35717\include\xutility
; Line 1427
	ret	0
??$_Adl_verify_range@V?$_Vector_iterator@V?$_Vector_val@U?$_Simple_types@PEAVInstance@@@std@@@std@@@std@@V12@@std@@YAXAEBV?$_Vector_iterator@V?$_Vector_val@U?$_Simple_types@PEAVInstance@@@std@@@std@@@0@0@Z ENDP ; std::_Adl_verify_range<std::_Vector_iterator<std::_Vector_val<std::_Simple_types<Instance *> > >,std::_Vector_iterator<std::_Vector_val<std::_Simple_types<Instance *> > > >
_TEXT	ENDS
; Function compile flags: /Ogtpy
;	COMDAT ??$_Get_unwrapped@AEAV?$_Vector_iterator@V?$_Vector_val@U?$_Simple_types@PEAVInstance@@@std@@@std@@@std@@@std@@YA?A_TAEAV?$_Vector_iterator@V?$_Vector_val@U?$_Simple_types@PEAVInstance@@@std@@@std@@@0@@Z
_TEXT	SEGMENT
_It$ = 8
??$_Get_unwrapped@AEAV?$_Vector_iterator@V?$_Vector_val@U?$_Simple_types@PEAVInstance@@@std@@@std@@@std@@@std@@YA?A_TAEAV?$_Vector_iterator@V?$_Vector_val@U?$_Simple_types@PEAVInstance@@@std@@@std@@@0@@Z PROC ; std::_Get_unwrapped<std::_Vector_iterator<std::_Vector_val<std::_Simple_types<Instance *> > > &>, COMDAT
; File C:\Program Files\Microsoft Visual Studio\18\Community\VC\Tools\MSVC\14.50.35717\include\xutility
; Line 1450
	mov	rax, QWORD PTR [rcx]
; Line 1454
	ret	0
??$_Get_unwrapped@AEAV?$_Vector_iterator@V?$_Vector_val@U?$_Simple_types@PEAVInstance@@@std@@@std@@@std@@@std@@YA?A_TAEAV?$_Vector_iterator@V?$_Vector_val@U?$_Simple_types@PEAVInstance@@@std@@@std@@@0@@Z ENDP ; std::_Get_unwrapped<std::_Vector_iterator<std::_Vector_val<std::_Simple_types<Instance *> > > &>
_TEXT	ENDS
; Function compile flags: /Ogtpy
;	COMDAT ??$?8DU?$char_traits@D@std@@V?$allocator@D@1@@std@@YA_NAEBV?$basic_string@DU?$char_traits@D@std@@V?$allocator@D@2@@0@QEBD@Z
_TEXT	SEGMENT
_Left$ = 48
_Right$ = 56
??$?8DU?$char_traits@D@std@@V?$allocator@D@1@@std@@YA_NAEBV?$basic_string@DU?$char_traits@D@std@@V?$allocator@D@2@@0@QEBD@Z PROC ; std::operator==<char,std::char_traits<char>,std::allocator<char> >, COMDAT
; File C:\Program Files\Microsoft Visual Studio\18\Community\VC\Tools\MSVC\14.50.35717\include\xstring
; Line 3352
$LN31:
	mov	QWORD PTR [rsp+8], rbx
	push	rdi
	sub	rsp, 32					; 00000020H
	mov	rbx, rcx
	mov	rdi, rdx
; File C:\Program Files\Microsoft Visual Studio\18\Community\VC\Tools\MSVC\14.50.35717\include\__msvc_string_view.hpp
; Line 530
	mov	rcx, rdx
	call	strlen
; File C:\Program Files\Microsoft Visual Studio\18\Community\VC\Tools\MSVC\14.50.35717\include\xstring
; Line 445
	cmp	QWORD PTR [rbx+24], 15
; Line 2761
	mov	r8, QWORD PTR [rbx+16]
; Line 445
	jbe	SHORT $LN25@operator
; Line 446
	mov	rbx, QWORD PTR [rbx]
$LN25@operator:
; File C:\Program Files\Microsoft Visual Studio\18\Community\VC\Tools\MSVC\14.50.35717\include\__msvc_string_view.hpp
; Line 673
	cmp	r8, rax
	je	SHORT $LN18@operator
; File C:\Program Files\Microsoft Visual Studio\18\Community\VC\Tools\MSVC\14.50.35717\include\xstring
; Line 3353
	xor	al, al
; Line 3354
	mov	rbx, QWORD PTR [rsp+48]
	add	rsp, 32					; 00000020H
	pop	rdi
	ret	0
$LN18@operator:
; File C:\Program Files\Microsoft Visual Studio\18\Community\VC\Tools\MSVC\14.50.35717\include\__msvc_string_view.hpp
; Line 677
	test	r8, r8
	jne	SHORT $LN19@operator
; File C:\Program Files\Microsoft Visual Studio\18\Community\VC\Tools\MSVC\14.50.35717\include\xstring
; Line 3353
	mov	al, 1
; Line 3354
	mov	rbx, QWORD PTR [rsp+48]
	add	rsp, 32					; 00000020H
	pop	rdi
	ret	0
$LN19@operator:
; File C:\Program Files\Microsoft Visual Studio\18\Community\VC\Tools\MSVC\14.50.35717\include\__msvc_string_view.hpp
; Line 511
	mov	rdx, rdi
	mov	rcx, rbx
	call	memcmp
; File C:\Program Files\Microsoft Visual Studio\18\Community\VC\Tools\MSVC\14.50.35717\include\xstring
; Line 3354
	mov	rbx, QWORD PTR [rsp+48]
; File C:\Program Files\Microsoft Visual Studio\18\Community\VC\Tools\MSVC\14.50.35717\include\__msvc_string_view.hpp
; Line 681
	test	eax, eax
	sete	al
; File C:\Program Files\Microsoft Visual Studio\18\Community\VC\Tools\MSVC\14.50.35717\include\xstring
; Line 3354
	add	rsp, 32					; 00000020H
	pop	rdi
	ret	0
??$?8DU?$char_traits@D@std@@V?$allocator@D@1@@std@@YA_NAEBV?$basic_string@DU?$char_traits@D@std@@V?$allocator@D@2@@0@QEBD@Z ENDP ; std::operator==<char,std::char_traits<char>,std::allocator<char> >
_TEXT	ENDS
; Function compile flags: /Ogtpy
;	COMDAT ??$remove@V?$_Vector_iterator@V?$_Vector_val@U?$_Simple_types@PEAVInstance@@@std@@@std@@@std@@PEAVInstance@@@std@@YA?AV?$_Vector_iterator@V?$_Vector_val@U?$_Simple_types@PEAVInstance@@@std@@@std@@@0@V10@V10@AEBQEAVInstance@@@Z
_TEXT	SEGMENT
__$ReturnUdt$ = 48
_First$ = 56
_Last$ = 64
_Val$ = 72
??$remove@V?$_Vector_iterator@V?$_Vector_val@U?$_Simple_types@PEAVInstance@@@std@@@std@@@std@@PEAVInstance@@@std@@YA?AV?$_Vector_iterator@V?$_Vector_val@U?$_Simple_types@PEAVInstance@@@std@@@std@@@0@V10@V10@AEBQEAVInstance@@@Z PROC ; std::remove<std::_Vector_iterator<std::_Vector_val<std::_Simple_types<Instance *> > >,Instance *>, COMDAT
; File C:\Program Files\Microsoft Visual Studio\18\Community\VC\Tools\MSVC\14.50.35717\include\xmemory
; Line 2328
$LN35:
	mov	QWORD PTR [rsp+8], rbx
	mov	QWORD PTR [rsp+16], rsi
	push	rdi
	sub	rsp, 32					; 00000020H
	mov	rbx, r8
	mov	rax, rdx
; File C:\Program Files\Microsoft Visual Studio\18\Community\VC\Tools\MSVC\14.50.35717\include\xutility
; Line 217
	mov	r8, QWORD PTR [r9]
; File C:\Program Files\Microsoft Visual Studio\18\Community\VC\Tools\MSVC\14.50.35717\include\xmemory
; Line 2328
	mov	rdi, rcx
; File C:\Program Files\Microsoft Visual Studio\18\Community\VC\Tools\MSVC\14.50.35717\include\xutility
; Line 217
	mov	rdx, rbx
	mov	rcx, rax
; File C:\Program Files\Microsoft Visual Studio\18\Community\VC\Tools\MSVC\14.50.35717\include\xmemory
; Line 2328
	mov	rsi, r9
; File C:\Program Files\Microsoft Visual Studio\18\Community\VC\Tools\MSVC\14.50.35717\include\xutility
; Line 217
	call	__std_find_trivial_8
; File C:\Program Files\Microsoft Visual Studio\18\Community\VC\Tools\MSVC\14.50.35717\include\xmemory
; Line 2335
	cmp	rax, rbx
	je	SHORT $LN3@remove
; Line 45
	mov	r8, QWORD PTR [rsi]
	mov	rdx, rbx
	mov	rcx, rax
	call	__std_remove_8
$LN3@remove:
; Line 2367
	mov	rbx, QWORD PTR [rsp+48]
	mov	rsi, QWORD PTR [rsp+56]
	mov	QWORD PTR [rdi], rax
	mov	rax, rdi
	add	rsp, 32					; 00000020H
	pop	rdi
	ret	0
??$remove@V?$_Vector_iterator@V?$_Vector_val@U?$_Simple_types@PEAVInstance@@@std@@@std@@@std@@PEAVInstance@@@std@@YA?AV?$_Vector_iterator@V?$_Vector_val@U?$_Simple_types@PEAVInstance@@@std@@@std@@@0@V10@V10@AEBQEAVInstance@@@Z ENDP ; std::remove<std::_Vector_iterator<std::_Vector_val<std::_Simple_types<Instance *> > >,Instance *>
_TEXT	ENDS
; Function compile flags: /Ogtpy
;	COMDAT ??0?$_Vector_iterator@V?$_Vector_val@U?$_Simple_types@PEAVInstance@@@std@@@std@@@std@@QEAA@PEAPEAVInstance@@PEBU_Container_base0@1@@Z
_TEXT	SEGMENT
this$ = 8
__param0$ = 16
__param1$ = 24
??0?$_Vector_iterator@V?$_Vector_val@U?$_Simple_types@PEAVInstance@@@std@@@std@@@std@@QEAA@PEAPEAVInstance@@PEBU_Container_base0@1@@Z PROC ; std::_Vector_iterator<std::_Vector_val<std::_Simple_types<Instance *> > >::_Vector_iterator<std::_Vector_val<std::_Simple_types<Instance *> > >, COMDAT
; File C:\Program Files\Microsoft Visual Studio\18\Community\VC\Tools\MSVC\14.50.35717\include\vector
; Line 46
	mov	QWORD PTR [rcx], rdx
	mov	rax, rcx
	ret	0
??0?$_Vector_iterator@V?$_Vector_val@U?$_Simple_types@PEAVInstance@@@std@@@std@@@std@@QEAA@PEAPEAVInstance@@PEBU_Container_base0@1@@Z ENDP ; std::_Vector_iterator<std::_Vector_val<std::_Simple_types<Instance *> > >::_Vector_iterator<std::_Vector_val<std::_Simple_types<Instance *> > >
_TEXT	ENDS
; Function compile flags: /Ogtpy
;	COMDAT ?_Unwrapped@?$_Vector_iterator@V?$_Vector_val@U?$_Simple_types@PEAVInstance@@@std@@@std@@@std@@QEBAPEAPEAVInstance@@XZ
_TEXT	SEGMENT
this$ = 8
?_Unwrapped@?$_Vector_iterator@V?$_Vector_val@U?$_Simple_types@PEAVInstance@@@std@@@std@@@std@@QEBAPEAPEAVInstance@@XZ PROC ; std::_Vector_iterator<std::_Vector_val<std::_Simple_types<Instance *> > >::_Unwrapped, COMDAT
; File C:\Program Files\Microsoft Visual Studio\18\Community\VC\Tools\MSVC\14.50.35717\include\vector
; Line 345
	mov	rax, QWORD PTR [rcx]
; Line 346
	ret	0
?_Unwrapped@?$_Vector_iterator@V?$_Vector_val@U?$_Simple_types@PEAVInstance@@@std@@@std@@@std@@QEBAPEAPEAVInstance@@XZ ENDP ; std::_Vector_iterator<std::_Vector_val<std::_Simple_types<Instance *> > >::_Unwrapped
_TEXT	ENDS
; Function compile flags: /Ogtpy
;	COMDAT ?_Seek_to@?$_Vector_const_iterator@V?$_Vector_val@U?$_Simple_types@PEAVInstance@@@std@@@std@@@std@@QEAAXPEBQEAVInstance@@@Z
_TEXT	SEGMENT
this$ = 8
_It$ = 16
?_Seek_to@?$_Vector_const_iterator@V?$_Vector_val@U?$_Simple_types@PEAVInstance@@@std@@@std@@@std@@QEAAXPEBQEAVInstance@@@Z PROC ; std::_Vector_const_iterator<std::_Vector_val<std::_Simple_types<Instance *> > >::_Seek_to, COMDAT
; File C:\Program Files\Microsoft Visual Studio\18\Community\VC\Tools\MSVC\14.50.35717\include\vector
; Line 221
	mov	QWORD PTR [rcx], rdx
; Line 222
	ret	0
?_Seek_to@?$_Vector_const_iterator@V?$_Vector_val@U?$_Simple_types@PEAVInstance@@@std@@@std@@@std@@QEAAXPEBQEAVInstance@@@Z ENDP ; std::_Vector_const_iterator<std::_Vector_val<std::_Simple_types<Instance *> > >::_Seek_to
_TEXT	ENDS
; Function compile flags: /Ogtpy
;	COMDAT ??0?$_Vector_const_iterator@V?$_Vector_val@U?$_Simple_types@PEAVInstance@@@std@@@std@@@std@@QEAA@PEAPEAVInstance@@PEBU_Container_base0@1@@Z
_TEXT	SEGMENT
this$ = 8
_Parg$ = 16
_Pvector$ = 24
??0?$_Vector_const_iterator@V?$_Vector_val@U?$_Simple_types@PEAVInstance@@@std@@@std@@@std@@QEAA@PEAPEAVInstance@@PEBU_Container_base0@1@@Z PROC ; std::_Vector_const_iterator<std::_Vector_val<std::_Simple_types<Instance *> > >::_Vector_const_iterator<std::_Vector_val<std::_Simple_types<Instance *> > >, COMDAT
; File C:\Program Files\Microsoft Visual Studio\18\Community\VC\Tools\MSVC\14.50.35717\include\vector
; Line 46
	mov	QWORD PTR [rcx], rdx
; Line 48
	mov	rax, rcx
	ret	0
??0?$_Vector_const_iterator@V?$_Vector_val@U?$_Simple_types@PEAVInstance@@@std@@@std@@@std@@QEAA@PEAPEAVInstance@@PEBU_Container_base0@1@@Z ENDP ; std::_Vector_const_iterator<std::_Vector_val<std::_Simple_types<Instance *> > >::_Vector_const_iterator<std::_Vector_val<std::_Simple_types<Instance *> > >
_TEXT	ENDS
; Function compile flags: /Ogtpy
;	COMDAT ??_GWorkspace@@UEAAPEAXI@Z
_TEXT	SEGMENT
this$ = 48
__flags$ = 56
??_GWorkspace@@UEAAPEAXI@Z PROC				; Workspace::`scalar deleting destructor', COMDAT
$LN14:
	mov	QWORD PTR [rsp+8], rbx
	push	rdi
	sub	rsp, 32					; 00000020H
	mov	rdi, rcx
	mov	ebx, edx
	add	rcx, 144				; 00000090H
	call	??1?$vector@PEAVInstance@@V?$allocator@PEAVInstance@@@std@@@std@@QEAA@XZ ; std::vector<Instance *,std::allocator<Instance *> >::~vector<Instance *,std::allocator<Instance *> >
	lea	rcx, QWORD PTR [rdi+120]
	call	??1?$vector@PEAVInstance@@V?$allocator@PEAVInstance@@@std@@@std@@QEAA@XZ ; std::vector<Instance *,std::allocator<Instance *> >::~vector<Instance *,std::allocator<Instance *> >
	mov	rcx, rdi
	call	??1Instance@@UEAA@XZ			; Instance::~Instance
	test	bl, 1
	je	SHORT $LN10@scalar
	mov	edx, 168				; 000000a8H
	mov	rcx, rdi
	call	??3@YAXPEAX_K@Z				; operator delete
$LN10@scalar:
	mov	rbx, QWORD PTR [rsp+48]
	mov	rax, rdi
	add	rsp, 32					; 00000020H
	pop	rdi
	ret	0
??_GWorkspace@@UEAAPEAXI@Z ENDP				; Workspace::`scalar deleting destructor'
_TEXT	ENDS
; Function compile flags: /Ogtpy
;	COMDAT ??1Workspace@@UEAA@XZ
_TEXT	SEGMENT
this$ = 48
??1Workspace@@UEAA@XZ PROC				; Workspace::~Workspace, COMDAT
$LN6:
	push	rbx
	sub	rsp, 32					; 00000020H
	mov	rbx, rcx
	add	rcx, 144				; 00000090H
	call	??1?$vector@PEAVInstance@@V?$allocator@PEAVInstance@@@std@@@std@@QEAA@XZ ; std::vector<Instance *,std::allocator<Instance *> >::~vector<Instance *,std::allocator<Instance *> >
	lea	rcx, QWORD PTR [rbx+120]
	call	??1?$vector@PEAVInstance@@V?$allocator@PEAVInstance@@@std@@@std@@QEAA@XZ ; std::vector<Instance *,std::allocator<Instance *> >::~vector<Instance *,std::allocator<Instance *> >
	mov	rcx, rbx
	add	rsp, 32					; 00000020H
	pop	rbx
	jmp	??1Instance@@UEAA@XZ			; Instance::~Instance
??1Workspace@@UEAA@XZ ENDP				; Workspace::~Workspace
_TEXT	ENDS
; Function compile flags: /Ogtpy
;	COMDAT ?buildTestSpace@Workspace@@QEAAXXZ
_TEXT	SEGMENT
this$ = 8
?buildTestSpace@Workspace@@QEAAXXZ PROC			; Workspace::buildTestSpace, COMDAT
; File C:\Users\RedDragon\Documents\Recubin\src\Instances\Workspace.cpp
; Line 31
	ret	0
?buildTestSpace@Workspace@@QEAAXXZ ENDP			; Workspace::buildTestSpace
_TEXT	ENDS
; Function compile flags: /Ogtpy
;	COMDAT ?IsA@Workspace@@UEAA_NV?$basic_string@DU?$char_traits@D@std@@V?$allocator@D@2@@std@@@Z
_TEXT	SEGMENT
$T1 = 40
className$GSCopy$ = 72
__$ArrayPad$ = 80
this$ = 112
className$ = 120
?IsA@Workspace@@UEAA_NV?$basic_string@DU?$char_traits@D@std@@V?$allocator@D@2@@std@@@Z PROC ; Workspace::IsA, COMDAT
; File C:\Users\RedDragon\Documents\Recubin\src\Instances\Workspace.cpp
; Line 22
$LN44:
	mov	QWORD PTR [rsp+24], rbx
	push	rdi
	sub	rsp, 96					; 00000060H
	mov	rax, QWORD PTR __security_cookie
	xor	rax, rsp
	mov	QWORD PTR __$ArrayPad$[rsp], rax
	mov	rdi, rdx
	mov	rbx, rcx
	mov	QWORD PTR className$GSCopy$[rsp], rdx
; File C:\Program Files\Microsoft Visual Studio\18\Community\VC\Tools\MSVC\14.50.35717\include\xstring
; Line 445
	cmp	QWORD PTR [rdx+24], 15
	jbe	SHORT $LN40@IsA
; Line 446
	mov	rax, QWORD PTR [rdx]
	jmp	SHORT $LN16@IsA
$LN40@IsA:
; Line 444
	mov	rax, rdi
$LN16@IsA:
; File C:\Program Files\Microsoft Visual Studio\18\Community\VC\Tools\MSVC\14.50.35717\include\__msvc_string_view.hpp
; Line 673
	cmp	QWORD PTR [rdx+16], 9
	jne	SHORT $LN2@IsA
; Line 511
	mov	rcx, QWORD PTR [rax]
	mov	rdx, 7161128523522010967		; 636170736b726f57H
	sub	rcx, rdx
	jne	SHORT $LN41@IsA
	movzx	ecx, BYTE PTR [rax+8]
	mov	eax, 101				; 00000065H
	movzx	eax, al
	sub	rcx, rax
$LN41@IsA:
; Line 681
	test	rcx, rcx
; File C:\Users\RedDragon\Documents\Recubin\src\Instances\Workspace.cpp
; Line 23
	jne	SHORT $LN2@IsA
; File C:\Program Files\Microsoft Visual Studio\18\Community\VC\Tools\MSVC\14.50.35717\include\xstring
; Line 1433
	mov	rcx, rdi
	call	?_Tidy_deallocate@?$basic_string@DU?$char_traits@D@std@@V?$allocator@D@2@@std@@AEAAXXZ ; std::basic_string<char,std::char_traits<char>,std::allocator<char> >::_Tidy_deallocate
; File C:\Users\RedDragon\Documents\Recubin\src\Instances\Workspace.cpp
; Line 24
	mov	al, 1
	jmp	SHORT $LN1@IsA
$LN2@IsA:
; Line 26
	mov	rdx, rdi
	lea	rcx, QWORD PTR $T1[rsp]
	call	??0?$basic_string@DU?$char_traits@D@std@@V?$allocator@D@2@@std@@QEAA@AEBV01@@Z ; std::basic_string<char,std::char_traits<char>,std::allocator<char> >::basic_string<char,std::char_traits<char>,std::allocator<char> >
	mov	rdx, rax
	mov	rcx, rbx
	call	?IsA@Instance@@UEAA_NV?$basic_string@DU?$char_traits@D@std@@V?$allocator@D@2@@std@@@Z ; Instance::IsA
	movzx	ebx, al
; File C:\Program Files\Microsoft Visual Studio\18\Community\VC\Tools\MSVC\14.50.35717\include\xstring
; Line 1433
	mov	rcx, rdi
	call	?_Tidy_deallocate@?$basic_string@DU?$char_traits@D@std@@V?$allocator@D@2@@std@@AEAAXXZ ; std::basic_string<char,std::char_traits<char>,std::allocator<char> >::_Tidy_deallocate
; File C:\Users\RedDragon\Documents\Recubin\src\Instances\Workspace.cpp
; Line 26
	movzx	eax, bl
$LN1@IsA:
; Line 27
	mov	rcx, QWORD PTR __$ArrayPad$[rsp]
	xor	rcx, rsp
	call	__security_check_cookie
	mov	rbx, QWORD PTR [rsp+128]
	add	rsp, 96					; 00000060H
	pop	rdi
	ret	0
?IsA@Workspace@@UEAA_NV?$basic_string@DU?$char_traits@D@std@@V?$allocator@D@2@@std@@@Z ENDP ; Workspace::IsA
_TEXT	ENDS
; Function compile flags: /Ogtpy
;	COMDAT text$x
text$x	SEGMENT
$T1 = 40
className$GSCopy$ = 72
__$ArrayPad$ = 80
this$ = 112
className$ = 120
?dtor$0@?0??IsA@Workspace@@UEAA_NV?$basic_string@DU?$char_traits@D@std@@V?$allocator@D@2@@std@@@Z@4HA PROC ; `Workspace::IsA'::`1'::dtor$0
	mov	rcx, QWORD PTR className$GSCopy$[rdx]
	jmp	??1?$basic_string@DU?$char_traits@D@std@@V?$allocator@D@2@@std@@QEAA@XZ ; std::basic_string<char,std::char_traits<char>,std::allocator<char> >::~basic_string<char,std::char_traits<char>,std::allocator<char> >
?dtor$0@?0??IsA@Workspace@@UEAA_NV?$basic_string@DU?$char_traits@D@std@@V?$allocator@D@2@@std@@@Z@4HA ENDP ; `Workspace::IsA'::`1'::dtor$0
text$x	ENDS
; Function compile flags: /Ogtpy
;	COMDAT ?GetClassName@Workspace@@UEAA?AV?$basic_string@DU?$char_traits@D@std@@V?$allocator@D@2@@std@@XZ
_TEXT	SEGMENT
this$ = 32
__$ReturnUdt$ = 40
?GetClassName@Workspace@@UEAA?AV?$basic_string@DU?$char_traits@D@std@@V?$allocator@D@2@@std@@XZ PROC ; Workspace::GetClassName, COMDAT
; File C:\Users\RedDragon\Documents\Recubin\src\Instances\Workspace.cpp
; Line 18
$LN123:
	sub	rsp, 24
	xorps	xmm0, xmm0
; File C:\Program Files\Microsoft Visual Studio\18\Community\VC\Tools\MSVC\14.50.35717\include\xstring
; Line 493
	movups	XMMWORD PTR [rdx], xmm0
; Line 940
	mov	QWORD PTR [rdx+16], 9
; Line 941
	mov	QWORD PTR [rdx+24], 15
; File C:\Program Files\Microsoft Visual Studio\18\Community\VC\Tools\MSVC\14.50.35717\include\__msvc_string_view.hpp
; Line 200
	movsd	xmm0, QWORD PTR ??_C@_09GEGCPGC@Workspace@
	movsd	QWORD PTR [rdx], xmm0
	movzx	eax, BYTE PTR ??_C@_09GEGCPGC@Workspace@+8
	mov	BYTE PTR [rdx+8], al
; File C:\Users\RedDragon\Documents\Recubin\src\Instances\Workspace.cpp
; Line 19
	mov	rax, rdx
; File C:\Program Files\Microsoft Visual Studio\18\Community\VC\Tools\MSVC\14.50.35717\include\xstring
; Line 948
	mov	BYTE PTR [rdx+9], 0
; File C:\Users\RedDragon\Documents\Recubin\src\Instances\Workspace.cpp
; Line 20
	add	rsp, 24
	ret	0
?GetClassName@Workspace@@UEAA?AV?$basic_string@DU?$char_traits@D@std@@V?$allocator@D@2@@std@@XZ ENDP ; Workspace::GetClassName
_TEXT	ENDS
; Function compile flags: /Ogtpy
;	COMDAT ??0Workspace@@QEAA@XZ
_TEXT	SEGMENT
$T1 = 32
this$ = 80
??0Workspace@@QEAA@XZ PROC				; Workspace::Workspace, COMDAT
; File C:\Users\RedDragon\Documents\Recubin\src\Instances\Workspace.cpp
; Line 16
$LN149:
	push	rbx
	sub	rsp, 64					; 00000040H
; File C:\Program Files\Microsoft Visual Studio\18\Community\VC\Tools\MSVC\14.50.35717\include\__msvc_string_view.hpp
; Line 200
	movzx	eax, BYTE PTR ??_C@_09GEGCPGC@Workspace@+8
; File C:\Users\RedDragon\Documents\Recubin\src\Instances\Workspace.cpp
; Line 16
	lea	rdx, QWORD PTR $T1[rsp]
	xorps	xmm0, xmm0
; File C:\Program Files\Microsoft Visual Studio\18\Community\VC\Tools\MSVC\14.50.35717\include\xstring
; Line 940
	mov	QWORD PTR $T1[rsp+16], 9
; Line 493
	movups	XMMWORD PTR $T1[rsp], xmm0
; File C:\Users\RedDragon\Documents\Recubin\src\Instances\Workspace.cpp
; Line 16
	mov	rbx, rcx
; File C:\Program Files\Microsoft Visual Studio\18\Community\VC\Tools\MSVC\14.50.35717\include\xstring
; Line 941
	mov	QWORD PTR $T1[rsp+24], 15
; File C:\Program Files\Microsoft Visual Studio\18\Community\VC\Tools\MSVC\14.50.35717\include\__msvc_string_view.hpp
; Line 200
	movsd	xmm0, QWORD PTR ??_C@_09GEGCPGC@Workspace@
	movsd	QWORD PTR $T1[rsp], xmm0
	mov	BYTE PTR $T1[rsp+8], al
; File C:\Program Files\Microsoft Visual Studio\18\Community\VC\Tools\MSVC\14.50.35717\include\xstring
; Line 948
	mov	BYTE PTR $T1[rsp+9], 0
; File C:\Users\RedDragon\Documents\Recubin\src\Instances\Workspace.cpp
; Line 16
	call	??0Instance@@QEAA@V?$basic_string@DU?$char_traits@D@std@@V?$allocator@D@2@@std@@@Z ; Instance::Instance
	lea	rax, OFFSET FLAT:??_7Workspace@@6B@
	mov	QWORD PTR [rbx], rax
; File C:\Users\RedDragon\Documents\Recubin\include\Instances\Workspace.hpp
; Line 15
	xor	eax, eax
	mov	QWORD PTR [rbx+112], rax
; File C:\Program Files\Microsoft Visual Studio\18\Community\VC\Tools\MSVC\14.50.35717\include\vector
; Line 400
	mov	QWORD PTR [rbx+120], rax
	mov	QWORD PTR [rbx+128], rax
	mov	QWORD PTR [rbx+136], rax
	mov	QWORD PTR [rbx+144], rax
	mov	QWORD PTR [rbx+152], rax
	mov	QWORD PTR [rbx+160], rax
; File C:\Users\RedDragon\Documents\Recubin\src\Instances\Workspace.cpp
; Line 16
	mov	rax, rbx
	add	rsp, 64					; 00000040H
	pop	rbx
	ret	0
??0Workspace@@QEAA@XZ ENDP				; Workspace::Workspace
_TEXT	ENDS
; Function compile flags: /Ogtpy
;	COMDAT ?_Get_first@?$_Compressed_pair@V?$allocator@PEAVInstance@@@std@@V?$_Vector_val@U?$_Simple_types@PEAVInstance@@@std@@@2@$00@std@@QEBAAEBV?$allocator@PEAVInstance@@@2@XZ
_TEXT	SEGMENT
this$ = 8
?_Get_first@?$_Compressed_pair@V?$allocator@PEAVInstance@@@std@@V?$_Vector_val@U?$_Simple_types@PEAVInstance@@@std@@@2@$00@std@@QEBAAEBV?$allocator@PEAVInstance@@@2@XZ PROC ; std::_Compressed_pair<std::allocator<Instance *>,std::_Vector_val<std::_Simple_types<Instance *> >,1>::_Get_first, COMDAT
; File C:\Program Files\Microsoft Visual Studio\18\Community\VC\Tools\MSVC\14.50.35717\include\xmemory
; Line 1563
	mov	rax, rcx
; Line 1564
	ret	0
?_Get_first@?$_Compressed_pair@V?$allocator@PEAVInstance@@@std@@V?$_Vector_val@U?$_Simple_types@PEAVInstance@@@std@@@2@$00@std@@QEBAAEBV?$allocator@PEAVInstance@@@2@XZ ENDP ; std::_Compressed_pair<std::allocator<Instance *>,std::_Vector_val<std::_Simple_types<Instance *> >,1>::_Get_first
_TEXT	ENDS
; Function compile flags: /Ogtpy
;	COMDAT ?_Get_first@?$_Compressed_pair@V?$allocator@PEAVInstance@@@std@@V?$_Vector_val@U?$_Simple_types@PEAVInstance@@@std@@@2@$00@std@@QEAAAEAV?$allocator@PEAVInstance@@@2@XZ
_TEXT	SEGMENT
this$ = 8
?_Get_first@?$_Compressed_pair@V?$allocator@PEAVInstance@@@std@@V?$_Vector_val@U?$_Simple_types@PEAVInstance@@@std@@@2@$00@std@@QEAAAEAV?$allocator@PEAVInstance@@@2@XZ PROC ; std::_Compressed_pair<std::allocator<Instance *>,std::_Vector_val<std::_Simple_types<Instance *> >,1>::_Get_first, COMDAT
; File C:\Program Files\Microsoft Visual Studio\18\Community\VC\Tools\MSVC\14.50.35717\include\xmemory
; Line 1559
	mov	rax, rcx
; Line 1560
	ret	0
?_Get_first@?$_Compressed_pair@V?$allocator@PEAVInstance@@@std@@V?$_Vector_val@U?$_Simple_types@PEAVInstance@@@std@@@2@$00@std@@QEAAAEAV?$allocator@PEAVInstance@@@2@XZ ENDP ; std::_Compressed_pair<std::allocator<Instance *>,std::_Vector_val<std::_Simple_types<Instance *> >,1>::_Get_first
_TEXT	ENDS
; Function compile flags: /Ogtpy
;	COMDAT ??0?$_Vector_val@U?$_Simple_types@PEAVInstance@@@std@@@std@@QEAA@XZ
_TEXT	SEGMENT
this$ = 8
??0?$_Vector_val@U?$_Simple_types@PEAVInstance@@@std@@@std@@QEAA@XZ PROC ; std::_Vector_val<std::_Simple_types<Instance *> >::_Vector_val<std::_Simple_types<Instance *> >, COMDAT
; File C:\Program Files\Microsoft Visual Studio\18\Community\VC\Tools\MSVC\14.50.35717\include\vector
; Line 400
	xor	eax, eax
	mov	QWORD PTR [rcx], rax
	mov	QWORD PTR [rcx+8], rax
	mov	QWORD PTR [rcx+16], rax
	mov	rax, rcx
	ret	0
??0?$_Vector_val@U?$_Simple_types@PEAVInstance@@@std@@@std@@QEAA@XZ ENDP ; std::_Vector_val<std::_Simple_types<Instance *> >::_Vector_val<std::_Simple_types<Instance *> >
_TEXT	ENDS
; Function compile flags: /Ogtpy
;	COMDAT ?_Getal@?$vector@PEAVInstance@@V?$allocator@PEAVInstance@@@std@@@std@@AEBAAEBV?$allocator@PEAVInstance@@@2@XZ
_TEXT	SEGMENT
this$ = 8
?_Getal@?$vector@PEAVInstance@@V?$allocator@PEAVInstance@@@std@@@std@@AEBAAEBV?$allocator@PEAVInstance@@@2@XZ PROC ; std::vector<Instance *,std::allocator<Instance *> >::_Getal, COMDAT
; File C:\Program Files\Microsoft Visual Studio\18\Community\VC\Tools\MSVC\14.50.35717\include\vector
; Line 2231
	mov	rax, rcx
; Line 2232
	ret	0
?_Getal@?$vector@PEAVInstance@@V?$allocator@PEAVInstance@@@std@@@std@@AEBAAEBV?$allocator@PEAVInstance@@@2@XZ ENDP ; std::vector<Instance *,std::allocator<Instance *> >::_Getal
_TEXT	ENDS
; Function compile flags: /Ogtpy
;	COMDAT ?_Getal@?$vector@PEAVInstance@@V?$allocator@PEAVInstance@@@std@@@std@@AEAAAEAV?$allocator@PEAVInstance@@@2@XZ
_TEXT	SEGMENT
this$ = 8
?_Getal@?$vector@PEAVInstance@@V?$allocator@PEAVInstance@@@std@@@std@@AEAAAEAV?$allocator@PEAVInstance@@@2@XZ PROC ; std::vector<Instance *,std::allocator<Instance *> >::_Getal, COMDAT
; File C:\Program Files\Microsoft Visual Studio\18\Community\VC\Tools\MSVC\14.50.35717\include\vector
; Line 2227
	mov	rax, rcx
; Line 2228
	ret	0
?_Getal@?$vector@PEAVInstance@@V?$allocator@PEAVInstance@@@std@@@std@@AEAAAEAV?$allocator@PEAVInstance@@@2@XZ ENDP ; std::vector<Instance *,std::allocator<Instance *> >::_Getal
_TEXT	ENDS
; Function compile flags: /Ogtpy
;	COMDAT ?_Orphan_range@?$vector@PEAVInstance@@V?$allocator@PEAVInstance@@@std@@@std@@AEBAXPEAPEAVInstance@@0@Z
_TEXT	SEGMENT
this$ = 8
__formal$ = 16
__formal$ = 24
?_Orphan_range@?$vector@PEAVInstance@@V?$allocator@PEAVInstance@@@std@@@std@@AEBAXPEAPEAVInstance@@0@Z PROC ; std::vector<Instance *,std::allocator<Instance *> >::_Orphan_range, COMDAT
; File C:\Program Files\Microsoft Visual Studio\18\Community\VC\Tools\MSVC\14.50.35717\include\vector
; Line 2223
	ret	0
?_Orphan_range@?$vector@PEAVInstance@@V?$allocator@PEAVInstance@@@std@@@std@@AEBAXPEAPEAVInstance@@0@Z ENDP ; std::vector<Instance *,std::allocator<Instance *> >::_Orphan_range
_TEXT	ENDS
; Function compile flags: /Ogtpy
;	COMDAT ?_Xlength@?$vector@PEAVInstance@@V?$allocator@PEAVInstance@@@std@@@std@@CAXXZ
_TEXT	SEGMENT
?_Xlength@?$vector@PEAVInstance@@V?$allocator@PEAVInstance@@@std@@@std@@CAXXZ PROC ; std::vector<Instance *,std::allocator<Instance *> >::_Xlength, COMDAT
; File C:\Program Files\Microsoft Visual Studio\18\Community\VC\Tools\MSVC\14.50.35717\include\vector
; Line 2183
$LN4:
	sub	rsp, 40					; 00000028H
; Line 2184
	lea	rcx, OFFSET FLAT:??_C@_0BA@FOIKENOD@vector?5too?5long@
	call	?_Xlength_error@std@@YAXPEBD@Z		; std::_Xlength_error
	int	3
$LN3@Xlength:
?_Xlength@?$vector@PEAVInstance@@V?$allocator@PEAVInstance@@@std@@@std@@CAXXZ ENDP ; std::vector<Instance *,std::allocator<Instance *> >::_Xlength
_TEXT	ENDS
; Function compile flags: /Ogtpy
;	COMDAT ?_Tidy@?$vector@PEAVInstance@@V?$allocator@PEAVInstance@@@std@@@std@@AEAAXXZ
_TEXT	SEGMENT
this$ = 48
?_Tidy@?$vector@PEAVInstance@@V?$allocator@PEAVInstance@@@std@@@std@@AEAAXXZ PROC ; std::vector<Instance *,std::allocator<Instance *> >::_Tidy, COMDAT
; File C:\Program Files\Microsoft Visual Studio\18\Community\VC\Tools\MSVC\14.50.35717\include\vector
; Line 2081
$LN27:
	push	rbx
	sub	rsp, 32					; 00000020H
; Line 2090
	mov	rdx, QWORD PTR [rcx]
	mov	rbx, rcx
	test	rdx, rdx
	je	SHORT $LN2@Tidy
; Line 2093
	mov	rax, QWORD PTR [rcx+16]
	sub	rax, rdx
	sar	rax, 3
; File C:\Program Files\Microsoft Visual Studio\18\Community\VC\Tools\MSVC\14.50.35717\include\xmemory
; Line 989
	lea	rax, QWORD PTR [rax*8]
; Line 288
	cmp	rax, 4096				; 00001000H
	jb	SHORT $LN20@Tidy
; Line 209
	mov	rcx, QWORD PTR [rdx-8]
; Line 223
	sub	rdx, rcx
	sub	rdx, 8
	cmp	rdx, 31
	ja	SHORT $LN15@Tidy
; Line 224
	add	rax, 39					; 00000027H
	jmp	SHORT $LN16@Tidy
$LN15@Tidy:
; Line 223
	mov	ecx, 5
	int	41					; 00000029H
$LN20@Tidy:
; Line 989
	mov	rcx, rdx
$LN16@Tidy:
; Line 293
	mov	rdx, rax
	call	??3@YAXPEAX_K@Z				; operator delete
; File C:\Program Files\Microsoft Visual Studio\18\Community\VC\Tools\MSVC\14.50.35717\include\vector
; Line 2095
	xor	eax, eax
	mov	QWORD PTR [rbx], rax
; Line 2096
	mov	QWORD PTR [rbx+8], rax
; Line 2097
	mov	QWORD PTR [rbx+16], rax
$LN2@Tidy:
; Line 2099
	add	rsp, 32					; 00000020H
	pop	rbx
	ret	0
$LN24@Tidy:
?_Tidy@?$vector@PEAVInstance@@V?$allocator@PEAVInstance@@@std@@@std@@AEAAXXZ ENDP ; std::vector<Instance *,std::allocator<Instance *> >::_Tidy
_TEXT	ENDS
; Function compile flags: /Ogtpy
;	COMDAT ?_Change_array@?$vector@PEAVInstance@@V?$allocator@PEAVInstance@@@std@@@std@@AEAAXQEAPEAVInstance@@_K1@Z
_TEXT	SEGMENT
this$ = 80
_Newvec$ = 88
_Newsize$ = 96
_Newcapacity$ = 104
?_Change_array@?$vector@PEAVInstance@@V?$allocator@PEAVInstance@@@std@@@std@@AEAAXQEAPEAVInstance@@_K1@Z PROC ; std::vector<Instance *,std::allocator<Instance *> >::_Change_array, COMDAT
; File C:\Program Files\Microsoft Visual Studio\18\Community\VC\Tools\MSVC\14.50.35717\include\vector
; Line 2059
$LN27:
	push	rbx
	push	rbp
	push	rsi
	push	rdi
	sub	rsp, 40					; 00000028H
; Line 2069
	mov	r10, QWORD PTR [rcx]
	mov	rsi, r9
	mov	rbp, r8
	mov	rdi, rdx
	mov	rbx, rcx
	test	r10, r10
	je	SHORT $LN8@Change_arr
; Line 2072
	mov	rax, QWORD PTR [rcx+16]
	sub	rax, r10
	sar	rax, 3
; File C:\Program Files\Microsoft Visual Studio\18\Community\VC\Tools\MSVC\14.50.35717\include\xmemory
; Line 989
	lea	rdx, QWORD PTR [rax*8]
; Line 288
	cmp	rdx, 4096				; 00001000H
	jb	SHORT $LN20@Change_arr
; Line 209
	mov	rcx, QWORD PTR [r10-8]
; Line 223
	sub	r10, rcx
	sub	r10, 8
	cmp	r10, 31
	ja	SHORT $LN15@Change_arr
; Line 224
	add	rdx, 39					; 00000027H
	jmp	SHORT $LN16@Change_arr
$LN15@Change_arr:
; Line 223
	mov	ecx, 5
	int	41					; 00000029H
$LN20@Change_arr:
; Line 989
	mov	rcx, r10
$LN16@Change_arr:
; Line 293
	call	??3@YAXPEAX_K@Z				; operator delete
$LN8@Change_arr:
; File C:\Program Files\Microsoft Visual Studio\18\Community\VC\Tools\MSVC\14.50.35717\include\vector
; Line 2076
	lea	rax, QWORD PTR [rdi+rbp*8]
	mov	QWORD PTR [rbx], rdi
	mov	QWORD PTR [rbx+8], rax
; Line 2077
	lea	rax, QWORD PTR [rdi+rsi*8]
	mov	QWORD PTR [rbx+16], rax
; Line 2079
	add	rsp, 40					; 00000028H
	pop	rdi
	pop	rsi
	pop	rbp
	pop	rbx
	ret	0
$LN24@Change_arr:
?_Change_array@?$vector@PEAVInstance@@V?$allocator@PEAVInstance@@@std@@@std@@AEAAXQEAPEAVInstance@@_K1@Z ENDP ; std::vector<Instance *,std::allocator<Instance *> >::_Change_array
_TEXT	ENDS
; Function compile flags: /Ogtpy
;	COMDAT ?_Calculate_growth@?$vector@PEAVInstance@@V?$allocator@PEAVInstance@@@std@@@std@@AEBA_K_K@Z
_TEXT	SEGMENT
this$ = 8
_Newsize$ = 16
?_Calculate_growth@?$vector@PEAVInstance@@V?$allocator@PEAVInstance@@@std@@@std@@AEBA_K_K@Z PROC ; std::vector<Instance *,std::allocator<Instance *> >::_Calculate_growth, COMDAT
; File C:\Program Files\Microsoft Visual Studio\18\Community\VC\Tools\MSVC\14.50.35717\include\vector
; Line 1924
	mov	r8, QWORD PTR [rcx+16]
; Line 2011
	mov	rax, 2305843009213693951		; 1fffffffffffffffH
; Line 1924
	sub	r8, QWORD PTR [rcx]
; Line 2011
	mov	rcx, rax
; Line 1924
	sar	r8, 3
; Line 2011
	mov	r9, r8
	shr	r9, 1
	sub	rcx, r9
	cmp	r8, rcx
	ja	SHORT $LN1@Calculate_
; Line 2015
	lea	rax, QWORD PTR [r9+r8]
; Line 2017
	cmp	rax, rdx
	cmovb	rax, rdx
$LN1@Calculate_:
; Line 2022
	ret	0
?_Calculate_growth@?$vector@PEAVInstance@@V?$allocator@PEAVInstance@@@std@@@std@@AEBA_K_K@Z ENDP ; std::vector<Instance *,std::allocator<Instance *> >::_Calculate_growth
_TEXT	ENDS
; Function compile flags: /Ogtpy
;	COMDAT ?capacity@?$vector@PEAVInstance@@V?$allocator@PEAVInstance@@@std@@@std@@QEBA_KXZ
_TEXT	SEGMENT
this$ = 8
?capacity@?$vector@PEAVInstance@@V?$allocator@PEAVInstance@@@std@@@std@@QEBA_KXZ PROC ; std::vector<Instance *,std::allocator<Instance *> >::capacity, COMDAT
; File C:\Program Files\Microsoft Visual Studio\18\Community\VC\Tools\MSVC\14.50.35717\include\vector
; Line 1924
	mov	rax, QWORD PTR [rcx+16]
	sub	rax, QWORD PTR [rcx]
	sar	rax, 3
; Line 1925
	ret	0
?capacity@?$vector@PEAVInstance@@V?$allocator@PEAVInstance@@@std@@@std@@QEBA_KXZ ENDP ; std::vector<Instance *,std::allocator<Instance *> >::capacity
_TEXT	ENDS
; Function compile flags: /Ogtpy
;	COMDAT ?max_size@?$vector@PEAVInstance@@V?$allocator@PEAVInstance@@@std@@@std@@QEBA_KXZ
_TEXT	SEGMENT
this$ = 8
?max_size@?$vector@PEAVInstance@@V?$allocator@PEAVInstance@@@std@@@std@@QEBA_KXZ PROC ; std::vector<Instance *,std::allocator<Instance *> >::max_size, COMDAT
; File C:\Program Files\Microsoft Visual Studio\18\Community\VC\Tools\MSVC\14.50.35717\include\vector
; Line 1919
	mov	rax, 2305843009213693951		; 1fffffffffffffffH
; Line 1920
	ret	0
?max_size@?$vector@PEAVInstance@@V?$allocator@PEAVInstance@@@std@@@std@@QEBA_KXZ ENDP ; std::vector<Instance *,std::allocator<Instance *> >::max_size
_TEXT	ENDS
; Function compile flags: /Ogtpy
;	COMDAT ?end@?$vector@PEAVInstance@@V?$allocator@PEAVInstance@@@std@@@std@@QEAA?AV?$_Vector_iterator@V?$_Vector_val@U?$_Simple_types@PEAVInstance@@@std@@@std@@@2@XZ
_TEXT	SEGMENT
this$ = 8
__$ReturnUdt$ = 16
?end@?$vector@PEAVInstance@@V?$allocator@PEAVInstance@@@std@@@std@@QEAA?AV?$_Vector_iterator@V?$_Vector_val@U?$_Simple_types@PEAVInstance@@@std@@@std@@@2@XZ PROC ; std::vector<Instance *,std::allocator<Instance *> >::end, COMDAT
; File C:\Program Files\Microsoft Visual Studio\18\Community\VC\Tools\MSVC\14.50.35717\include\vector
; Line 46
	mov	rax, QWORD PTR [rcx+8]
	mov	QWORD PTR [rdx], rax
; Line 1852
	mov	rax, rdx
; Line 1853
	ret	0
?end@?$vector@PEAVInstance@@V?$allocator@PEAVInstance@@@std@@@std@@QEAA?AV?$_Vector_iterator@V?$_Vector_val@U?$_Simple_types@PEAVInstance@@@std@@@std@@@2@XZ ENDP ; std::vector<Instance *,std::allocator<Instance *> >::end
_TEXT	ENDS
; Function compile flags: /Ogtpy
;	COMDAT ?begin@?$vector@PEAVInstance@@V?$allocator@PEAVInstance@@@std@@@std@@QEAA?AV?$_Vector_iterator@V?$_Vector_val@U?$_Simple_types@PEAVInstance@@@std@@@std@@@2@XZ
_TEXT	SEGMENT
this$ = 8
__$ReturnUdt$ = 16
?begin@?$vector@PEAVInstance@@V?$allocator@PEAVInstance@@@std@@@std@@QEAA?AV?$_Vector_iterator@V?$_Vector_val@U?$_Simple_types@PEAVInstance@@@std@@@std@@@2@XZ PROC ; std::vector<Instance *,std::allocator<Instance *> >::begin, COMDAT
; File C:\Program Files\Microsoft Visual Studio\18\Community\VC\Tools\MSVC\14.50.35717\include\vector
; Line 46
	mov	rax, QWORD PTR [rcx]
	mov	QWORD PTR [rdx], rax
; Line 1842
	mov	rax, rdx
; Line 1843
	ret	0
?begin@?$vector@PEAVInstance@@V?$allocator@PEAVInstance@@@std@@@std@@QEAA?AV?$_Vector_iterator@V?$_Vector_val@U?$_Simple_types@PEAVInstance@@@std@@@std@@@2@XZ ENDP ; std::vector<Instance *,std::allocator<Instance *> >::begin
_TEXT	ENDS
; Function compile flags: /Ogtpy
;	COMDAT ?erase@?$vector@PEAVInstance@@V?$allocator@PEAVInstance@@@std@@@std@@QEAA?AV?$_Vector_iterator@V?$_Vector_val@U?$_Simple_types@PEAVInstance@@@std@@@std@@@2@V?$_Vector_const_iterator@V?$_Vector_val@U?$_Simple_types@PEAVInstance@@@std@@@std@@@2@0@Z
_TEXT	SEGMENT
this$ = 48
__$ReturnUdt$ = 56
_First$ = 64
_Last$ = 72
?erase@?$vector@PEAVInstance@@V?$allocator@PEAVInstance@@@std@@@std@@QEAA?AV?$_Vector_iterator@V?$_Vector_val@U?$_Simple_types@PEAVInstance@@@std@@@std@@@2@V?$_Vector_const_iterator@V?$_Vector_val@U?$_Simple_types@PEAVInstance@@@std@@@std@@@2@0@Z PROC ; std::vector<Instance *,std::allocator<Instance *> >::erase, COMDAT
; File C:\Program Files\Microsoft Visual Studio\18\Community\VC\Tools\MSVC\14.50.35717\include\vector
; Line 1783
$LN34:
	mov	QWORD PTR [rsp+16], rbx
	mov	QWORD PTR [rsp+24], rbp
	push	rsi
	sub	rsp, 32					; 00000020H
	mov	rbx, r8
	mov	rsi, rdx
	mov	rbp, rcx
; Line 1795
	cmp	r8, r9
	je	SHORT $LN29@erase
	mov	QWORD PTR [rsp+48], rdi
; File C:\Program Files\Microsoft Visual Studio\18\Community\VC\Tools\MSVC\14.50.35717\include\xutility
; Line 4862
	mov	rdx, r9
; Line 4880
	mov	rdi, QWORD PTR [rcx+8]
; Line 4862
	mov	rcx, rbx
; Line 4880
	sub	rdi, r9
; Line 4862
	mov	r8, rdi
	call	memmove
; Line 4866
	lea	rax, QWORD PTR [rdi+rbx]
; File C:\Program Files\Microsoft Visual Studio\18\Community\VC\Tools\MSVC\14.50.35717\include\vector
; Line 46
	mov	QWORD PTR [rsi], rbx
; Line 1804
	mov	rdi, QWORD PTR [rsp+48]
	mov	QWORD PTR [rbp+8], rax
; Line 1805
	mov	rax, rsi
	mov	rbx, QWORD PTR [rsp+56]
	mov	rbp, QWORD PTR [rsp+64]
	add	rsp, 32					; 00000020H
	pop	rsi
	ret	0
$LN29@erase:
	mov	rbp, QWORD PTR [rsp+64]
	mov	rax, rsi
; Line 46
	mov	QWORD PTR [rdx], rbx
; Line 1805
	mov	rbx, QWORD PTR [rsp+56]
	add	rsp, 32					; 00000020H
	pop	rsi
	ret	0
?erase@?$vector@PEAVInstance@@V?$allocator@PEAVInstance@@@std@@@std@@QEAA?AV?$_Vector_iterator@V?$_Vector_val@U?$_Simple_types@PEAVInstance@@@std@@@std@@@2@V?$_Vector_const_iterator@V?$_Vector_val@U?$_Simple_types@PEAVInstance@@@std@@@std@@@2@0@Z ENDP ; std::vector<Instance *,std::allocator<Instance *> >::erase
_TEXT	ENDS
; Function compile flags: /Ogtpy
;	COMDAT ?push_back@?$vector@PEAVInstance@@V?$allocator@PEAVInstance@@@std@@@std@@QEAAXAEBQEAVInstance@@@Z
_TEXT	SEGMENT
this$ = 8
_Val$ = 16
?push_back@?$vector@PEAVInstance@@V?$allocator@PEAVInstance@@@std@@@std@@QEAAXAEBQEAVInstance@@@Z PROC ; std::vector<Instance *,std::allocator<Instance *> >::push_back, COMDAT
; File C:\Program Files\Microsoft Visual Studio\18\Community\VC\Tools\MSVC\14.50.35717\include\vector
; Line 932
	mov	r8, rdx
; Line 844
	mov	rdx, QWORD PTR [rcx+8]
	cmp	rdx, QWORD PTR [rcx+16]
	je	SHORT $LN4@push_back
; Line 860
	mov	rax, QWORD PTR [r8]
	mov	QWORD PTR [rdx], rax
; Line 869
	add	QWORD PTR [rcx+8], 8
; Line 934
	ret	0
$LN4@push_back:
; Line 848
	jmp	??$_Emplace_reallocate@AEBQEAVInstance@@@?$vector@PEAVInstance@@V?$allocator@PEAVInstance@@@std@@@std@@AEAAPEAPEAVInstance@@QEAPEAV2@AEBQEAV2@@Z ; std::vector<Instance *,std::allocator<Instance *> >::_Emplace_reallocate<Instance * const &>
?push_back@?$vector@PEAVInstance@@V?$allocator@PEAVInstance@@@std@@@std@@QEAAXAEBQEAVInstance@@@Z ENDP ; std::vector<Instance *,std::allocator<Instance *> >::push_back
_TEXT	ENDS
; Function compile flags: /Ogtpy
;	COMDAT ??1?$vector@PEAVInstance@@V?$allocator@PEAVInstance@@@std@@@std@@QEAA@XZ
_TEXT	SEGMENT
this$ = 48
??1?$vector@PEAVInstance@@V?$allocator@PEAVInstance@@@std@@@std@@QEAA@XZ PROC ; std::vector<Instance *,std::allocator<Instance *> >::~vector<Instance *,std::allocator<Instance *> >, COMDAT
; File C:\Program Files\Microsoft Visual Studio\18\Community\VC\Tools\MSVC\14.50.35717\include\vector
; Line 829
$LN31:
	push	rbx
	sub	rsp, 32					; 00000020H
; Line 2090
	mov	rdx, QWORD PTR [rcx]
; Line 829
	mov	rbx, rcx
; Line 2090
	test	rdx, rdx
	je	SHORT $LN5@vector
; Line 2093
	mov	rax, QWORD PTR [rcx+16]
	sub	rax, rdx
	sar	rax, 3
; File C:\Program Files\Microsoft Visual Studio\18\Community\VC\Tools\MSVC\14.50.35717\include\xmemory
; Line 989
	lea	rax, QWORD PTR [rax*8]
; Line 288
	cmp	rax, 4096				; 00001000H
	jb	SHORT $LN24@vector
; Line 209
	mov	rcx, QWORD PTR [rdx-8]
; Line 223
	sub	rdx, rcx
	sub	rdx, 8
	cmp	rdx, 31
	ja	SHORT $LN18@vector
; Line 224
	add	rax, 39					; 00000027H
	jmp	SHORT $LN19@vector
$LN18@vector:
; Line 223
	mov	ecx, 5
	int	41					; 00000029H
$LN24@vector:
; Line 989
	mov	rcx, rdx
$LN19@vector:
; Line 293
	mov	rdx, rax
	call	??3@YAXPEAX_K@Z				; operator delete
; File C:\Program Files\Microsoft Visual Studio\18\Community\VC\Tools\MSVC\14.50.35717\include\vector
; Line 2095
	xor	eax, eax
	mov	QWORD PTR [rbx], rax
; Line 2096
	mov	QWORD PTR [rbx+8], rax
; Line 2097
	mov	QWORD PTR [rbx+16], rax
$LN5@vector:
; Line 835
	add	rsp, 32					; 00000020H
	pop	rbx
	ret	0
$LN28@vector:
??1?$vector@PEAVInstance@@V?$allocator@PEAVInstance@@@std@@@std@@QEAA@XZ ENDP ; std::vector<Instance *,std::allocator<Instance *> >::~vector<Instance *,std::allocator<Instance *> >
_TEXT	ENDS
; Function compile flags: /Ogtpy
;	COMDAT ??0?$vector@PEAVInstance@@V?$allocator@PEAVInstance@@@std@@@std@@QEAA@XZ
_TEXT	SEGMENT
this$ = 8
??0?$vector@PEAVInstance@@V?$allocator@PEAVInstance@@@std@@@std@@QEAA@XZ PROC ; std::vector<Instance *,std::allocator<Instance *> >::vector<Instance *,std::allocator<Instance *> >, COMDAT
; File C:\Program Files\Microsoft Visual Studio\18\Community\VC\Tools\MSVC\14.50.35717\include\vector
; Line 400
	xor	eax, eax
	mov	QWORD PTR [rcx], rax
	mov	QWORD PTR [rcx+8], rax
	mov	QWORD PTR [rcx+16], rax
; Line 672
	mov	rax, rcx
	ret	0
??0?$vector@PEAVInstance@@V?$allocator@PEAVInstance@@@std@@@std@@QEAA@XZ ENDP ; std::vector<Instance *,std::allocator<Instance *> >::vector<Instance *,std::allocator<Instance *> >
_TEXT	ENDS
; Function compile flags: /Ogtpy
;	COMDAT ?max_size@?$_Default_allocator_traits@V?$allocator@PEAVInstance@@@std@@@std@@SA_KAEBV?$allocator@PEAVInstance@@@2@@Z
_TEXT	SEGMENT
__formal$ = 8
?max_size@?$_Default_allocator_traits@V?$allocator@PEAVInstance@@@std@@@std@@SA_KAEBV?$allocator@PEAVInstance@@@2@@Z PROC ; std::_Default_allocator_traits<std::allocator<Instance *> >::max_size, COMDAT
; File C:\Program Files\Microsoft Visual Studio\18\Community\VC\Tools\MSVC\14.50.35717\include\xmemory
; Line 750
	mov	rax, 2305843009213693951		; 1fffffffffffffffH
; Line 751
	ret	0
?max_size@?$_Default_allocator_traits@V?$allocator@PEAVInstance@@@std@@@std@@SA_KAEBV?$allocator@PEAVInstance@@@2@@Z ENDP ; std::_Default_allocator_traits<std::allocator<Instance *> >::max_size
_TEXT	ENDS
; Function compile flags: /Ogtpy
;	COMDAT ?allocate@?$allocator@PEAVInstance@@@std@@QEAAPEAPEAVInstance@@_K@Z
_TEXT	SEGMENT
this$ = 48
_Count$ = 56
?allocate@?$allocator@PEAVInstance@@@std@@QEAAPEAPEAVInstance@@_K@Z PROC ; std::allocator<Instance *>::allocate, COMDAT
; File C:\Program Files\Microsoft Visual Studio\18\Community\VC\Tools\MSVC\14.50.35717\include\xmemory
; Line 992
$LN27:
	sub	rsp, 40					; 00000028H
; Line 121
	mov	rax, 2305843009213693951		; 1fffffffffffffffH
	cmp	rdx, rax
	ja	SHORT $LN23@allocate
; Line 126
	lea	rcx, QWORD PTR [rdx*8]
; Line 231
	test	rcx, rcx
	jne	SHORT $LN8@allocate
; Line 232
	xor	eax, eax
; Line 995
	add	rsp, 40					; 00000028H
	ret	0
$LN8@allocate:
; Line 255
	cmp	rcx, 4096				; 00001000H
	jb	SHORT $LN10@allocate
; Line 188
	lea	rax, QWORD PTR [rcx+39]
; Line 189
	cmp	rax, rcx
	jbe	SHORT $LN23@allocate
; Line 140
	mov	rcx, rax
	call	??2@YAPEAX_K@Z				; operator new
	mov	rcx, rax
; Line 194
	test	rax, rax
	jne	SHORT $LN16@allocate
	mov	ecx, 5
	int	41					; 00000029H
$LN16@allocate:
; Line 195
	add	rax, 39					; 00000027H
	and	rax, -32				; ffffffffffffffe0H
; Line 196
	mov	QWORD PTR [rax-8], rcx
; Line 995
	add	rsp, 40					; 00000028H
	ret	0
$LN10@allocate:
	add	rsp, 40					; 00000028H
; Line 140
	jmp	??2@YAPEAX_K@Z				; operator new
$LN23@allocate:
; Line 190
	call	?_Throw_bad_array_new_length@std@@YAXXZ	; std::_Throw_bad_array_new_length
	int	3
$LN25@allocate:
?allocate@?$allocator@PEAVInstance@@@std@@QEAAPEAPEAVInstance@@_K@Z ENDP ; std::allocator<Instance *>::allocate
_TEXT	ENDS
; Function compile flags: /Ogtpy
;	COMDAT ?deallocate@?$allocator@PEAVInstance@@@std@@QEAAXQEAPEAVInstance@@_K@Z
_TEXT	SEGMENT
this$ = 8
_Ptr$ = 16
_Count$ = 24
?deallocate@?$allocator@PEAVInstance@@@std@@QEAAXQEAPEAVInstance@@_K@Z PROC ; std::allocator<Instance *>::deallocate, COMDAT
; File C:\Program Files\Microsoft Visual Studio\18\Community\VC\Tools\MSVC\14.50.35717\include\xmemory
; Line 989
	lea	r8, QWORD PTR [r8*8]
; Line 288
	cmp	r8, 4096				; 00001000H
	jb	SHORT $LN15@deallocate
; Line 209
	mov	rcx, QWORD PTR [rdx-8]
; Line 223
	sub	rdx, rcx
	sub	rdx, 8
	cmp	rdx, 31
	ja	SHORT $LN11@deallocate
; Line 206
	add	r8, 39					; 00000027H
; Line 293
	mov	rdx, r8
	jmp	??3@YAXPEAX_K@Z				; operator delete
$LN11@deallocate:
; Line 223
	mov	ecx, 5
	int	41					; 00000029H
$LN15@deallocate:
; Line 989
	mov	rcx, rdx
; Line 293
	mov	rdx, r8
	jmp	??3@YAXPEAX_K@Z				; operator delete
$LN16@deallocate:
?deallocate@?$allocator@PEAVInstance@@@std@@QEAAXQEAPEAVInstance@@_K@Z ENDP ; std::allocator<Instance *>::deallocate
_TEXT	ENDS
; Function compile flags: /Ogtpy
;	COMDAT ??0?$allocator@PEAVInstance@@@std@@QEAA@XZ
_TEXT	SEGMENT
this$ = 8
??0?$allocator@PEAVInstance@@@std@@QEAA@XZ PROC		; std::allocator<Instance *>::allocator<Instance *>, COMDAT
; File C:\Program Files\Microsoft Visual Studio\18\Community\VC\Tools\MSVC\14.50.35717\include\xmemory
; Line 978
	mov	rax, rcx
	ret	0
??0?$allocator@PEAVInstance@@@std@@QEAA@XZ ENDP		; std::allocator<Instance *>::allocator<Instance *>
_TEXT	ENDS
; Function compile flags: /Ogtpy
;	COMDAT ?registerCube@Workspace@@AEAAXPEAVInstance@@@Z
_TEXT	SEGMENT
this$ = 48
c$ = 56
?registerCube@Workspace@@AEAAXPEAVInstance@@@Z PROC	; Workspace::registerCube, COMDAT
; File C:\Users\RedDragon\Documents\Recubin\src\Instances\Workspace.cpp
; Line 12
$LN11:
	mov	QWORD PTR [rsp+16], rdx
	sub	rsp, 40					; 00000028H
; Line 13
	add	rcx, 120				; 00000078H
	mov	rax, rdx
; File C:\Program Files\Microsoft Visual Studio\18\Community\VC\Tools\MSVC\14.50.35717\include\vector
; Line 844
	mov	rdx, QWORD PTR [rcx+8]
	cmp	rdx, QWORD PTR [rcx+16]
	je	SHORT $LN6@registerCu
; Line 860
	mov	QWORD PTR [rdx], rax
; Line 869
	add	QWORD PTR [rcx+8], 8
; File C:\Users\RedDragon\Documents\Recubin\src\Instances\Workspace.cpp
; Line 14
	add	rsp, 40					; 00000028H
	ret	0
$LN6@registerCu:
; File C:\Program Files\Microsoft Visual Studio\18\Community\VC\Tools\MSVC\14.50.35717\include\vector
; Line 848
	lea	r8, QWORD PTR c$[rsp]
	call	??$_Emplace_reallocate@AEBQEAVInstance@@@?$vector@PEAVInstance@@V?$allocator@PEAVInstance@@@std@@@std@@AEAAPEAPEAVInstance@@QEAPEAV2@AEBQEAV2@@Z ; std::vector<Instance *,std::allocator<Instance *> >::_Emplace_reallocate<Instance * const &>
; File C:\Users\RedDragon\Documents\Recubin\src\Instances\Workspace.cpp
; Line 14
	add	rsp, 40					; 00000028H
	ret	0
?registerCube@Workspace@@AEAAXPEAVInstance@@@Z ENDP	; Workspace::registerCube
_TEXT	ENDS
; Function compile flags: /Ogtpy
;	COMDAT ?unregisterScript@Workspace@@AEAAXPEAVInstance@@@Z
_TEXT	SEGMENT
this$ = 48
s$ = 56
?unregisterScript@Workspace@@AEAAXPEAVInstance@@@Z PROC	; Workspace::unregisterScript, COMDAT
; File C:\Users\RedDragon\Documents\Recubin\src\Instances\Workspace.cpp
; Line 8
$LN96:
	mov	QWORD PTR [rsp+16], rbx
	mov	QWORD PTR [rsp+24], rbp
	push	rdi
	sub	rsp, 32					; 00000020H
; File C:\Program Files\Microsoft Visual Studio\18\Community\VC\Tools\MSVC\14.50.35717\include\vector
; Line 1852
	mov	rdi, QWORD PTR [rcx+152]
; File C:\Users\RedDragon\Documents\Recubin\src\Instances\Workspace.cpp
; Line 8
	mov	rbx, rdx
	mov	rbp, rcx
; File C:\Program Files\Microsoft Visual Studio\18\Community\VC\Tools\MSVC\14.50.35717\include\xutility
; Line 217
	mov	r8, rdx
	mov	rcx, QWORD PTR [rcx+144]
	mov	rdx, rdi
	call	__std_find_trivial_8
; File C:\Program Files\Microsoft Visual Studio\18\Community\VC\Tools\MSVC\14.50.35717\include\xmemory
; Line 2335
	cmp	rax, rdi
	je	SHORT $LN52@unregister
; Line 45
	mov	r8, rbx
; Line 2335
	mov	QWORD PTR [rsp+48], rsi
; Line 45
	mov	rdx, rdi
	mov	rcx, rax
	call	__std_remove_8
	mov	rsi, rax
; File C:\Program Files\Microsoft Visual Studio\18\Community\VC\Tools\MSVC\14.50.35717\include\vector
; Line 1795
	cmp	rax, rdi
	je	SHORT $LN93@unregister
; File C:\Program Files\Microsoft Visual Studio\18\Community\VC\Tools\MSVC\14.50.35717\include\xutility
; Line 4880
	mov	rbx, QWORD PTR [rbp+152]
; Line 4862
	mov	rdx, rdi
; Line 4880
	sub	rbx, rdi
; Line 4862
	mov	rcx, rax
	mov	r8, rbx
	call	memmove
; Line 4866
	lea	rax, QWORD PTR [rbx+rsi]
; File C:\Program Files\Microsoft Visual Studio\18\Community\VC\Tools\MSVC\14.50.35717\include\vector
; Line 1801
	mov	QWORD PTR [rbp+152], rax
$LN93@unregister:
	mov	rsi, QWORD PTR [rsp+48]
$LN52@unregister:
; File C:\Users\RedDragon\Documents\Recubin\src\Instances\Workspace.cpp
; Line 10
	mov	rbx, QWORD PTR [rsp+56]
	mov	rbp, QWORD PTR [rsp+64]
	add	rsp, 32					; 00000020H
	pop	rdi
	ret	0
?unregisterScript@Workspace@@AEAAXPEAVInstance@@@Z ENDP	; Workspace::unregisterScript
_TEXT	ENDS
; Function compile flags: /Ogtpy
;	COMDAT ?registerScript@Workspace@@AEAAXPEAVInstance@@@Z
_TEXT	SEGMENT
this$ = 48
s$ = 56
?registerScript@Workspace@@AEAAXPEAVInstance@@@Z PROC	; Workspace::registerScript, COMDAT
; File C:\Users\RedDragon\Documents\Recubin\src\Instances\Workspace.cpp
; Line 4
$LN11:
	mov	QWORD PTR [rsp+16], rdx
	sub	rsp, 40					; 00000028H
; Line 5
	add	rcx, 144				; 00000090H
	mov	rax, rdx
; File C:\Program Files\Microsoft Visual Studio\18\Community\VC\Tools\MSVC\14.50.35717\include\vector
; Line 844
	mov	rdx, QWORD PTR [rcx+8]
	cmp	rdx, QWORD PTR [rcx+16]
	je	SHORT $LN6@registerSc
; Line 860
	mov	QWORD PTR [rdx], rax
; Line 869
	add	QWORD PTR [rcx+8], 8
; File C:\Users\RedDragon\Documents\Recubin\src\Instances\Workspace.cpp
; Line 6
	add	rsp, 40					; 00000028H
	ret	0
$LN6@registerSc:
; File C:\Program Files\Microsoft Visual Studio\18\Community\VC\Tools\MSVC\14.50.35717\include\vector
; Line 848
	lea	r8, QWORD PTR s$[rsp]
	call	??$_Emplace_reallocate@AEBQEAVInstance@@@?$vector@PEAVInstance@@V?$allocator@PEAVInstance@@@std@@@std@@AEAAPEAPEAVInstance@@QEAPEAV2@AEBQEAV2@@Z ; std::vector<Instance *,std::allocator<Instance *> >::_Emplace_reallocate<Instance * const &>
; File C:\Users\RedDragon\Documents\Recubin\src\Instances\Workspace.cpp
; Line 6
	add	rsp, 40					; 00000028H
	ret	0
?registerScript@Workspace@@AEAAXPEAVInstance@@@Z ENDP	; Workspace::registerScript
_TEXT	ENDS
; Function compile flags: /Ogtpy
;	COMDAT ??$_Getvals@_W@?$time_get@_WV?$istreambuf_iterator@_WU?$char_traits@_W@std@@@std@@@std@@IEAAX_WAEBV_Locinfo@1@@Z
_TEXT	SEGMENT
$T1 = 32
__$ArrayPad$ = 80
this$ = 128
__formal$ = 136
_Lobj$ = 144
??$_Getvals@_W@?$time_get@_WV?$istreambuf_iterator@_WU?$char_traits@_W@std@@@std@@@std@@IEAAX_WAEBV_Locinfo@1@@Z PROC ; std::time_get<wchar_t,std::istreambuf_iterator<wchar_t,std::char_traits<wchar_t> > >::_Getvals<wchar_t>, COMDAT
; File C:\Program Files\Microsoft Visual Studio\18\Community\VC\Tools\MSVC\14.50.35717\include\xloctime
; Line 238
$LN27:
	mov	QWORD PTR [rsp+16], rbx
	mov	QWORD PTR [rsp+32], rbp
	push	rsi
	push	rdi
	push	r14
	sub	rsp, 96					; 00000060H
	mov	rax, QWORD PTR __security_cookie
	xor	rax, rsp
	mov	QWORD PTR __$ArrayPad$[rsp], rax
	mov	rbx, rcx
; Line 239
	lea	rdx, QWORD PTR $T1[rsp]
	mov	rcx, r8
	mov	rsi, r8
	call	QWORD PTR __imp_?_Getcvt@_Locinfo@std@@QEBA?AU_Cvtvec@@XZ
; Line 242
	mov	rcx, rsi
	movups	xmm0, XMMWORD PTR [rax]
	movups	XMMWORD PTR [rbx+44], xmm0
	movups	xmm1, XMMWORD PTR [rax+16]
	movups	XMMWORD PTR [rbx+60], xmm1
	movups	xmm0, XMMWORD PTR [rax+28]
	movups	XMMWORD PTR [rbx+72], xmm0
	call	QWORD PTR __imp_?_W_Getdays@_Locinfo@std@@QEBAPEBGXZ
; File C:\Program Files\Microsoft Visual Studio\18\Community\VC\Tools\MSVC\14.50.35717\include\xlocnum
; Line 74
	mov	rcx, rax
; File C:\Program Files\Microsoft Visual Studio\18\Community\VC\Tools\MSVC\14.50.35717\include\xloctime
; Line 242
	mov	rbp, rax
; File C:\Program Files\Microsoft Visual Studio\18\Community\VC\Tools\MSVC\14.50.35717\include\xlocnum
; Line 74
	call	wcslen
; Line 76
	mov	edx, 2
	lea	r14, QWORD PTR [rax+1]
	mov	rcx, r14
	call	QWORD PTR __imp_calloc
	mov	rdi, rax
; Line 78
	test	rax, rax
	je	$LN24@Getvals
; File C:\Program Files (x86)\Windows Kits\10\Include\10.0.26100.0\ucrt\wchar.h
; Line 494
	lea	r8, QWORD PTR [r14+r14]
	mov	rdx, rbp
	mov	rcx, rax
	call	memcpy
; File C:\Program Files\Microsoft Visual Studio\18\Community\VC\Tools\MSVC\14.50.35717\include\xloctime
; Line 243
	mov	rcx, rsi
	mov	QWORD PTR [rbx+16], rdi
	call	QWORD PTR __imp_?_W_Getmonths@_Locinfo@std@@QEBAPEBGXZ
; File C:\Program Files\Microsoft Visual Studio\18\Community\VC\Tools\MSVC\14.50.35717\include\xlocnum
; Line 74
	mov	rcx, rax
; File C:\Program Files\Microsoft Visual Studio\18\Community\VC\Tools\MSVC\14.50.35717\include\xloctime
; Line 243
	mov	rsi, rax
; File C:\Program Files\Microsoft Visual Studio\18\Community\VC\Tools\MSVC\14.50.35717\include\xlocnum
; Line 74
	call	wcslen
; Line 76
	mov	edx, 2
	lea	r14, QWORD PTR [rax+1]
	mov	rcx, r14
	call	QWORD PTR __imp_calloc
	mov	rdi, rax
; Line 78
	test	rax, rax
	je	SHORT $LN25@Getvals
; File C:\Program Files (x86)\Windows Kits\10\Include\10.0.26100.0\ucrt\wchar.h
; Line 494
	lea	r8, QWORD PTR [r14+r14]
	mov	rdx, rsi
	mov	rcx, rax
	call	memcpy
; File C:\Program Files\Microsoft Visual Studio\18\Community\VC\Tools\MSVC\14.50.35717\include\xlocnum
; Line 76
	mov	edx, 2
; File C:\Program Files\Microsoft Visual Studio\18\Community\VC\Tools\MSVC\14.50.35717\include\xloctime
; Line 243
	mov	QWORD PTR [rbx+24], rdi
; File C:\Program Files\Microsoft Visual Studio\18\Community\VC\Tools\MSVC\14.50.35717\include\xlocnum
; Line 76
	mov	ecx, 13
	call	QWORD PTR __imp_calloc
; Line 78
	test	rax, rax
	je	SHORT $LN26@Getvals
; File C:\Program Files (x86)\Windows Kits\10\Include\10.0.26100.0\ucrt\wchar.h
; Line 494
	movups	xmm0, XMMWORD PTR ??_C@_1BK@MHIKGOKE@?$AA?3?$AAA?$AAM?$AA?3?$AAa?$AAm?$AA?3?$AAP?$AAM?$AA?3?$AAp?$AAm@
	movups	xmm1, XMMWORD PTR ??_C@_1BK@MHIKGOKE@?$AA?3?$AAA?$AAM?$AA?3?$AAa?$AAm?$AA?3?$AAP?$AAM?$AA?3?$AAp?$AAm@+10
; File C:\Program Files\Microsoft Visual Studio\18\Community\VC\Tools\MSVC\14.50.35717\include\xloctime
; Line 245
	mov	QWORD PTR [rbx+32], rax
; File C:\Program Files (x86)\Windows Kits\10\Include\10.0.26100.0\ucrt\wchar.h
; Line 494
	movups	XMMWORD PTR [rax], xmm0
	movups	XMMWORD PTR [rax+10], xmm1
; File C:\Program Files\Microsoft Visual Studio\18\Community\VC\Tools\MSVC\14.50.35717\include\xloctime
; Line 251
	mov	rcx, QWORD PTR __$ArrayPad$[rsp]
	xor	rcx, rsp
	call	__security_check_cookie
	lea	r11, QWORD PTR [rsp+96]
	mov	rbx, QWORD PTR [r11+40]
	mov	rbp, QWORD PTR [r11+56]
	mov	rsp, r11
	pop	r14
	pop	rdi
	pop	rsi
	ret	0
$LN24@Getvals:
; File C:\Program Files\Microsoft Visual Studio\18\Community\VC\Tools\MSVC\14.50.35717\include\xlocnum
; Line 79
	call	?_Xbad_alloc@std@@YAXXZ			; std::_Xbad_alloc
	int	3
$LN25@Getvals:
	call	?_Xbad_alloc@std@@YAXXZ			; std::_Xbad_alloc
	int	3
$LN26@Getvals:
	call	?_Xbad_alloc@std@@YAXXZ			; std::_Xbad_alloc
	int	3
$LN22@Getvals:
??$_Getvals@_W@?$time_get@_WV?$istreambuf_iterator@_WU?$char_traits@_W@std@@@std@@@std@@IEAAX_WAEBV_Locinfo@1@@Z ENDP ; std::time_get<wchar_t,std::istreambuf_iterator<wchar_t,std::char_traits<wchar_t> > >::_Getvals<wchar_t>
_TEXT	ENDS
; Function compile flags: /Ogtpy
;	COMDAT ??$_Getvals@_W@?$time_get@DV?$istreambuf_iterator@DU?$char_traits@D@std@@@std@@@std@@IEAAX_WAEBV_Locinfo@1@@Z
_TEXT	SEGMENT
$T1 = 32
__$ArrayPad$ = 80
this$ = 128
__formal$ = 136
_Lobj$ = 144
??$_Getvals@_W@?$time_get@DV?$istreambuf_iterator@DU?$char_traits@D@std@@@std@@@std@@IEAAX_WAEBV_Locinfo@1@@Z PROC ; std::time_get<char,std::istreambuf_iterator<char,std::char_traits<char> > >::_Getvals<wchar_t>, COMDAT
; File C:\Program Files\Microsoft Visual Studio\18\Community\VC\Tools\MSVC\14.50.35717\include\xloctime
; Line 238
$LN27:
	mov	QWORD PTR [rsp+16], rbx
	mov	QWORD PTR [rsp+32], rbp
	push	rsi
	push	rdi
	push	r14
	sub	rsp, 96					; 00000060H
	mov	rax, QWORD PTR __security_cookie
	xor	rax, rsp
	mov	QWORD PTR __$ArrayPad$[rsp], rax
	mov	rbx, rcx
; Line 239
	lea	rdx, QWORD PTR $T1[rsp]
	mov	rcx, r8
	mov	rsi, r8
	call	QWORD PTR __imp_?_Getcvt@_Locinfo@std@@QEBA?AU_Cvtvec@@XZ
; Line 242
	mov	rcx, rsi
	movups	xmm0, XMMWORD PTR [rax]
	movups	XMMWORD PTR [rbx+44], xmm0
	movups	xmm1, XMMWORD PTR [rax+16]
	movups	XMMWORD PTR [rbx+60], xmm1
	movups	xmm0, XMMWORD PTR [rax+28]
	movups	XMMWORD PTR [rbx+72], xmm0
	call	QWORD PTR __imp_?_W_Getdays@_Locinfo@std@@QEBAPEBGXZ
; File C:\Program Files\Microsoft Visual Studio\18\Community\VC\Tools\MSVC\14.50.35717\include\xlocnum
; Line 74
	mov	rcx, rax
; File C:\Program Files\Microsoft Visual Studio\18\Community\VC\Tools\MSVC\14.50.35717\include\xloctime
; Line 242
	mov	rbp, rax
; File C:\Program Files\Microsoft Visual Studio\18\Community\VC\Tools\MSVC\14.50.35717\include\xlocnum
; Line 74
	call	wcslen
; Line 76
	mov	edx, 2
	lea	r14, QWORD PTR [rax+1]
	mov	rcx, r14
	call	QWORD PTR __imp_calloc
	mov	rdi, rax
; Line 78
	test	rax, rax
	je	$LN24@Getvals
; File C:\Program Files (x86)\Windows Kits\10\Include\10.0.26100.0\ucrt\wchar.h
; Line 494
	lea	r8, QWORD PTR [r14+r14]
	mov	rdx, rbp
	mov	rcx, rax
	call	memcpy
; File C:\Program Files\Microsoft Visual Studio\18\Community\VC\Tools\MSVC\14.50.35717\include\xloctime
; Line 243
	mov	rcx, rsi
	mov	QWORD PTR [rbx+16], rdi
	call	QWORD PTR __imp_?_W_Getmonths@_Locinfo@std@@QEBAPEBGXZ
; File C:\Program Files\Microsoft Visual Studio\18\Community\VC\Tools\MSVC\14.50.35717\include\xlocnum
; Line 74
	mov	rcx, rax
; File C:\Program Files\Microsoft Visual Studio\18\Community\VC\Tools\MSVC\14.50.35717\include\xloctime
; Line 243
	mov	rsi, rax
; File C:\Program Files\Microsoft Visual Studio\18\Community\VC\Tools\MSVC\14.50.35717\include\xlocnum
; Line 74
	call	wcslen
; Line 76
	mov	edx, 2
	lea	r14, QWORD PTR [rax+1]
	mov	rcx, r14
	call	QWORD PTR __imp_calloc
	mov	rdi, rax
; Line 78
	test	rax, rax
	je	SHORT $LN25@Getvals
; File C:\Program Files (x86)\Windows Kits\10\Include\10.0.26100.0\ucrt\wchar.h
; Line 494
	lea	r8, QWORD PTR [r14+r14]
	mov	rdx, rsi
	mov	rcx, rax
	call	memcpy
; File C:\Program Files\Microsoft Visual Studio\18\Community\VC\Tools\MSVC\14.50.35717\include\xlocnum
; Line 76
	mov	edx, 2
; File C:\Program Files\Microsoft Visual Studio\18\Community\VC\Tools\MSVC\14.50.35717\include\xloctime
; Line 243
	mov	QWORD PTR [rbx+24], rdi
; File C:\Program Files\Microsoft Visual Studio\18\Community\VC\Tools\MSVC\14.50.35717\include\xlocnum
; Line 76
	mov	ecx, 13
	call	QWORD PTR __imp_calloc
; Line 78
	test	rax, rax
	je	SHORT $LN26@Getvals
; File C:\Program Files (x86)\Windows Kits\10\Include\10.0.26100.0\ucrt\wchar.h
; Line 494
	movups	xmm0, XMMWORD PTR ??_C@_1BK@MHIKGOKE@?$AA?3?$AAA?$AAM?$AA?3?$AAa?$AAm?$AA?3?$AAP?$AAM?$AA?3?$AAp?$AAm@
	movups	xmm1, XMMWORD PTR ??_C@_1BK@MHIKGOKE@?$AA?3?$AAA?$AAM?$AA?3?$AAa?$AAm?$AA?3?$AAP?$AAM?$AA?3?$AAp?$AAm@+10
; File C:\Program Files\Microsoft Visual Studio\18\Community\VC\Tools\MSVC\14.50.35717\include\xloctime
; Line 245
	mov	QWORD PTR [rbx+32], rax
; File C:\Program Files (x86)\Windows Kits\10\Include\10.0.26100.0\ucrt\wchar.h
; Line 494
	movups	XMMWORD PTR [rax], xmm0
	movups	XMMWORD PTR [rax+10], xmm1
; File C:\Program Files\Microsoft Visual Studio\18\Community\VC\Tools\MSVC\14.50.35717\include\xloctime
; Line 251
	mov	rcx, QWORD PTR __$ArrayPad$[rsp]
	xor	rcx, rsp
	call	__security_check_cookie
	lea	r11, QWORD PTR [rsp+96]
	mov	rbx, QWORD PTR [r11+40]
	mov	rbp, QWORD PTR [r11+56]
	mov	rsp, r11
	pop	r14
	pop	rdi
	pop	rsi
	ret	0
$LN24@Getvals:
; File C:\Program Files\Microsoft Visual Studio\18\Community\VC\Tools\MSVC\14.50.35717\include\xlocnum
; Line 79
	call	?_Xbad_alloc@std@@YAXXZ			; std::_Xbad_alloc
	int	3
$LN25@Getvals:
	call	?_Xbad_alloc@std@@YAXXZ			; std::_Xbad_alloc
	int	3
$LN26@Getvals:
	call	?_Xbad_alloc@std@@YAXXZ			; std::_Xbad_alloc
	int	3
$LN22@Getvals:
??$_Getvals@_W@?$time_get@DV?$istreambuf_iterator@DU?$char_traits@D@std@@@std@@@std@@IEAAX_WAEBV_Locinfo@1@@Z ENDP ; std::time_get<char,std::istreambuf_iterator<char,std::char_traits<char> > >::_Getvals<wchar_t>
_TEXT	ENDS
; Function compile flags: /Ogtpy
;	COMDAT ??$_Max_limit@_J@std@@YA_JXZ
_TEXT	SEGMENT
??$_Max_limit@_J@std@@YA_JXZ PROC			; std::_Max_limit<__int64>, COMDAT
; File C:\Program Files\Microsoft Visual Studio\18\Community\VC\Tools\MSVC\14.50.35717\include\utility
; Line 867
	mov	rax, 9223372036854775807		; 7fffffffffffffffH
; Line 871
	ret	0
??$_Max_limit@_J@std@@YA_JXZ ENDP			; std::_Max_limit<__int64>
_TEXT	ENDS
; Function compile flags: /Ogtpy
;	COMDAT ?_Maklocwcs@std@@YAPEA_WPEB_W@Z
_TEXT	SEGMENT
_Ptr$ = 48
?_Maklocwcs@std@@YAPEA_WPEB_W@Z PROC			; std::_Maklocwcs, COMDAT
; File C:\Program Files\Microsoft Visual Studio\18\Community\VC\Tools\MSVC\14.50.35717\include\xlocnum
; Line 73
$LN10:
	mov	QWORD PTR [rsp+8], rbx
	mov	QWORD PTR [rsp+16], rsi
	push	rdi
	sub	rsp, 32					; 00000020H
	mov	rdi, rcx
; Line 74
	call	wcslen
; Line 76
	mov	edx, 2
	lea	rsi, QWORD PTR [rax+1]
	mov	rcx, rsi
	call	QWORD PTR __imp_calloc
	mov	rbx, rax
; Line 78
	test	rax, rax
	je	SHORT $LN9@Maklocwcs
; File C:\Program Files (x86)\Windows Kits\10\Include\10.0.26100.0\ucrt\wchar.h
; Line 494
	lea	r8, QWORD PTR [rsi+rsi]
	mov	rdx, rdi
	mov	rcx, rax
	call	memcpy
; File C:\Program Files\Microsoft Visual Studio\18\Community\VC\Tools\MSVC\14.50.35717\include\xlocnum
; Line 84
	mov	rsi, QWORD PTR [rsp+56]
	mov	rax, rbx
	mov	rbx, QWORD PTR [rsp+48]
	add	rsp, 32					; 00000020H
	pop	rdi
	ret	0
$LN9@Maklocwcs:
; Line 79
	call	?_Xbad_alloc@std@@YAXXZ			; std::_Xbad_alloc
	int	3
$LN7@Maklocwcs:
?_Maklocwcs@std@@YAPEA_WPEB_W@Z ENDP			; std::_Maklocwcs
_TEXT	ENDS
; Function compile flags: /Ogtpy
;	COMDAT ??1?$_Compressed_pair@V?$allocator@D@std@@V?$_String_val@U?$_Simple_types@D@std@@@2@$00@std@@QEAA@XZ
_TEXT	SEGMENT
this$ = 8
??1?$_Compressed_pair@V?$allocator@D@std@@V?$_String_val@U?$_Simple_types@D@std@@@2@$00@std@@QEAA@XZ PROC ; std::_Compressed_pair<std::allocator<char>,std::_String_val<std::_Simple_types<char> >,1>::~_Compressed_pair<std::allocator<char>,std::_String_val<std::_Simple_types<char> >,1>, COMDAT
	ret	0
??1?$_Compressed_pair@V?$allocator@D@std@@V?$_String_val@U?$_Simple_types@D@std@@@2@$00@std@@QEAA@XZ ENDP ; std::_Compressed_pair<std::allocator<char>,std::_String_val<std::_Simple_types<char> >,1>::~_Compressed_pair<std::allocator<char>,std::_String_val<std::_Simple_types<char> >,1>
_TEXT	ENDS
; Function compile flags: /Ogtpy
;	COMDAT ?_Get_first@?$_Compressed_pair@V?$allocator@D@std@@V?$_String_val@U?$_Simple_types@D@std@@@2@$00@std@@QEBAAEBV?$allocator@D@2@XZ
_TEXT	SEGMENT
this$ = 8
?_Get_first@?$_Compressed_pair@V?$allocator@D@std@@V?$_String_val@U?$_Simple_types@D@std@@@2@$00@std@@QEBAAEBV?$allocator@D@2@XZ PROC ; std::_Compressed_pair<std::allocator<char>,std::_String_val<std::_Simple_types<char> >,1>::_Get_first, COMDAT
; File C:\Program Files\Microsoft Visual Studio\18\Community\VC\Tools\MSVC\14.50.35717\include\xmemory
; Line 1563
	mov	rax, rcx
; Line 1564
	ret	0
?_Get_first@?$_Compressed_pair@V?$allocator@D@std@@V?$_String_val@U?$_Simple_types@D@std@@@2@$00@std@@QEBAAEBV?$allocator@D@2@XZ ENDP ; std::_Compressed_pair<std::allocator<char>,std::_String_val<std::_Simple_types<char> >,1>::_Get_first
_TEXT	ENDS
; Function compile flags: /Ogtpy
;	COMDAT ?_Get_first@?$_Compressed_pair@V?$allocator@D@std@@V?$_String_val@U?$_Simple_types@D@std@@@2@$00@std@@QEAAAEAV?$allocator@D@2@XZ
_TEXT	SEGMENT
this$ = 8
?_Get_first@?$_Compressed_pair@V?$allocator@D@std@@V?$_String_val@U?$_Simple_types@D@std@@@2@$00@std@@QEAAAEAV?$allocator@D@2@XZ PROC ; std::_Compressed_pair<std::allocator<char>,std::_String_val<std::_Simple_types<char> >,1>::_Get_first, COMDAT
; File C:\Program Files\Microsoft Visual Studio\18\Community\VC\Tools\MSVC\14.50.35717\include\xmemory
; Line 1559
	mov	rax, rcx
; Line 1560
	ret	0
?_Get_first@?$_Compressed_pair@V?$allocator@D@std@@V?$_String_val@U?$_Simple_types@D@std@@@2@$00@std@@QEAAAEAV?$allocator@D@2@XZ ENDP ; std::_Compressed_pair<std::allocator<char>,std::_String_val<std::_Simple_types<char> >,1>::_Get_first
_TEXT	ENDS
; Function compile flags: /Ogtpy
;	COMDAT ?_Getal@?$basic_string@DU?$char_traits@D@std@@V?$allocator@D@2@@std@@AEBAAEBV?$allocator@D@2@XZ
_TEXT	SEGMENT
this$ = 8
?_Getal@?$basic_string@DU?$char_traits@D@std@@V?$allocator@D@2@@std@@AEBAAEBV?$allocator@D@2@XZ PROC ; std::basic_string<char,std::char_traits<char>,std::allocator<char> >::_Getal, COMDAT
; File C:\Program Files\Microsoft Visual Studio\18\Community\VC\Tools\MSVC\14.50.35717\include\xstring
; Line 3197
	mov	rax, rcx
; Line 3198
	ret	0
?_Getal@?$basic_string@DU?$char_traits@D@std@@V?$allocator@D@2@@std@@AEBAAEBV?$allocator@D@2@XZ ENDP ; std::basic_string<char,std::char_traits<char>,std::allocator<char> >::_Getal
_TEXT	ENDS
; Function compile flags: /Ogtpy
;	COMDAT ?_Getal@?$basic_string@DU?$char_traits@D@std@@V?$allocator@D@2@@std@@AEAAAEAV?$allocator@D@2@XZ
_TEXT	SEGMENT
this$ = 8
?_Getal@?$basic_string@DU?$char_traits@D@std@@V?$allocator@D@2@@std@@AEAAAEAV?$allocator@D@2@XZ PROC ; std::basic_string<char,std::char_traits<char>,std::allocator<char> >::_Getal, COMDAT
; File C:\Program Files\Microsoft Visual Studio\18\Community\VC\Tools\MSVC\14.50.35717\include\xstring
; Line 3193
	mov	rax, rcx
; Line 3194
	ret	0
?_Getal@?$basic_string@DU?$char_traits@D@std@@V?$allocator@D@2@@std@@AEAAAEAV?$allocator@D@2@XZ ENDP ; std::basic_string<char,std::char_traits<char>,std::allocator<char> >::_Getal
_TEXT	ENDS
; Function compile flags: /Ogtpy
;	COMDAT ?_Tidy_deallocate@?$basic_string@DU?$char_traits@D@std@@V?$allocator@D@2@@std@@AEAAXXZ
_TEXT	SEGMENT
this$ = 48
?_Tidy_deallocate@?$basic_string@DU?$char_traits@D@std@@V?$allocator@D@2@@std@@AEAAXXZ PROC ; std::basic_string<char,std::char_traits<char>,std::allocator<char> >::_Tidy_deallocate, COMDAT
; File C:\Program Files\Microsoft Visual Studio\18\Community\VC\Tools\MSVC\14.50.35717\include\xstring
; Line 3166
$LN34:
	push	rbx
	sub	rsp, 32					; 00000020H
; Line 453
	mov	rdx, QWORD PTR [rcx+24]
; Line 3166
	mov	rbx, rcx
; Line 453
	cmp	rdx, 15
; Line 3169
	jbe	SHORT $LN14@Tidy_deall
; Line 3172
	mov	rax, QWORD PTR [rcx]
; Line 902
	inc	rdx
; File C:\Program Files\Microsoft Visual Studio\18\Community\VC\Tools\MSVC\14.50.35717\include\xmemory
; Line 288
	cmp	rdx, 4096				; 00001000H
	jb	SHORT $LN27@Tidy_deall
; Line 209
	mov	rcx, QWORD PTR [rax-8]
; Line 223
	sub	rax, rcx
	sub	rax, 8
	cmp	rax, 31
	ja	SHORT $LN21@Tidy_deall
; Line 224
	add	rdx, 39					; 00000027H
	jmp	SHORT $LN22@Tidy_deall
$LN21@Tidy_deall:
; Line 223
	mov	ecx, 5
	int	41					; 00000029H
$LN27@Tidy_deall:
; Line 989
	mov	rcx, rax
$LN22@Tidy_deall:
; Line 293
	call	??3@YAXPEAX_K@Z				; operator delete
$LN14@Tidy_deall:
; File C:\Program Files\Microsoft Visual Studio\18\Community\VC\Tools\MSVC\14.50.35717\include\xstring
; Line 3176
	mov	QWORD PTR [rbx+16], 0
; Line 3177
	mov	QWORD PTR [rbx+24], 15
; Line 3179
	mov	BYTE PTR [rbx], 0
; Line 3180
	add	rsp, 32					; 00000020H
	pop	rbx
	ret	0
$LN31@Tidy_deall:
?_Tidy_deallocate@?$basic_string@DU?$char_traits@D@std@@V?$allocator@D@2@@std@@AEAAXXZ ENDP ; std::basic_string<char,std::char_traits<char>,std::allocator<char> >::_Tidy_deallocate
_TEXT	ENDS
; Function compile flags: /Ogtpy
;	COMDAT ?_Calculate_growth@?$basic_string@DU?$char_traits@D@std@@V?$allocator@D@2@@std@@CA_K_K00@Z
_TEXT	SEGMENT
_Requested$ = 8
_Old$ = 16
_Max$ = 24
?_Calculate_growth@?$basic_string@DU?$char_traits@D@std@@V?$allocator@D@2@@std@@CA_K_K00@Z PROC ; std::basic_string<char,std::char_traits<char>,std::allocator<char> >::_Calculate_growth, COMDAT
; File C:\Program Files\Microsoft Visual Studio\18\Community\VC\Tools\MSVC\14.50.35717\include\xstring
; Line 2885
	or	rcx, 15
	cmp	rcx, r8
; Line 2886
	ja	SHORT $LN9@Calculate_
; Line 2890
	mov	r9, rdx
	mov	rax, r8
	shr	r9, 1
	sub	rax, r9
	cmp	rdx, rax
	ja	SHORT $LN9@Calculate_
; Line 2894
	lea	rax, QWORD PTR [r9+rdx]
	cmp	rcx, rax
	cmovb	rcx, rax
	mov	rax, rcx
; Line 2895
	ret	0
$LN9@Calculate_:
; Line 2891
	mov	rax, r8
; Line 2895
	ret	0
?_Calculate_growth@?$basic_string@DU?$char_traits@D@std@@V?$allocator@D@2@@std@@CA_K_K00@Z ENDP ; std::basic_string<char,std::char_traits<char>,std::allocator<char> >::_Calculate_growth
_TEXT	ENDS
; Function compile flags: /Ogtpy
;	COMDAT ?_Equal@?$basic_string@DU?$char_traits@D@std@@V?$allocator@D@2@@std@@QEBA_NQEBD@Z
_TEXT	SEGMENT
this$ = 48
_Ptr$ = 56
?_Equal@?$basic_string@DU?$char_traits@D@std@@V?$allocator@D@2@@std@@QEBA_NQEBD@Z PROC ; std::basic_string<char,std::char_traits<char>,std::allocator<char> >::_Equal, COMDAT
; File C:\Program Files\Microsoft Visual Studio\18\Community\VC\Tools\MSVC\14.50.35717\include\xstring
; Line 2759
$LN28:
	mov	QWORD PTR [rsp+8], rbx
	push	rdi
	sub	rsp, 32					; 00000020H
	mov	rbx, rcx
	mov	rdi, rdx
; File C:\Program Files\Microsoft Visual Studio\18\Community\VC\Tools\MSVC\14.50.35717\include\__msvc_string_view.hpp
; Line 530
	mov	rcx, rdx
	call	strlen
; File C:\Program Files\Microsoft Visual Studio\18\Community\VC\Tools\MSVC\14.50.35717\include\xstring
; Line 445
	cmp	QWORD PTR [rbx+24], 15
; Line 2761
	mov	r8, QWORD PTR [rbx+16]
; Line 445
	jbe	SHORT $LN22@Equal
; Line 446
	mov	rbx, QWORD PTR [rbx]
$LN22@Equal:
; File C:\Program Files\Microsoft Visual Studio\18\Community\VC\Tools\MSVC\14.50.35717\include\__msvc_string_view.hpp
; Line 673
	cmp	r8, rax
	je	SHORT $LN15@Equal
; File C:\Program Files\Microsoft Visual Studio\18\Community\VC\Tools\MSVC\14.50.35717\include\xstring
; Line 2761
	xor	al, al
; Line 2762
	mov	rbx, QWORD PTR [rsp+48]
	add	rsp, 32					; 00000020H
	pop	rdi
	ret	0
$LN15@Equal:
; File C:\Program Files\Microsoft Visual Studio\18\Community\VC\Tools\MSVC\14.50.35717\include\__msvc_string_view.hpp
; Line 677
	test	r8, r8
	jne	SHORT $LN16@Equal
; File C:\Program Files\Microsoft Visual Studio\18\Community\VC\Tools\MSVC\14.50.35717\include\xstring
; Line 2761
	mov	al, 1
; Line 2762
	mov	rbx, QWORD PTR [rsp+48]
	add	rsp, 32					; 00000020H
	pop	rdi
	ret	0
$LN16@Equal:
; File C:\Program Files\Microsoft Visual Studio\18\Community\VC\Tools\MSVC\14.50.35717\include\__msvc_string_view.hpp
; Line 511
	mov	rdx, rdi
	mov	rcx, rbx
	call	memcmp
; File C:\Program Files\Microsoft Visual Studio\18\Community\VC\Tools\MSVC\14.50.35717\include\xstring
; Line 2762
	mov	rbx, QWORD PTR [rsp+48]
; File C:\Program Files\Microsoft Visual Studio\18\Community\VC\Tools\MSVC\14.50.35717\include\__msvc_string_view.hpp
; Line 681
	test	eax, eax
	sete	al
; File C:\Program Files\Microsoft Visual Studio\18\Community\VC\Tools\MSVC\14.50.35717\include\xstring
; Line 2762
	add	rsp, 32					; 00000020H
	pop	rdi
	ret	0
?_Equal@?$basic_string@DU?$char_traits@D@std@@V?$allocator@D@2@@std@@QEBA_NQEBD@Z ENDP ; std::basic_string<char,std::char_traits<char>,std::allocator<char> >::_Equal
_TEXT	ENDS
; Function compile flags: /Ogtpy
;	COMDAT ?max_size@?$basic_string@DU?$char_traits@D@std@@V?$allocator@D@2@@std@@QEBA_KXZ
_TEXT	SEGMENT
this$ = 8
?max_size@?$basic_string@DU?$char_traits@D@std@@V?$allocator@D@2@@std@@QEBA_KXZ PROC ; std::basic_string<char,std::char_traits<char>,std::allocator<char> >::max_size, COMDAT
; File C:\Program Files\Microsoft Visual Studio\18\Community\VC\Tools\MSVC\14.50.35717\include\xstring
; Line 2288
	mov	rax, 9223372036854775807		; 7fffffffffffffffH
; Line 2291
	ret	0
?max_size@?$basic_string@DU?$char_traits@D@std@@V?$allocator@D@2@@std@@QEBA_KXZ ENDP ; std::basic_string<char,std::char_traits<char>,std::allocator<char> >::max_size
_TEXT	ENDS
; Function compile flags: /Ogtpy
;	COMDAT ??1?$basic_string@DU?$char_traits@D@std@@V?$allocator@D@2@@std@@QEAA@XZ
_TEXT	SEGMENT
this$ = 8
??1?$basic_string@DU?$char_traits@D@std@@V?$allocator@D@2@@std@@QEAA@XZ PROC ; std::basic_string<char,std::char_traits<char>,std::allocator<char> >::~basic_string<char,std::char_traits<char>,std::allocator<char> >, COMDAT
; File C:\Program Files\Microsoft Visual Studio\18\Community\VC\Tools\MSVC\14.50.35717\include\xstring
; Line 1433
	jmp	?_Tidy_deallocate@?$basic_string@DU?$char_traits@D@std@@V?$allocator@D@2@@std@@AEAAXXZ ; std::basic_string<char,std::char_traits<char>,std::allocator<char> >::_Tidy_deallocate
??1?$basic_string@DU?$char_traits@D@std@@V?$allocator@D@2@@std@@QEAA@XZ ENDP ; std::basic_string<char,std::char_traits<char>,std::allocator<char> >::~basic_string<char,std::char_traits<char>,std::allocator<char> >
_TEXT	ENDS
; Function compile flags: /Ogtpy
;	COMDAT ?_Deallocate_for_capacity@?$basic_string@DU?$char_traits@D@std@@V?$allocator@D@2@@std@@CAXAEAV?$allocator@D@2@QEAD_K@Z
_TEXT	SEGMENT
_Al$ = 8
_Old_ptr$ = 16
_Capacity$ = 24
?_Deallocate_for_capacity@?$basic_string@DU?$char_traits@D@std@@V?$allocator@D@2@@std@@CAXAEAV?$allocator@D@2@QEAD_K@Z PROC ; std::basic_string<char,std::char_traits<char>,std::allocator<char> >::_Deallocate_for_capacity, COMDAT
; File C:\Program Files\Microsoft Visual Studio\18\Community\VC\Tools\MSVC\14.50.35717\include\xstring
; Line 902
	inc	r8
; File C:\Program Files\Microsoft Visual Studio\18\Community\VC\Tools\MSVC\14.50.35717\include\xmemory
; Line 288
	cmp	r8, 4096				; 00001000H
	jb	SHORT $LN19@Deallocate
; Line 209
	mov	rcx, QWORD PTR [rdx-8]
; Line 223
	sub	rdx, rcx
	sub	rdx, 8
	cmp	rdx, 31
	ja	SHORT $LN14@Deallocate
; Line 206
	add	r8, 39					; 00000027H
; Line 293
	mov	rdx, r8
	jmp	??3@YAXPEAX_K@Z				; operator delete
$LN14@Deallocate:
; Line 223
	mov	ecx, 5
	int	41					; 00000029H
$LN19@Deallocate:
; Line 989
	mov	rcx, rdx
; Line 293
	mov	rdx, r8
	jmp	??3@YAXPEAX_K@Z				; operator delete
$LN20@Deallocate:
?_Deallocate_for_capacity@?$basic_string@DU?$char_traits@D@std@@V?$allocator@D@2@@std@@CAXAEAV?$allocator@D@2@QEAD_K@Z ENDP ; std::basic_string<char,std::char_traits<char>,std::allocator<char> >::_Deallocate_for_capacity
_TEXT	ENDS
; Function compile flags: /Ogtpy
;	COMDAT ??0?$basic_string@DU?$char_traits@D@std@@V?$allocator@D@2@@std@@QEAA@QEBD@Z
_TEXT	SEGMENT
this$ = 48
_Ptr$ = 56
??0?$basic_string@DU?$char_traits@D@std@@V?$allocator@D@2@@std@@QEAA@QEBD@Z PROC ; std::basic_string<char,std::char_traits<char>,std::allocator<char> >::basic_string<char,std::char_traits<char>,std::allocator<char> >, COMDAT
; File C:\Program Files\Microsoft Visual Studio\18\Community\VC\Tools\MSVC\14.50.35717\include\xstring
; Line 818
$LN21:
	mov	QWORD PTR [rsp+8], rbx
	push	rdi
	sub	rsp, 32					; 00000020H
; Line 517
	xor	eax, eax
	xorps	xmm0, xmm0
; Line 493
	movups	XMMWORD PTR [rcx], xmm0
; Line 517
	mov	QWORD PTR [rcx+16], rax
; Line 818
	mov	rdi, rcx
; Line 518
	mov	QWORD PTR [rcx+24], rax
; Line 818
	mov	rbx, rdx
; File C:\Program Files\Microsoft Visual Studio\18\Community\VC\Tools\MSVC\14.50.35717\include\__msvc_string_view.hpp
; Line 530
	mov	rcx, rdx
	call	strlen
; File C:\Program Files\Microsoft Visual Studio\18\Community\VC\Tools\MSVC\14.50.35717\include\xstring
; Line 819
	mov	r8, rax
	mov	rdx, rbx
	mov	rcx, rdi
	call	??$_Construct@$00PEBD@?$basic_string@DU?$char_traits@D@std@@V?$allocator@D@2@@std@@AEAAXQEBD_K@Z ; std::basic_string<char,std::char_traits<char>,std::allocator<char> >::_Construct<1,char const *>
; Line 820
	mov	rbx, QWORD PTR [rsp+48]
	mov	rax, rdi
	add	rsp, 32					; 00000020H
	pop	rdi
	ret	0
??0?$basic_string@DU?$char_traits@D@std@@V?$allocator@D@2@@std@@QEAA@QEBD@Z ENDP ; std::basic_string<char,std::char_traits<char>,std::allocator<char> >::basic_string<char,std::char_traits<char>,std::allocator<char> >
_TEXT	ENDS
; Function compile flags: /Ogtpy
;	COMDAT ??0?$basic_string@DU?$char_traits@D@std@@V?$allocator@D@2@@std@@QEAA@AEBV01@@Z
_TEXT	SEGMENT
this$ = 80
_Right$ = 88
??0?$basic_string@DU?$char_traits@D@std@@V?$allocator@D@2@@std@@QEAA@AEBV01@@Z PROC ; std::basic_string<char,std::char_traits<char>,std::allocator<char> >::basic_string<char,std::char_traits<char>,std::allocator<char> >, COMDAT
; File C:\Program Files\Microsoft Visual Studio\18\Community\VC\Tools\MSVC\14.50.35717\include\xstring
; Line 767
$LN126:
	push	rbx
	push	rsi
	push	rdi
	push	r14
	sub	rsp, 40					; 00000028H
	mov	r14, rdx
	xorps	xmm0, xmm0
; Line 493
	movups	XMMWORD PTR [rcx], xmm0
; Line 517
	xor	edx, edx
; Line 767
	mov	rbx, rcx
; Line 517
	mov	QWORD PTR [rcx+16], rdx
; Line 518
	mov	QWORD PTR [rcx+24], rdx
; Line 453
	cmp	QWORD PTR [r14+24], 15
; Line 768
	mov	rsi, QWORD PTR [r14+16]
; Line 445
	jbe	SHORT $LN112@basic_stri
; Line 446
	mov	r14, QWORD PTR [r14]
$LN112@basic_stri:
; Line 931
	mov	rdi, 9223372036854775807		; 7fffffffffffffffH
	cmp	rsi, rdi
	ja	$LN123@basic_stri
; Line 939
	cmp	rsi, 15
	ja	SHORT $LN25@basic_stri
; Line 940
	mov	QWORD PTR [rcx+16], rsi
; Line 769
	mov	rax, rbx
; Line 941
	mov	QWORD PTR [rcx+24], 15
; File C:\Program Files\Microsoft Visual Studio\18\Community\VC\Tools\MSVC\14.50.35717\include\__msvc_string_view.hpp
; Line 200
	movups	xmm0, XMMWORD PTR [r14]
	movups	XMMWORD PTR [rcx], xmm0
; File C:\Program Files\Microsoft Visual Studio\18\Community\VC\Tools\MSVC\14.50.35717\include\xstring
; Line 769
	add	rsp, 40					; 00000028H
	pop	r14
	pop	rdi
	pop	rsi
	pop	rbx
	ret	0
$LN25@basic_stri:
; Line 2885
	mov	rax, rsi
	or	rax, 15
; Line 2886
	cmp	rax, rdi
	jbe	SHORT $LN38@basic_stri
; Line 2887
	mov	rax, -9223372036854775769		; 8000000000000027H
$LN63@basic_stri:
; File C:\Program Files\Microsoft Visual Studio\18\Community\VC\Tools\MSVC\14.50.35717\include\xmemory
; Line 140
	mov	rcx, rax
	call	??2@YAPEAX_K@Z				; operator new
	mov	rcx, rax
; Line 194
	test	rax, rax
	jne	SHORT $LN64@basic_stri
	mov	ecx, 5
	int	41					; 00000029H
$LN38@basic_stri:
; File C:\Program Files\Microsoft Visual Studio\18\Community\VC\Tools\MSVC\14.50.35717\include\utility
; Line 77
	mov	ecx, 22
	mov	rdi, rax
	cmp	rax, rcx
	cmovb	rdi, rcx
; File C:\Program Files\Microsoft Visual Studio\18\Community\VC\Tools\MSVC\14.50.35717\include\xstring
; Line 875
	lea	rcx, QWORD PTR [rdi+1]
; File C:\Program Files\Microsoft Visual Studio\18\Community\VC\Tools\MSVC\14.50.35717\include\xmemory
; Line 231
	test	rcx, rcx
	jne	SHORT $LN56@basic_stri
; Line 232
	mov	rax, rdx
	jmp	SHORT $LN55@basic_stri
$LN56@basic_stri:
; Line 255
	cmp	rcx, 4096				; 00001000H
	jb	SHORT $LN58@basic_stri
; Line 188
	lea	rax, QWORD PTR [rcx+39]
; Line 189
	cmp	rax, rcx
	jbe	SHORT $LN124@basic_stri
	jmp	SHORT $LN63@basic_stri
$LN64@basic_stri:
; Line 195
	add	rax, 39					; 00000027H
	and	rax, -32				; ffffffffffffffe0H
; Line 196
	mov	QWORD PTR [rax-8], rcx
; Line 257
	jmp	SHORT $LN55@basic_stri
$LN58@basic_stri:
; Line 140
	call	??2@YAPEAX_K@Z				; operator new
$LN55@basic_stri:
; File C:\Program Files\Microsoft Visual Studio\18\Community\VC\Tools\MSVC\14.50.35717\include\xstring
; Line 974
	lea	r8, QWORD PTR [rsi+1]
	mov	QWORD PTR [rbx], rax
; File C:\Program Files\Microsoft Visual Studio\18\Community\VC\Tools\MSVC\14.50.35717\include\__msvc_string_view.hpp
; Line 200
	mov	rdx, r14
; File C:\Program Files\Microsoft Visual Studio\18\Community\VC\Tools\MSVC\14.50.35717\include\xstring
; Line 965
	mov	QWORD PTR [rbx+16], rsi
; File C:\Program Files\Microsoft Visual Studio\18\Community\VC\Tools\MSVC\14.50.35717\include\__msvc_string_view.hpp
; Line 200
	mov	rcx, rax
; File C:\Program Files\Microsoft Visual Studio\18\Community\VC\Tools\MSVC\14.50.35717\include\xstring
; Line 966
	mov	QWORD PTR [rbx+24], rdi
; File C:\Program Files\Microsoft Visual Studio\18\Community\VC\Tools\MSVC\14.50.35717\include\__msvc_string_view.hpp
; Line 200
	call	memcpy
; File C:\Program Files\Microsoft Visual Studio\18\Community\VC\Tools\MSVC\14.50.35717\include\xstring
; Line 769
	mov	rax, rbx
	add	rsp, 40					; 00000028H
	pop	r14
	pop	rdi
	pop	rsi
	pop	rbx
	ret	0
$LN123@basic_stri:
; Line 932
	call	?_Xlen_string@std@@YAXXZ		; std::_Xlen_string
	int	3
$LN124@basic_stri:
; File C:\Program Files\Microsoft Visual Studio\18\Community\VC\Tools\MSVC\14.50.35717\include\xmemory
; Line 190
	call	?_Throw_bad_array_new_length@std@@YAXXZ	; std::_Throw_bad_array_new_length
	int	3
$LN121@basic_stri:
??0?$basic_string@DU?$char_traits@D@std@@V?$allocator@D@2@@std@@QEAA@AEBV01@@Z ENDP ; std::basic_string<char,std::char_traits<char>,std::allocator<char> >::basic_string<char,std::char_traits<char>,std::allocator<char> >
_TEXT	ENDS
; Function compile flags: /Ogtpy
;	COMDAT ??1?$_String_val@U?$_Simple_types@D@std@@@std@@QEAA@XZ
_TEXT	SEGMENT
this$ = 8
??1?$_String_val@U?$_Simple_types@D@std@@@std@@QEAA@XZ PROC ; std::_String_val<std::_Simple_types<char> >::~_String_val<std::_Simple_types<char> >, COMDAT
	ret	0
??1?$_String_val@U?$_Simple_types@D@std@@@std@@QEAA@XZ ENDP ; std::_String_val<std::_Simple_types<char> >::~_String_val<std::_Simple_types<char> >
_TEXT	ENDS
; Function compile flags: /Ogtpy
;	COMDAT ?_Switch_to_buf@_Bxty@?$_String_val@U?$_Simple_types@D@std@@@std@@QEAAXXZ
_TEXT	SEGMENT
this$ = 8
?_Switch_to_buf@_Bxty@?$_String_val@U?$_Simple_types@D@std@@@std@@QEAAXXZ PROC ; std::_String_val<std::_Simple_types<char> >::_Bxty::_Switch_to_buf, COMDAT
; File C:\Program Files\Microsoft Visual Studio\18\Community\VC\Tools\MSVC\14.50.35717\include\xstring
; Line 511
	ret	0
?_Switch_to_buf@_Bxty@?$_String_val@U?$_Simple_types@D@std@@@std@@QEAAXXZ ENDP ; std::_String_val<std::_Simple_types<char> >::_Bxty::_Switch_to_buf
_TEXT	ENDS
; Function compile flags: /Ogtpy
;	COMDAT ??1_Bxty@?$_String_val@U?$_Simple_types@D@std@@@std@@QEAA@XZ
_TEXT	SEGMENT
this$ = 8
??1_Bxty@?$_String_val@U?$_Simple_types@D@std@@@std@@QEAA@XZ PROC ; std::_String_val<std::_Simple_types<char> >::_Bxty::~_Bxty, COMDAT
; File C:\Program Files\Microsoft Visual Studio\18\Community\VC\Tools\MSVC\14.50.35717\include\xstring
; Line 494
	ret	0
??1_Bxty@?$_String_val@U?$_Simple_types@D@std@@@std@@QEAA@XZ ENDP ; std::_String_val<std::_Simple_types<char> >::_Bxty::~_Bxty
_TEXT	ENDS
; Function compile flags: /Ogtpy
;	COMDAT ??0_Bxty@?$_String_val@U?$_Simple_types@D@std@@@std@@QEAA@XZ
_TEXT	SEGMENT
this$ = 8
??0_Bxty@?$_String_val@U?$_Simple_types@D@std@@@std@@QEAA@XZ PROC ; std::_String_val<std::_Simple_types<char> >::_Bxty::_Bxty, COMDAT
; File C:\Program Files\Microsoft Visual Studio\18\Community\VC\Tools\MSVC\14.50.35717\include\xstring
; Line 493
	xorps	xmm0, xmm0
	mov	rax, rcx
	movups	XMMWORD PTR [rcx], xmm0
	ret	0
??0_Bxty@?$_String_val@U?$_Simple_types@D@std@@@std@@QEAA@XZ ENDP ; std::_String_val<std::_Simple_types<char> >::_Bxty::_Bxty
_TEXT	ENDS
; Function compile flags: /Ogtpy
;	COMDAT ?_Large_mode_engaged@?$_String_val@U?$_Simple_types@D@std@@@std@@QEBA_NXZ
_TEXT	SEGMENT
this$ = 8
?_Large_mode_engaged@?$_String_val@U?$_Simple_types@D@std@@@std@@QEBA_NXZ PROC ; std::_String_val<std::_Simple_types<char> >::_Large_mode_engaged, COMDAT
; File C:\Program Files\Microsoft Visual Studio\18\Community\VC\Tools\MSVC\14.50.35717\include\xstring
; Line 453
	cmp	QWORD PTR [rcx+24], 15
	seta	al
; Line 454
	ret	0
?_Large_mode_engaged@?$_String_val@U?$_Simple_types@D@std@@@std@@QEBA_NXZ ENDP ; std::_String_val<std::_Simple_types<char> >::_Large_mode_engaged
_TEXT	ENDS
; Function compile flags: /Ogtpy
;	COMDAT ?_Myptr@?$_String_val@U?$_Simple_types@D@std@@@std@@QEBAPEBDXZ
_TEXT	SEGMENT
this$ = 8
?_Myptr@?$_String_val@U?$_Simple_types@D@std@@@std@@QEBAPEBDXZ PROC ; std::_String_val<std::_Simple_types<char> >::_Myptr, COMDAT
; File C:\Program Files\Microsoft Visual Studio\18\Community\VC\Tools\MSVC\14.50.35717\include\xstring
; Line 445
	cmp	QWORD PTR [rcx+24], 15
	jbe	SHORT $LN8@Myptr
; Line 449
	mov	rax, QWORD PTR [rcx]
; Line 450
	ret	0
$LN8@Myptr:
; Line 449
	mov	rax, rcx
; Line 450
	ret	0
?_Myptr@?$_String_val@U?$_Simple_types@D@std@@@std@@QEBAPEBDXZ ENDP ; std::_String_val<std::_Simple_types<char> >::_Myptr
_TEXT	ENDS
; Function compile flags: /Ogtpy
;	COMDAT ??0?$_String_val@U?$_Simple_types@D@std@@@std@@QEAA@XZ
_TEXT	SEGMENT
this$ = 8
??0?$_String_val@U?$_Simple_types@D@std@@@std@@QEAA@XZ PROC ; std::_String_val<std::_Simple_types<char> >::_String_val<std::_Simple_types<char> >, COMDAT
; File C:\Program Files\Microsoft Visual Studio\18\Community\VC\Tools\MSVC\14.50.35717\include\xstring
; Line 517
	xor	eax, eax
	xorps	xmm0, xmm0
; Line 493
	movups	XMMWORD PTR [rcx], xmm0
; Line 517
	mov	QWORD PTR [rcx+16], rax
; Line 518
	mov	QWORD PTR [rcx+24], rax
	mov	rax, rcx
	ret	0
??0?$_String_val@U?$_Simple_types@D@std@@@std@@QEAA@XZ ENDP ; std::_String_val<std::_Simple_types<char> >::_String_val<std::_Simple_types<char> >
_TEXT	ENDS
; Function compile flags: /Ogtpy
;	COMDAT ?select_on_container_copy_construction@?$_Default_allocator_traits@V?$allocator@D@std@@@std@@SA?AV?$allocator@D@2@AEBV32@@Z
_TEXT	SEGMENT
__$ReturnUdt$ = 8
_Al$ = 16
?select_on_container_copy_construction@?$_Default_allocator_traits@V?$allocator@D@std@@@std@@SA?AV?$allocator@D@2@AEBV32@@Z PROC ; std::_Default_allocator_traits<std::allocator<char> >::select_on_container_copy_construction, COMDAT
; File C:\Program Files\Microsoft Visual Studio\18\Community\VC\Tools\MSVC\14.50.35717\include\xmemory
; Line 754
	mov	rax, rcx
; Line 755
	ret	0
?select_on_container_copy_construction@?$_Default_allocator_traits@V?$allocator@D@std@@@std@@SA?AV?$allocator@D@2@AEBV32@@Z ENDP ; std::_Default_allocator_traits<std::allocator<char> >::select_on_container_copy_construction
_TEXT	ENDS
; Function compile flags: /Ogtpy
;	COMDAT ?max_size@?$_Default_allocator_traits@V?$allocator@D@std@@@std@@SA_KAEBV?$allocator@D@2@@Z
_TEXT	SEGMENT
__formal$ = 8
?max_size@?$_Default_allocator_traits@V?$allocator@D@std@@@std@@SA_KAEBV?$allocator@D@2@@Z PROC ; std::_Default_allocator_traits<std::allocator<char> >::max_size, COMDAT
; File C:\Program Files\Microsoft Visual Studio\18\Community\VC\Tools\MSVC\14.50.35717\include\xmemory
; Line 750
	mov	rax, -1
; Line 751
	ret	0
?max_size@?$_Default_allocator_traits@V?$allocator@D@std@@@std@@SA_KAEBV?$allocator@D@2@@Z ENDP ; std::_Default_allocator_traits<std::allocator<char> >::max_size
_TEXT	ENDS
; Function compile flags: /Ogtpy
;	COMDAT ?allocate@?$allocator@D@std@@QEAAPEAD_K@Z
_TEXT	SEGMENT
this$ = 48
_Count$ = 56
?allocate@?$allocator@D@std@@QEAAPEAD_K@Z PROC		; std::allocator<char>::allocate, COMDAT
; File C:\Program Files\Microsoft Visual Studio\18\Community\VC\Tools\MSVC\14.50.35717\include\xmemory
; Line 992
$LN23:
	sub	rsp, 40					; 00000028H
; Line 231
	test	rdx, rdx
	jne	SHORT $LN4@allocate
; Line 232
	xor	eax, eax
; Line 995
	add	rsp, 40					; 00000028H
	ret	0
$LN4@allocate:
; Line 255
	cmp	rdx, 4096				; 00001000H
	jb	SHORT $LN6@allocate
; Line 188
	lea	rcx, QWORD PTR [rdx+39]
; Line 189
	cmp	rcx, rdx
	jbe	SHORT $LN22@allocate
; Line 140
	call	??2@YAPEAX_K@Z				; operator new
	mov	rcx, rax
; Line 194
	test	rax, rax
	jne	SHORT $LN12@allocate
	mov	ecx, 5
	int	41					; 00000029H
$LN12@allocate:
; Line 195
	add	rax, 39					; 00000027H
	and	rax, -32				; ffffffffffffffe0H
; Line 196
	mov	QWORD PTR [rax-8], rcx
; Line 995
	add	rsp, 40					; 00000028H
	ret	0
$LN6@allocate:
; Line 140
	mov	rcx, rdx
; Line 995
	add	rsp, 40					; 00000028H
; Line 140
	jmp	??2@YAPEAX_K@Z				; operator new
$LN22@allocate:
; Line 190
	call	?_Throw_bad_array_new_length@std@@YAXXZ	; std::_Throw_bad_array_new_length
	int	3
$LN20@allocate:
?allocate@?$allocator@D@std@@QEAAPEAD_K@Z ENDP		; std::allocator<char>::allocate
_TEXT	ENDS
; Function compile flags: /Ogtpy
;	COMDAT ?deallocate@?$allocator@D@std@@QEAAXQEAD_K@Z
_TEXT	SEGMENT
this$ = 8
_Ptr$ = 16
_Count$ = 24
?deallocate@?$allocator@D@std@@QEAAXQEAD_K@Z PROC	; std::allocator<char>::deallocate, COMDAT
; File C:\Program Files\Microsoft Visual Studio\18\Community\VC\Tools\MSVC\14.50.35717\include\xmemory
; Line 288
	cmp	r8, 4096				; 00001000H
	jb	SHORT $LN15@deallocate
; Line 209
	mov	rcx, QWORD PTR [rdx-8]
; Line 223
	sub	rdx, rcx
	sub	rdx, 8
	cmp	rdx, 31
	ja	SHORT $LN11@deallocate
; Line 206
	add	r8, 39					; 00000027H
; Line 293
	mov	rdx, r8
	jmp	??3@YAXPEAX_K@Z				; operator delete
$LN11@deallocate:
; Line 223
	mov	ecx, 5
	int	41					; 00000029H
$LN15@deallocate:
; Line 989
	mov	rcx, rdx
; Line 293
	mov	rdx, r8
	jmp	??3@YAXPEAX_K@Z				; operator delete
$LN16@deallocate:
?deallocate@?$allocator@D@std@@QEAAXQEAD_K@Z ENDP	; std::allocator<char>::deallocate
_TEXT	ENDS
; Function compile flags: /Ogtpy
;	COMDAT ??0?$allocator@D@std@@QEAA@XZ
_TEXT	SEGMENT
this$ = 8
??0?$allocator@D@std@@QEAA@XZ PROC			; std::allocator<char>::allocator<char>, COMDAT
; File C:\Program Files\Microsoft Visual Studio\18\Community\VC\Tools\MSVC\14.50.35717\include\xmemory
; Line 978
	mov	rax, rcx
	ret	0
??0?$allocator@D@std@@QEAA@XZ ENDP			; std::allocator<char>::allocator<char>
_TEXT	ENDS
; Function compile flags: /Ogtpy
;	COMDAT ?_Xlen_string@std@@YAXXZ
_TEXT	SEGMENT
?_Xlen_string@std@@YAXXZ PROC				; std::_Xlen_string, COMDAT
; File C:\Program Files\Microsoft Visual Studio\18\Community\VC\Tools\MSVC\14.50.35717\include\xstring
; Line 573
$LN4:
	sub	rsp, 40					; 00000028H
; Line 574
	lea	rcx, OFFSET FLAT:??_C@_0BA@JFNIOLAK@string?5too?5long@
	call	?_Xlength_error@std@@YAXPEBD@Z		; std::_Xlength_error
	int	3
$LN3@Xlen_strin:
?_Xlen_string@std@@YAXXZ ENDP				; std::_Xlen_string
_TEXT	ENDS
; Function compile flags: /Ogtpy
;	COMDAT ?_Release@_Fake_proxy_ptr_impl@std@@QEAAXXZ
_TEXT	SEGMENT
this$ = 8
?_Release@_Fake_proxy_ptr_impl@std@@QEAAXXZ PROC	; std::_Fake_proxy_ptr_impl::_Release, COMDAT
; File C:\Program Files\Microsoft Visual Studio\18\Community\VC\Tools\MSVC\14.50.35717\include\xmemory
; Line 1465
	ret	0
?_Release@_Fake_proxy_ptr_impl@std@@QEAAXXZ ENDP	; std::_Fake_proxy_ptr_impl::_Release
_TEXT	ENDS
; Function compile flags: /Ogtpy
;	COMDAT ??0_Fake_proxy_ptr_impl@std@@QEAA@AEBU_Fake_allocator@1@AEBU_Container_base0@1@@Z
_TEXT	SEGMENT
this$ = 8
__formal$ = 16
__formal$ = 24
??0_Fake_proxy_ptr_impl@std@@QEAA@AEBU_Fake_allocator@1@AEBU_Container_base0@1@@Z PROC ; std::_Fake_proxy_ptr_impl::_Fake_proxy_ptr_impl, COMDAT
; File C:\Program Files\Microsoft Visual Studio\18\Community\VC\Tools\MSVC\14.50.35717\include\xmemory
; Line 1462
	mov	rax, rcx
	ret	0
??0_Fake_proxy_ptr_impl@std@@QEAA@AEBU_Fake_allocator@1@AEBU_Container_base0@1@@Z ENDP ; std::_Fake_proxy_ptr_impl::_Fake_proxy_ptr_impl
_TEXT	ENDS
; Function compile flags: /Ogtpy
;	COMDAT ?_Adopt@_Iterator_base0@std@@QEAAXPEBX@Z
_TEXT	SEGMENT
this$ = 8
__formal$ = 16
?_Adopt@_Iterator_base0@std@@QEAAXPEBX@Z PROC		; std::_Iterator_base0::_Adopt, COMDAT
; File C:\Program Files\Microsoft Visual Studio\18\Community\VC\Tools\MSVC\14.50.35717\include\xmemory
; Line 1203
	ret	0
?_Adopt@_Iterator_base0@std@@QEAAXPEBX@Z ENDP		; std::_Iterator_base0::_Adopt
_TEXT	ENDS
; Function compile flags: /Ogtpy
;	COMDAT ?_Alloc_proxy@_Container_base0@std@@QEAAXAEBU_Fake_allocator@2@@Z
_TEXT	SEGMENT
this$ = 8
__formal$ = 16
?_Alloc_proxy@_Container_base0@std@@QEAAXAEBU_Fake_allocator@2@@Z PROC ; std::_Container_base0::_Alloc_proxy, COMDAT
; File C:\Program Files\Microsoft Visual Studio\18\Community\VC\Tools\MSVC\14.50.35717\include\xmemory
; Line 1198
	ret	0
?_Alloc_proxy@_Container_base0@std@@QEAAXAEBU_Fake_allocator@2@@Z ENDP ; std::_Container_base0::_Alloc_proxy
_TEXT	ENDS
; Function compile flags: /Ogtpy
;	COMDAT ?_Orphan_all@_Container_base0@std@@QEAAXXZ
_TEXT	SEGMENT
this$ = 8
?_Orphan_all@_Container_base0@std@@QEAAXXZ PROC		; std::_Container_base0::_Orphan_all, COMDAT
; File C:\Program Files\Microsoft Visual Studio\18\Community\VC\Tools\MSVC\14.50.35717\include\xmemory
; Line 1196
	ret	0
?_Orphan_all@_Container_base0@std@@QEAAXXZ ENDP		; std::_Container_base0::_Orphan_all
_TEXT	ENDS
; Function compile flags: /Ogtpy
;	COMDAT ?_Adjust_manually_vector_aligned@std@@YAXAEAPEAXAEA_K@Z
_TEXT	SEGMENT
_Ptr$ = 8
_Bytes$ = 16
?_Adjust_manually_vector_aligned@std@@YAXAEAPEAXAEA_K@Z PROC ; std::_Adjust_manually_vector_aligned, COMDAT
; File C:\Program Files\Microsoft Visual Studio\18\Community\VC\Tools\MSVC\14.50.35717\include\xmemory
; Line 206
	add	QWORD PTR [rdx], 39			; 00000027H
; Line 208
	mov	rax, QWORD PTR [rcx]
; Line 209
	mov	rdx, QWORD PTR [rax-8]
; Line 223
	sub	rax, rdx
	sub	rax, 8
	cmp	rax, 31
	ja	SHORT $LN3@Adjust_man
; Line 224
	mov	QWORD PTR [rcx], rdx
; Line 225
	ret	0
$LN3@Adjust_man:
; Line 223
	mov	ecx, 5
	int	41					; 00000029H
$LN5@Adjust_man:
?_Adjust_manually_vector_aligned@std@@YAXAEAPEAXAEA_K@Z ENDP ; std::_Adjust_manually_vector_aligned
_TEXT	ENDS
; Function compile flags: /Ogtpy
;	COMDAT ?_Allocate@_Default_allocate_traits@std@@SAPEAX_K@Z
_TEXT	SEGMENT
_Bytes$ = 8
?_Allocate@_Default_allocate_traits@std@@SAPEAX_K@Z PROC ; std::_Default_allocate_traits::_Allocate, COMDAT
; File C:\Program Files\Microsoft Visual Studio\18\Community\VC\Tools\MSVC\14.50.35717\include\xmemory
; Line 140
	jmp	??2@YAPEAX_K@Z				; operator new
?_Allocate@_Default_allocate_traits@std@@SAPEAX_K@Z ENDP ; std::_Default_allocate_traits::_Allocate
_TEXT	ENDS
; Function compile flags: /Ogtpy
;	COMDAT ?_Throw_bad_array_new_length@std@@YAXXZ
_TEXT	SEGMENT
$T1 = 32
?_Throw_bad_array_new_length@std@@YAXXZ PROC		; std::_Throw_bad_array_new_length, COMDAT
; File C:\Program Files\Microsoft Visual Studio\18\Community\VC\Tools\MSVC\14.50.35717\include\xmemory
; Line 111
$LN4:
	sub	rsp, 72					; 00000048H
; Line 112
	lea	rcx, QWORD PTR $T1[rsp]
	call	??0bad_array_new_length@std@@QEAA@XZ	; std::bad_array_new_length::bad_array_new_length
	lea	rdx, OFFSET FLAT:_TI3?AVbad_array_new_length@std@@
	lea	rcx, QWORD PTR $T1[rsp]
	call	_CxxThrowException
	int	3
$LN3@Throw_bad_:
?_Throw_bad_array_new_length@std@@YAXXZ ENDP		; std::_Throw_bad_array_new_length
_TEXT	ENDS
; Function compile flags: /Ogtpy
;	COMDAT ??_Gbad_array_new_length@std@@UEAAPEAXI@Z
_TEXT	SEGMENT
this$ = 48
__flags$ = 56
??_Gbad_array_new_length@std@@UEAAPEAXI@Z PROC		; std::bad_array_new_length::`scalar deleting destructor', COMDAT
$LN22:
	mov	QWORD PTR [rsp+8], rbx
	push	rdi
	sub	rsp, 32					; 00000020H
; File C:\Program Files\Microsoft Visual Studio\18\Community\VC\Tools\MSVC\14.50.35717\include\vcruntime_exception.h
; Line 90
	lea	rax, OFFSET FLAT:??_7exception@std@@6B@
	mov	rdi, rcx
	mov	QWORD PTR [rcx], rax
	mov	ebx, edx
; Line 91
	add	rcx, 8
	call	__std_exception_destroy
	test	bl, 1
	je	SHORT $LN18@scalar
	mov	edx, 24
	mov	rcx, rdi
	call	??3@YAXPEAX_K@Z				; operator delete
$LN18@scalar:
	mov	rbx, QWORD PTR [rsp+48]
	mov	rax, rdi
	add	rsp, 32					; 00000020H
	pop	rdi
	ret	0
??_Gbad_array_new_length@std@@UEAAPEAXI@Z ENDP		; std::bad_array_new_length::`scalar deleting destructor'
_TEXT	ENDS
; Function compile flags: /Ogtpy
;	COMDAT ??0bad_array_new_length@std@@QEAA@AEBV01@@Z
_TEXT	SEGMENT
this$ = 48
__that$ = 56
??0bad_array_new_length@std@@QEAA@AEBV01@@Z PROC	; std::bad_array_new_length::bad_array_new_length, COMDAT
$LN14:
	push	rbx
	sub	rsp, 32					; 00000020H
	mov	rbx, rcx
	mov	rax, rdx
; File C:\Program Files\Microsoft Visual Studio\18\Community\VC\Tools\MSVC\14.50.35717\include\vcruntime_exception.h
; Line 73
	lea	rcx, OFFSET FLAT:??_7exception@std@@6B@
	xorps	xmm0, xmm0
; Line 72
	lea	rdx, QWORD PTR [rbx+8]
; Line 73
	mov	QWORD PTR [rbx], rcx
; Line 74
	lea	rcx, QWORD PTR [rax+8]
	movups	XMMWORD PTR [rdx], xmm0
	call	__std_exception_copy
	lea	rax, OFFSET FLAT:??_7bad_array_new_length@std@@6B@
	mov	QWORD PTR [rbx], rax
	mov	rax, rbx
	add	rsp, 32					; 00000020H
	pop	rbx
	ret	0
??0bad_array_new_length@std@@QEAA@AEBV01@@Z ENDP	; std::bad_array_new_length::bad_array_new_length
_TEXT	ENDS
; Function compile flags: /Ogtpy
;	COMDAT ??1bad_array_new_length@std@@UEAA@XZ
_TEXT	SEGMENT
this$ = 8
??1bad_array_new_length@std@@UEAA@XZ PROC		; std::bad_array_new_length::~bad_array_new_length, COMDAT
; File C:\Program Files\Microsoft Visual Studio\18\Community\VC\Tools\MSVC\14.50.35717\include\vcruntime_exception.h
; Line 90
	lea	rax, OFFSET FLAT:??_7exception@std@@6B@
	mov	QWORD PTR [rcx], rax
; Line 91
	add	rcx, 8
	jmp	__std_exception_destroy
??1bad_array_new_length@std@@UEAA@XZ ENDP		; std::bad_array_new_length::~bad_array_new_length
_TEXT	ENDS
; Function compile flags: /Ogtpy
;	COMDAT ??0bad_array_new_length@std@@QEAA@XZ
_TEXT	SEGMENT
this$ = 8
??0bad_array_new_length@std@@QEAA@XZ PROC		; std::bad_array_new_length::bad_array_new_length, COMDAT
; File C:\Program Files\Microsoft Visual Studio\18\Community\VC\Tools\MSVC\14.50.35717\include\vcruntime_exception.h
; Line 68
	lea	rax, OFFSET FLAT:??_C@_0BF@KINCDENJ@bad?5array?5new?5length@
	mov	QWORD PTR [rcx+16], 0
	mov	QWORD PTR [rcx+8], rax
; Line 144
	lea	rax, OFFSET FLAT:??_7bad_array_new_length@std@@6B@
	mov	QWORD PTR [rcx], rax
; Line 145
	mov	rax, rcx
	ret	0
??0bad_array_new_length@std@@QEAA@XZ ENDP		; std::bad_array_new_length::bad_array_new_length
_TEXT	ENDS
; Function compile flags: /Ogtpy
;	COMDAT ??_Gbad_alloc@std@@UEAAPEAXI@Z
_TEXT	SEGMENT
this$ = 48
__flags$ = 56
??_Gbad_alloc@std@@UEAAPEAXI@Z PROC			; std::bad_alloc::`scalar deleting destructor', COMDAT
$LN17:
	mov	QWORD PTR [rsp+8], rbx
	push	rdi
	sub	rsp, 32					; 00000020H
; File C:\Program Files\Microsoft Visual Studio\18\Community\VC\Tools\MSVC\14.50.35717\include\vcruntime_exception.h
; Line 90
	lea	rax, OFFSET FLAT:??_7exception@std@@6B@
	mov	rdi, rcx
	mov	QWORD PTR [rcx], rax
	mov	ebx, edx
; Line 91
	add	rcx, 8
	call	__std_exception_destroy
	test	bl, 1
	je	SHORT $LN13@scalar
	mov	edx, 24
	mov	rcx, rdi
	call	??3@YAXPEAX_K@Z				; operator delete
$LN13@scalar:
	mov	rbx, QWORD PTR [rsp+48]
	mov	rax, rdi
	add	rsp, 32					; 00000020H
	pop	rdi
	ret	0
??_Gbad_alloc@std@@UEAAPEAXI@Z ENDP			; std::bad_alloc::`scalar deleting destructor'
_TEXT	ENDS
; Function compile flags: /Ogtpy
;	COMDAT ??0bad_alloc@std@@QEAA@AEBV01@@Z
_TEXT	SEGMENT
this$ = 48
__that$ = 56
??0bad_alloc@std@@QEAA@AEBV01@@Z PROC			; std::bad_alloc::bad_alloc, COMDAT
$LN9:
	push	rbx
	sub	rsp, 32					; 00000020H
	mov	rbx, rcx
	mov	rax, rdx
; File C:\Program Files\Microsoft Visual Studio\18\Community\VC\Tools\MSVC\14.50.35717\include\vcruntime_exception.h
; Line 73
	lea	rcx, OFFSET FLAT:??_7exception@std@@6B@
	xorps	xmm0, xmm0
; Line 72
	lea	rdx, QWORD PTR [rbx+8]
; Line 73
	mov	QWORD PTR [rbx], rcx
; Line 74
	lea	rcx, QWORD PTR [rax+8]
	movups	XMMWORD PTR [rdx], xmm0
	call	__std_exception_copy
	lea	rax, OFFSET FLAT:??_7bad_alloc@std@@6B@
	mov	QWORD PTR [rbx], rax
	mov	rax, rbx
	add	rsp, 32					; 00000020H
	pop	rbx
	ret	0
??0bad_alloc@std@@QEAA@AEBV01@@Z ENDP			; std::bad_alloc::bad_alloc
_TEXT	ENDS
; Function compile flags: /Ogtpy
;	COMDAT ??1bad_alloc@std@@UEAA@XZ
_TEXT	SEGMENT
this$ = 8
??1bad_alloc@std@@UEAA@XZ PROC				; std::bad_alloc::~bad_alloc, COMDAT
; File C:\Program Files\Microsoft Visual Studio\18\Community\VC\Tools\MSVC\14.50.35717\include\vcruntime_exception.h
; Line 90
	lea	rax, OFFSET FLAT:??_7exception@std@@6B@
	mov	QWORD PTR [rcx], rax
; Line 91
	add	rcx, 8
	jmp	__std_exception_destroy
??1bad_alloc@std@@UEAA@XZ ENDP				; std::bad_alloc::~bad_alloc
_TEXT	ENDS
; Function compile flags: /Ogtpy
;	COMDAT ??0bad_alloc@std@@AEAA@QEBD@Z
_TEXT	SEGMENT
this$ = 8
_Message$ = 16
??0bad_alloc@std@@AEAA@QEBD@Z PROC			; std::bad_alloc::bad_alloc, COMDAT
; File C:\Program Files\Microsoft Visual Studio\18\Community\VC\Tools\MSVC\14.50.35717\include\vcruntime_exception.h
; Line 133
	lea	rax, OFFSET FLAT:??_7bad_alloc@std@@6B@
; Line 66
	mov	QWORD PTR [rcx+16], 0
; Line 133
	mov	QWORD PTR [rcx], rax
; Line 134
	mov	rax, rcx
; Line 68
	mov	QWORD PTR [rcx+8], rdx
; Line 134
	ret	0
??0bad_alloc@std@@AEAA@QEBD@Z ENDP			; std::bad_alloc::bad_alloc
_TEXT	ENDS
; Function compile flags: /Ogtpy
;	COMDAT ??_Gexception@std@@UEAAPEAXI@Z
_TEXT	SEGMENT
this$ = 48
__flags$ = 56
??_Gexception@std@@UEAAPEAXI@Z PROC			; std::exception::`scalar deleting destructor', COMDAT
$LN12:
	mov	QWORD PTR [rsp+8], rbx
	push	rdi
	sub	rsp, 32					; 00000020H
; File C:\Program Files\Microsoft Visual Studio\18\Community\VC\Tools\MSVC\14.50.35717\include\vcruntime_exception.h
; Line 90
	lea	rax, OFFSET FLAT:??_7exception@std@@6B@
	mov	rdi, rcx
	mov	QWORD PTR [rcx], rax
	mov	ebx, edx
; Line 91
	add	rcx, 8
	call	__std_exception_destroy
	test	bl, 1
	je	SHORT $LN8@scalar
	mov	edx, 24
	mov	rcx, rdi
	call	??3@YAXPEAX_K@Z				; operator delete
$LN8@scalar:
	mov	rbx, QWORD PTR [rsp+48]
	mov	rax, rdi
	add	rsp, 32					; 00000020H
	pop	rdi
	ret	0
??_Gexception@std@@UEAAPEAXI@Z ENDP			; std::exception::`scalar deleting destructor'
_TEXT	ENDS
; Function compile flags: /Ogtpy
;	COMDAT ?what@exception@std@@UEBAPEBDXZ
_TEXT	SEGMENT
this$ = 8
?what@exception@std@@UEBAPEBDXZ PROC			; std::exception::what, COMDAT
; File C:\Program Files\Microsoft Visual Studio\18\Community\VC\Tools\MSVC\14.50.35717\include\vcruntime_exception.h
; Line 96
	mov	rdx, QWORD PTR [rcx+8]
	lea	rax, OFFSET FLAT:??_C@_0BC@EOODALEL@Unknown?5exception@
	test	rdx, rdx
	cmovne	rax, rdx
; Line 97
	ret	0
?what@exception@std@@UEBAPEBDXZ ENDP			; std::exception::what
_TEXT	ENDS
; Function compile flags: /Ogtpy
;	COMDAT ??1exception@std@@UEAA@XZ
_TEXT	SEGMENT
this$ = 8
??1exception@std@@UEAA@XZ PROC				; std::exception::~exception, COMDAT
; File C:\Program Files\Microsoft Visual Studio\18\Community\VC\Tools\MSVC\14.50.35717\include\vcruntime_exception.h
; Line 90
	lea	rax, OFFSET FLAT:??_7exception@std@@6B@
	mov	QWORD PTR [rcx], rax
; Line 91
	add	rcx, 8
	jmp	__std_exception_destroy
??1exception@std@@UEAA@XZ ENDP				; std::exception::~exception
_TEXT	ENDS
; Function compile flags: /Ogtpy
;	COMDAT ??0exception@std@@QEAA@AEBV01@@Z
_TEXT	SEGMENT
this$ = 48
_Other$ = 56
??0exception@std@@QEAA@AEBV01@@Z PROC			; std::exception::exception, COMDAT
; File C:\Program Files\Microsoft Visual Studio\18\Community\VC\Tools\MSVC\14.50.35717\include\vcruntime_exception.h
; Line 73
$LN6:
	push	rbx
	sub	rsp, 32					; 00000020H
	mov	rbx, rcx
	mov	rax, rdx
	lea	rcx, OFFSET FLAT:??_7exception@std@@6B@
	xorps	xmm0, xmm0
	lea	rdx, QWORD PTR [rbx+8]
	mov	QWORD PTR [rbx], rcx
; Line 74
	lea	rcx, QWORD PTR [rax+8]
	movups	XMMWORD PTR [rdx], xmm0
	call	__std_exception_copy
; Line 75
	mov	rax, rbx
	add	rsp, 32					; 00000020H
	pop	rbx
	ret	0
??0exception@std@@QEAA@AEBV01@@Z ENDP			; std::exception::exception
_TEXT	ENDS
; Function compile flags: /Ogtpy
;	COMDAT ??0exception@std@@QEAA@QEBDH@Z
_TEXT	SEGMENT
this$ = 8
_Message$ = 16
__formal$ = 24
??0exception@std@@QEAA@QEBDH@Z PROC			; std::exception::exception, COMDAT
; File C:\Program Files\Microsoft Visual Studio\18\Community\VC\Tools\MSVC\14.50.35717\include\vcruntime_exception.h
; Line 67
	lea	rax, OFFSET FLAT:??_7exception@std@@6B@
	mov	QWORD PTR [rcx], rax
; Line 69
	mov	rax, rcx
	mov	QWORD PTR [rcx+16], 0
	mov	QWORD PTR [rcx+8], rdx
	ret	0
??0exception@std@@QEAA@QEBDH@Z ENDP			; std::exception::exception
_TEXT	ENDS
; Function compile flags: /Ogtpy
;	COMDAT ??$min@_K@std@@YAAEB_KAEB_K0@Z
_TEXT	SEGMENT
_Left$ = 8
_Right$ = 16
??$min@_K@std@@YAAEB_KAEB_K0@Z PROC			; std::min<unsigned __int64>, COMDAT
; File C:\Program Files\Microsoft Visual Studio\18\Community\VC\Tools\MSVC\14.50.35717\include\utility
; Line 101
	mov	rax, QWORD PTR [rcx]
	cmp	QWORD PTR [rdx], rax
	cmovb	rcx, rdx
	mov	rax, rcx
; Line 102
	ret	0
??$min@_K@std@@YAAEB_KAEB_K0@Z ENDP			; std::min<unsigned __int64>
_TEXT	ENDS
; Function compile flags: /Ogtpy
;	COMDAT ?assign@?$_Narrow_char_traits@DH@std@@SAXAEADAEBD@Z
_TEXT	SEGMENT
_Left$ = 8
_Right$ = 16
?assign@?$_Narrow_char_traits@DH@std@@SAXAEADAEBD@Z PROC ; std::_Narrow_char_traits<char,int>::assign, COMDAT
; File C:\Program Files\Microsoft Visual Studio\18\Community\VC\Tools\MSVC\14.50.35717\include\__msvc_string_view.hpp
; Line 571
	movzx	eax, BYTE PTR [rdx]
	mov	BYTE PTR [rcx], al
; Line 572
	ret	0
?assign@?$_Narrow_char_traits@DH@std@@SAXAEADAEBD@Z ENDP ; std::_Narrow_char_traits<char,int>::assign
_TEXT	ENDS
; Function compile flags: /Ogtpy
;	COMDAT ?length@?$_Narrow_char_traits@DH@std@@SA_KQEBD@Z
_TEXT	SEGMENT
_First$ = 8
?length@?$_Narrow_char_traits@DH@std@@SA_KQEBD@Z PROC	; std::_Narrow_char_traits<char,int>::length, COMDAT
; File C:\Program Files\Microsoft Visual Studio\18\Community\VC\Tools\MSVC\14.50.35717\include\__msvc_string_view.hpp
; Line 530
	jmp	strlen
?length@?$_Narrow_char_traits@DH@std@@SA_KQEBD@Z ENDP	; std::_Narrow_char_traits<char,int>::length
_TEXT	ENDS
; Function compile flags: /Ogtpy
;	COMDAT ?compare@?$_Narrow_char_traits@DH@std@@SAHQEBD0_K@Z
_TEXT	SEGMENT
_First1$ = 8
_First2$ = 16
_Count$ = 24
?compare@?$_Narrow_char_traits@DH@std@@SAHQEBD0_K@Z PROC ; std::_Narrow_char_traits<char,int>::compare, COMDAT
; File C:\Program Files\Microsoft Visual Studio\18\Community\VC\Tools\MSVC\14.50.35717\include\__msvc_string_view.hpp
; Line 511
	jmp	memcmp
?compare@?$_Narrow_char_traits@DH@std@@SAHQEBD0_K@Z ENDP ; std::_Narrow_char_traits<char,int>::compare
_TEXT	ENDS
; Function compile flags: /Ogtpy
;	COMDAT ?copy@?$_Char_traits@DH@std@@SAPEADQEADQEBD_K@Z
_TEXT	SEGMENT
_First1$ = 48
_First2$ = 56
_Count$ = 64
?copy@?$_Char_traits@DH@std@@SAPEADQEADQEBD_K@Z PROC	; std::_Char_traits<char,int>::copy, COMDAT
; File C:\Program Files\Microsoft Visual Studio\18\Community\VC\Tools\MSVC\14.50.35717\include\__msvc_string_view.hpp
; Line 184
$LN20:
	push	rbx
	sub	rsp, 32					; 00000020H
	mov	rbx, rcx
; Line 200
	call	memcpy
; Line 203
	mov	rax, rbx
; Line 204
	add	rsp, 32					; 00000020H
	pop	rbx
	ret	0
?copy@?$_Char_traits@DH@std@@SAPEADQEADQEBD_K@Z ENDP	; std::_Char_traits<char,int>::copy
_TEXT	ENDS
; Function compile flags: /Ogtpy
;	COMDAT wmemcpy
_TEXT	SEGMENT
_S1$ = 8
_S2$ = 16
_N$ = 24
wmemcpy	PROC						; COMDAT
; File C:\Program Files (x86)\Windows Kits\10\Include\10.0.26100.0\ucrt\wchar.h
; Line 494
	add	r8, r8
	jmp	memcpy
wmemcpy	ENDP
_TEXT	ENDS
; Function compile flags: /Ogtpy
;	COMDAT ?is_constant_evaluated@std@@YA_NXZ
_TEXT	SEGMENT
?is_constant_evaluated@std@@YA_NXZ PROC			; std::is_constant_evaluated, COMDAT
; File C:\Program Files\Microsoft Visual Studio\18\Community\VC\Tools\MSVC\14.50.35717\include\xtr1common
; Line 183
	xor	al, al
; Line 184
	ret	0
?is_constant_evaluated@std@@YA_NXZ ENDP			; std::is_constant_evaluated
_TEXT	ENDS
; Function compile flags: /Ogtpy
;	COMDAT ??2@YAPEAX_KPEAX@Z
_TEXT	SEGMENT
_Size$ = 8
_Where$ = 16
??2@YAPEAX_KPEAX@Z PROC					; operator new, COMDAT
; File C:\Program Files\Microsoft Visual Studio\18\Community\VC\Tools\MSVC\14.50.35717\include\vcruntime_new.h
; Line 166
	mov	rax, rdx
; Line 167
	ret	0
??2@YAPEAX_KPEAX@Z ENDP					; operator new
_TEXT	ENDS
END
